

Microchip Technology PIC LITE Macro Assembler V1.45 build -152302408 
                                                                                               Thu Jul 26 19:31:38 2018

Microchip Technology Omniscient Code Generator v1.45 (Free mode) build 201711160504
     1                           	processor	16F1526
     2                           	opt	pw 120
     3                           	opt	lm
     4                           	psect	idataBANK0,global,class=CODE,delta=2
     5                           	psect	idataBANK1,global,class=CODE,delta=2
     6                           	psect	idataBANK2,global,class=CODE,delta=2
     7                           	psect	idataBANK3,global,class=CODE,delta=2
     8                           	psect	stringtext1,global,class=STRCODE,delta=2
     9                           	psect	stringtext2,global,class=STRCODE,delta=2
    10                           	psect	cinit,global,class=CODE,merge=1,delta=2
    11                           	psect	bssCOMMON,global,class=COMMON,space=1,delta=1
    12                           	psect	bssBANK0,global,class=BANK0,space=1,delta=1
    13                           	psect	dataBANK0,global,class=BANK0,space=1,delta=1
    14                           	psect	bssBANK1,global,class=BANK1,space=1,delta=1
    15                           	psect	dataBANK1,global,class=BANK1,space=1,delta=1
    16                           	psect	dataBANK2,global,class=BANK2,space=1,delta=1
    17                           	psect	dataBANK3,global,class=BANK3,space=1,delta=1
    18                           	psect	inittext,global,class=CODE,delta=2
    19                           	psect	clrtext,global,class=CODE,delta=2
    20                           	psect	cstackBANK2,global,class=BANK2,space=1,delta=1
    21                           	psect	cstackCOMMON,global,class=COMMON,space=1,delta=1
    22                           	psect	cstackBANK0,global,class=BANK0,space=1,delta=1
    23                           	psect	maintext,global,class=CODE,merge=1,split=1,delta=2
    24                           	psect	text1,local,class=CODE,merge=1,delta=2
    25                           	psect	text2,local,class=CODE,merge=1,delta=2
    26                           	psect	text3,local,class=CODE,merge=1,delta=2
    27                           	psect	text4,local,class=CODE,merge=1,delta=2
    28                           	psect	text5,local,class=CODE,merge=1,delta=2
    29                           	psect	text6,local,class=CODE,merge=1,delta=2
    30                           	psect	text7,local,class=CODE,merge=1,delta=2
    31                           	psect	text8,local,class=CODE,merge=1,delta=2
    32                           	psect	text9,local,class=CODE,merge=1,delta=2
    33                           	psect	text10,local,class=CODE,merge=1,delta=2
    34                           	psect	text11,local,class=CODE,merge=1,delta=2
    35                           	psect	text12,local,class=CODE,merge=1,delta=2
    36                           	psect	text13,local,class=CODE,merge=1,delta=2
    37                           	psect	text14,local,class=CODE,merge=1,delta=2
    38                           	psect	text15,local,class=CODE,merge=1,delta=2
    39                           	psect	text16,local,class=CODE,merge=1,delta=2,group=1
    40                           	psect	text17,local,class=CODE,merge=1,delta=2,group=1
    41                           	psect	text18,local,class=CODE,merge=1,delta=2,group=1
    42                           	psect	intentry,global,class=CODE,delta=2
    43                           	psect	swtext1,local,class=CONST,delta=2
    44                           	psect	swtext2,local,class=CONST,delta=2
    45                           	psect	swtext3,local,class=CONST,delta=2
    46                           	psect	swtext4,local,class=CONST,delta=2
    47                           	psect	swtext5,local,class=CONST,delta=2
    48                           	psect	swtext6,local,class=CONST,delta=2
    49                           	psect	swtext7,local,class=CONST,delta=2
    50                           	psect	swtext8,local,class=CONST,delta=2
    51                           	psect	swtext9,local,class=CONST,delta=2
    52                           	psect	swtext10,local,class=CONST,delta=2
    53                           	psect	swtext11,local,class=CONST,delta=2
    54                           	psect	swtext12,local,class=CONST,delta=2
    55                           	psect	swtext13,local,class=CONST,delta=2
    56                           	psect	swtext14,local,class=CONST,delta=2
    57                           	psect	swtext15,local,class=CONST,delta=2
    58                           	psect	swtext16,local,class=CONST,delta=2
    59                           	psect	swtext17,local,class=CONST,delta=2
    60                           	psect	swtext18,local,class=CONST,delta=2
    61                           	psect	swtext19,local,class=CONST,delta=2
    62                           	psect	swtext20,local,class=CONST,delta=2
    63                           	psect	swtext21,local,class=CONST,delta=2
    64                           	psect	swtext22,local,class=CONST,delta=2
    65                           	dabs	1,0x7E,2
    66  0000                     
    67                           ; Version 1.45
    68                           ; Generated 16/11/2017 GMT
    69                           ; 
    70                           ; Copyright © 2017, Microchip Technology Inc. and its subsidiaries ("Microchip")
    71                           ; All rights reserved.
    72                           ; 
    73                           ; This software is developed by Microchip Technology Inc. and its subsidiaries ("Microch
      +                          ip").
    74                           ; 
    75                           ; Redistribution and use in source and binary forms, with or without modification, are
    76                           ; permitted provided that the following conditions are met:
    77                           ; 
    78                           ;     1. Redistributions of source code must retain the above copyright notice, this lis
      +                          t of
    79                           ;        conditions and the following disclaimer.
    80                           ; 
    81                           ;     2. Redistributions in binary form must reproduce the above copyright notice, this 
      +                          list
    82                           ;        of conditions and the following disclaimer in the documentation and/or other
    83                           ;        materials provided with the distribution.
    84                           ; 
    85                           ;     3. Microchip's name may not be used to endorse or promote products derived from th
      +                          is
    86                           ;        software without specific prior written permission.
    87                           ; 
    88                           ; THIS SOFTWARE IS PROVIDED BY MICROCHIP "AS IS" AND ANY EXPRESS OR IMPLIED WARRANTIES,
    89                           ; INCLUDING, BUT NOT LIMITED TO, THE IMPLIED WARRANTIES OF MERCHANTABILITY AND FITNESS F
      +                          OR
    90                           ; PURPOSE ARE DISCLAIMED.  IN NO EVENT SHALL MICROCHIP BE LIABLE FOR ANY DIRECT, INDIREC
      +                          T,
    91                           ; INCIDENTAL, SPECIAL, EXEMPLARY, OR CONSEQUENTIAL DAMAGES (INCLUDING BUT NOT LIMITED TO
    92                           ; PROCUREMENT OF SUBSTITUTE GOODS OR SERVICES; LOSS OF USE, DATA OR PROFITS; OR BUSINESS
    93                           ; INTERRUPTION) HOWSOEVER CAUSED AND ON ANY THEORY OF LIABILITY, WHETHER IN CONTRACT, ST
      +                          RICT
    94                           ; LIABILITY, OR TORT (INCLUDING NEGLIGENCE OR OTHERWISE) ARISING IN ANY WAY OUT OF THE U
      +                          SE OF
    95                           ; THIS SOFTWARE, EVEN IF ADVISED OF THE POSSIBILITY OF SUCH DAMAGE.
    96                           ; 
    97                           ; 
    98                           ; Code-generator required, PIC16F1526 Definitions
    99                           ; 
   100                           ; SFR Addresses
   101  0000                     	;# 
   102  0001                     	;# 
   103  0002                     	;# 
   104  0003                     	;# 
   105  0004                     	;# 
   106  0005                     	;# 
   107  0006                     	;# 
   108  0007                     	;# 
   109  0008                     	;# 
   110  0009                     	;# 
   111  000A                     	;# 
   112  000B                     	;# 
   113  000C                     	;# 
   114  000D                     	;# 
   115  000E                     	;# 
   116  000F                     	;# 
   117  0010                     	;# 
   118  0011                     	;# 
   119  0012                     	;# 
   120  0013                     	;# 
   121  0014                     	;# 
   122  0015                     	;# 
   123  0016                     	;# 
   124  0016                     	;# 
   125  0017                     	;# 
   126  0018                     	;# 
   127  0019                     	;# 
   128  001A                     	;# 
   129  001B                     	;# 
   130  001C                     	;# 
   131  008C                     	;# 
   132  008D                     	;# 
   133  008E                     	;# 
   134  008F                     	;# 
   135  0090                     	;# 
   136  0091                     	;# 
   137  0092                     	;# 
   138  0093                     	;# 
   139  0094                     	;# 
   140  0095                     	;# 
   141  0096                     	;# 
   142  0097                     	;# 
   143  0099                     	;# 
   144  009A                     	;# 
   145  009B                     	;# 
   146  009B                     	;# 
   147  009C                     	;# 
   148  009D                     	;# 
   149  009E                     	;# 
   150  010C                     	;# 
   151  010D                     	;# 
   152  010E                     	;# 
   153  010F                     	;# 
   154  0110                     	;# 
   155  0116                     	;# 
   156  0117                     	;# 
   157  011D                     	;# 
   158  018C                     	;# 
   159  018D                     	;# 
   160  018F                     	;# 
   161  0190                     	;# 
   162  0191                     	;# 
   163  0191                     	;# 
   164  0192                     	;# 
   165  0193                     	;# 
   166  0193                     	;# 
   167  0194                     	;# 
   168  0195                     	;# 
   169  0196                     	;# 
   170  0197                     	;# 
   171  0199                     	;# 
   172  0199                     	;# 
   173  0199                     	;# 
   174  019A                     	;# 
   175  019A                     	;# 
   176  019A                     	;# 
   177  019B                     	;# 
   178  019B                     	;# 
   179  019B                     	;# 
   180  019B                     	;# 
   181  019B                     	;# 
   182  019C                     	;# 
   183  019C                     	;# 
   184  019C                     	;# 
   185  019D                     	;# 
   186  019D                     	;# 
   187  019D                     	;# 
   188  019E                     	;# 
   189  019E                     	;# 
   190  019E                     	;# 
   191  019F                     	;# 
   192  019F                     	;# 
   193  019F                     	;# 
   194  020D                     	;# 
   195  020F                     	;# 
   196  0210                     	;# 
   197  0211                     	;# 
   198  0211                     	;# 
   199  0212                     	;# 
   200  0212                     	;# 
   201  0213                     	;# 
   202  0213                     	;# 
   203  0214                     	;# 
   204  0214                     	;# 
   205  0215                     	;# 
   206  0215                     	;# 
   207  0215                     	;# 
   208  0216                     	;# 
   209  0216                     	;# 
   210  0217                     	;# 
   211  0217                     	;# 
   212  0219                     	;# 
   213  021A                     	;# 
   214  021B                     	;# 
   215  021C                     	;# 
   216  021D                     	;# 
   217  021E                     	;# 
   218  021F                     	;# 
   219  028C                     	;# 
   220  028D                     	;# 
   221  0291                     	;# 
   222  0291                     	;# 
   223  0292                     	;# 
   224  0293                     	;# 
   225  0298                     	;# 
   226  0298                     	;# 
   227  0299                     	;# 
   228  029A                     	;# 
   229  029D                     	;# 
   230  029E                     	;# 
   231  029F                     	;# 
   232  030C                     	;# 
   233  030D                     	;# 
   234  0311                     	;# 
   235  0311                     	;# 
   236  0312                     	;# 
   237  0313                     	;# 
   238  0318                     	;# 
   239  0318                     	;# 
   240  0319                     	;# 
   241  031A                     	;# 
   242  031C                     	;# 
   243  031C                     	;# 
   244  031D                     	;# 
   245  031E                     	;# 
   246  038C                     	;# 
   247  038D                     	;# 
   248  0394                     	;# 
   249  0395                     	;# 
   250  0396                     	;# 
   251  040C                     	;# 
   252  040D                     	;# 
   253  0411                     	;# 
   254  0411                     	;# 
   255  0412                     	;# 
   256  0413                     	;# 
   257  0414                     	;# 
   258  0415                     	;# 
   259  0416                     	;# 
   260  0417                     	;# 
   261  0418                     	;# 
   262  0418                     	;# 
   263  0419                     	;# 
   264  041A                     	;# 
   265  041B                     	;# 
   266  041C                     	;# 
   267  041D                     	;# 
   268  041E                     	;# 
   269  048D                     	;# 
   270  0491                     	;# 
   271  0491                     	;# 
   272  0492                     	;# 
   273  0492                     	;# 
   274  0493                     	;# 
   275  0493                     	;# 
   276  0493                     	;# 
   277  0494                     	;# 
   278  0494                     	;# 
   279  0495                     	;# 
   280  0495                     	;# 
   281  0496                     	;# 
   282  0496                     	;# 
   283  0497                     	;# 
   284  0497                     	;# 
   285  0595                     	;# 
   286  0596                     	;# 
   287  0597                     	;# 
   288  059C                     	;# 
   289  059D                     	;# 
   290  059E                     	;# 
   291  0611                     	;# 
   292  0611                     	;# 
   293  0612                     	;# 
   294  0613                     	;# 
   295  0614                     	;# 
   296  0614                     	;# 
   297  0615                     	;# 
   298  0616                     	;# 
   299  0617                     	;# 
   300  0617                     	;# 
   301  0618                     	;# 
   302  0619                     	;# 
   303  061A                     	;# 
   304  061A                     	;# 
   305  061B                     	;# 
   306  061C                     	;# 
   307  061D                     	;# 
   308  061D                     	;# 
   309  061E                     	;# 
   310  061F                     	;# 
   311  0FE4                     	;# 
   312  0FE5                     	;# 
   313  0FE6                     	;# 
   314  0FE7                     	;# 
   315  0FE8                     	;# 
   316  0FE9                     	;# 
   317  0FEA                     	;# 
   318  0FEB                     	;# 
   319  0FED                     	;# 
   320  0FEE                     	;# 
   321  0FEF                     	;# 
   322                           
   323                           	psect	idataBANK0
   324  0002                     __pidataBANK0:	
   325                           
   326                           ;initializer for _man
   327  0002  3401               	retlw	1
   328  0003  3400               	retlw	0
   329                           
   330                           	psect	idataBANK1
   331  0B8B                     __pidataBANK1:	
   332                           
   333                           ;initializer for _name
   334  0B8B  3461               	retlw	97
   335  0B8C  3400               	retlw	0
   336  0B8D  3400               	retlw	0
   337  0B8E  3400               	retlw	0
   338  0B8F  3400               	retlw	0
   339  0B90  3400               	retlw	0
   340  0B91  3400               	retlw	0
   341  0B92  3400               	retlw	0
   342  0B93  3400               	retlw	0
   343  0B94  3400               	retlw	0
   344  0B95  3400               	retlw	0
   345  0B96  3400               	retlw	0
   346  0B97  3400               	retlw	0
   347  0B98  3400               	retlw	0
   348  0B99  3400               	retlw	0
   349  0B9A  3400               	retlw	0
   350  0B9B  3400               	retlw	0
   351  0B9C  3400               	retlw	0
   352  0B9D  3400               	retlw	0
   353  0B9E  3400               	retlw	0
   354  0B9F  3400               	retlw	0
   355  0BA0  3400               	retlw	0
   356  0BA1  3400               	retlw	0
   357  0BA2  3400               	retlw	0
   358  0BA3  3400               	retlw	0
   359  0BA4  3400               	retlw	0
   360  0BA5  3400               	retlw	0
   361  0BA6  3400               	retlw	0
   362  0BA7  3400               	retlw	0
   363  0BA8  3400               	retlw	0
   364  0BA9  3400               	retlw	0
   365  0BAA  3400               	retlw	0
   366  0BAB  3400               	retlw	0
   367  0BAC  3400               	retlw	0
   368  0BAD  3400               	retlw	0
   369  0BAE  3400               	retlw	0
   370                           
   371                           ;initializer for _st
   372  0BAF  3454               	retlw	84
   373  0BB0  3430               	retlw	48
   374  0BB1  3430               	retlw	48
   375  0BB2  3430               	retlw	48
   376  0BB3  3430               	retlw	48
   377  0BB4  3430               	retlw	48
   378  0BB5  3430               	retlw	48
   379  0BB6  3430               	retlw	48
   380  0BB7  3430               	retlw	48
   381  0BB8  3430               	retlw	48
   382  0BB9  3430               	retlw	48
   383  0BBA  3430               	retlw	48
   384  0BBB  3430               	retlw	48
   385  0BBC  3430               	retlw	48
   386  0BBD  3430               	retlw	48
   387  0BBE  3430               	retlw	48
   388  0BBF  3430               	retlw	48
   389  0BC0  3430               	retlw	48
   390  0BC1  3430               	retlw	48
   391  0BC2  3430               	retlw	48
   392  0BC3  3430               	retlw	48
   393  0BC4  3430               	retlw	48
   394  0BC5  3400               	retlw	0
   395  0BC6  3400               	retlw	0
   396  0BC7  3400               	retlw	0
   397  0BC8  3400               	retlw	0
   398                           
   399                           	psect	idataBANK2
   400  07D1                     __pidataBANK2:	
   401                           
   402                           ;initializer for _copy
   403  07D1  3424               	retlw	36
   404  07D2  3400               	retlw	0
   405  07D3  3400               	retlw	0
   406  07D4  3400               	retlw	0
   407  07D5  3400               	retlw	0
   408  07D6  3400               	retlw	0
   409  07D7  3400               	retlw	0
   410  07D8  3400               	retlw	0
   411  07D9  3400               	retlw	0
   412  07DA  3400               	retlw	0
   413  07DB  3400               	retlw	0
   414  07DC  3400               	retlw	0
   415  07DD  3400               	retlw	0
   416  07DE  3400               	retlw	0
   417  07DF  3400               	retlw	0
   418  07E0  3400               	retlw	0
   419  07E1  3400               	retlw	0
   420  07E2  3400               	retlw	0
   421  07E3  3400               	retlw	0
   422  07E4  3400               	retlw	0
   423  07E5  3400               	retlw	0
   424  07E6  3400               	retlw	0
   425  07E7  3400               	retlw	0
   426  07E8  3400               	retlw	0
   427  07E9  3400               	retlw	0
   428  07EA  3400               	retlw	0
   429  07EB  3400               	retlw	0
   430  07EC  3400               	retlw	0
   431  07ED  3400               	retlw	0
   432  07EE  3400               	retlw	0
   433  07EF  3400               	retlw	0
   434  07F0  3400               	retlw	0
   435  07F1  3400               	retlw	0
   436  07F2  3400               	retlw	0
   437  07F3  3400               	retlw	0
   438  07F4  3400               	retlw	0
   439                           
   440                           	psect	idataBANK3
   441  0BC9                     __pidataBANK3:	
   442                           
   443                           ;initializer for _child_LOCK
   444  0BC9  3400               	retlw	low (STR_1| (0+32768))
   445  0BCA  3490               	retlw	high (STR_1| (0+32768))
   446  0BCB  3400               	retlw	0
   447  0BCC  3400               	retlw	0
   448  0BCD  3400               	retlw	0
   449  0BCE  3400               	retlw	0
   450  0BCF  3400               	retlw	0
   451  0BD0  3400               	retlw	0
   452  0BD1  3400               	retlw	0
   453  0BD2  3400               	retlw	0
   454  0BD3  3400               	retlw	0
   455  0BD4  3400               	retlw	0
   456  0BD5  3400               	retlw	0
   457  0BD6  3400               	retlw	0
   458  0BD7  3400               	retlw	0
   459  0BD8  3400               	retlw	0
   460  0BD9  3400               	retlw	0
   461  0BDA  3400               	retlw	0
   462  0BDB  3400               	retlw	0
   463  0BDC  3400               	retlw	0
   464  0BDD  3400               	retlw	0
   465  0BDE  3400               	retlw	0
   466  0BDF  3400               	retlw	0
   467  0BE0  3400               	retlw	0
   468  0BE1  3400               	retlw	0
   469  0BE2  3400               	retlw	0
   470  0BE3  3400               	retlw	0
   471  0BE4  3400               	retlw	0
   472  0BE5  3400               	retlw	0
   473  0BE6  3400               	retlw	0
   474  0BE7  3400               	retlw	0
   475  0BE8  3400               	retlw	0
   476  0BE9  3400               	retlw	0
   477  0BEA  3400               	retlw	0
   478  0BEB  3400               	retlw	0
   479  0BEC  3400               	retlw	0
   480  0BED  3400               	retlw	0
   481  0BEE  3400               	retlw	0
   482  0BEF  3400               	retlw	0
   483  0BF0  3400               	retlw	0
   484  0BF1  3400               	retlw	0
   485  0BF2  3400               	retlw	0
   486  0BF3  3400               	retlw	0
   487  0BF4  3400               	retlw	0
   488  0BF5  3400               	retlw	0
   489  0BF6  3400               	retlw	0
   490  0BF7  3400               	retlw	0
   491  0BF8  3400               	retlw	0
   492  0BF9  3400               	retlw	0
   493  0BFA  3400               	retlw	0
   494  0BFB  3400               	retlw	0
   495  0BFC  3400               	retlw	0
   496  0BFD  3400               	retlw	0
   497  0BFE  3400               	retlw	0
   498  0BFF  3400               	retlw	0
   499  0C00  3400               	retlw	0
   500  0C01  3400               	retlw	0
   501  0C02  3400               	retlw	0
   502  0C03  3400               	retlw	0
   503  0C04  3400               	retlw	0
   504  0C05  3400               	retlw	0
   505  0C06  3400               	retlw	0
   506  0C07  3400               	retlw	0
   507  0C08  3400               	retlw	0
   508  001A                     _TMR2	set	26
   509  001C                     _T2CON	set	28
   510  0019                     _T1GCON	set	25
   511  0018                     _T1CON	set	24
   512  0016                     _TMR1L	set	22
   513  0017                     _TMR1H	set	23
   514  0014                     _PIR4bits	set	20
   515  0013                     _PIR3bits	set	19
   516  001B                     _PR2	set	27
   517  0018                     _T1CONbits	set	24
   518  001C                     _T2CONbits	set	28
   519  0011                     _PIR1bits	set	17
   520  005E                     _PEIE	set	94
   521  005F                     _GIE	set	95
   522  0065                     _RA5	set	101
   523  0084                     _RE4	set	132
   524  0082                     _RE2	set	130
   525  0081                     _RE1	set	129
   526  0080                     _RE0	set	128
   527  0085                     _RE5	set	133
   528  0063                     _RA3	set	99
   529  008D                     _RCIF	set	141
   530  008E                     _TRISCbits	set	142
   531  008C                     _TRISAbits	set	140
   532  0090                     _TRISEbits	set	144
   533  0094                     _PIE4bits	set	148
   534  0093                     _PIE3bits	set	147
   535  0091                     _PIE1bits	set	145
   536  018C                     _ANSELA	set	396
   537  0190                     _ANSELE	set	400
   538  019C                     _SP1BRGH	set	412
   539  019B                     _SP1BRGL	set	411
   540  019E                     _TX1STA	set	414
   541  019D                     _RC1STA	set	413
   542  019F                     _BAUD1CON	set	415
   543  019E                     _TX1STAbits	set	414
   544  0199                     _RC1REG	set	409
   545  019A                     _TX1REG	set	410
   546  019D                     _RC1STAbits	set	413
   547  0210                     _WPUE	set	528
   548  0291                     _CCPR1L	set	657
   549  0292                     _CCPR1H	set	658
   550  0293                     _CCP1CON	set	659
   551  1467                     _RF7	set	5223
   552  1465                     _RF5	set	5221
   553  1463                     _RF3	set	5219
   554  1462                     _RF2	set	5218
   555  1461                     _RF1	set	5217
   556  1460                     _RF0	set	5216
   557  030C                     _TRISFbits	set	780
   558  030D                     _TRISGbits	set	781
   559  0312                     _CCPR3H	set	786
   560  0311                     _CCPR3L	set	785
   561  0313                     _CCP3CON	set	787
   562  040C                     _ANSELF	set	1036
   563  040D                     _ANSELG	set	1037
   564  041C                     _TMR6	set	1052
   565  041E                     _T6CON	set	1054
   566  0415                     _TMR4	set	1045
   567  0417                     _T4CON	set	1047
   568  0418                     _TMR5L	set	1048
   569  0419                     _TMR5H	set	1049
   570  041B                     _T5GCON	set	1051
   571  041A                     _T5CON	set	1050
   572  0414                     _T3GCON	set	1044
   573  0413                     _T3CON	set	1043
   574  0411                     _TMR3L	set	1041
   575  0412                     _TMR3H	set	1042
   576  0413                     _T3CONbits	set	1043
   577  0416                     _PR4	set	1046
   578  0417                     _T4CONbits	set	1047
   579  048D                     _WPUG	set	1165
   580  061A                     _CCPR9L	set	1562
   581  061B                     _CCPR9H	set	1563
   582  061C                     _CCP9CON	set	1564
   583                           
   584                           	psect	stringtext1
   585  1000                     __pstringtext1:	
   586  1000                     STR_1:	
   587  1000  3430               	retlw	48	;'0'
   588  1001  3430               	retlw	48	;'0'
   589  1002  3430               	retlw	48	;'0'
   590  1003  3430               	retlw	48	;'0'
   591  1004  3430               	retlw	48	;'0'
   592  1005  3430               	retlw	48	;'0'
   593  1006  3430               	retlw	48	;'0'
   594  1007  3430               	retlw	48	;'0'
   595  1008  3430               	retlw	48	;'0'
   596  1009  3430               	retlw	48	;'0'
   597  100A  3430               	retlw	48	;'0'
   598  100B  3430               	retlw	48	;'0'
   599  100C  3430               	retlw	48	;'0'
   600  100D  3430               	retlw	48	;'0'
   601  100E  3430               	retlw	48	;'0'
   602  100F  3430               	retlw	48	;'0'
   603  1010  3430               	retlw	48	;'0'
   604  1011  3430               	retlw	48	;'0'
   605  1012  3430               	retlw	48	;'0'
   606  1013  3430               	retlw	48	;'0'
   607  1014  3430               	retlw	48	;'0'
   608  1015  3430               	retlw	48	;'0'
   609  1016  3430               	retlw	48	;'0'
   610  1017  3430               	retlw	48	;'0'
   611  1018  3430               	retlw	48	;'0'
   612  1019  3430               	retlw	48	;'0'
   613  101A  3430               	retlw	48	;'0'
   614  101B  3430               	retlw	48	;'0'
   615  101C  3430               	retlw	48	;'0'
   616  101D  3430               	retlw	48	;'0'
   617  101E  3430               	retlw	48	;'0'
   618  101F  3430               	retlw	48	;'0'
   619  1020  3400               	retlw	0
   620                           
   621                           	psect	stringtext2
   622  0000                     __pstringtext2:	
   623                           
   624                           ; #config settings
   625  0000                     
   626                           	psect	cinit
   627  0494                     start_initialization:	
   628  0494                     __initialization:	
   629                           
   630                           ; Initialize objects allocated to BANK0
   631  0494  3180  2002  3184   	fcall	__pidataBANK0	;fetch initializer
   632  0497  00DF               	movwf	__pdataBANK0& (0+127)
   633  0498  3180  2003  3184   	fcall	__pidataBANK0+1	;fetch initializer
   634  049B  00E0               	movwf	(__pdataBANK0+1)& (0+127)
   635                           
   636                           ; Initialize objects allocated to BANK1
   637  049C  308B               	movlw	low __pidataBANK1
   638  049D  0084               	movwf	4
   639  049E  308B               	movlw	(high __pidataBANK1)| (0+128)
   640  049F  0085               	movwf	5
   641  04A0  30A0               	movlw	low __pdataBANK1
   642  04A1  0086               	movwf	6
   643  04A2  3000               	movlw	high __pdataBANK1
   644  04A3  0087               	movwf	7
   645  04A4  303E               	movlw	62
   646  04A5  318A  2226  3184   	fcall	init_ram
   647                           
   648                           ; Initialize objects allocated to BANK2
   649  04A8  30D1               	movlw	low __pidataBANK2
   650  04A9  0084               	movwf	4
   651  04AA  3087               	movlw	(high __pidataBANK2)| (0+128)
   652  04AB  0085               	movwf	5
   653  04AC  3020               	movlw	low __pdataBANK2
   654  04AD  0086               	movwf	6
   655  04AE  3001               	movlw	high __pdataBANK2
   656  04AF  0087               	movwf	7
   657  04B0  3024               	movlw	36
   658  04B1  318A  2226  3184   	fcall	init_ram
   659                           
   660                           ; Initialize objects allocated to BANK3
   661  04B4  30C9               	movlw	low __pidataBANK3
   662  04B5  0084               	movwf	4
   663  04B6  308B               	movlw	(high __pidataBANK3)| (0+128)
   664  04B7  0085               	movwf	5
   665  04B8  30A0               	movlw	low __pdataBANK3
   666  04B9  0086               	movwf	6
   667  04BA  3001               	movlw	high __pdataBANK3
   668  04BB  0087               	movwf	7
   669  04BC  3040               	movlw	64
   670  04BD  318A  2226  3184   	fcall	init_ram
   671                           
   672                           ; Clear objects allocated to COMMON
   673  04C0  01FB               	clrf	__pbssCOMMON& (0+127)
   674                           
   675                           ; Clear objects allocated to BANK0
   676  04C1  3045               	movlw	low __pbssBANK0
   677  04C2  0084               	movwf	4
   678  04C3  3000               	movlw	high __pbssBANK0
   679  04C4  0085               	movwf	5
   680  04C5  301A               	movlw	26
   681  04C6  318A  222C  3184   	fcall	clear_ram0
   682                           
   683                           ; Clear objects allocated to BANK1
   684  04C9  30DE               	movlw	low __pbssBANK1
   685  04CA  0084               	movwf	4
   686  04CB  3000               	movlw	high __pbssBANK1
   687  04CC  0085               	movwf	5
   688  04CD  3010               	movlw	16
   689  04CE  318A  222C         	fcall	clear_ram0
   690  04D0                     end_of_initialization:	
   691                           ;End of C runtime variable initialization code
   692                           
   693  04D0                     __end_of__initialization:	
   694  04D0  107E               	bcf	int$flags,0	;clear compiler interrupt flag (level 1)
   695  04D1  0020               	movlb	0
   696  04D2  318C  2C09         	ljmp	_main	;jump to C main() function
   697                           
   698                           	psect	bssCOMMON
   699  007B                     __pbssCOMMON:	
   700  007B                     _dimmer3:	
   701  007B                     	ds	1
   702                           
   703                           	psect	bssBANK0
   704  0045                     __pbssBANK0:	
   705  0045                     _M5:	
   706  0045                     	ds	2
   707  0047                     _M4:	
   708  0047                     	ds	2
   709  0049                     _M3:	
   710  0049                     	ds	2
   711  004B                     _M2:	
   712  004B                     	ds	2
   713  004D                     _M1:	
   714  004D                     	ds	2
   715  004F                     _COPY_FLAG:	
   716  004F                     	ds	2
   717  0051                     _FAN_SPEED2_1s:	
   718  0051                     	ds	2
   719  0053                     _FAN_SPEED1_1s:	
   720  0053                     	ds	2
   721  0055                     _FAN_SPEED1_10s:	
   722  0055                     	ds	2
   723  0057                     _ak:	
   724  0057                     	ds	2
   725  0059                     _pk:	
   726  0059                     	ds	2
   727  005B                     _i:	
   728  005B                     	ds	2
   729  005D                     _dimmer2:	
   730  005D                     	ds	1
   731  005E                     _dimmer1:	
   732  005E                     	ds	1
   733                           
   734                           	psect	dataBANK0
   735  005F                     __pdataBANK0:	
   736  005F                     _man:	
   737  005F                     	ds	2
   738                           
   739                           	psect	bssBANK1
   740  00DE                     __pbssBANK1:	
   741  00DE                     _FAN_FLAG3:	
   742  00DE                     	ds	2
   743  00E0                     _FAN_FLAG2:	
   744  00E0                     	ds	2
   745  00E2                     _FAN_FLAG1:	
   746  00E2                     	ds	2
   747  00E4                     _TX_FLAG:	
   748  00E4                     	ds	2
   749  00E6                     _FAN_SPEED3_1s:	
   750  00E6                     	ds	2
   751  00E8                     _FAN_SPEED3_10s:	
   752  00E8                     	ds	2
   753  00EA                     _FAN_SPEED2_10s:	
   754  00EA                     	ds	2
   755  00EC                     _tk:	
   756  00EC                     	ds	2
   757                           
   758                           	psect	dataBANK1
   759  00A0                     __pdataBANK1:	
   760  00A0                     _name:	
   761  00A0                     	ds	36
   762  00C4                     _st:	
   763  00C4                     	ds	26
   764                           
   765                           	psect	dataBANK2
   766  0120                     __pdataBANK2:	
   767  0120                     _copy:	
   768  0120                     	ds	36
   769                           
   770                           	psect	dataBANK3
   771  01A0                     __pdataBANK3:	
   772  01A0                     _child_LOCK:	
   773  01A0                     	ds	64
   774                           
   775                           	psect	inittext
   776  0A26                     init_ram:	
   777  0A26  00FE               	movwf	126
   778  0A27                     initloop:	
   779  0A27  0012               	moviw fsr0++
   780  0A28  001E               	movwi fsr1++
   781  0A29  0BFE               	decfsz	126,f
   782  0A2A  2A27               	goto	initloop
   783  0A2B  3400               	retlw	0
   784                           
   785                           	psect	clrtext
   786  0A2C                     clear_ram0:	
   787                           ;	Called with FSR0 containing the base address, and
   788                           ;	WREG with the size to clear
   789                           
   790  0A2C  0064               	clrwdt	;clear the watchdog before getting into this loop
   791  0A2D                     clrloop0:	
   792  0A2D  0180               	clrf	0	;clear RAM location pointed to by FSR
   793  0A2E  3101               	addfsr 0,1
   794  0A2F  0B89               	decfsz	9,f	;Have we reached the end of clearing yet?
   795  0A30  2A2D               	goto	clrloop0	;have we reached the end yet?
   796  0A31  3400               	retlw	0	;all done for this memory range, return
   797                           
   798                           	psect	cstackBANK2
   799  0144                     __pcstackBANK2:	
   800  0144                     main@RX_CHK_FLAG_start1:	
   801                           
   802                           ; 2 bytes @ 0x0
   803  0144                     	ds	2
   804  0146                     main@RX_CHK_FLAG_start2:	
   805                           
   806                           ; 2 bytes @ 0x2
   807  0146                     	ds	2
   808  0148                     main@RX_CHK_FLAG_end1:	
   809                           
   810                           ; 2 bytes @ 0x4
   811  0148                     	ds	2
   812  014A                     main@RX_CHK_FLAG_end2:	
   813                           
   814                           ; 2 bytes @ 0x6
   815  014A                     	ds	2
   816  014C                     main@start_flag:	
   817                           
   818                           ; 2 bytes @ 0x8
   819  014C                     	ds	2
   820  014E                     main@end_flag:	
   821                           
   822                           ; 2 bytes @ 0xA
   823  014E                     	ds	2
   824  0150                     main@k_682:	
   825                           
   826                           ; 2 bytes @ 0xC
   827  0150                     	ds	2
   828  0152                     main@k:	
   829                           
   830                           ; 2 bytes @ 0xE
   831  0152                     	ds	2
   832                           
   833                           	psect	cstackCOMMON
   834  0070                     __pcstackCOMMON:	
   835  0070                     ?_isdigit:	
   836  0070                     ?_EUSART_Initialize:	
   837                           ; 1 bit 
   838                           
   839  0070                     ?_CCP1_Initialize:	
   840                           ; 1 bytes @ 0x0
   841                           
   842  0070                     ?_CCP3_Initialize:	
   843                           ; 1 bytes @ 0x0
   844                           
   845  0070                     ?_CCP9_Initialize:	
   846                           ; 1 bytes @ 0x0
   847                           
   848  0070                     ?_TMR1_Initialize:	
   849                           ; 1 bytes @ 0x0
   850                           
   851  0070                     ?_TMR3_Initialize:	
   852                           ; 1 bytes @ 0x0
   853                           
   854  0070                     ?_TMR2_Initialize:	
   855                           ; 1 bytes @ 0x0
   856                           
   857  0070                     ?_TMR4_Initialize:	
   858                           ; 1 bytes @ 0x0
   859                           
   860  0070                     ?_TMR5_Initialize:	
   861                           ; 1 bytes @ 0x0
   862                           
   863  0070                     ?_TMR6_Initialize:	
   864                           ; 1 bytes @ 0x0
   865                           
   866  0070                     ?_pin_manager:	
   867                           ; 1 bytes @ 0x0
   868                           
   869  0070                     ?_writeUART:	
   870                           ; 1 bytes @ 0x0
   871                           
   872  0070                     ?_isr:	
   873                           ; 1 bytes @ 0x0
   874                           
   875  0070                     ??_isr:	
   876                           ; 1 bytes @ 0x0
   877                           
   878  0070                     ?_periperal_init:	
   879                           ; 1 bytes @ 0x0
   880                           
   881  0070                     ?_main:	
   882                           ; 1 bytes @ 0x0
   883                           
   884                           
   885                           ; 1 bytes @ 0x0
   886  0070                     	ds	2
   887  0072                     ??_EUSART_Initialize:	
   888  0072                     ??_CCP1_Initialize:	
   889                           ; 1 bytes @ 0x2
   890                           
   891  0072                     ??_CCP3_Initialize:	
   892                           ; 1 bytes @ 0x2
   893                           
   894  0072                     ??_CCP9_Initialize:	
   895                           ; 1 bytes @ 0x2
   896                           
   897  0072                     ??_TMR1_Initialize:	
   898                           ; 1 bytes @ 0x2
   899                           
   900  0072                     ??_TMR3_Initialize:	
   901                           ; 1 bytes @ 0x2
   902                           
   903  0072                     ??_TMR2_Initialize:	
   904                           ; 1 bytes @ 0x2
   905                           
   906  0072                     ??_TMR4_Initialize:	
   907                           ; 1 bytes @ 0x2
   908                           
   909  0072                     ??_TMR5_Initialize:	
   910                           ; 1 bytes @ 0x2
   911                           
   912  0072                     ??_TMR6_Initialize:	
   913                           ; 1 bytes @ 0x2
   914                           
   915  0072                     ??_pin_manager:	
   916                           ; 1 bytes @ 0x2
   917                           
   918  0072                     ?_copy_frame:	
   919                           ; 1 bytes @ 0x2
   920                           
   921  0072                     ??_writeUART:	
   922                           ; 1 bytes @ 0x2
   923                           
   924  0072                     ??_isdigit:	
   925                           ; 1 bytes @ 0x2
   926                           
   927  0072                     ??_periperal_init:	
   928                           ; 1 bytes @ 0x2
   929                           
   930  0072                     ?___wmul:	
   931                           ; 1 bytes @ 0x2
   932                           
   933  0072                     _isdigit$908:	
   934                           ; 2 bytes @ 0x2
   935                           
   936  0072                     copy_frame@start:	
   937                           ; 1 bytes @ 0x2
   938                           
   939  0072                     ___wmul@multiplier:	
   940                           ; 2 bytes @ 0x2
   941                           
   942                           
   943                           ; 2 bytes @ 0x2
   944  0072                     	ds	1
   945  0073                     isdigit@c:	
   946  0073                     writeUART@Tx_count:	
   947                           ; 1 bytes @ 0x3
   948                           
   949                           
   950                           ; 2 bytes @ 0x3
   951  0073                     	ds	1
   952  0074                     copy_frame@end:	
   953  0074                     ___wmul@multiplicand:	
   954                           ; 2 bytes @ 0x4
   955                           
   956                           
   957                           ; 2 bytes @ 0x4
   958  0074                     	ds	1
   959  0075                     writeUART@str2Write:	
   960                           
   961                           ; 1 bytes @ 0x5
   962  0075                     	ds	1
   963  0076                     ??_copy_frame:	
   964  0076                     ??___wmul:	
   965                           ; 1 bytes @ 0x6
   966                           
   967  0076                     ___wmul@product:	
   968                           ; 1 bytes @ 0x6
   969                           
   970                           
   971                           ; 2 bytes @ 0x6
   972  0076                     	ds	1
   973  0077                     copy_frame@sw:	
   974                           
   975                           ; 2 bytes @ 0x7
   976  0077                     	ds	1
   977  0078                     ?_atoi:	
   978                           
   979                           ; 2 bytes @ 0x8
   980  0078                     	ds	1
   981  0079                     copy_frame@k:	
   982                           
   983                           ; 2 bytes @ 0x9
   984  0079                     	ds	2
   985                           
   986                           	psect	cstackBANK0
   987  0020                     __pcstackBANK0:	
   988  0020                     ??_atoi:	
   989                           
   990                           ; 1 bytes @ 0x0
   991  0020                     	ds	2
   992  0022                     atoi@sign:	
   993                           
   994                           ; 1 bytes @ 0x2
   995  0022                     	ds	1
   996  0023                     atoi@a:	
   997                           
   998                           ; 2 bytes @ 0x3
   999  0023                     	ds	2
  1000  0025                     atoi@s:	
  1001                           
  1002                           ; 1 bytes @ 0x5
  1003  0025                     	ds	1
  1004  0026                     ?_ACTION:	
  1005  0026                     ACTION@Switch_Num_1s:	
  1006                           ; 1 bytes @ 0x6
  1007                           
  1008                           
  1009                           ; 1 bytes @ 0x6
  1010  0026                     	ds	1
  1011  0027                     ACTION@sw_status:	
  1012                           
  1013                           ; 1 bytes @ 0x7
  1014  0027                     	ds	1
  1015  0028                     ACTION@speed_bitHigh:	
  1016                           
  1017                           ; 1 bytes @ 0x8
  1018  0028                     	ds	1
  1019  0029                     ACTION@speed_bitLow:	
  1020                           
  1021                           ; 1 bytes @ 0x9
  1022  0029                     	ds	1
  1023  002A                     ACTION@parent:	
  1024                           
  1025                           ; 1 bytes @ 0xA
  1026  002A                     	ds	1
  1027  002B                     ACTION@finalFrameStat:	
  1028                           
  1029                           ; 1 bytes @ 0xB
  1030  002B                     	ds	1
  1031  002C                     ??_ACTION:	
  1032                           
  1033                           ; 1 bytes @ 0xC
  1034  002C                     	ds	2
  1035  002E                     ACTION@FanSpeed:	
  1036                           
  1037                           ; 2 bytes @ 0xE
  1038  002E                     	ds	2
  1039  0030                     ACTION@children:	
  1040                           
  1041                           ; 2 bytes @ 0x10
  1042  0030                     	ds	2
  1043  0032                     ACTION@child_lock_num:	
  1044                           
  1045                           ; 2 bytes @ 0x12
  1046  0032                     	ds	2
  1047  0034                     ACTION@Switch_Num_10s:	
  1048                           
  1049                           ; 1 bytes @ 0x14
  1050  0034                     	ds	1
  1051  0035                     ACTION@FanSpeedString:	
  1052                           
  1053                           ; 2 bytes @ 0x15
  1054  0035                     	ds	2
  1055  0037                     ACTION@SwNumString:	
  1056                           
  1057                           ; 2 bytes @ 0x17
  1058  0037                     	ds	2
  1059  0039                     ACTION@SwNum:	
  1060                           
  1061                           ; 2 bytes @ 0x19
  1062  0039                     	ds	2
  1063  003B                     ACTION@response_starts:	
  1064                           
  1065                           ; 2 bytes @ 0x1B
  1066  003B                     	ds	2
  1067  003D                     ACTION@switch_status:	
  1068                           
  1069                           ; 2 bytes @ 0x1D
  1070  003D                     	ds	2
  1071  003F                     ??_main:	
  1072                           
  1073                           ; 1 bytes @ 0x1F
  1074  003F                     	ds	6
  1075                           
  1076                           	psect	maintext
  1077  0C09                     __pmaintext:	
  1078 ;;
  1079 ;;Main: autosize = 0, tempsize = 6, incstack = 0, save=0
  1080 ;;
  1081 ;; *************** function _main *****************
  1082 ;; Defined at:
  1083 ;;		line 793 in file "twodimmer_1fd_1sw.c"
  1084 ;; Parameters:    Size  Location     Type
  1085 ;;		None
  1086 ;; Auto vars:     Size  Location     Type
  1087 ;;  k               2   12[BANK2 ] int 
  1088 ;;  k               2   14[BANK2 ] int 
  1089 ;;  end_flag        2   10[BANK2 ] int 
  1090 ;;  start_flag      2    8[BANK2 ] int 
  1091 ;;  RX_CHK_FLAG_    2    6[BANK2 ] int 
  1092 ;;  RX_CHK_FLAG_    2    4[BANK2 ] int 
  1093 ;;  RX_CHK_FLAG_    2    2[BANK2 ] int 
  1094 ;;  RX_CHK_FLAG_    2    0[BANK2 ] int 
  1095 ;; Return value:  Size  Location     Type
  1096 ;;                  1    wreg      void 
  1097 ;; Registers used:
  1098 ;;		wreg, fsr0l, fsr0h, fsr1l, fsr1h, status,2, status,0, pclath, cstack
  1099 ;; Tracked objects:
  1100 ;;		On entry : B1F/0
  1101 ;;		On exit  : 0/0
  1102 ;;		Unchanged: 0/0
  1103 ;; Data sizes:     COMMON   BANK0   BANK1   BANK2   BANK3   BANK4   BANK5   BANK6   BANK7   BANK8   BANK9
  1104 ;;      Params:         0       0       0       0       0       0       0       0       0       0       0
  1105 ;;      Locals:         0       0       0      16       0       0       0       0       0       0       0
  1106 ;;      Temps:          0       6       0       0       0       0       0       0       0       0       0
  1107 ;;      Totals:         0       6       0      16       0       0       0       0       0       0       0
  1108 ;;Total ram usage:       22 bytes
  1109 ;; Hardware stack levels required when called:    4
  1110 ;; This function calls:
  1111 ;;		_ACTION
  1112 ;;		_copy_frame
  1113 ;;		_periperal_init
  1114 ;;		_pin_manager
  1115 ;;		_writeUART
  1116 ;; This function is called by:
  1117 ;;		Startup code after reset
  1118 ;; This function uses a non-reentrant model
  1119 ;;
  1120                           
  1121                           
  1122                           ;psect for function _main
  1123  0C09                     _main:	
  1124                           
  1125                           ;twodimmer_1fd_1sw.c: 794: _delay((unsigned long)((2000)*(16000000/4000.0)));
  1126                           
  1127                           ;incstack = 0
  1128                           ; Regs used in _main: [wreg-fsr1h+status,2+status,0+pclath+cstack]
  1129  0C09  3029               	movlw	41
  1130  0C0A  0020               	movlb	0	; select bank0
  1131  0C0B  00C0               	movwf	??_main+1
  1132  0C0C  3096               	movlw	150
  1133  0C0D  00BF               	movwf	??_main
  1134  0C0E  307F               	movlw	127
  1135  0C0F                     u3467:	
  1136  0C0F  0B89               	decfsz	9,f
  1137  0C10  2C0F               	goto	u3467
  1138  0C11  0BBF               	decfsz	??_main,f
  1139  0C12  2C0F               	goto	u3467
  1140  0C13  0BC0               	decfsz	??_main+1,f
  1141  0C14  2C0F               	goto	u3467
  1142                           
  1143                           ;twodimmer_1fd_1sw.c: 796: int RX_CHK_FLAG_start1 = 0 ,RX_CHK_FLAG_start2 = 0, start_fla
      +                          g=0;
  1144  0C15  0022               	movlb	2	; select bank2
  1145  0C16  01C4               	clrf	main@RX_CHK_FLAG_start1^(0+256)
  1146  0C17  01C5               	clrf	(main@RX_CHK_FLAG_start1+1)^(0+256)
  1147  0C18  01C6               	clrf	main@RX_CHK_FLAG_start2^(0+256)
  1148  0C19  01C7               	clrf	(main@RX_CHK_FLAG_start2+1)^(0+256)
  1149  0C1A  01CC               	clrf	main@start_flag^(0+256)
  1150  0C1B  01CD               	clrf	(main@start_flag+1)^(0+256)
  1151                           
  1152                           ;twodimmer_1fd_1sw.c: 797: int RX_CHK_FLAG_end1 = 0, RX_CHK_FLAG_end2 = 0, end_flag=0;
  1153  0C1C  01C8               	clrf	main@RX_CHK_FLAG_end1^(0+256)
  1154  0C1D  01C9               	clrf	(main@RX_CHK_FLAG_end1+1)^(0+256)
  1155  0C1E  01CA               	clrf	main@RX_CHK_FLAG_end2^(0+256)
  1156  0C1F  01CB               	clrf	(main@RX_CHK_FLAG_end2+1)^(0+256)
  1157  0C20  01CE               	clrf	main@end_flag^(0+256)
  1158  0C21  01CF               	clrf	(main@end_flag+1)^(0+256)
  1159                           
  1160                           ;twodimmer_1fd_1sw.c: 799: pin_manager();
  1161  0C22  318B  2331  318C   	fcall	_pin_manager
  1162                           
  1163                           ;twodimmer_1fd_1sw.c: 800: periperal_init();
  1164  0C25  318B  2313  318C   	fcall	_periperal_init
  1165                           
  1166                           ;twodimmer_1fd_1sw.c: 802: RF0 = 0; RF1 = 0; RA3 = 1; RE5=1;
  1167  0C28  0025               	movlb	5	; select bank5
  1168  0C29  100C               	bcf	12,0	;volatile
  1169  0C2A  108C               	bcf	12,1	;volatile
  1170  0C2B  0020               	movlb	0	; select bank0
  1171  0C2C  158C               	bsf	12,3	;volatile
  1172  0C2D  1690               	bsf	16,5	;volatile
  1173                           
  1174                           ;twodimmer_1fd_1sw.c: 803: M1=1; M2=1; M3=1; M4=1; M5=1;
  1175  0C2E  3001               	movlw	1
  1176  0C2F  00CD               	movwf	_M1
  1177  0C30  3000               	movlw	0
  1178  0C31  00CE               	movwf	_M1+1
  1179  0C32  3001               	movlw	1
  1180  0C33  00CB               	movwf	_M2
  1181  0C34  3000               	movlw	0
  1182  0C35  00CC               	movwf	_M2+1
  1183  0C36  3001               	movlw	1
  1184  0C37  00C9               	movwf	_M3
  1185  0C38  3000               	movlw	0
  1186  0C39  00CA               	movwf	_M3+1
  1187  0C3A  3001               	movlw	1
  1188  0C3B  00C7               	movwf	_M4
  1189  0C3C  3000               	movlw	0
  1190  0C3D  00C8               	movwf	_M4+1
  1191  0C3E  3001               	movlw	1
  1192  0C3F  00C5               	movwf	_M5
  1193  0C40  3000               	movlw	0
  1194  0C41  00C6               	movwf	_M5+1
  1195                           
  1196                           ;twodimmer_1fd_1sw.c: 804: RE0 = 1;
  1197  0C42  1410               	bsf	16,0	;volatile
  1198                           
  1199                           ;twodimmer_1fd_1sw.c: 805: RE1 = 0;
  1200  0C43  1090               	bcf	16,1	;volatile
  1201                           
  1202                           ;twodimmer_1fd_1sw.c: 806: RE2 = 0;
  1203  0C44  1110               	bcf	16,2	;volatile
  1204                           
  1205                           ;twodimmer_1fd_1sw.c: 807: RE4 = 0;
  1206  0C45  1210               	bcf	16,4	;volatile
  1207                           
  1208                           ;twodimmer_1fd_1sw.c: 808: st[0]='%';
  1209  0C46  3025               	movlw	37
  1210  0C47  00BF               	movwf	??_main
  1211  0C48  083F               	movf	??_main,w
  1212  0C49  0021               	movlb	1	; select bank1
  1213  0C4A  00C4               	movwf	_st^(0+128)
  1214                           
  1215                           ;twodimmer_1fd_1sw.c: 809: st[21]='@';
  1216  0C4B  3040               	movlw	64
  1217  0C4C  0020               	movlb	0	; select bank0
  1218  0C4D  00BF               	movwf	??_main
  1219  0C4E  083F               	movf	??_main,w
  1220  0C4F  0021               	movlb	1	; select bank1
  1221  0C50  00D9               	movwf	(_st^(0+128)+21)
  1222  0C51                     l7146:	
  1223                           ;twodimmer_1fd_1sw.c: 811: while(1){
  1224                           
  1225                           
  1226                           ;twodimmer_1fd_1sw.c: 813: if(TX_FLAG==1)
  1227  0C51  0021               	movlb	1	; select bank1
  1228  0C52  0364               	decf	_TX_FLAG^(0+128),w
  1229  0C53  0465               	iorwf	(_TX_FLAG+1)^(0+128),w
  1230  0C54  1D03               	btfss	3,2
  1231  0C55  2D9C               	goto	l7232
  1232                           
  1233                           ;twodimmer_1fd_1sw.c: 814: {
  1234                           ;twodimmer_1fd_1sw.c: 816: TX_FLAG=0; start_flag = 0; end_flag = 0;
  1235  0C56  01E4               	clrf	_TX_FLAG^(0+128)
  1236  0C57  01E5               	clrf	(_TX_FLAG+1)^(0+128)
  1237  0C58  0022               	movlb	2	; select bank2
  1238  0C59  01CC               	clrf	main@start_flag^(0+256)
  1239  0C5A  01CD               	clrf	(main@start_flag+1)^(0+256)
  1240  0C5B  01CE               	clrf	main@end_flag^(0+256)
  1241  0C5C  01CF               	clrf	(main@end_flag+1)^(0+256)
  1242                           
  1243                           ;twodimmer_1fd_1sw.c: 818: if(name[0]=='%' && name[1]=='%' && name[14]=='@' && name[15]=
      +                          ='@')
  1244  0C5D  3025               	movlw	37
  1245  0C5E  0021               	movlb	1	; select bank1
  1246  0C5F  0620               	xorwf	_name^(0+128),w
  1247  0C60  1D03               	btfss	3,2
  1248  0C61  2CFC               	goto	l7200
  1249  0C62  3025               	movlw	37
  1250  0C63  0621               	xorwf	(_name^(0+128)+1),w
  1251  0C64  1D03               	btfss	3,2
  1252  0C65  2CFC               	goto	l7200
  1253  0C66  3040               	movlw	64
  1254  0C67  062E               	xorwf	(_name^(0+128)+14),w
  1255  0C68  1D03               	btfss	3,2
  1256  0C69  2CFC               	goto	l7200
  1257  0C6A  3040               	movlw	64
  1258  0C6B  062F               	xorwf	(_name^(0+128)+15),w
  1259  0C6C  1D03               	btfss	3,2
  1260  0C6D  2CFC               	goto	l7200
  1261                           
  1262                           ;twodimmer_1fd_1sw.c: 819: {
  1263                           ;twodimmer_1fd_1sw.c: 820: for(int k=0;k<16;k++)
  1264  0C6E  0022               	movlb	2	; select bank2
  1265  0C6F  01D2               	clrf	main@k^(0+256)
  1266  0C70  01D3               	clrf	(main@k+1)^(0+256)
  1267  0C71                     L3:	
  1268  0C71  0853               	movf	(main@k+1)^(0+256),w
  1269  0C72  3A80               	xorlw	128
  1270  0C73  0020               	movlb	0	; select bank0
  1271  0C74  00BF               	movwf	??_main
  1272  0C75  3080               	movlw	128
  1273  0C76  023F               	subwf	??_main,w
  1274  0C77  1D03               	skipz
  1275  0C78  2C7C               	goto	u2885
  1276  0C79  3010               	movlw	16
  1277  0C7A  0022               	movlb	2	; select bank2
  1278  0C7B  0252               	subwf	main@k^(0+256),w
  1279  0C7C                     u2885:	
  1280  0C7C  1803               	btfsc	3,0
  1281  0C7D  2D53               	goto	l7220
  1282                           
  1283                           ;twodimmer_1fd_1sw.c: 821: {
  1284                           ;twodimmer_1fd_1sw.c: 822: if(name[k] == '%' && name[k+1] == '%' && start_flag == 0)
  1285  0C7E  0022               	movlb	2	; select bank2
  1286  0C7F  0852               	movf	main@k^(0+256),w
  1287  0C80  3EA0               	addlw	(low (_name| 0))& (0+255)
  1288  0C81  0086               	movwf	6
  1289  0C82  0187               	clrf	7
  1290  0C83  3025               	movlw	37
  1291  0C84  0601               	xorwf	1,w
  1292  0C85  1D03               	btfss	3,2
  1293  0C86  2C9D               	goto	l7172
  1294  0C87  0852               	movf	main@k^(0+256),w
  1295  0C88  3E01               	addlw	1
  1296  0C89  3EA0               	addlw	(low (_name| 0))& (0+255)
  1297  0C8A  0086               	movwf	6
  1298  0C8B  0187               	clrf	7
  1299  0C8C  3025               	movlw	37
  1300  0C8D  0601               	xorwf	1,w
  1301  0C8E  1D03               	btfss	3,2
  1302  0C8F  2C9D               	goto	l7172
  1303  0C90  084C               	movf	main@start_flag^(0+256),w
  1304  0C91  044D               	iorwf	(main@start_flag+1)^(0+256),w
  1305  0C92  1D03               	btfss	3,2
  1306  0C93  2C9D               	goto	l7172
  1307                           
  1308                           ;twodimmer_1fd_1sw.c: 823: {
  1309                           ;twodimmer_1fd_1sw.c: 824: RX_CHK_FLAG_start1 = k;
  1310  0C94  0853               	movf	(main@k+1)^(0+256),w
  1311  0C95  00C5               	movwf	(main@RX_CHK_FLAG_start1+1)^(0+256)
  1312  0C96  0852               	movf	main@k^(0+256),w
  1313  0C97  00C4               	movwf	main@RX_CHK_FLAG_start1^(0+256)
  1314                           
  1315                           ;twodimmer_1fd_1sw.c: 825: start_flag = 1;
  1316  0C98  3001               	movlw	1
  1317  0C99  00CC               	movwf	main@start_flag^(0+256)
  1318  0C9A  3000               	movlw	0
  1319  0C9B  00CD               	movwf	(main@start_flag^(0+256)+1)
  1320                           
  1321                           ;twodimmer_1fd_1sw.c: 826: }
  1322  0C9C  2CF6               	goto	l7198
  1323  0C9D                     l7172:	
  1324                           
  1325                           ;twodimmer_1fd_1sw.c: 827: else if(name[k] == '%' && name[k+1] == '%' && start_flag == 1
      +                          )
  1326  0C9D  0852               	movf	main@k^(0+256),w
  1327  0C9E  3EA0               	addlw	(low (_name| 0))& (0+255)
  1328  0C9F  0086               	movwf	6
  1329  0CA0  0187               	clrf	7
  1330  0CA1  3025               	movlw	37
  1331  0CA2  0601               	xorwf	1,w
  1332  0CA3  1D03               	btfss	3,2
  1333  0CA4  2CB7               	goto	l7180
  1334  0CA5  0852               	movf	main@k^(0+256),w
  1335  0CA6  3E01               	addlw	1
  1336  0CA7  3EA0               	addlw	(low (_name| 0))& (0+255)
  1337  0CA8  0086               	movwf	6
  1338  0CA9  0187               	clrf	7
  1339  0CAA  3025               	movlw	37
  1340  0CAB  0601               	xorwf	1,w
  1341  0CAC  1D03               	btfss	3,2
  1342  0CAD  2CB7               	goto	l7180
  1343  0CAE  034C               	decf	main@start_flag^(0+256),w
  1344  0CAF  044D               	iorwf	(main@start_flag+1)^(0+256),w
  1345  0CB0  1D03               	btfss	3,2
  1346  0CB1  2CB7               	goto	l7180
  1347                           
  1348                           ;twodimmer_1fd_1sw.c: 828: {
  1349                           ;twodimmer_1fd_1sw.c: 829: RX_CHK_FLAG_start2 = k;
  1350  0CB2  0853               	movf	(main@k+1)^(0+256),w
  1351  0CB3  00C7               	movwf	(main@RX_CHK_FLAG_start2+1)^(0+256)
  1352  0CB4  0852               	movf	main@k^(0+256),w
  1353  0CB5  00C6               	movwf	main@RX_CHK_FLAG_start2^(0+256)
  1354                           
  1355                           ;twodimmer_1fd_1sw.c: 830: }
  1356  0CB6  2CF6               	goto	l7198
  1357  0CB7                     l7180:	
  1358                           
  1359                           ;twodimmer_1fd_1sw.c: 831: else if(name[k] == '@' && name[k+1] == '@' && end_flag == 0)
  1360  0CB7  0852               	movf	main@k^(0+256),w
  1361  0CB8  3EA0               	addlw	(low (_name| 0))& (0+255)
  1362  0CB9  0086               	movwf	6
  1363  0CBA  0187               	clrf	7
  1364  0CBB  3040               	movlw	64
  1365  0CBC  0601               	xorwf	1,w
  1366  0CBD  1D03               	btfss	3,2
  1367  0CBE  2CD6               	goto	l7190
  1368  0CBF  0852               	movf	main@k^(0+256),w
  1369  0CC0  3E01               	addlw	1
  1370  0CC1  3EA0               	addlw	(low (_name| 0))& (0+255)
  1371  0CC2  0086               	movwf	6
  1372  0CC3  0187               	clrf	7
  1373  0CC4  3040               	movlw	64
  1374  0CC5  0601               	xorwf	1,w
  1375  0CC6  1D03               	btfss	3,2
  1376  0CC7  2CD6               	goto	l7190
  1377  0CC8  084E               	movf	main@end_flag^(0+256),w
  1378  0CC9  044F               	iorwf	(main@end_flag+1)^(0+256),w
  1379  0CCA  1D03               	btfss	3,2
  1380  0CCB  2CD6               	goto	l7190
  1381                           
  1382                           ;twodimmer_1fd_1sw.c: 832: {
  1383                           ;twodimmer_1fd_1sw.c: 833: RX_CHK_FLAG_end1 = k;
  1384  0CCC  0853               	movf	(main@k+1)^(0+256),w
  1385  0CCD  00C9               	movwf	(main@RX_CHK_FLAG_end1+1)^(0+256)
  1386  0CCE  0852               	movf	main@k^(0+256),w
  1387  0CCF  00C8               	movwf	main@RX_CHK_FLAG_end1^(0+256)
  1388                           
  1389                           ;twodimmer_1fd_1sw.c: 834: end_flag = 1;
  1390  0CD0  3001               	movlw	1
  1391  0CD1  00CE               	movwf	main@end_flag^(0+256)
  1392  0CD2  3000               	movlw	0
  1393  0CD3  00CF               	movwf	(main@end_flag^(0+256)+1)
  1394                           
  1395                           ;twodimmer_1fd_1sw.c: 835: COPY_FLAG=1;
  1396  0CD4  3001               	movlw	1
  1397  0CD5  2CF1               	goto	L1
  1398  0CD6                     l7190:	
  1399                           ;twodimmer_1fd_1sw.c: 837: }
  1400                           
  1401                           ;twodimmer_1fd_1sw.c: 836: break;
  1402                           
  1403                           
  1404                           ;twodimmer_1fd_1sw.c: 838: else if(name[k] == '@' && name[k+1] == '@' && end_flag == 1)
  1405  0CD6  0022               	movlb	2	; select bank2
  1406  0CD7  0852               	movf	main@k^(0+256),w
  1407  0CD8  3EA0               	addlw	(low (_name| 0))& (0+255)
  1408  0CD9  0086               	movwf	6
  1409  0CDA  0187               	clrf	7
  1410  0CDB  3040               	movlw	64
  1411  0CDC  0601               	xorwf	1,w
  1412  0CDD  1D03               	btfss	3,2
  1413  0CDE  2CF6               	goto	l7198
  1414  0CDF  0852               	movf	main@k^(0+256),w
  1415  0CE0  3E01               	addlw	1
  1416  0CE1  3EA0               	addlw	(low (_name| 0))& (0+255)
  1417  0CE2  0086               	movwf	6
  1418  0CE3  0187               	clrf	7
  1419  0CE4  3040               	movlw	64
  1420  0CE5  0601               	xorwf	1,w
  1421  0CE6  1D03               	btfss	3,2
  1422  0CE7  2CF6               	goto	l7198
  1423  0CE8  034E               	decf	main@end_flag^(0+256),w
  1424  0CE9  044F               	iorwf	(main@end_flag+1)^(0+256),w
  1425  0CEA  1D03               	btfss	3,2
  1426  0CEB  2CF6               	goto	l7198
  1427                           
  1428                           ;twodimmer_1fd_1sw.c: 839: {
  1429                           ;twodimmer_1fd_1sw.c: 840: RX_CHK_FLAG_end2 = k;
  1430  0CEC  0853               	movf	(main@k+1)^(0+256),w
  1431  0CED  00CB               	movwf	(main@RX_CHK_FLAG_end2+1)^(0+256)
  1432  0CEE  0852               	movf	main@k^(0+256),w
  1433  0CEF  00CA               	movwf	main@RX_CHK_FLAG_end2^(0+256)
  1434                           
  1435                           ;twodimmer_1fd_1sw.c: 841: COPY_FLAG=2;
  1436  0CF0  3002               	movlw	2
  1437  0CF1                     L1:	
  1438  0CF1  0020               	movlb	0	; select bank0
  1439  0CF2  00CF               	movwf	_COPY_FLAG
  1440  0CF3  3000               	movlw	0
  1441  0CF4  00D0               	movwf	_COPY_FLAG+1
  1442                           
  1443                           ;twodimmer_1fd_1sw.c: 842: break;
  1444  0CF5  2D53               	goto	l7220
  1445  0CF6                     l7198:	
  1446  0CF6  3001               	movlw	1
  1447  0CF7  0022               	movlb	2	; select bank2
  1448  0CF8  07D2               	addwf	main@k^(0+256),f
  1449  0CF9  3000               	movlw	0
  1450  0CFA  3DD3               	addwfc	(main@k+1)^(0+256),f
  1451  0CFB  2C71               	goto	L3
  1452  0CFC                     l7200:	
  1453                           ;twodimmer_1fd_1sw.c: 843: }
  1454                           ;twodimmer_1fd_1sw.c: 844: }
  1455                           ;twodimmer_1fd_1sw.c: 845: }
  1456                           
  1457                           
  1458                           ;twodimmer_1fd_1sw.c: 846: else
  1459                           ;twodimmer_1fd_1sw.c: 847: {
  1460                           ;twodimmer_1fd_1sw.c: 848: _delay((unsigned long)((10)*(16000000/4000.0))); TX1REG='P'; 
      +                          _delay((unsigned long)((1)*(16000000/4000.0))); TX1REG='K'; _delay((unsigned long)((1)*(
      +                          16000000/4000.0)));
  1461  0CFC  3034               	movlw	52
  1462  0CFD  0020               	movlb	0	; select bank0
  1463  0CFE  00BF               	movwf	??_main
  1464  0CFF  30F1               	movlw	241
  1465  0D00                     u3477:	
  1466  0D00  0B89               	decfsz	9,f
  1467  0D01  2D00               	goto	u3477
  1468  0D02  0BBF               	decfsz	??_main,f
  1469  0D03  2D00               	goto	u3477
  1470  0D04  3200               	nop2
  1471  0D05  3050               	movlw	80
  1472  0D06  0023               	movlb	3	; select bank3
  1473  0D07  009A               	movwf	26	;volatile
  1474  0D08  3006               	movlw	6
  1475  0D09  0020               	movlb	0	; select bank0
  1476  0D0A  00BF               	movwf	??_main
  1477  0D0B  3030               	movlw	48
  1478  0D0C                     u3487:	
  1479  0D0C  0B89               	decfsz	9,f
  1480  0D0D  2D0C               	goto	u3487
  1481  0D0E  0BBF               	decfsz	??_main,f
  1482  0D0F  2D0C               	goto	u3487
  1483  0D10  0000               	nop
  1484  0D11  304B               	movlw	75
  1485  0D12  0023               	movlb	3	; select bank3
  1486  0D13  009A               	movwf	26	;volatile
  1487  0D14  3006               	movlw	6
  1488  0D15  0020               	movlb	0	; select bank0
  1489  0D16  00BF               	movwf	??_main
  1490  0D17  3030               	movlw	48
  1491  0D18                     u3497:	
  1492  0D18  0B89               	decfsz	9,f
  1493  0D19  2D18               	goto	u3497
  1494  0D1A  0BBF               	decfsz	??_main,f
  1495  0D1B  2D18               	goto	u3497
  1496  0D1C  0000               	nop
  1497                           
  1498                           ;twodimmer_1fd_1sw.c: 849: i=0; RC1STAbits.SPEN=0; RC1STAbits.SPEN=1;
  1499  0D1D  0020               	movlb	0	; select bank0
  1500  0D1E  01DB               	clrf	_i
  1501  0D1F  01DC               	clrf	_i+1
  1502  0D20  0023               	movlb	3	; select bank3
  1503  0D21  139D               	bcf	29,7	;volatile
  1504  0D22  179D               	bsf	29,7	;volatile
  1505                           
  1506                           ;twodimmer_1fd_1sw.c: 850: for(int k = 0; k< 15; k++)
  1507  0D23  0022               	movlb	2	; select bank2
  1508  0D24  01D0               	clrf	main@k_682^(0+256)
  1509  0D25  01D1               	clrf	(main@k_682+1)^(0+256)
  1510  0D26  0851               	movf	(main@k_682+1)^(0+256),w
  1511  0D27  3A80               	xorlw	128
  1512  0D28  0020               	movlb	0	; select bank0
  1513  0D29  00BF               	movwf	??_main
  1514  0D2A  3080               	movlw	128
  1515  0D2B  023F               	subwf	??_main,w
  1516  0D2C  1D03               	skipz
  1517  0D2D  2D31               	goto	u3025
  1518  0D2E  300F               	movlw	15
  1519  0D2F  0022               	movlb	2	; select bank2
  1520  0D30  0250               	subwf	main@k_682^(0+256),w
  1521  0D31                     u3025:	
  1522  0D31  1803               	btfsc	3,0
  1523  0D32  2D50               	goto	l7218
  1524  0D33                     l7212:	
  1525                           
  1526                           ;twodimmer_1fd_1sw.c: 851: {
  1527                           ;twodimmer_1fd_1sw.c: 852: name[k] = '#';
  1528  0D33  3023               	movlw	35
  1529  0D34  0020               	movlb	0	; select bank0
  1530  0D35  00BF               	movwf	??_main
  1531  0D36  0022               	movlb	2	; select bank2
  1532  0D37  0850               	movf	main@k_682^(0+256),w
  1533  0D38  3EA0               	addlw	(low (_name| 0))& (0+255)
  1534  0D39  0086               	movwf	6
  1535  0D3A  0187               	clrf	7
  1536  0D3B  0020               	movlb	0	; select bank0
  1537  0D3C  083F               	movf	??_main,w
  1538  0D3D  0081               	movwf	1
  1539  0D3E  3001               	movlw	1
  1540  0D3F  0022               	movlb	2	; select bank2
  1541  0D40  07D0               	addwf	main@k_682^(0+256),f
  1542  0D41  3000               	movlw	0
  1543  0D42  3DD1               	addwfc	(main@k_682+1)^(0+256),f
  1544  0D43  0851               	movf	(main@k_682+1)^(0+256),w
  1545  0D44  3A80               	xorlw	128
  1546  0D45  0020               	movlb	0	; select bank0
  1547  0D46  00BF               	movwf	??_main
  1548  0D47  3080               	movlw	128
  1549  0D48  023F               	subwf	??_main,w
  1550  0D49  1D03               	skipz
  1551  0D4A  2D4E               	goto	u3035
  1552  0D4B  300F               	movlw	15
  1553  0D4C  0022               	movlb	2	; select bank2
  1554  0D4D  0250               	subwf	main@k_682^(0+256),w
  1555  0D4E                     u3035:	
  1556  0D4E  1C03               	skipc
  1557  0D4F  2D33               	goto	l7212
  1558  0D50                     l7218:	
  1559                           
  1560                           ;twodimmer_1fd_1sw.c: 853: }
  1561                           ;twodimmer_1fd_1sw.c: 856: COPY_FLAG=0;
  1562  0D50  0020               	movlb	0	; select bank0
  1563  0D51  01CF               	clrf	_COPY_FLAG
  1564  0D52  01D0               	clrf	_COPY_FLAG+1
  1565  0D53                     l7220:	
  1566                           
  1567                           ;twodimmer_1fd_1sw.c: 857: }
  1568                           ;twodimmer_1fd_1sw.c: 860: if(COPY_FLAG==1)
  1569  0D53  0020               	movlb	0	; select bank0
  1570  0D54  034F               	decf	_COPY_FLAG,w
  1571  0D55  0450               	iorwf	_COPY_FLAG+1,w
  1572  0D56  1D03               	btfss	3,2
  1573  0D57  2D61               	goto	l7226
  1574                           
  1575                           ;twodimmer_1fd_1sw.c: 861: {
  1576                           ;twodimmer_1fd_1sw.c: 862: copy_frame(RX_CHK_FLAG_start1,RX_CHK_FLAG_end1);
  1577  0D58  0022               	movlb	2	; select bank2
  1578  0D59  0845               	movf	(main@RX_CHK_FLAG_start1+1)^(0+256),w
  1579  0D5A  00F3               	movwf	copy_frame@start+1
  1580  0D5B  0844               	movf	main@RX_CHK_FLAG_start1^(0+256),w
  1581  0D5C  00F2               	movwf	copy_frame@start
  1582  0D5D  0849               	movf	(main@RX_CHK_FLAG_end1+1)^(0+256),w
  1583  0D5E  00F5               	movwf	copy_frame@end+1
  1584  0D5F  0848               	movf	main@RX_CHK_FLAG_end1^(0+256),w
  1585  0D60  2D6F               	goto	L2
  1586  0D61                     l7226:	
  1587                           ;twodimmer_1fd_1sw.c: 865: }
  1588                           
  1589                           ;twodimmer_1fd_1sw.c: 864: ACTION(copy[2], copy[3], copy[4], copy[5], copy[6], copy[7],c
      +                          opy[8]);
  1590                           
  1591                           
  1592                           ;twodimmer_1fd_1sw.c: 866: else if(COPY_FLAG==2)
  1593  0D61  3002               	movlw	2
  1594  0D62  0020               	movlb	0	; select bank0
  1595  0D63  064F               	xorwf	_COPY_FLAG,w
  1596  0D64  0450               	iorwf	_COPY_FLAG+1,w
  1597  0D65  1D03               	btfss	3,2
  1598  0D66  2D9C               	goto	l7232
  1599                           
  1600                           ;twodimmer_1fd_1sw.c: 867: {
  1601                           ;twodimmer_1fd_1sw.c: 868: copy_frame(RX_CHK_FLAG_start2,RX_CHK_FLAG_end2);
  1602  0D67  0022               	movlb	2	; select bank2
  1603  0D68  0847               	movf	(main@RX_CHK_FLAG_start2+1)^(0+256),w
  1604  0D69  00F3               	movwf	copy_frame@start+1
  1605  0D6A  0846               	movf	main@RX_CHK_FLAG_start2^(0+256),w
  1606  0D6B  00F2               	movwf	copy_frame@start
  1607  0D6C  084B               	movf	(main@RX_CHK_FLAG_end2+1)^(0+256),w
  1608  0D6D  00F5               	movwf	copy_frame@end+1
  1609  0D6E  084A               	movf	main@RX_CHK_FLAG_end2^(0+256),w
  1610  0D6F                     L2:	
  1611  0D6F  00F4               	movwf	copy_frame@end
  1612  0D70  318B  2355  318C   	fcall	_copy_frame
  1613                           
  1614                           ;twodimmer_1fd_1sw.c: 869: ACTION(copy[2], copy[3], copy[4], copy[5], copy[6], copy[7],c
      +                          opy[8]);
  1615  0D73  0022               	movlb	2	; select bank2
  1616  0D74  0823               	movf	(_copy^(0+256)+3),w
  1617  0D75  0020               	movlb	0	; select bank0
  1618  0D76  00BF               	movwf	??_main
  1619  0D77  083F               	movf	??_main,w
  1620  0D78  00A6               	movwf	ACTION@Switch_Num_1s
  1621  0D79  0022               	movlb	2	; select bank2
  1622  0D7A  0824               	movf	(_copy^(0+256)+4),w
  1623  0D7B  0020               	movlb	0	; select bank0
  1624  0D7C  00C0               	movwf	??_main+1
  1625  0D7D  0840               	movf	??_main+1,w
  1626  0D7E  00A7               	movwf	ACTION@sw_status
  1627  0D7F  0022               	movlb	2	; select bank2
  1628  0D80  0825               	movf	(_copy^(0+256)+5),w
  1629  0D81  0020               	movlb	0	; select bank0
  1630  0D82  00C1               	movwf	??_main+2
  1631  0D83  0841               	movf	??_main+2,w
  1632  0D84  00A8               	movwf	ACTION@speed_bitHigh
  1633  0D85  0022               	movlb	2	; select bank2
  1634  0D86  0826               	movf	(_copy^(0+256)+6),w
  1635  0D87  0020               	movlb	0	; select bank0
  1636  0D88  00C2               	movwf	??_main+3
  1637  0D89  0842               	movf	??_main+3,w
  1638  0D8A  00A9               	movwf	ACTION@speed_bitLow
  1639  0D8B  0022               	movlb	2	; select bank2
  1640  0D8C  0827               	movf	(_copy^(0+256)+7),w
  1641  0D8D  0020               	movlb	0	; select bank0
  1642  0D8E  00C3               	movwf	??_main+4
  1643  0D8F  0843               	movf	??_main+4,w
  1644  0D90  00AA               	movwf	ACTION@parent
  1645  0D91  0022               	movlb	2	; select bank2
  1646  0D92  0828               	movf	(_copy^(0+256)+8),w
  1647  0D93  0020               	movlb	0	; select bank0
  1648  0D94  00C4               	movwf	??_main+5
  1649  0D95  0844               	movf	??_main+5,w
  1650  0D96  00AB               	movwf	ACTION@finalFrameStat
  1651  0D97  0022               	movlb	2	; select bank2
  1652  0D98  0822               	movf	(_copy^(0+256)+2),w
  1653  0D99  3184  24D4  318C   	fcall	_ACTION
  1654  0D9C                     l7232:	
  1655                           
  1656                           ;twodimmer_1fd_1sw.c: 870: }
  1657                           ;twodimmer_1fd_1sw.c: 871: }
  1658                           ;twodimmer_1fd_1sw.c: 876: if(child_LOCK[1]==0 && RA5==0 && M1==0)
  1659  0D9C  0023               	movlb	3	; select bank3
  1660  0D9D  0822               	movf	(_child_LOCK^(0+384)+2),w
  1661  0D9E  0423               	iorwf	((_child_LOCK+1)^(0+384)+2),w
  1662  0D9F  1D03               	btfss	3,2
  1663  0DA0  2DD2               	goto	l7250
  1664  0DA1  0020               	movlb	0	; select bank0
  1665  0DA2  1A8C               	btfsc	12,5	;volatile
  1666  0DA3  2DD2               	goto	l7250
  1667  0DA4  084D               	movf	_M1,w
  1668  0DA5  044E               	iorwf	_M1+1,w
  1669  0DA6  1D03               	btfss	3,2
  1670  0DA7  2DD2               	goto	l7250
  1671                           
  1672                           ;twodimmer_1fd_1sw.c: 877: {
  1673                           ;twodimmer_1fd_1sw.c: 878: if(man==1)
  1674  0DA8  035F               	decf	_man,w
  1675  0DA9  0460               	iorwf	_man+1,w
  1676  0DAA  1D03               	btfss	3,2
  1677  0DAB  2DC9               	goto	l7246
  1678                           
  1679                           ;twodimmer_1fd_1sw.c: 879: {
  1680                           ;twodimmer_1fd_1sw.c: 880: st[1]='R'; st[2]='0'; st[3]='0'; st[4]='1'; writeUART(st+1);
  1681  0DAC  3052               	movlw	82
  1682  0DAD  00BF               	movwf	??_main
  1683  0DAE  083F               	movf	??_main,w
  1684  0DAF  0021               	movlb	1	; select bank1
  1685  0DB0  00C5               	movwf	(_st^(0+128)+1)
  1686  0DB1  3030               	movlw	48
  1687  0DB2  0020               	movlb	0	; select bank0
  1688  0DB3  00BF               	movwf	??_main
  1689  0DB4  083F               	movf	??_main,w
  1690  0DB5  0021               	movlb	1	; select bank1
  1691  0DB6  00C6               	movwf	(_st^(0+128)+2)
  1692  0DB7  3030               	movlw	48
  1693  0DB8  0020               	movlb	0	; select bank0
  1694  0DB9  00BF               	movwf	??_main
  1695  0DBA  083F               	movf	??_main,w
  1696  0DBB  0021               	movlb	1	; select bank1
  1697  0DBC  00C7               	movwf	(_st^(0+128)+3)
  1698  0DBD  3031               	movlw	49
  1699  0DBE  0020               	movlb	0	; select bank0
  1700  0DBF  00BF               	movwf	??_main
  1701  0DC0  083F               	movf	??_main,w
  1702  0DC1  0021               	movlb	1	; select bank1
  1703  0DC2  00C8               	movwf	(_st^(0+128)+4)
  1704  0DC3  30C5               	movlw	(low ((_st| 0+1)))& (0+255)
  1705  0DC4  318A  22DF  318C   	fcall	_writeUART
  1706                           
  1707                           ;twodimmer_1fd_1sw.c: 881: RF0=0;
  1708  0DC7  0025               	movlb	5	; select bank5
  1709  0DC8  100C               	bcf	12,0	;volatile
  1710  0DC9                     l7246:	
  1711                           
  1712                           ;twodimmer_1fd_1sw.c: 882: }
  1713                           ;twodimmer_1fd_1sw.c: 883: M1=1; man=1;
  1714  0DC9  3001               	movlw	1
  1715  0DCA  0020               	movlb	0	; select bank0
  1716  0DCB  00CD               	movwf	_M1
  1717  0DCC  3000               	movlw	0
  1718  0DCD  00CE               	movwf	_M1+1
  1719  0DCE  3001               	movlw	1
  1720  0DCF  00DF               	movwf	_man
  1721  0DD0  3000               	movlw	0
  1722  0DD1  00E0               	movwf	_man+1
  1723  0DD2                     l7250:	
  1724                           
  1725                           ;twodimmer_1fd_1sw.c: 884: }
  1726                           ;twodimmer_1fd_1sw.c: 887: if(child_LOCK[1]==0 && RA5==1 && M1==1)
  1727  0DD2  0023               	movlb	3	; select bank3
  1728  0DD3  0822               	movf	(_child_LOCK^(0+384)+2),w
  1729  0DD4  0423               	iorwf	((_child_LOCK+1)^(0+384)+2),w
  1730  0DD5  1D03               	btfss	3,2
  1731  0DD6  2E06               	goto	l7268
  1732  0DD7  0020               	movlb	0	; select bank0
  1733  0DD8  1E8C               	btfss	12,5	;volatile
  1734  0DD9  2E06               	goto	l7268
  1735  0DDA  034D               	decf	_M1,w
  1736  0DDB  044E               	iorwf	_M1+1,w
  1737  0DDC  1D03               	btfss	3,2
  1738  0DDD  2E06               	goto	l7268
  1739                           
  1740                           ;twodimmer_1fd_1sw.c: 888: {
  1741                           ;twodimmer_1fd_1sw.c: 889: if(man==1)
  1742  0DDE  035F               	decf	_man,w
  1743  0DDF  0460               	iorwf	_man+1,w
  1744  0DE0  1D03               	btfss	3,2
  1745  0DE1  2DFF               	goto	l7264
  1746                           
  1747                           ;twodimmer_1fd_1sw.c: 890: {
  1748                           ;twodimmer_1fd_1sw.c: 891: st[1]='R'; st[2]='1'; st[3]='0'; st[4]='1'; writeUART(st+1);
  1749  0DE2  3052               	movlw	82
  1750  0DE3  00BF               	movwf	??_main
  1751  0DE4  083F               	movf	??_main,w
  1752  0DE5  0021               	movlb	1	; select bank1
  1753  0DE6  00C5               	movwf	(_st^(0+128)+1)
  1754  0DE7  3031               	movlw	49
  1755  0DE8  0020               	movlb	0	; select bank0
  1756  0DE9  00BF               	movwf	??_main
  1757  0DEA  083F               	movf	??_main,w
  1758  0DEB  0021               	movlb	1	; select bank1
  1759  0DEC  00C6               	movwf	(_st^(0+128)+2)
  1760  0DED  3030               	movlw	48
  1761  0DEE  0020               	movlb	0	; select bank0
  1762  0DEF  00BF               	movwf	??_main
  1763  0DF0  083F               	movf	??_main,w
  1764  0DF1  0021               	movlb	1	; select bank1
  1765  0DF2  00C7               	movwf	(_st^(0+128)+3)
  1766  0DF3  3031               	movlw	49
  1767  0DF4  0020               	movlb	0	; select bank0
  1768  0DF5  00BF               	movwf	??_main
  1769  0DF6  083F               	movf	??_main,w
  1770  0DF7  0021               	movlb	1	; select bank1
  1771  0DF8  00C8               	movwf	(_st^(0+128)+4)
  1772  0DF9  30C5               	movlw	(low ((_st| 0+1)))& (0+255)
  1773  0DFA  318A  22DF  318C   	fcall	_writeUART
  1774                           
  1775                           ;twodimmer_1fd_1sw.c: 892: RF0=1;
  1776  0DFD  0025               	movlb	5	; select bank5
  1777  0DFE  140C               	bsf	12,0	;volatile
  1778  0DFF                     l7264:	
  1779                           
  1780                           ;twodimmer_1fd_1sw.c: 893: }
  1781                           ;twodimmer_1fd_1sw.c: 894: M1=0;man=1;
  1782  0DFF  0020               	movlb	0	; select bank0
  1783  0E00  01CD               	clrf	_M1
  1784  0E01  01CE               	clrf	_M1+1
  1785  0E02  3001               	movlw	1
  1786  0E03  00DF               	movwf	_man
  1787  0E04  3000               	movlw	0
  1788  0E05  00E0               	movwf	_man+1
  1789  0E06                     l7268:	
  1790                           
  1791                           ;twodimmer_1fd_1sw.c: 895: }
  1792                           ;twodimmer_1fd_1sw.c: 897: if( child_LOCK[3]==0 && RF2==0 && M2==0)
  1793  0E06  0023               	movlb	3	; select bank3
  1794  0E07  0826               	movf	(_child_LOCK^(0+384)+6),w
  1795  0E08  0427               	iorwf	((_child_LOCK+1)^(0+384)+6),w
  1796  0E09  1D03               	btfss	3,2
  1797  0E0A  2E3D               	goto	l7286
  1798  0E0B  0025               	movlb	5	; select bank5
  1799  0E0C  190C               	btfsc	12,2	;volatile
  1800  0E0D  2E3D               	goto	l7286
  1801  0E0E  0020               	movlb	0	; select bank0
  1802  0E0F  084B               	movf	_M2,w
  1803  0E10  044C               	iorwf	_M2+1,w
  1804  0E11  1D03               	btfss	3,2
  1805  0E12  2E3D               	goto	l7286
  1806                           
  1807                           ;twodimmer_1fd_1sw.c: 898: {
  1808                           ;twodimmer_1fd_1sw.c: 899: if(man==1)
  1809  0E13  035F               	decf	_man,w
  1810  0E14  0460               	iorwf	_man+1,w
  1811  0E15  1D03               	btfss	3,2
  1812  0E16  2E34               	goto	l7282
  1813                           
  1814                           ;twodimmer_1fd_1sw.c: 900: {
  1815                           ;twodimmer_1fd_1sw.c: 901: st[5]='R'; st[6]='0'; st[7]='0';st[8]='2';writeUART(st+5);
  1816  0E17  3052               	movlw	82
  1817  0E18  00BF               	movwf	??_main
  1818  0E19  083F               	movf	??_main,w
  1819  0E1A  0021               	movlb	1	; select bank1
  1820  0E1B  00C9               	movwf	(_st^(0+128)+5)
  1821  0E1C  3030               	movlw	48
  1822  0E1D  0020               	movlb	0	; select bank0
  1823  0E1E  00BF               	movwf	??_main
  1824  0E1F  083F               	movf	??_main,w
  1825  0E20  0021               	movlb	1	; select bank1
  1826  0E21  00CA               	movwf	(_st^(0+128)+6)
  1827  0E22  3030               	movlw	48
  1828  0E23  0020               	movlb	0	; select bank0
  1829  0E24  00BF               	movwf	??_main
  1830  0E25  083F               	movf	??_main,w
  1831  0E26  0021               	movlb	1	; select bank1
  1832  0E27  00CB               	movwf	(_st^(0+128)+7)
  1833  0E28  3032               	movlw	50
  1834  0E29  0020               	movlb	0	; select bank0
  1835  0E2A  00BF               	movwf	??_main
  1836  0E2B  083F               	movf	??_main,w
  1837  0E2C  0021               	movlb	1	; select bank1
  1838  0E2D  00CC               	movwf	(_st^(0+128)+8)
  1839  0E2E  30C9               	movlw	(low ((_st| 0+5)))& (0+255)
  1840  0E2F  318A  22DF  318C   	fcall	_writeUART
  1841                           
  1842                           ;twodimmer_1fd_1sw.c: 902: RF1=0;
  1843  0E32  0025               	movlb	5	; select bank5
  1844  0E33  108C               	bcf	12,1	;volatile
  1845  0E34                     l7282:	
  1846                           
  1847                           ;twodimmer_1fd_1sw.c: 903: }
  1848                           ;twodimmer_1fd_1sw.c: 904: M2=1;man=1;
  1849  0E34  3001               	movlw	1
  1850  0E35  0020               	movlb	0	; select bank0
  1851  0E36  00CB               	movwf	_M2
  1852  0E37  3000               	movlw	0
  1853  0E38  00CC               	movwf	_M2+1
  1854  0E39  3001               	movlw	1
  1855  0E3A  00DF               	movwf	_man
  1856  0E3B  3000               	movlw	0
  1857  0E3C  00E0               	movwf	_man+1
  1858  0E3D                     l7286:	
  1859                           
  1860                           ;twodimmer_1fd_1sw.c: 905: }
  1861                           ;twodimmer_1fd_1sw.c: 907: if(child_LOCK[3]==0 && RF2==1 && M2==1)
  1862  0E3D  0023               	movlb	3	; select bank3
  1863  0E3E  0826               	movf	(_child_LOCK^(0+384)+6),w
  1864  0E3F  0427               	iorwf	((_child_LOCK+1)^(0+384)+6),w
  1865  0E40  1D03               	btfss	3,2
  1866  0E41  2E72               	goto	l7304
  1867  0E42  0025               	movlb	5	; select bank5
  1868  0E43  1D0C               	btfss	12,2	;volatile
  1869  0E44  2E72               	goto	l7304
  1870  0E45  0020               	movlb	0	; select bank0
  1871  0E46  034B               	decf	_M2,w
  1872  0E47  044C               	iorwf	_M2+1,w
  1873  0E48  1D03               	btfss	3,2
  1874  0E49  2E72               	goto	l7304
  1875                           
  1876                           ;twodimmer_1fd_1sw.c: 908: {
  1877                           ;twodimmer_1fd_1sw.c: 909: if(man==1)
  1878  0E4A  035F               	decf	_man,w
  1879  0E4B  0460               	iorwf	_man+1,w
  1880  0E4C  1D03               	btfss	3,2
  1881  0E4D  2E6B               	goto	l7300
  1882                           
  1883                           ;twodimmer_1fd_1sw.c: 910: {
  1884                           ;twodimmer_1fd_1sw.c: 911: st[5]='R';st[6]='1';st[7]='0'; st[8]='2';writeUART(st+5);
  1885  0E4E  3052               	movlw	82
  1886  0E4F  00BF               	movwf	??_main
  1887  0E50  083F               	movf	??_main,w
  1888  0E51  0021               	movlb	1	; select bank1
  1889  0E52  00C9               	movwf	(_st^(0+128)+5)
  1890  0E53  3031               	movlw	49
  1891  0E54  0020               	movlb	0	; select bank0
  1892  0E55  00BF               	movwf	??_main
  1893  0E56  083F               	movf	??_main,w
  1894  0E57  0021               	movlb	1	; select bank1
  1895  0E58  00CA               	movwf	(_st^(0+128)+6)
  1896  0E59  3030               	movlw	48
  1897  0E5A  0020               	movlb	0	; select bank0
  1898  0E5B  00BF               	movwf	??_main
  1899  0E5C  083F               	movf	??_main,w
  1900  0E5D  0021               	movlb	1	; select bank1
  1901  0E5E  00CB               	movwf	(_st^(0+128)+7)
  1902  0E5F  3032               	movlw	50
  1903  0E60  0020               	movlb	0	; select bank0
  1904  0E61  00BF               	movwf	??_main
  1905  0E62  083F               	movf	??_main,w
  1906  0E63  0021               	movlb	1	; select bank1
  1907  0E64  00CC               	movwf	(_st^(0+128)+8)
  1908  0E65  30C9               	movlw	(low ((_st| 0+5)))& (0+255)
  1909  0E66  318A  22DF  318C   	fcall	_writeUART
  1910                           
  1911                           ;twodimmer_1fd_1sw.c: 912: RF1=1;
  1912  0E69  0025               	movlb	5	; select bank5
  1913  0E6A  148C               	bsf	12,1	;volatile
  1914  0E6B                     l7300:	
  1915                           
  1916                           ;twodimmer_1fd_1sw.c: 913: }
  1917                           ;twodimmer_1fd_1sw.c: 914: M2=0;man=1;
  1918  0E6B  0020               	movlb	0	; select bank0
  1919  0E6C  01CB               	clrf	_M2
  1920  0E6D  01CC               	clrf	_M2+1
  1921  0E6E  3001               	movlw	1
  1922  0E6F  00DF               	movwf	_man
  1923  0E70  3000               	movlw	0
  1924  0E71  00E0               	movwf	_man+1
  1925  0E72                     l7304:	
  1926                           
  1927                           ;twodimmer_1fd_1sw.c: 915: }
  1928                           ;twodimmer_1fd_1sw.c: 917: if(child_LOCK[5]==0 && RF3==0 && M3==0)
  1929  0E72  0023               	movlb	3	; select bank3
  1930  0E73  082A               	movf	(_child_LOCK^(0+384)+10),w
  1931  0E74  042B               	iorwf	((_child_LOCK+1)^(0+384)+10),w
  1932  0E75  1D03               	btfss	3,2
  1933  0E76  2EEB               	goto	l7338
  1934  0E77  0025               	movlb	5	; select bank5
  1935  0E78  198C               	btfsc	12,3	;volatile
  1936  0E79  2EEB               	goto	l7338
  1937  0E7A  0020               	movlb	0	; select bank0
  1938  0E7B  0849               	movf	_M3,w
  1939  0E7C  044A               	iorwf	_M3+1,w
  1940  0E7D  1D03               	btfss	3,2
  1941  0E7E  2EEB               	goto	l7338
  1942                           
  1943                           ;twodimmer_1fd_1sw.c: 918: {
  1944                           ;twodimmer_1fd_1sw.c: 919: if(man==1)
  1945  0E7F  035F               	decf	_man,w
  1946  0E80  0460               	iorwf	_man+1,w
  1947  0E81  1D03               	btfss	3,2
  1948  0E82  2EE2               	goto	l7334
  1949                           
  1950                           ;twodimmer_1fd_1sw.c: 920: {
  1951                           ;twodimmer_1fd_1sw.c: 921: st[9]='R'; st[10]='0'; st[11]='0'; st[12]='3';writeUART(st+9)
      +                          ;
  1952  0E83  3052               	movlw	82
  1953  0E84  00BF               	movwf	??_main
  1954  0E85  083F               	movf	??_main,w
  1955  0E86  0021               	movlb	1	; select bank1
  1956  0E87  00CD               	movwf	(_st^(0+128)+9)
  1957  0E88  3030               	movlw	48
  1958  0E89  0020               	movlb	0	; select bank0
  1959  0E8A  00BF               	movwf	??_main
  1960  0E8B  083F               	movf	??_main,w
  1961  0E8C  0021               	movlb	1	; select bank1
  1962  0E8D  00CE               	movwf	(_st^(0+128)+10)
  1963  0E8E  3030               	movlw	48
  1964  0E8F  0020               	movlb	0	; select bank0
  1965  0E90  00BF               	movwf	??_main
  1966  0E91  083F               	movf	??_main,w
  1967  0E92  0021               	movlb	1	; select bank1
  1968  0E93  00CF               	movwf	(_st^(0+128)+11)
  1969  0E94  3033               	movlw	51
  1970  0E95  0020               	movlb	0	; select bank0
  1971  0E96  00BF               	movwf	??_main
  1972  0E97  083F               	movf	??_main,w
  1973  0E98  0021               	movlb	1	; select bank1
  1974  0E99  00D0               	movwf	(_st^(0+128)+12)
  1975  0E9A  30CD               	movlw	(low ((_st| 0+9)))& (0+255)
  1976  0E9B  318A  22DF  318C   	fcall	_writeUART
  1977                           
  1978                           ;twodimmer_1fd_1sw.c: 922: _delay((unsigned long)((200)*(16000000/4000.0)));
  1979  0E9E  3005               	movlw	5
  1980  0E9F  0020               	movlb	0	; select bank0
  1981  0EA0  00C0               	movwf	??_main+1
  1982  0EA1  300F               	movlw	15
  1983  0EA2  00BF               	movwf	??_main
  1984  0EA3  30F1               	movlw	241
  1985  0EA4                     u3507:	
  1986  0EA4  0B89               	decfsz	9,f
  1987  0EA5  2EA4               	goto	u3507
  1988  0EA6  0BBF               	decfsz	??_main,f
  1989  0EA7  2EA4               	goto	u3507
  1990  0EA8  0BC0               	decfsz	??_main+1,f
  1991  0EA9  2EA4               	goto	u3507
  1992                           
  1993                           ;twodimmer_1fd_1sw.c: 923: RE0=1;
  1994  0EAA  0020               	movlb	0	; select bank0
  1995  0EAB  1410               	bsf	16,0	;volatile
  1996                           
  1997                           ;twodimmer_1fd_1sw.c: 924: _delay((unsigned long)((200)*(16000000/4000.0)));
  1998  0EAC  3005               	movlw	5
  1999  0EAD  0020               	movlb	0	; select bank0
  2000  0EAE  00C0               	movwf	??_main+1
  2001  0EAF  300F               	movlw	15
  2002  0EB0  00BF               	movwf	??_main
  2003  0EB1  30F1               	movlw	241
  2004  0EB2                     u3517:	
  2005  0EB2  0B89               	decfsz	9,f
  2006  0EB3  2EB2               	goto	u3517
  2007  0EB4  0BBF               	decfsz	??_main,f
  2008  0EB5  2EB2               	goto	u3517
  2009  0EB6  0BC0               	decfsz	??_main+1,f
  2010  0EB7  2EB2               	goto	u3517
  2011                           
  2012                           ;twodimmer_1fd_1sw.c: 925: RE1=0;
  2013  0EB8  0020               	movlb	0	; select bank0
  2014  0EB9  1090               	bcf	16,1	;volatile
  2015                           
  2016                           ;twodimmer_1fd_1sw.c: 926: _delay((unsigned long)((200)*(16000000/4000.0)));
  2017  0EBA  3005               	movlw	5
  2018  0EBB  0020               	movlb	0	; select bank0
  2019  0EBC  00C0               	movwf	??_main+1
  2020  0EBD  300F               	movlw	15
  2021  0EBE  00BF               	movwf	??_main
  2022  0EBF  30F1               	movlw	241
  2023  0EC0                     u3527:	
  2024  0EC0  0B89               	decfsz	9,f
  2025  0EC1  2EC0               	goto	u3527
  2026  0EC2  0BBF               	decfsz	??_main,f
  2027  0EC3  2EC0               	goto	u3527
  2028  0EC4  0BC0               	decfsz	??_main+1,f
  2029  0EC5  2EC0               	goto	u3527
  2030                           
  2031                           ;twodimmer_1fd_1sw.c: 927: RE2=0;
  2032  0EC6  0020               	movlb	0	; select bank0
  2033  0EC7  1110               	bcf	16,2	;volatile
  2034                           
  2035                           ;twodimmer_1fd_1sw.c: 928: _delay((unsigned long)((200)*(16000000/4000.0)));
  2036  0EC8  3005               	movlw	5
  2037  0EC9  0020               	movlb	0	; select bank0
  2038  0ECA  00C0               	movwf	??_main+1
  2039  0ECB  300F               	movlw	15
  2040  0ECC  00BF               	movwf	??_main
  2041  0ECD  30F1               	movlw	241
  2042  0ECE                     u3537:	
  2043  0ECE  0B89               	decfsz	9,f
  2044  0ECF  2ECE               	goto	u3537
  2045  0ED0  0BBF               	decfsz	??_main,f
  2046  0ED1  2ECE               	goto	u3537
  2047  0ED2  0BC0               	decfsz	??_main+1,f
  2048  0ED3  2ECE               	goto	u3537
  2049                           
  2050                           ;twodimmer_1fd_1sw.c: 929: RE4=0;
  2051  0ED4  0020               	movlb	0	; select bank0
  2052  0ED5  1210               	bcf	16,4	;volatile
  2053                           
  2054                           ;twodimmer_1fd_1sw.c: 930: _delay((unsigned long)((200)*(16000000/4000.0)));
  2055  0ED6  3005               	movlw	5
  2056  0ED7  0020               	movlb	0	; select bank0
  2057  0ED8  00C0               	movwf	??_main+1
  2058  0ED9  300F               	movlw	15
  2059  0EDA  00BF               	movwf	??_main
  2060  0EDB  30F1               	movlw	241
  2061  0EDC                     u3547:	
  2062  0EDC  0B89               	decfsz	9,f
  2063  0EDD  2EDC               	goto	u3547
  2064  0EDE  0BBF               	decfsz	??_main,f
  2065  0EDF  2EDC               	goto	u3547
  2066  0EE0  0BC0               	decfsz	??_main+1,f
  2067  0EE1  2EDC               	goto	u3547
  2068  0EE2                     l7334:	
  2069                           
  2070                           ;twodimmer_1fd_1sw.c: 931: }
  2071                           ;twodimmer_1fd_1sw.c: 932: M3=1;
  2072  0EE2  3001               	movlw	1
  2073  0EE3  0020               	movlb	0	; select bank0
  2074  0EE4  00C9               	movwf	_M3
  2075  0EE5  3000               	movlw	0
  2076  0EE6  00CA               	movwf	_M3+1
  2077                           
  2078                           ;twodimmer_1fd_1sw.c: 933: man=1;
  2079  0EE7  3001               	movlw	1
  2080  0EE8  00DF               	movwf	_man
  2081  0EE9  3000               	movlw	0
  2082  0EEA  00E0               	movwf	_man+1
  2083  0EEB                     l7338:	
  2084                           
  2085                           ;twodimmer_1fd_1sw.c: 934: }
  2086                           ;twodimmer_1fd_1sw.c: 936: if( child_LOCK[5]==0 && RF3==1 && M3==1)
  2087  0EEB  0023               	movlb	3	; select bank3
  2088  0EEC  082A               	movf	(_child_LOCK^(0+384)+10),w
  2089  0EED  042B               	iorwf	((_child_LOCK+1)^(0+384)+10),w
  2090  0EEE  1D03               	btfss	3,2
  2091  0EEF  2F1F               	goto	l7356
  2092  0EF0  0025               	movlb	5	; select bank5
  2093  0EF1  1D8C               	btfss	12,3	;volatile
  2094  0EF2  2F1F               	goto	l7356
  2095  0EF3  0020               	movlb	0	; select bank0
  2096  0EF4  0349               	decf	_M3,w
  2097  0EF5  044A               	iorwf	_M3+1,w
  2098  0EF6  1D03               	btfss	3,2
  2099  0EF7  2F1F               	goto	l7356
  2100                           
  2101                           ;twodimmer_1fd_1sw.c: 937: {
  2102                           ;twodimmer_1fd_1sw.c: 938: if(man==1)
  2103  0EF8  035F               	decf	_man,w
  2104  0EF9  0460               	iorwf	_man+1,w
  2105  0EFA  1D03               	btfss	3,2
  2106  0EFB  2F19               	goto	l7352
  2107                           
  2108                           ;twodimmer_1fd_1sw.c: 939: {
  2109                           ;twodimmer_1fd_1sw.c: 940: st[9]='R'; st[10]='1';st[11]='0';st[12]='3';writeUART(st+9);
  2110  0EFC  3052               	movlw	82
  2111  0EFD  00BF               	movwf	??_main
  2112  0EFE  083F               	movf	??_main,w
  2113  0EFF  0021               	movlb	1	; select bank1
  2114  0F00  00CD               	movwf	(_st^(0+128)+9)
  2115  0F01  3031               	movlw	49
  2116  0F02  0020               	movlb	0	; select bank0
  2117  0F03  00BF               	movwf	??_main
  2118  0F04  083F               	movf	??_main,w
  2119  0F05  0021               	movlb	1	; select bank1
  2120  0F06  00CE               	movwf	(_st^(0+128)+10)
  2121  0F07  3030               	movlw	48
  2122  0F08  0020               	movlb	0	; select bank0
  2123  0F09  00BF               	movwf	??_main
  2124  0F0A  083F               	movf	??_main,w
  2125  0F0B  0021               	movlb	1	; select bank1
  2126  0F0C  00CF               	movwf	(_st^(0+128)+11)
  2127  0F0D  3033               	movlw	51
  2128  0F0E  0020               	movlb	0	; select bank0
  2129  0F0F  00BF               	movwf	??_main
  2130  0F10  083F               	movf	??_main,w
  2131  0F11  0021               	movlb	1	; select bank1
  2132  0F12  00D0               	movwf	(_st^(0+128)+12)
  2133  0F13  30CD               	movlw	(low ((_st| 0+9)))& (0+255)
  2134  0F14  318A  22DF  318C   	fcall	_writeUART
  2135                           
  2136                           ;twodimmer_1fd_1sw.c: 941: RE0=0;
  2137  0F17  0020               	movlb	0	; select bank0
  2138  0F18  1010               	bcf	16,0	;volatile
  2139  0F19                     l7352:	
  2140                           
  2141                           ;twodimmer_1fd_1sw.c: 942: }
  2142                           ;twodimmer_1fd_1sw.c: 943: M3=0;
  2143  0F19  01C9               	clrf	_M3
  2144  0F1A  01CA               	clrf	_M3+1
  2145                           
  2146                           ;twodimmer_1fd_1sw.c: 944: man=1;
  2147  0F1B  3001               	movlw	1
  2148  0F1C  00DF               	movwf	_man
  2149  0F1D  3000               	movlw	0
  2150  0F1E  00E0               	movwf	_man+1
  2151  0F1F                     l7356:	
  2152                           
  2153                           ;twodimmer_1fd_1sw.c: 945: }
  2154                           ;twodimmer_1fd_1sw.c: 947: if(child_LOCK[7]==0 && RF5==0 && M4==0)
  2155  0F1F  0023               	movlb	3	; select bank3
  2156  0F20  082E               	movf	(_child_LOCK^(0+384)+14),w
  2157  0F21  042F               	iorwf	((_child_LOCK+1)^(0+384)+14),w
  2158  0F22  1D03               	btfss	3,2
  2159  0F23  2F58               	goto	l7376
  2160  0F24  0025               	movlb	5	; select bank5
  2161  0F25  1A8C               	btfsc	12,5	;volatile
  2162  0F26  2F58               	goto	l7376
  2163  0F27  0020               	movlb	0	; select bank0
  2164  0F28  0847               	movf	_M4,w
  2165  0F29  0448               	iorwf	_M4+1,w
  2166  0F2A  1D03               	btfss	3,2
  2167  0F2B  2F58               	goto	l7376
  2168                           
  2169                           ;twodimmer_1fd_1sw.c: 948: {
  2170                           ;twodimmer_1fd_1sw.c: 949: if(man==1)
  2171  0F2C  035F               	decf	_man,w
  2172  0F2D  0460               	iorwf	_man+1,w
  2173  0F2E  1D03               	btfss	3,2
  2174  0F2F  2F50               	goto	l7372
  2175                           
  2176                           ;twodimmer_1fd_1sw.c: 950: {
  2177                           ;twodimmer_1fd_1sw.c: 951: st[13]='R';st[14]='0';st[15]='0';st[16]='4'; writeUART(st+13)
      +                          ;
  2178  0F30  3052               	movlw	82
  2179  0F31  00BF               	movwf	??_main
  2180  0F32  083F               	movf	??_main,w
  2181  0F33  0021               	movlb	1	; select bank1
  2182  0F34  00D1               	movwf	(_st^(0+128)+13)
  2183  0F35  3030               	movlw	48
  2184  0F36  0020               	movlb	0	; select bank0
  2185  0F37  00BF               	movwf	??_main
  2186  0F38  083F               	movf	??_main,w
  2187  0F39  0021               	movlb	1	; select bank1
  2188  0F3A  00D2               	movwf	(_st^(0+128)+14)
  2189  0F3B  3030               	movlw	48
  2190  0F3C  0020               	movlb	0	; select bank0
  2191  0F3D  00BF               	movwf	??_main
  2192  0F3E  083F               	movf	??_main,w
  2193  0F3F  0021               	movlb	1	; select bank1
  2194  0F40  00D3               	movwf	(_st^(0+128)+15)
  2195  0F41  3034               	movlw	52
  2196  0F42  0020               	movlb	0	; select bank0
  2197  0F43  00BF               	movwf	??_main
  2198  0F44  083F               	movf	??_main,w
  2199  0F45  0021               	movlb	1	; select bank1
  2200  0F46  00D4               	movwf	(_st^(0+128)+16)
  2201  0F47  30D1               	movlw	(low ((_st| 0+13)))& (0+255)
  2202  0F48  318A  22DF  318C   	fcall	_writeUART
  2203                           
  2204                           ;twodimmer_1fd_1sw.c: 952: FAN_FLAG1=0;
  2205  0F4B  0021               	movlb	1	; select bank1
  2206  0F4C  01E2               	clrf	_FAN_FLAG1^(0+128)
  2207  0F4D  01E3               	clrf	(_FAN_FLAG1+1)^(0+128)
  2208                           
  2209                           ;twodimmer_1fd_1sw.c: 953: RA3=1;
  2210  0F4E  0020               	movlb	0	; select bank0
  2211  0F4F  158C               	bsf	12,3	;volatile
  2212  0F50                     l7372:	
  2213                           
  2214                           ;twodimmer_1fd_1sw.c: 954: }
  2215                           ;twodimmer_1fd_1sw.c: 955: M4=1;
  2216  0F50  3001               	movlw	1
  2217  0F51  00C7               	movwf	_M4
  2218  0F52  3000               	movlw	0
  2219  0F53  00C8               	movwf	_M4+1
  2220                           
  2221                           ;twodimmer_1fd_1sw.c: 956: man=1;
  2222  0F54  3001               	movlw	1
  2223  0F55  00DF               	movwf	_man
  2224  0F56  3000               	movlw	0
  2225  0F57  00E0               	movwf	_man+1
  2226  0F58                     l7376:	
  2227                           
  2228                           ;twodimmer_1fd_1sw.c: 957: }
  2229                           ;twodimmer_1fd_1sw.c: 959: if( child_LOCK[7]==0 && RF5==1 && M4==1)
  2230  0F58  0023               	movlb	3	; select bank3
  2231  0F59  082E               	movf	(_child_LOCK^(0+384)+14),w
  2232  0F5A  042F               	iorwf	((_child_LOCK+1)^(0+384)+14),w
  2233  0F5B  1D03               	btfss	3,2
  2234  0F5C  2F8F               	goto	l7396
  2235  0F5D  0025               	movlb	5	; select bank5
  2236  0F5E  1E8C               	btfss	12,5	;volatile
  2237  0F5F  2F8F               	goto	l7396
  2238  0F60  0020               	movlb	0	; select bank0
  2239  0F61  0347               	decf	_M4,w
  2240  0F62  0448               	iorwf	_M4+1,w
  2241  0F63  1D03               	btfss	3,2
  2242  0F64  2F8F               	goto	l7396
  2243                           
  2244                           ;twodimmer_1fd_1sw.c: 960: {
  2245                           ;twodimmer_1fd_1sw.c: 961: if(man==1)
  2246  0F65  035F               	decf	_man,w
  2247  0F66  0460               	iorwf	_man+1,w
  2248  0F67  1D03               	btfss	3,2
  2249  0F68  2F89               	goto	l7392
  2250                           
  2251                           ;twodimmer_1fd_1sw.c: 962: {
  2252                           ;twodimmer_1fd_1sw.c: 963: st[13]='R'; st[14]='1';st[15]='0';st[16]='4';writeUART(st+13)
      +                          ;
  2253  0F69  3052               	movlw	82
  2254  0F6A  00BF               	movwf	??_main
  2255  0F6B  083F               	movf	??_main,w
  2256  0F6C  0021               	movlb	1	; select bank1
  2257  0F6D  00D1               	movwf	(_st^(0+128)+13)
  2258  0F6E  3031               	movlw	49
  2259  0F6F  0020               	movlb	0	; select bank0
  2260  0F70  00BF               	movwf	??_main
  2261  0F71  083F               	movf	??_main,w
  2262  0F72  0021               	movlb	1	; select bank1
  2263  0F73  00D2               	movwf	(_st^(0+128)+14)
  2264  0F74  3030               	movlw	48
  2265  0F75  0020               	movlb	0	; select bank0
  2266  0F76  00BF               	movwf	??_main
  2267  0F77  083F               	movf	??_main,w
  2268  0F78  0021               	movlb	1	; select bank1
  2269  0F79  00D3               	movwf	(_st^(0+128)+15)
  2270  0F7A  3034               	movlw	52
  2271  0F7B  0020               	movlb	0	; select bank0
  2272  0F7C  00BF               	movwf	??_main
  2273  0F7D  083F               	movf	??_main,w
  2274  0F7E  0021               	movlb	1	; select bank1
  2275  0F7F  00D4               	movwf	(_st^(0+128)+16)
  2276  0F80  30D1               	movlw	(low ((_st| 0+13)))& (0+255)
  2277  0F81  318A  22DF  318C   	fcall	_writeUART
  2278                           
  2279                           ;twodimmer_1fd_1sw.c: 964: FAN_FLAG1=0;
  2280  0F84  0021               	movlb	1	; select bank1
  2281  0F85  01E2               	clrf	_FAN_FLAG1^(0+128)
  2282  0F86  01E3               	clrf	(_FAN_FLAG1+1)^(0+128)
  2283                           
  2284                           ;twodimmer_1fd_1sw.c: 965: RA3=0;
  2285  0F87  0020               	movlb	0	; select bank0
  2286  0F88  118C               	bcf	12,3	;volatile
  2287  0F89                     l7392:	
  2288                           
  2289                           ;twodimmer_1fd_1sw.c: 966: }
  2290                           ;twodimmer_1fd_1sw.c: 967: M4=0;
  2291  0F89  01C7               	clrf	_M4
  2292  0F8A  01C8               	clrf	_M4+1
  2293                           
  2294                           ;twodimmer_1fd_1sw.c: 968: man=1;
  2295  0F8B  3001               	movlw	1
  2296  0F8C  00DF               	movwf	_man
  2297  0F8D  3000               	movlw	0
  2298  0F8E  00E0               	movwf	_man+1
  2299  0F8F                     l7396:	
  2300                           
  2301                           ;twodimmer_1fd_1sw.c: 969: }
  2302                           ;twodimmer_1fd_1sw.c: 971: if(child_LOCK[9]==0 && RF7==0 && M5==0)
  2303  0F8F  0023               	movlb	3	; select bank3
  2304  0F90  0832               	movf	(_child_LOCK^(0+384)+18),w
  2305  0F91  0433               	iorwf	((_child_LOCK+1)^(0+384)+18),w
  2306  0F92  1D03               	btfss	3,2
  2307  0F93  2FC8               	goto	l7416
  2308  0F94  0025               	movlb	5	; select bank5
  2309  0F95  1B8C               	btfsc	12,7	;volatile
  2310  0F96  2FC8               	goto	l7416
  2311  0F97  0020               	movlb	0	; select bank0
  2312  0F98  0845               	movf	_M5,w
  2313  0F99  0446               	iorwf	_M5+1,w
  2314  0F9A  1D03               	btfss	3,2
  2315  0F9B  2FC8               	goto	l7416
  2316                           
  2317                           ;twodimmer_1fd_1sw.c: 972: {
  2318                           ;twodimmer_1fd_1sw.c: 973: if(man==1)
  2319  0F9C  035F               	decf	_man,w
  2320  0F9D  0460               	iorwf	_man+1,w
  2321  0F9E  1D03               	btfss	3,2
  2322  0F9F  2FC0               	goto	l7412
  2323                           
  2324                           ;twodimmer_1fd_1sw.c: 974: {
  2325                           ;twodimmer_1fd_1sw.c: 975: st[17]='R';st[18]='0'; st[19]='0';st[20]='5'; writeUART(st+17
      +                          );
  2326  0FA0  3052               	movlw	82
  2327  0FA1  00BF               	movwf	??_main
  2328  0FA2  083F               	movf	??_main,w
  2329  0FA3  0021               	movlb	1	; select bank1
  2330  0FA4  00D5               	movwf	(_st^(0+128)+17)
  2331  0FA5  3030               	movlw	48
  2332  0FA6  0020               	movlb	0	; select bank0
  2333  0FA7  00BF               	movwf	??_main
  2334  0FA8  083F               	movf	??_main,w
  2335  0FA9  0021               	movlb	1	; select bank1
  2336  0FAA  00D6               	movwf	(_st^(0+128)+18)
  2337  0FAB  3030               	movlw	48
  2338  0FAC  0020               	movlb	0	; select bank0
  2339  0FAD  00BF               	movwf	??_main
  2340  0FAE  083F               	movf	??_main,w
  2341  0FAF  0021               	movlb	1	; select bank1
  2342  0FB0  00D7               	movwf	(_st^(0+128)+19)
  2343  0FB1  3035               	movlw	53
  2344  0FB2  0020               	movlb	0	; select bank0
  2345  0FB3  00BF               	movwf	??_main
  2346  0FB4  083F               	movf	??_main,w
  2347  0FB5  0021               	movlb	1	; select bank1
  2348  0FB6  00D8               	movwf	(_st^(0+128)+20)
  2349  0FB7  30D5               	movlw	(low ((_st| 0+17)))& (0+255)
  2350  0FB8  318A  22DF  318C   	fcall	_writeUART
  2351                           
  2352                           ;twodimmer_1fd_1sw.c: 976: FAN_FLAG2=0;
  2353  0FBB  0021               	movlb	1	; select bank1
  2354  0FBC  01E0               	clrf	_FAN_FLAG2^(0+128)
  2355  0FBD  01E1               	clrf	(_FAN_FLAG2+1)^(0+128)
  2356                           
  2357                           ;twodimmer_1fd_1sw.c: 977: RE5=1;
  2358  0FBE  0020               	movlb	0	; select bank0
  2359  0FBF  1690               	bsf	16,5	;volatile
  2360  0FC0                     l7412:	
  2361                           
  2362                           ;twodimmer_1fd_1sw.c: 978: }
  2363                           ;twodimmer_1fd_1sw.c: 979: M5=1;
  2364  0FC0  3001               	movlw	1
  2365  0FC1  00C5               	movwf	_M5
  2366  0FC2  3000               	movlw	0
  2367  0FC3  00C6               	movwf	_M5+1
  2368                           
  2369                           ;twodimmer_1fd_1sw.c: 980: man=1;
  2370  0FC4  3001               	movlw	1
  2371  0FC5  00DF               	movwf	_man
  2372  0FC6  3000               	movlw	0
  2373  0FC7  00E0               	movwf	_man+1
  2374  0FC8                     l7416:	
  2375                           
  2376                           ;twodimmer_1fd_1sw.c: 981: }
  2377                           ;twodimmer_1fd_1sw.c: 983: if(child_LOCK[9]==0 && RF7==1 && M5==1)
  2378  0FC8  0023               	movlb	3	; select bank3
  2379  0FC9  0832               	movf	(_child_LOCK^(0+384)+18),w
  2380  0FCA  0433               	iorwf	((_child_LOCK+1)^(0+384)+18),w
  2381  0FCB  1D03               	btfss	3,2
  2382  0FCC  2C51               	goto	l7146
  2383  0FCD  0025               	movlb	5	; select bank5
  2384  0FCE  1F8C               	btfss	12,7	;volatile
  2385  0FCF  2C51               	goto	l7146
  2386  0FD0  0020               	movlb	0	; select bank0
  2387  0FD1  0345               	decf	_M5,w
  2388  0FD2  0446               	iorwf	_M5+1,w
  2389  0FD3  1D03               	btfss	3,2
  2390  0FD4  2C51               	goto	l7146
  2391                           
  2392                           ;twodimmer_1fd_1sw.c: 984: {
  2393                           ;twodimmer_1fd_1sw.c: 985: if(man==1)
  2394  0FD5  035F               	decf	_man,w
  2395  0FD6  0460               	iorwf	_man+1,w
  2396  0FD7  1D03               	btfss	3,2
  2397  0FD8  2FF9               	goto	l7432
  2398                           
  2399                           ;twodimmer_1fd_1sw.c: 986: {
  2400                           ;twodimmer_1fd_1sw.c: 987: st[17]='R';st[18]='1';st[19]='0';st[20]='5';writeUART(st+17);
  2401  0FD9  3052               	movlw	82
  2402  0FDA  00BF               	movwf	??_main
  2403  0FDB  083F               	movf	??_main,w
  2404  0FDC  0021               	movlb	1	; select bank1
  2405  0FDD  00D5               	movwf	(_st^(0+128)+17)
  2406  0FDE  3031               	movlw	49
  2407  0FDF  0020               	movlb	0	; select bank0
  2408  0FE0  00BF               	movwf	??_main
  2409  0FE1  083F               	movf	??_main,w
  2410  0FE2  0021               	movlb	1	; select bank1
  2411  0FE3  00D6               	movwf	(_st^(0+128)+18)
  2412  0FE4  3030               	movlw	48
  2413  0FE5  0020               	movlb	0	; select bank0
  2414  0FE6  00BF               	movwf	??_main
  2415  0FE7  083F               	movf	??_main,w
  2416  0FE8  0021               	movlb	1	; select bank1
  2417  0FE9  00D7               	movwf	(_st^(0+128)+19)
  2418  0FEA  3035               	movlw	53
  2419  0FEB  0020               	movlb	0	; select bank0
  2420  0FEC  00BF               	movwf	??_main
  2421  0FED  083F               	movf	??_main,w
  2422  0FEE  0021               	movlb	1	; select bank1
  2423  0FEF  00D8               	movwf	(_st^(0+128)+20)
  2424  0FF0  30D5               	movlw	(low ((_st| 0+17)))& (0+255)
  2425  0FF1  318A  22DF  318C   	fcall	_writeUART
  2426                           
  2427                           ;twodimmer_1fd_1sw.c: 988: FAN_FLAG2=0;
  2428  0FF4  0021               	movlb	1	; select bank1
  2429  0FF5  01E0               	clrf	_FAN_FLAG2^(0+128)
  2430  0FF6  01E1               	clrf	(_FAN_FLAG2+1)^(0+128)
  2431                           
  2432                           ;twodimmer_1fd_1sw.c: 989: RE5=0;
  2433  0FF7  0020               	movlb	0	; select bank0
  2434  0FF8  1290               	bcf	16,5	;volatile
  2435  0FF9                     l7432:	
  2436                           
  2437                           ;twodimmer_1fd_1sw.c: 990: }
  2438                           ;twodimmer_1fd_1sw.c: 991: M5=0;
  2439  0FF9  01C5               	clrf	_M5
  2440  0FFA  01C6               	clrf	_M5+1
  2441                           
  2442                           ;twodimmer_1fd_1sw.c: 992: man=1;
  2443  0FFB  3001               	movlw	1
  2444  0FFC  00DF               	movwf	_man
  2445  0FFD  3000               	movlw	0
  2446  0FFE  00E0               	movwf	_man+1
  2447  0FFF  2C51               	goto	l7146
  2448  1000                     __end_of_main:	
  2449                           
  2450                           	psect	text1
  2451  0B31                     __ptext1:	
  2452 ;; *************** function _pin_manager *****************
  2453 ;; Defined at:
  2454 ;;		line 1504 in file "twodimmer_1fd_1sw.c"
  2455 ;; Parameters:    Size  Location     Type
  2456 ;;		None
  2457 ;; Auto vars:     Size  Location     Type
  2458 ;;		None
  2459 ;; Return value:  Size  Location     Type
  2460 ;;                  1    wreg      void 
  2461 ;; Registers used:
  2462 ;;		status,2
  2463 ;; Tracked objects:
  2464 ;;		On entry : 0/0
  2465 ;;		On exit  : 0/0
  2466 ;;		Unchanged: 0/0
  2467 ;; Data sizes:     COMMON   BANK0   BANK1   BANK2   BANK3   BANK4   BANK5   BANK6   BANK7   BANK8   BANK9
  2468 ;;      Params:         0       0       0       0       0       0       0       0       0       0       0
  2469 ;;      Locals:         0       0       0       0       0       0       0       0       0       0       0
  2470 ;;      Temps:          0       0       0       0       0       0       0       0       0       0       0
  2471 ;;      Totals:         0       0       0       0       0       0       0       0       0       0       0
  2472 ;;Total ram usage:        0 bytes
  2473 ;; Hardware stack levels used:    1
  2474 ;; Hardware stack levels required when called:    1
  2475 ;; This function calls:
  2476 ;;		Nothing
  2477 ;; This function is called by:
  2478 ;;		_main
  2479 ;; This function uses a non-reentrant model
  2480 ;;
  2481                           
  2482                           
  2483                           ;psect for function _pin_manager
  2484  0B31                     _pin_manager:	
  2485                           
  2486                           ;twodimmer_1fd_1sw.c: 1509: ANSELG=0x00;
  2487                           
  2488                           ;incstack = 0
  2489                           ; Regs used in _pin_manager: [status,2]
  2490  0B31  0028               	movlb	8	; select bank8
  2491  0B32  018D               	clrf	13	;volatile
  2492                           
  2493                           ;twodimmer_1fd_1sw.c: 1510: TRISGbits.TRISG0=1;
  2494  0B33  0026               	movlb	6	; select bank6
  2495  0B34  140D               	bsf	13,0	;volatile
  2496                           
  2497                           ;twodimmer_1fd_1sw.c: 1512: WPUG = 0;
  2498  0B35  0029               	movlb	9	; select bank9
  2499  0B36  018D               	clrf	13	;volatile
  2500                           
  2501                           ;twodimmer_1fd_1sw.c: 1515: ANSELF=0x00;
  2502  0B37  0028               	movlb	8	; select bank8
  2503  0B38  018C               	clrf	12	;volatile
  2504                           
  2505                           ;twodimmer_1fd_1sw.c: 1516: TRISFbits.TRISF0=0;
  2506  0B39  0026               	movlb	6	; select bank6
  2507  0B3A  100C               	bcf	12,0	;volatile
  2508                           
  2509                           ;twodimmer_1fd_1sw.c: 1517: TRISFbits.TRISF1=0;
  2510  0B3B  108C               	bcf	12,1	;volatile
  2511                           
  2512                           ;twodimmer_1fd_1sw.c: 1518: TRISFbits.TRISF2=1;
  2513  0B3C  150C               	bsf	12,2	;volatile
  2514                           
  2515                           ;twodimmer_1fd_1sw.c: 1519: TRISFbits.TRISF3=1;
  2516  0B3D  158C               	bsf	12,3	;volatile
  2517                           
  2518                           ;twodimmer_1fd_1sw.c: 1521: TRISFbits.TRISF5=1;
  2519  0B3E  168C               	bsf	12,5	;volatile
  2520                           
  2521                           ;twodimmer_1fd_1sw.c: 1523: TRISFbits.TRISF7=1;
  2522  0B3F  178C               	bsf	12,7	;volatile
  2523                           
  2524                           ;twodimmer_1fd_1sw.c: 1526: WPUE=0x00;
  2525  0B40  0024               	movlb	4	; select bank4
  2526  0B41  0190               	clrf	16	;volatile
  2527                           
  2528                           ;twodimmer_1fd_1sw.c: 1527: ANSELE=0x00;
  2529  0B42  0023               	movlb	3	; select bank3
  2530  0B43  0190               	clrf	16	;volatile
  2531                           
  2532                           ;twodimmer_1fd_1sw.c: 1528: TRISEbits.TRISE3=1;
  2533  0B44  0021               	movlb	1	; select bank1
  2534  0B45  1590               	bsf	16,3	;volatile
  2535                           
  2536                           ;twodimmer_1fd_1sw.c: 1529: TRISEbits.TRISE5=0;
  2537  0B46  1290               	bcf	16,5	;volatile
  2538                           
  2539                           ;twodimmer_1fd_1sw.c: 1530: TRISEbits.TRISE0=0;
  2540  0B47  1010               	bcf	16,0	;volatile
  2541                           
  2542                           ;twodimmer_1fd_1sw.c: 1531: TRISEbits.TRISE1=0;
  2543  0B48  1090               	bcf	16,1	;volatile
  2544                           
  2545                           ;twodimmer_1fd_1sw.c: 1532: TRISEbits.TRISE2=0;
  2546  0B49  1110               	bcf	16,2	;volatile
  2547                           
  2548                           ;twodimmer_1fd_1sw.c: 1533: TRISEbits.TRISE4=0;
  2549  0B4A  1210               	bcf	16,4	;volatile
  2550                           
  2551                           ;twodimmer_1fd_1sw.c: 1550: ANSELA = 0x00;
  2552  0B4B  0023               	movlb	3	; select bank3
  2553  0B4C  018C               	clrf	12	;volatile
  2554                           
  2555                           ;twodimmer_1fd_1sw.c: 1553: TRISAbits.TRISA2=0;
  2556  0B4D  0021               	movlb	1	; select bank1
  2557  0B4E  110C               	bcf	12,2	;volatile
  2558                           
  2559                           ;twodimmer_1fd_1sw.c: 1554: TRISAbits.TRISA3=0;
  2560  0B4F  118C               	bcf	12,3	;volatile
  2561                           
  2562                           ;twodimmer_1fd_1sw.c: 1556: TRISAbits.TRISA5=1;
  2563  0B50  168C               	bsf	12,5	;volatile
  2564                           
  2565                           ;twodimmer_1fd_1sw.c: 1561: TRISCbits.TRISC2 = 1;
  2566  0B51  150E               	bsf	14,2	;volatile
  2567                           
  2568                           ;twodimmer_1fd_1sw.c: 1564: TRISCbits.TRISC6 = 0;
  2569  0B52  130E               	bcf	14,6	;volatile
  2570                           
  2571                           ;twodimmer_1fd_1sw.c: 1565: TRISCbits.TRISC7 = 1;
  2572  0B53  178E               	bsf	14,7	;volatile
  2573  0B54  0008               	return
  2574  0B55                     __end_of_pin_manager:	
  2575                           
  2576                           	psect	text2
  2577  0B13                     __ptext2:	
  2578 ;; *************** function _periperal_init *****************
  2579 ;; Defined at:
  2580 ;;		line 776 in file "twodimmer_1fd_1sw.c"
  2581 ;; Parameters:    Size  Location     Type
  2582 ;;		None
  2583 ;; Auto vars:     Size  Location     Type
  2584 ;;		None
  2585 ;; Return value:  Size  Location     Type
  2586 ;;                  1    wreg      void 
  2587 ;; Registers used:
  2588 ;;		wreg, status,2, status,0, pclath, cstack
  2589 ;; Tracked objects:
  2590 ;;		On entry : 0/0
  2591 ;;		On exit  : 0/0
  2592 ;;		Unchanged: 0/0
  2593 ;; Data sizes:     COMMON   BANK0   BANK1   BANK2   BANK3   BANK4   BANK5   BANK6   BANK7   BANK8   BANK9
  2594 ;;      Params:         0       0       0       0       0       0       0       0       0       0       0
  2595 ;;      Locals:         0       0       0       0       0       0       0       0       0       0       0
  2596 ;;      Temps:          0       0       0       0       0       0       0       0       0       0       0
  2597 ;;      Totals:         0       0       0       0       0       0       0       0       0       0       0
  2598 ;;Total ram usage:        0 bytes
  2599 ;; Hardware stack levels used:    1
  2600 ;; Hardware stack levels required when called:    2
  2601 ;; This function calls:
  2602 ;;		_CCP1_Initialize
  2603 ;;		_CCP3_Initialize
  2604 ;;		_CCP9_Initialize
  2605 ;;		_EUSART_Initialize
  2606 ;;		_TMR1_Initialize
  2607 ;;		_TMR2_Initialize
  2608 ;;		_TMR3_Initialize
  2609 ;;		_TMR4_Initialize
  2610 ;;		_TMR5_Initialize
  2611 ;;		_TMR6_Initialize
  2612 ;; This function is called by:
  2613 ;;		_main
  2614 ;; This function uses a non-reentrant model
  2615 ;;
  2616                           
  2617                           
  2618                           ;psect for function _periperal_init
  2619  0B13                     _periperal_init:	
  2620                           
  2621                           ;twodimmer_1fd_1sw.c: 778: EUSART_Initialize();
  2622                           
  2623                           ;incstack = 0
  2624                           ; Regs used in _periperal_init: [wreg+status,2+status,0+pclath+cstack]
  2625  0B13  318A  22C9  318B   	fcall	_EUSART_Initialize
  2626                           
  2627                           ;twodimmer_1fd_1sw.c: 779: CCP1_Initialize();
  2628  0B16  3189  21D6  318B   	fcall	_CCP1_Initialize
  2629                           
  2630                           ;twodimmer_1fd_1sw.c: 780: CCP3_Initialize();
  2631  0B19  318A  220A  318B   	fcall	_CCP3_Initialize
  2632                           
  2633                           ;twodimmer_1fd_1sw.c: 782: CCP9_Initialize();
  2634  0B1C  318A  2200  318B   	fcall	_CCP9_Initialize
  2635                           
  2636                           ;twodimmer_1fd_1sw.c: 784: TMR1_Initialize();
  2637  0B1F  3187  27F5  318B   	fcall	_TMR1_Initialize
  2638                           
  2639                           ;twodimmer_1fd_1sw.c: 785: TMR3_Initialize();
  2640  0B22  3189  21EC  318B   	fcall	_TMR3_Initialize
  2641                           
  2642                           ;twodimmer_1fd_1sw.c: 786: TMR2_Initialize();
  2643  0B25  3189  21F6  318B   	fcall	_TMR2_Initialize
  2644                           
  2645                           ;twodimmer_1fd_1sw.c: 787: TMR4_Initialize();
  2646  0B28  318A  221D  318B   	fcall	_TMR4_Initialize
  2647                           
  2648                           ;twodimmer_1fd_1sw.c: 788: TMR5_Initialize();
  2649  0B2B  3189  21E2  318B   	fcall	_TMR5_Initialize
  2650                           
  2651                           ;twodimmer_1fd_1sw.c: 789: TMR6_Initialize();
  2652  0B2E  318A  2214         	fcall	_TMR6_Initialize
  2653  0B30  0008               	return
  2654  0B31                     __end_of_periperal_init:	
  2655                           
  2656                           	psect	text3
  2657  0A14                     __ptext3:	
  2658 ;; *************** function _TMR6_Initialize *****************
  2659 ;; Defined at:
  2660 ;;		line 1353 in file "twodimmer_1fd_1sw.c"
  2661 ;; Parameters:    Size  Location     Type
  2662 ;;		None
  2663 ;; Auto vars:     Size  Location     Type
  2664 ;;		None
  2665 ;; Return value:  Size  Location     Type
  2666 ;;                  1    wreg      void 
  2667 ;; Registers used:
  2668 ;;		wreg, status,2
  2669 ;; Tracked objects:
  2670 ;;		On entry : 0/0
  2671 ;;		On exit  : 0/0
  2672 ;;		Unchanged: 0/0
  2673 ;; Data sizes:     COMMON   BANK0   BANK1   BANK2   BANK3   BANK4   BANK5   BANK6   BANK7   BANK8   BANK9
  2674 ;;      Params:         0       0       0       0       0       0       0       0       0       0       0
  2675 ;;      Locals:         0       0       0       0       0       0       0       0       0       0       0
  2676 ;;      Temps:          0       0       0       0       0       0       0       0       0       0       0
  2677 ;;      Totals:         0       0       0       0       0       0       0       0       0       0       0
  2678 ;;Total ram usage:        0 bytes
  2679 ;; Hardware stack levels used:    1
  2680 ;; Hardware stack levels required when called:    1
  2681 ;; This function calls:
  2682 ;;		Nothing
  2683 ;; This function is called by:
  2684 ;;		_periperal_init
  2685 ;; This function uses a non-reentrant model
  2686 ;;
  2687                           
  2688                           
  2689                           ;psect for function _TMR6_Initialize
  2690  0A14                     _TMR6_Initialize:	
  2691                           
  2692                           ;twodimmer_1fd_1sw.c: 1358: T6CON = 0x08;
  2693                           
  2694                           ;incstack = 0
  2695                           ; Regs used in _TMR6_Initialize: [wreg+status,2]
  2696  0A14  3008               	movlw	8
  2697  0A15  0028               	movlb	8	; select bank8
  2698  0A16  009E               	movwf	30	;volatile
  2699                           
  2700                           ;twodimmer_1fd_1sw.c: 1364: TMR6 = 0x00;
  2701  0A17  019C               	clrf	28	;volatile
  2702                           
  2703                           ;twodimmer_1fd_1sw.c: 1367: PIR3bits.TMR6IF = 0;
  2704  0A18  0020               	movlb	0	; select bank0
  2705  0A19  1193               	bcf	19,3	;volatile
  2706                           
  2707                           ;twodimmer_1fd_1sw.c: 1370: PIE3bits.TMR6IE = 1;
  2708  0A1A  0021               	movlb	1	; select bank1
  2709  0A1B  1593               	bsf	19,3	;volatile
  2710  0A1C  0008               	return
  2711  0A1D                     __end_of_TMR6_Initialize:	
  2712                           
  2713                           	psect	text4
  2714  09E2                     __ptext4:	
  2715 ;; *************** function _TMR5_Initialize *****************
  2716 ;; Defined at:
  2717 ;;		line 1262 in file "twodimmer_1fd_1sw.c"
  2718 ;; Parameters:    Size  Location     Type
  2719 ;;		None
  2720 ;; Auto vars:     Size  Location     Type
  2721 ;;		None
  2722 ;; Return value:  Size  Location     Type
  2723 ;;                  1    wreg      void 
  2724 ;; Registers used:
  2725 ;;		status,2
  2726 ;; Tracked objects:
  2727 ;;		On entry : 0/0
  2728 ;;		On exit  : 0/0
  2729 ;;		Unchanged: 0/0
  2730 ;; Data sizes:     COMMON   BANK0   BANK1   BANK2   BANK3   BANK4   BANK5   BANK6   BANK7   BANK8   BANK9
  2731 ;;      Params:         0       0       0       0       0       0       0       0       0       0       0
  2732 ;;      Locals:         0       0       0       0       0       0       0       0       0       0       0
  2733 ;;      Temps:          0       0       0       0       0       0       0       0       0       0       0
  2734 ;;      Totals:         0       0       0       0       0       0       0       0       0       0       0
  2735 ;;Total ram usage:        0 bytes
  2736 ;; Hardware stack levels used:    1
  2737 ;; Hardware stack levels required when called:    1
  2738 ;; This function calls:
  2739 ;;		Nothing
  2740 ;; This function is called by:
  2741 ;;		_periperal_init
  2742 ;; This function uses a non-reentrant model
  2743 ;;
  2744                           
  2745                           
  2746                           ;psect for function _TMR5_Initialize
  2747  09E2                     _TMR5_Initialize:	
  2748                           
  2749                           ;twodimmer_1fd_1sw.c: 1267: T5CON = 0x00;
  2750                           
  2751                           ;incstack = 0
  2752                           ; Regs used in _TMR5_Initialize: [status,2]
  2753  09E2  0028               	movlb	8	; select bank8
  2754  09E3  019A               	clrf	26	;volatile
  2755                           
  2756                           ;twodimmer_1fd_1sw.c: 1270: T5GCON = 0x00;
  2757  09E4  019B               	clrf	27	;volatile
  2758                           
  2759                           ;twodimmer_1fd_1sw.c: 1273: TMR5H = 0x00;
  2760  09E5  0199               	clrf	25	;volatile
  2761                           
  2762                           ;twodimmer_1fd_1sw.c: 1276: TMR5L = 0x00;
  2763  09E6  0198               	clrf	24	;volatile
  2764                           
  2765                           ;twodimmer_1fd_1sw.c: 1279: PIR3bits.TMR5IF = 0;
  2766  09E7  0020               	movlb	0	; select bank0
  2767  09E8  1113               	bcf	19,2	;volatile
  2768                           
  2769                           ;twodimmer_1fd_1sw.c: 1282: PIE3bits.TMR5IE = 1;
  2770  09E9  0021               	movlb	1	; select bank1
  2771  09EA  1513               	bsf	19,2	;volatile
  2772  09EB  0008               	return
  2773  09EC                     __end_of_TMR5_Initialize:	
  2774                           
  2775                           	psect	text5
  2776  0A1D                     __ptext5:	
  2777 ;; *************** function _TMR4_Initialize *****************
  2778 ;; Defined at:
  2779 ;;		line 1333 in file "twodimmer_1fd_1sw.c"
  2780 ;; Parameters:    Size  Location     Type
  2781 ;;		None
  2782 ;; Auto vars:     Size  Location     Type
  2783 ;;		None
  2784 ;; Return value:  Size  Location     Type
  2785 ;;                  1    wreg      void 
  2786 ;; Registers used:
  2787 ;;		wreg, status,2
  2788 ;; Tracked objects:
  2789 ;;		On entry : 0/0
  2790 ;;		On exit  : 0/0
  2791 ;;		Unchanged: 0/0
  2792 ;; Data sizes:     COMMON   BANK0   BANK1   BANK2   BANK3   BANK4   BANK5   BANK6   BANK7   BANK8   BANK9
  2793 ;;      Params:         0       0       0       0       0       0       0       0       0       0       0
  2794 ;;      Locals:         0       0       0       0       0       0       0       0       0       0       0
  2795 ;;      Temps:          0       0       0       0       0       0       0       0       0       0       0
  2796 ;;      Totals:         0       0       0       0       0       0       0       0       0       0       0
  2797 ;;Total ram usage:        0 bytes
  2798 ;; Hardware stack levels used:    1
  2799 ;; Hardware stack levels required when called:    1
  2800 ;; This function calls:
  2801 ;;		Nothing
  2802 ;; This function is called by:
  2803 ;;		_periperal_init
  2804 ;; This function uses a non-reentrant model
  2805 ;;
  2806                           
  2807                           
  2808                           ;psect for function _TMR4_Initialize
  2809  0A1D                     _TMR4_Initialize:	
  2810                           
  2811                           ;twodimmer_1fd_1sw.c: 1338: T4CON = 0x08;
  2812                           
  2813                           ;incstack = 0
  2814                           ; Regs used in _TMR4_Initialize: [wreg+status,2]
  2815  0A1D  3008               	movlw	8
  2816  0A1E  0028               	movlb	8	; select bank8
  2817  0A1F  0097               	movwf	23	;volatile
  2818                           
  2819                           ;twodimmer_1fd_1sw.c: 1344: TMR4 = 0x00;
  2820  0A20  0195               	clrf	21	;volatile
  2821                           
  2822                           ;twodimmer_1fd_1sw.c: 1347: PIR3bits.TMR4IF = 0;
  2823  0A21  0020               	movlb	0	; select bank0
  2824  0A22  1093               	bcf	19,1	;volatile
  2825                           
  2826                           ;twodimmer_1fd_1sw.c: 1350: PIE3bits.TMR4IE = 1;
  2827  0A23  0021               	movlb	1	; select bank1
  2828  0A24  1493               	bsf	19,1	;volatile
  2829  0A25  0008               	return
  2830  0A26                     __end_of_TMR4_Initialize:	
  2831                           
  2832                           	psect	text6
  2833  09EC                     __ptext6:	
  2834 ;; *************** function _TMR3_Initialize *****************
  2835 ;; Defined at:
  2836 ;;		line 1230 in file "twodimmer_1fd_1sw.c"
  2837 ;; Parameters:    Size  Location     Type
  2838 ;;		None
  2839 ;; Auto vars:     Size  Location     Type
  2840 ;;		None
  2841 ;; Return value:  Size  Location     Type
  2842 ;;                  1    wreg      void 
  2843 ;; Registers used:
  2844 ;;		status,2
  2845 ;; Tracked objects:
  2846 ;;		On entry : 0/0
  2847 ;;		On exit  : 0/0
  2848 ;;		Unchanged: 0/0
  2849 ;; Data sizes:     COMMON   BANK0   BANK1   BANK2   BANK3   BANK4   BANK5   BANK6   BANK7   BANK8   BANK9
  2850 ;;      Params:         0       0       0       0       0       0       0       0       0       0       0
  2851 ;;      Locals:         0       0       0       0       0       0       0       0       0       0       0
  2852 ;;      Temps:          0       0       0       0       0       0       0       0       0       0       0
  2853 ;;      Totals:         0       0       0       0       0       0       0       0       0       0       0
  2854 ;;Total ram usage:        0 bytes
  2855 ;; Hardware stack levels used:    1
  2856 ;; Hardware stack levels required when called:    1
  2857 ;; This function calls:
  2858 ;;		Nothing
  2859 ;; This function is called by:
  2860 ;;		_periperal_init
  2861 ;; This function uses a non-reentrant model
  2862 ;;
  2863                           
  2864                           
  2865                           ;psect for function _TMR3_Initialize
  2866  09EC                     _TMR3_Initialize:	
  2867                           
  2868                           ;twodimmer_1fd_1sw.c: 1235: T3CON = 0x00;
  2869                           
  2870                           ;incstack = 0
  2871                           ; Regs used in _TMR3_Initialize: [status,2]
  2872  09EC  0028               	movlb	8	; select bank8
  2873  09ED  0193               	clrf	19	;volatile
  2874                           
  2875                           ;twodimmer_1fd_1sw.c: 1238: T3GCON = 0x00;
  2876  09EE  0194               	clrf	20	;volatile
  2877                           
  2878                           ;twodimmer_1fd_1sw.c: 1241: TMR3H = 0x00;
  2879  09EF  0192               	clrf	18	;volatile
  2880                           
  2881                           ;twodimmer_1fd_1sw.c: 1244: TMR3L = 0x00;
  2882  09F0  0191               	clrf	17	;volatile
  2883                           
  2884                           ;twodimmer_1fd_1sw.c: 1247: PIR3bits.TMR3IF = 0;
  2885  09F1  0020               	movlb	0	; select bank0
  2886  09F2  1013               	bcf	19,0	;volatile
  2887                           
  2888                           ;twodimmer_1fd_1sw.c: 1250: PIE3bits.TMR3IE = 1;
  2889  09F3  0021               	movlb	1	; select bank1
  2890  09F4  1413               	bsf	19,0	;volatile
  2891  09F5  0008               	return
  2892  09F6                     __end_of_TMR3_Initialize:	
  2893                           
  2894                           	psect	text7
  2895  09F6                     __ptext7:	
  2896 ;; *************** function _TMR2_Initialize *****************
  2897 ;; Defined at:
  2898 ;;		line 1285 in file "twodimmer_1fd_1sw.c"
  2899 ;; Parameters:    Size  Location     Type
  2900 ;;		None
  2901 ;; Auto vars:     Size  Location     Type
  2902 ;;		None
  2903 ;; Return value:  Size  Location     Type
  2904 ;;                  1    wreg      void 
  2905 ;; Registers used:
  2906 ;;		wreg, status,2
  2907 ;; Tracked objects:
  2908 ;;		On entry : 0/0
  2909 ;;		On exit  : 0/0
  2910 ;;		Unchanged: 0/0
  2911 ;; Data sizes:     COMMON   BANK0   BANK1   BANK2   BANK3   BANK4   BANK5   BANK6   BANK7   BANK8   BANK9
  2912 ;;      Params:         0       0       0       0       0       0       0       0       0       0       0
  2913 ;;      Locals:         0       0       0       0       0       0       0       0       0       0       0
  2914 ;;      Temps:          0       0       0       0       0       0       0       0       0       0       0
  2915 ;;      Totals:         0       0       0       0       0       0       0       0       0       0       0
  2916 ;;Total ram usage:        0 bytes
  2917 ;; Hardware stack levels used:    1
  2918 ;; Hardware stack levels required when called:    1
  2919 ;; This function calls:
  2920 ;;		Nothing
  2921 ;; This function is called by:
  2922 ;;		_periperal_init
  2923 ;; This function uses a non-reentrant model
  2924 ;;
  2925                           
  2926                           
  2927                           ;psect for function _TMR2_Initialize
  2928  09F6                     _TMR2_Initialize:	
  2929                           
  2930                           ;twodimmer_1fd_1sw.c: 1290: T2CON = 0x08;
  2931                           
  2932                           ;incstack = 0
  2933                           ; Regs used in _TMR2_Initialize: [wreg+status,2]
  2934  09F6  3008               	movlw	8
  2935  09F7  0020               	movlb	0	; select bank0
  2936  09F8  009C               	movwf	28	;volatile
  2937                           
  2938                           ;twodimmer_1fd_1sw.c: 1296: TMR2 = 0x00;
  2939  09F9  019A               	clrf	26	;volatile
  2940                           
  2941                           ;twodimmer_1fd_1sw.c: 1299: PIR1bits.TMR2IF = 0;
  2942  09FA  1091               	bcf	17,1	;volatile
  2943                           
  2944                           ;twodimmer_1fd_1sw.c: 1302: PIE1bits.TMR2IE = 1;
  2945  09FB  0021               	movlb	1	; select bank1
  2946  09FC  1491               	bsf	17,1	;volatile
  2947                           
  2948                           ;twodimmer_1fd_1sw.c: 1303: GIE = 1;
  2949  09FD  178B               	bsf	11,7	;volatile
  2950                           
  2951                           ;twodimmer_1fd_1sw.c: 1306: PEIE = 1;
  2952  09FE  170B               	bsf	11,6	;volatile
  2953  09FF  0008               	return
  2954  0A00                     __end_of_TMR2_Initialize:	
  2955                           
  2956                           	psect	text8
  2957  07F5                     __ptext8:	
  2958 ;; *************** function _TMR1_Initialize *****************
  2959 ;; Defined at:
  2960 ;;		line 1198 in file "twodimmer_1fd_1sw.c"
  2961 ;; Parameters:    Size  Location     Type
  2962 ;;		None
  2963 ;; Auto vars:     Size  Location     Type
  2964 ;;		None
  2965 ;; Return value:  Size  Location     Type
  2966 ;;                  1    wreg      void 
  2967 ;; Registers used:
  2968 ;;		status,2
  2969 ;; Tracked objects:
  2970 ;;		On entry : 0/0
  2971 ;;		On exit  : 0/0
  2972 ;;		Unchanged: 0/0
  2973 ;; Data sizes:     COMMON   BANK0   BANK1   BANK2   BANK3   BANK4   BANK5   BANK6   BANK7   BANK8   BANK9
  2974 ;;      Params:         0       0       0       0       0       0       0       0       0       0       0
  2975 ;;      Locals:         0       0       0       0       0       0       0       0       0       0       0
  2976 ;;      Temps:          0       0       0       0       0       0       0       0       0       0       0
  2977 ;;      Totals:         0       0       0       0       0       0       0       0       0       0       0
  2978 ;;Total ram usage:        0 bytes
  2979 ;; Hardware stack levels used:    1
  2980 ;; Hardware stack levels required when called:    1
  2981 ;; This function calls:
  2982 ;;		Nothing
  2983 ;; This function is called by:
  2984 ;;		_periperal_init
  2985 ;; This function uses a non-reentrant model
  2986 ;;
  2987                           
  2988                           
  2989                           ;psect for function _TMR1_Initialize
  2990  07F5                     _TMR1_Initialize:	
  2991                           
  2992                           ;twodimmer_1fd_1sw.c: 1203: T1CON = 0x00;
  2993                           
  2994                           ;incstack = 0
  2995                           ; Regs used in _TMR1_Initialize: [status,2]
  2996  07F5  0020               	movlb	0	; select bank0
  2997  07F6  0198               	clrf	24	;volatile
  2998                           
  2999                           ;twodimmer_1fd_1sw.c: 1206: T1GCON = 0x00;
  3000  07F7  0199               	clrf	25	;volatile
  3001                           
  3002                           ;twodimmer_1fd_1sw.c: 1209: TMR1H = 0x00;
  3003  07F8  0197               	clrf	23	;volatile
  3004                           
  3005                           ;twodimmer_1fd_1sw.c: 1212: TMR1L = 0x00;
  3006  07F9  0196               	clrf	22	;volatile
  3007                           
  3008                           ;twodimmer_1fd_1sw.c: 1215: PIR1bits.TMR1IF = 0;
  3009  07FA  1011               	bcf	17,0	;volatile
  3010                           
  3011                           ;twodimmer_1fd_1sw.c: 1218: PIE1bits.TMR1IE = 1;
  3012  07FB  0021               	movlb	1	; select bank1
  3013  07FC  1411               	bsf	17,0	;volatile
  3014                           
  3015                           ;twodimmer_1fd_1sw.c: 1224: GIE = 1;
  3016  07FD  178B               	bsf	11,7	;volatile
  3017                           
  3018                           ;twodimmer_1fd_1sw.c: 1227: PEIE = 1;
  3019  07FE  170B               	bsf	11,6	;volatile
  3020  07FF  0008               	return
  3021  0800                     __end_of_TMR1_Initialize:	
  3022                           
  3023                           	psect	text9
  3024  0AC9                     __ptext9:	
  3025 ;; *************** function _EUSART_Initialize *****************
  3026 ;; Defined at:
  3027 ;;		line 1464 in file "twodimmer_1fd_1sw.c"
  3028 ;; Parameters:    Size  Location     Type
  3029 ;;		None
  3030 ;; Auto vars:     Size  Location     Type
  3031 ;;		None
  3032 ;; Return value:  Size  Location     Type
  3033 ;;                  1    wreg      void 
  3034 ;; Registers used:
  3035 ;;		wreg
  3036 ;; Tracked objects:
  3037 ;;		On entry : 0/0
  3038 ;;		On exit  : 0/0
  3039 ;;		Unchanged: 0/0
  3040 ;; Data sizes:     COMMON   BANK0   BANK1   BANK2   BANK3   BANK4   BANK5   BANK6   BANK7   BANK8   BANK9
  3041 ;;      Params:         0       0       0       0       0       0       0       0       0       0       0
  3042 ;;      Locals:         0       0       0       0       0       0       0       0       0       0       0
  3043 ;;      Temps:          0       0       0       0       0       0       0       0       0       0       0
  3044 ;;      Totals:         0       0       0       0       0       0       0       0       0       0       0
  3045 ;;Total ram usage:        0 bytes
  3046 ;; Hardware stack levels used:    1
  3047 ;; Hardware stack levels required when called:    1
  3048 ;; This function calls:
  3049 ;;		Nothing
  3050 ;; This function is called by:
  3051 ;;		_periperal_init
  3052 ;; This function uses a non-reentrant model
  3053 ;;
  3054                           
  3055                           
  3056                           ;psect for function _EUSART_Initialize
  3057  0AC9                     _EUSART_Initialize:	
  3058                           
  3059                           ;twodimmer_1fd_1sw.c: 1467: PIE1bits.RC1IE = 0;
  3060                           
  3061                           ;incstack = 0
  3062                           ; Regs used in _EUSART_Initialize: [wreg]
  3063  0AC9  0021               	movlb	1	; select bank1
  3064  0ACA  1291               	bcf	17,5	;volatile
  3065                           
  3066                           ;twodimmer_1fd_1sw.c: 1468: PIE1bits.TX1IE = 0;
  3067  0ACB  1211               	bcf	17,4	;volatile
  3068                           
  3069                           ;twodimmer_1fd_1sw.c: 1473: BAUD1CON = 0x0A;
  3070  0ACC  300A               	movlw	10
  3071  0ACD  0023               	movlb	3	; select bank3
  3072  0ACE  009F               	movwf	31	;volatile
  3073                           
  3074                           ;twodimmer_1fd_1sw.c: 1476: RC1STA = 0x90;
  3075  0ACF  3090               	movlw	144
  3076  0AD0  009D               	movwf	29	;volatile
  3077                           
  3078                           ;twodimmer_1fd_1sw.c: 1479: TX1STA = 0x24;
  3079  0AD1  3024               	movlw	36
  3080  0AD2  009E               	movwf	30	;volatile
  3081                           
  3082                           ;twodimmer_1fd_1sw.c: 1484: SP1BRGL = 0xA0;
  3083  0AD3  30A0               	movlw	160
  3084  0AD4  009B               	movwf	27	;volatile
  3085                           
  3086                           ;twodimmer_1fd_1sw.c: 1486: SP1BRGH = 0x01;
  3087  0AD5  3001               	movlw	1
  3088  0AD6  009C               	movwf	28	;volatile
  3089                           
  3090                           ;twodimmer_1fd_1sw.c: 1489: GIE = 1;
  3091  0AD7  178B               	bsf	11,7	;volatile
  3092                           
  3093                           ;twodimmer_1fd_1sw.c: 1492: PEIE = 1;
  3094  0AD8  170B               	bsf	11,6	;volatile
  3095                           
  3096                           ;twodimmer_1fd_1sw.c: 1495: PIE1bits.RC1IE = 1;
  3097  0AD9  0021               	movlb	1	; select bank1
  3098  0ADA  1691               	bsf	17,5	;volatile
  3099                           
  3100                           ;twodimmer_1fd_1sw.c: 1498: TX1STAbits.TXEN = 1;
  3101  0ADB  0023               	movlb	3	; select bank3
  3102  0ADC  169E               	bsf	30,5	;volatile
  3103                           
  3104                           ;twodimmer_1fd_1sw.c: 1501: RC1STAbits.SPEN = 1;
  3105  0ADD  179D               	bsf	29,7	;volatile
  3106  0ADE  0008               	return
  3107  0ADF                     __end_of_EUSART_Initialize:	
  3108                           
  3109                           	psect	text10
  3110  0A00                     __ptext10:	
  3111 ;; *************** function _CCP9_Initialize *****************
  3112 ;; Defined at:
  3113 ;;		line 1444 in file "twodimmer_1fd_1sw.c"
  3114 ;; Parameters:    Size  Location     Type
  3115 ;;		None
  3116 ;; Auto vars:     Size  Location     Type
  3117 ;;		None
  3118 ;; Return value:  Size  Location     Type
  3119 ;;                  1    wreg      void 
  3120 ;; Registers used:
  3121 ;;		wreg, status,2
  3122 ;; Tracked objects:
  3123 ;;		On entry : 0/0
  3124 ;;		On exit  : 0/0
  3125 ;;		Unchanged: 0/0
  3126 ;; Data sizes:     COMMON   BANK0   BANK1   BANK2   BANK3   BANK4   BANK5   BANK6   BANK7   BANK8   BANK9
  3127 ;;      Params:         0       0       0       0       0       0       0       0       0       0       0
  3128 ;;      Locals:         0       0       0       0       0       0       0       0       0       0       0
  3129 ;;      Temps:          0       0       0       0       0       0       0       0       0       0       0
  3130 ;;      Totals:         0       0       0       0       0       0       0       0       0       0       0
  3131 ;;Total ram usage:        0 bytes
  3132 ;; Hardware stack levels used:    1
  3133 ;; Hardware stack levels required when called:    1
  3134 ;; This function calls:
  3135 ;;		Nothing
  3136 ;; This function is called by:
  3137 ;;		_periperal_init
  3138 ;; This function uses a non-reentrant model
  3139 ;;
  3140                           
  3141                           
  3142                           ;psect for function _CCP9_Initialize
  3143  0A00                     _CCP9_Initialize:	
  3144                           
  3145                           ;twodimmer_1fd_1sw.c: 1449: CCP9CON = 0x84;
  3146                           
  3147                           ;incstack = 0
  3148                           ; Regs used in _CCP9_Initialize: [wreg+status,2]
  3149  0A00  3084               	movlw	132
  3150  0A01  002C               	movlb	12	; select bank12
  3151  0A02  009C               	movwf	28	;volatile
  3152                           
  3153                           ;twodimmer_1fd_1sw.c: 1452: CCPR9H = 0x00;
  3154  0A03  019B               	clrf	27	;volatile
  3155                           
  3156                           ;twodimmer_1fd_1sw.c: 1455: CCPR9L = 0x00;
  3157  0A04  019A               	clrf	26	;volatile
  3158                           
  3159                           ;twodimmer_1fd_1sw.c: 1458: PIR4bits.CCP9IF = 0;
  3160  0A05  0020               	movlb	0	; select bank0
  3161  0A06  1314               	bcf	20,6	;volatile
  3162                           
  3163                           ;twodimmer_1fd_1sw.c: 1461: PIE4bits.CCP9IE = 0;
  3164  0A07  0021               	movlb	1	; select bank1
  3165  0A08  1314               	bcf	20,6	;volatile
  3166  0A09  0008               	return
  3167  0A0A                     __end_of_CCP9_Initialize:	
  3168                           
  3169                           	psect	text11
  3170  0A0A                     __ptext11:	
  3171 ;; *************** function _CCP3_Initialize *****************
  3172 ;; Defined at:
  3173 ;;		line 1398 in file "twodimmer_1fd_1sw.c"
  3174 ;; Parameters:    Size  Location     Type
  3175 ;;		None
  3176 ;; Auto vars:     Size  Location     Type
  3177 ;;		None
  3178 ;; Return value:  Size  Location     Type
  3179 ;;                  1    wreg      void 
  3180 ;; Registers used:
  3181 ;;		wreg, status,2
  3182 ;; Tracked objects:
  3183 ;;		On entry : 0/0
  3184 ;;		On exit  : 0/0
  3185 ;;		Unchanged: 0/0
  3186 ;; Data sizes:     COMMON   BANK0   BANK1   BANK2   BANK3   BANK4   BANK5   BANK6   BANK7   BANK8   BANK9
  3187 ;;      Params:         0       0       0       0       0       0       0       0       0       0       0
  3188 ;;      Locals:         0       0       0       0       0       0       0       0       0       0       0
  3189 ;;      Temps:          0       0       0       0       0       0       0       0       0       0       0
  3190 ;;      Totals:         0       0       0       0       0       0       0       0       0       0       0
  3191 ;;Total ram usage:        0 bytes
  3192 ;; Hardware stack levels used:    1
  3193 ;; Hardware stack levels required when called:    1
  3194 ;; This function calls:
  3195 ;;		Nothing
  3196 ;; This function is called by:
  3197 ;;		_periperal_init
  3198 ;; This function uses a non-reentrant model
  3199 ;;
  3200                           
  3201                           
  3202                           ;psect for function _CCP3_Initialize
  3203  0A0A                     _CCP3_Initialize:	
  3204                           
  3205                           ;twodimmer_1fd_1sw.c: 1403: CCP3CON = 0x84;
  3206                           
  3207                           ;incstack = 0
  3208                           ; Regs used in _CCP3_Initialize: [wreg+status,2]
  3209  0A0A  3084               	movlw	132
  3210  0A0B  0026               	movlb	6	; select bank6
  3211  0A0C  0093               	movwf	19	;volatile
  3212                           
  3213                           ;twodimmer_1fd_1sw.c: 1406: CCPR3L = 0x00;
  3214  0A0D  0191               	clrf	17	;volatile
  3215                           
  3216                           ;twodimmer_1fd_1sw.c: 1409: CCPR3H = 0x00;
  3217  0A0E  0192               	clrf	18	;volatile
  3218                           
  3219                           ;twodimmer_1fd_1sw.c: 1415: PIR3bits.CCP3IF = 0;
  3220  0A0F  0020               	movlb	0	; select bank0
  3221  0A10  1213               	bcf	19,4	;volatile
  3222                           
  3223                           ;twodimmer_1fd_1sw.c: 1418: PIE3bits.CCP3IE = 0;
  3224  0A11  0021               	movlb	1	; select bank1
  3225  0A12  1213               	bcf	19,4	;volatile
  3226  0A13  0008               	return
  3227  0A14                     __end_of_CCP3_Initialize:	
  3228                           
  3229                           	psect	text12
  3230  09D6                     __ptext12:	
  3231 ;; *************** function _CCP1_Initialize *****************
  3232 ;; Defined at:
  3233 ;;		line 1373 in file "twodimmer_1fd_1sw.c"
  3234 ;; Parameters:    Size  Location     Type
  3235 ;;		None
  3236 ;; Auto vars:     Size  Location     Type
  3237 ;;		None
  3238 ;; Return value:  Size  Location     Type
  3239 ;;                  1    wreg      void 
  3240 ;; Registers used:
  3241 ;;		wreg, status,2
  3242 ;; Tracked objects:
  3243 ;;		On entry : 0/0
  3244 ;;		On exit  : 0/0
  3245 ;;		Unchanged: 0/0
  3246 ;; Data sizes:     COMMON   BANK0   BANK1   BANK2   BANK3   BANK4   BANK5   BANK6   BANK7   BANK8   BANK9
  3247 ;;      Params:         0       0       0       0       0       0       0       0       0       0       0
  3248 ;;      Locals:         0       0       0       0       0       0       0       0       0       0       0
  3249 ;;      Temps:          0       0       0       0       0       0       0       0       0       0       0
  3250 ;;      Totals:         0       0       0       0       0       0       0       0       0       0       0
  3251 ;;Total ram usage:        0 bytes
  3252 ;; Hardware stack levels used:    1
  3253 ;; Hardware stack levels required when called:    1
  3254 ;; This function calls:
  3255 ;;		Nothing
  3256 ;; This function is called by:
  3257 ;;		_periperal_init
  3258 ;; This function uses a non-reentrant model
  3259 ;;
  3260                           
  3261                           
  3262                           ;psect for function _CCP1_Initialize
  3263  09D6                     _CCP1_Initialize:	
  3264                           
  3265                           ;twodimmer_1fd_1sw.c: 1378: CCP1CON = 0x04;
  3266                           
  3267                           ;incstack = 0
  3268                           ; Regs used in _CCP1_Initialize: [wreg+status,2]
  3269  09D6  3004               	movlw	4
  3270  09D7  0025               	movlb	5	; select bank5
  3271  09D8  0093               	movwf	19	;volatile
  3272                           
  3273                           ;twodimmer_1fd_1sw.c: 1382: CCPR1H = 0x00;
  3274  09D9  0192               	clrf	18	;volatile
  3275                           
  3276                           ;twodimmer_1fd_1sw.c: 1385: CCPR1L = 0x00;
  3277  09DA  0191               	clrf	17	;volatile
  3278                           
  3279                           ;twodimmer_1fd_1sw.c: 1388: PIR1bits.CCP1IF = 0;
  3280  09DB  0020               	movlb	0	; select bank0
  3281  09DC  1111               	bcf	17,2	;volatile
  3282                           
  3283                           ;twodimmer_1fd_1sw.c: 1391: PIE1bits.CCP1IE = 1;
  3284  09DD  0021               	movlb	1	; select bank1
  3285  09DE  1511               	bsf	17,2	;volatile
  3286                           
  3287                           ;twodimmer_1fd_1sw.c: 1392: GIE = 1;
  3288  09DF  178B               	bsf	11,7	;volatile
  3289                           
  3290                           ;twodimmer_1fd_1sw.c: 1395: PEIE = 1;
  3291  09E0  170B               	bsf	11,6	;volatile
  3292  09E1  0008               	return
  3293  09E2                     __end_of_CCP1_Initialize:	
  3294                           
  3295                           	psect	text13
  3296  0B55                     __ptext13:	
  3297 ;; *************** function _copy_frame *****************
  3298 ;; Defined at:
  3299 ;;		line 1000 in file "twodimmer_1fd_1sw.c"
  3300 ;; Parameters:    Size  Location     Type
  3301 ;;  start           2    2[COMMON] int 
  3302 ;;  end             2    4[COMMON] int 
  3303 ;; Auto vars:     Size  Location     Type
  3304 ;;  k               2    9[COMMON] int 
  3305 ;;  sw              2    7[COMMON] int 
  3306 ;; Return value:  Size  Location     Type
  3307 ;;                  1    wreg      void 
  3308 ;; Registers used:
  3309 ;;		wreg, fsr1l, fsr1h, status,2, status,0
  3310 ;; Tracked objects:
  3311 ;;		On entry : 0/0
  3312 ;;		On exit  : 0/0
  3313 ;;		Unchanged: 0/0
  3314 ;; Data sizes:     COMMON   BANK0   BANK1   BANK2   BANK3   BANK4   BANK5   BANK6   BANK7   BANK8   BANK9
  3315 ;;      Params:         4       0       0       0       0       0       0       0       0       0       0
  3316 ;;      Locals:         4       0       0       0       0       0       0       0       0       0       0
  3317 ;;      Temps:          1       0       0       0       0       0       0       0       0       0       0
  3318 ;;      Totals:         9       0       0       0       0       0       0       0       0       0       0
  3319 ;;Total ram usage:        9 bytes
  3320 ;; Hardware stack levels used:    1
  3321 ;; Hardware stack levels required when called:    1
  3322 ;; This function calls:
  3323 ;;		Nothing
  3324 ;; This function is called by:
  3325 ;;		_main
  3326 ;; This function uses a non-reentrant model
  3327 ;;
  3328                           
  3329                           
  3330                           ;psect for function _copy_frame
  3331  0B55                     _copy_frame:	
  3332                           
  3333                           ;twodimmer_1fd_1sw.c: 1001: int k=0,sw=0;
  3334                           
  3335                           ;incstack = 0
  3336                           ; Regs used in _copy_frame: [wreg+fsr1l+fsr1h+status,2+status,0]
  3337  0B55  01F9               	clrf	copy_frame@k
  3338  0B56  01FA               	clrf	copy_frame@k+1
  3339  0B57  01F7               	clrf	copy_frame@sw
  3340  0B58  01F8               	clrf	copy_frame@sw+1
  3341                           
  3342                           ;twodimmer_1fd_1sw.c: 1002: for(k = start; k< end; k++)
  3343  0B59  0873               	movf	copy_frame@start+1,w
  3344  0B5A  00FA               	movwf	copy_frame@k+1
  3345  0B5B  0872               	movf	copy_frame@start,w
  3346  0B5C  00F9               	movwf	copy_frame@k
  3347  0B5D                     l614:	
  3348  0B5D  087A               	movf	copy_frame@k+1,w
  3349  0B5E  3A80               	xorlw	128
  3350  0B5F  00F6               	movwf	??_copy_frame
  3351  0B60  0875               	movf	copy_frame@end+1,w
  3352  0B61  3A80               	xorlw	128
  3353  0B62  0276               	subwf	??_copy_frame,w
  3354  0B63  1D03               	skipz
  3355  0B64  2B67               	goto	u2635
  3356  0B65  0874               	movf	copy_frame@end,w
  3357  0B66  0279               	subwf	copy_frame@k,w
  3358  0B67                     u2635:	
  3359  0B67  1803               	btfsc	3,0
  3360  0B68  2B87               	goto	l6940
  3361                           
  3362                           ;twodimmer_1fd_1sw.c: 1003: {
  3363                           ;twodimmer_1fd_1sw.c: 1004: copy[sw]=name[k];
  3364  0B69  0879               	movf	copy_frame@k,w
  3365  0B6A  3EA0               	addlw	(low (_name| 0))& (0+255)
  3366  0B6B  0086               	movwf	6
  3367  0B6C  0187               	clrf	7
  3368  0B6D  0801               	movf	1,w
  3369  0B6E  00F6               	movwf	??_copy_frame
  3370  0B6F  0877               	movf	copy_frame@sw,w
  3371  0B70  3E20               	addlw	(low (_copy| (0+256)))& (0+255)
  3372  0B71  0086               	movwf	6
  3373  0B72  3001               	movlw	1	; select bank2/3
  3374  0B73  0087               	movwf	7
  3375  0B74  0876               	movf	??_copy_frame,w
  3376  0B75  0081               	movwf	1
  3377                           
  3378                           ;twodimmer_1fd_1sw.c: 1005: sw++;
  3379  0B76  3001               	movlw	1
  3380  0B77  07F7               	addwf	copy_frame@sw,f
  3381  0B78  3000               	movlw	0
  3382  0B79  3DF8               	addwfc	copy_frame@sw+1,f
  3383                           
  3384                           ;twodimmer_1fd_1sw.c: 1006: name[k] = '#';
  3385  0B7A  3023               	movlw	35
  3386  0B7B  00F6               	movwf	??_copy_frame
  3387  0B7C  0879               	movf	copy_frame@k,w
  3388  0B7D  3EA0               	addlw	(low (_name| 0))& (0+255)
  3389  0B7E  0086               	movwf	6
  3390  0B7F  0187               	clrf	7
  3391  0B80  0876               	movf	??_copy_frame,w
  3392  0B81  0081               	movwf	1
  3393  0B82  3001               	movlw	1
  3394  0B83  07F9               	addwf	copy_frame@k,f
  3395  0B84  3000               	movlw	0
  3396  0B85  3DFA               	addwfc	copy_frame@k+1,f
  3397  0B86  2B5D               	goto	l614
  3398  0B87                     l6940:	
  3399                           
  3400                           ;twodimmer_1fd_1sw.c: 1007: }
  3401                           ;twodimmer_1fd_1sw.c: 1009: COPY_FLAG=0;
  3402  0B87  0020               	movlb	0	; select bank0
  3403  0B88  01CF               	clrf	_COPY_FLAG
  3404  0B89  01D0               	clrf	_COPY_FLAG+1
  3405  0B8A  0008               	return
  3406  0B8B                     __end_of_copy_frame:	
  3407                           
  3408                           	psect	text14
  3409  04D4                     __ptext14:	
  3410 ;; *************** function _ACTION *****************
  3411 ;; Defined at:
  3412 ;;		line 1012 in file "twodimmer_1fd_1sw.c"
  3413 ;; Parameters:    Size  Location     Type
  3414 ;;  Switch_Num_1    1    wreg     unsigned char 
  3415 ;;  Switch_Num_1    1    6[BANK0 ] unsigned char 
  3416 ;;  sw_status       1    7[BANK0 ] unsigned char 
  3417 ;;  speed_bitHig    1    8[BANK0 ] unsigned char 
  3418 ;;  speed_bitLow    1    9[BANK0 ] unsigned char 
  3419 ;;  parent          1   10[BANK0 ] unsigned char 
  3420 ;;  finalFrameSt    1   11[BANK0 ] unsigned char 
  3421 ;; Auto vars:     Size  Location     Type
  3422 ;;  Switch_Num_1    1   20[BANK0 ] unsigned char 
  3423 ;;  SwNumString     2   23[BANK0 ] unsigned char [2]
  3424 ;;  FanSpeedStri    2   21[BANK0 ] unsigned char [2]
  3425 ;;  child_lock_n    2   18[BANK0 ] int 
  3426 ;;  children        2   16[BANK0 ] int 
  3427 ;;  FanSpeed        2   14[BANK0 ] int 
  3428 ;;  switch_statu    2   29[BANK0 ] int 
  3429 ;;  response_sta    2   27[BANK0 ] int 
  3430 ;;  SwNum           2   25[BANK0 ] int 
  3431 ;; Return value:  Size  Location     Type
  3432 ;;                  1    wreg      void 
  3433 ;; Registers used:
  3434 ;;		wreg, fsr0l, fsr0h, fsr1l, fsr1h, status,2, status,0, pclath, cstack
  3435 ;; Tracked objects:
  3436 ;;		On entry : 0/0
  3437 ;;		On exit  : 0/0
  3438 ;;		Unchanged: 0/0
  3439 ;; Data sizes:     COMMON   BANK0   BANK1   BANK2   BANK3   BANK4   BANK5   BANK6   BANK7   BANK8   BANK9
  3440 ;;      Params:         0       6       0       0       0       0       0       0       0       0       0
  3441 ;;      Locals:         0      17       0       0       0       0       0       0       0       0       0
  3442 ;;      Temps:          0       2       0       0       0       0       0       0       0       0       0
  3443 ;;      Totals:         0      25       0       0       0       0       0       0       0       0       0
  3444 ;;Total ram usage:       25 bytes
  3445 ;; Hardware stack levels used:    1
  3446 ;; Hardware stack levels required when called:    3
  3447 ;; This function calls:
  3448 ;;		_atoi
  3449 ;;		_writeUART
  3450 ;; This function is called by:
  3451 ;;		_main
  3452 ;; This function uses a non-reentrant model
  3453 ;;
  3454                           
  3455                           
  3456                           ;psect for function _ACTION
  3457  04D4                     _ACTION:	
  3458                           
  3459                           ;incstack = 0
  3460                           ; Regs used in _ACTION: [wreg-fsr1h+status,2+status,0+pclath+cstack]
  3461                           ;ACTION@Switch_Num_10s stored from wreg
  3462  04D4  0020               	movlb	0	; select bank0
  3463  04D5  00B4               	movwf	ACTION@Switch_Num_10s
  3464                           
  3465                           ;twodimmer_1fd_1sw.c: 1014: int response_starts=0;
  3466  04D6  01BB               	clrf	ACTION@response_starts
  3467  04D7  01BC               	clrf	ACTION@response_starts+1
  3468                           
  3469                           ;twodimmer_1fd_1sw.c: 1015: int switch_status=0;
  3470  04D8  01BD               	clrf	ACTION@switch_status
  3471  04D9  01BE               	clrf	ACTION@switch_status+1
  3472                           
  3473                           ;twodimmer_1fd_1sw.c: 1016: int SwNum=0;
  3474  04DA  01B9               	clrf	ACTION@SwNum
  3475  04DB  01BA               	clrf	ACTION@SwNum+1
  3476                           
  3477                           ;twodimmer_1fd_1sw.c: 1018: if(Switch_Num_1s != 'T')
  3478  04DC  3054               	movlw	84
  3479  04DD  0626               	xorwf	ACTION@Switch_Num_1s,w
  3480  04DE  1903               	btfsc	3,2
  3481  04DF  2F4F               	goto	l7090
  3482                           
  3483                           ;twodimmer_1fd_1sw.c: 1019: {
  3484                           ;twodimmer_1fd_1sw.c: 1020: unsigned char FanSpeedString[2], SwNumString[2];
  3485                           ;twodimmer_1fd_1sw.c: 1021: int FanSpeed=0;
  3486  04E0  01AE               	clrf	ACTION@FanSpeed
  3487  04E1  01AF               	clrf	ACTION@FanSpeed+1
  3488                           
  3489                           ;twodimmer_1fd_1sw.c: 1023: switch_status=sw_status - '0';
  3490  04E2  0827               	movf	ACTION@sw_status,w
  3491  04E3  3ED0               	addlw	208
  3492  04E4  00BD               	movwf	ACTION@switch_status
  3493  04E5  30FF               	movlw	255
  3494  04E6  1803               	skipnc
  3495  04E7  3000               	movlw	0
  3496  04E8  00BE               	movwf	ACTION@switch_status+1
  3497                           
  3498                           ;twodimmer_1fd_1sw.c: 1025: SwNumString[0]=Switch_Num_10s;
  3499  04E9  0834               	movf	ACTION@Switch_Num_10s,w
  3500  04EA  00AC               	movwf	??_ACTION
  3501  04EB  082C               	movf	??_ACTION,w
  3502  04EC  00B7               	movwf	ACTION@SwNumString
  3503                           
  3504                           ;twodimmer_1fd_1sw.c: 1026: SwNumString[1]=Switch_Num_1s;
  3505  04ED  0826               	movf	ACTION@Switch_Num_1s,w
  3506  04EE  00AC               	movwf	??_ACTION
  3507  04EF  082C               	movf	??_ACTION,w
  3508  04F0  00B8               	movwf	ACTION@SwNumString+1
  3509                           
  3510                           ;twodimmer_1fd_1sw.c: 1027: SwNum=atoi(SwNumString);
  3511  04F1  3037               	movlw	(low (ACTION@SwNumString| 0))& (0+255)
  3512  04F2  3187  2766  3184   	fcall	_atoi
  3513  04F5  0879               	movf	?_atoi+1,w
  3514  04F6  0020               	movlb	0	; select bank0
  3515  04F7  00BA               	movwf	ACTION@SwNum+1
  3516  04F8  0878               	movf	?_atoi,w
  3517  04F9  00B9               	movwf	ACTION@SwNum
  3518                           
  3519                           ;twodimmer_1fd_1sw.c: 1029: FanSpeedString[0] = speed_bitHigh;
  3520  04FA  0828               	movf	ACTION@speed_bitHigh,w
  3521  04FB  00AC               	movwf	??_ACTION
  3522  04FC  082C               	movf	??_ACTION,w
  3523  04FD  00B5               	movwf	ACTION@FanSpeedString
  3524                           
  3525                           ;twodimmer_1fd_1sw.c: 1030: FanSpeedString[1] = speed_bitLow;
  3526  04FE  0829               	movf	ACTION@speed_bitLow,w
  3527  04FF  00AC               	movwf	??_ACTION
  3528  0500  082C               	movf	??_ACTION,w
  3529  0501  00B6               	movwf	ACTION@FanSpeedString+1
  3530                           
  3531                           ;twodimmer_1fd_1sw.c: 1031: FanSpeed = atoi(FanSpeedString);
  3532  0502  3035               	movlw	(low (ACTION@FanSpeedString| 0))& (0+255)
  3533  0503  3187  2766  3184   	fcall	_atoi
  3534  0506  0879               	movf	?_atoi+1,w
  3535  0507  0020               	movlb	0	; select bank0
  3536  0508  00AF               	movwf	ACTION@FanSpeed+1
  3537  0509  0878               	movf	?_atoi,w
  3538  050A  00AE               	movwf	ACTION@FanSpeed
  3539                           
  3540                           ;twodimmer_1fd_1sw.c: 1033: int children=parent - '0';
  3541  050B  082A               	movf	ACTION@parent,w
  3542  050C  3ED0               	addlw	208
  3543  050D  00B0               	movwf	ACTION@children
  3544  050E  30FF               	movlw	255
  3545  050F  1803               	skipnc
  3546  0510  3000               	movlw	0
  3547  0511  00B1               	movwf	ACTION@children+1
  3548                           
  3549                           ;twodimmer_1fd_1sw.c: 1034: int child_lock_num=(2*(SwNum)-1);
  3550  0512  083A               	movf	ACTION@SwNum+1,w
  3551  0513  00AD               	movwf	??_ACTION+1
  3552  0514  0839               	movf	ACTION@SwNum,w
  3553  0515  00AC               	movwf	??_ACTION
  3554  0516  35AC               	lslf	??_ACTION,f
  3555  0517  0DAD               	rlf	??_ACTION+1,f
  3556  0518  082C               	movf	??_ACTION,w
  3557  0519  3EFF               	addlw	255
  3558  051A  00B2               	movwf	ACTION@child_lock_num
  3559  051B  30FF               	movlw	255
  3560  051C  3D2D               	addwfc	??_ACTION+1,w
  3561  051D  00B3               	movwf	ACTION@child_lock_num+1
  3562                           
  3563                           ;twodimmer_1fd_1sw.c: 1035: child_LOCK[child_lock_num]=children;
  3564  051E  3532               	lslf	ACTION@child_lock_num,w
  3565  051F  3EA0               	addlw	(low (_child_LOCK| (0+256)))& (0+255)
  3566  0520  0086               	movwf	6
  3567  0521  3001               	movlw	1	; select bank3/4
  3568  0522  0087               	movwf	7
  3569  0523  0830               	movf	ACTION@children,w
  3570  0524  3FC0               	movwi [0]fsr1
  3571  0525  0831               	movf	ACTION@children+1,w
  3572  0526  3FC1               	movwi [1]fsr1
  3573                           
  3574                           ;twodimmer_1fd_1sw.c: 1037: response_starts=((1+4*(SwNum))-4);
  3575  0527  083A               	movf	ACTION@SwNum+1,w
  3576  0528  00AD               	movwf	??_ACTION+1
  3577  0529  0839               	movf	ACTION@SwNum,w
  3578  052A  00AC               	movwf	??_ACTION
  3579  052B  35AC               	lslf	??_ACTION,f
  3580  052C  0DAD               	rlf	??_ACTION+1,f
  3581  052D  35AC               	lslf	??_ACTION,f
  3582  052E  0DAD               	rlf	??_ACTION+1,f
  3583  052F  082C               	movf	??_ACTION,w
  3584  0530  3EFD               	addlw	253
  3585  0531  00BB               	movwf	ACTION@response_starts
  3586  0532  30FF               	movlw	255
  3587  0533  3D2D               	addwfc	??_ACTION+1,w
  3588  0534  00BC               	movwf	ACTION@response_starts+1
  3589                           
  3590                           ;twodimmer_1fd_1sw.c: 1038: st[response_starts++]='G';
  3591  0535  3047               	movlw	71
  3592  0536  00AC               	movwf	??_ACTION
  3593  0537  083B               	movf	ACTION@response_starts,w
  3594  0538  3EC4               	addlw	(low (_st| 0))& (0+255)
  3595  0539  0086               	movwf	6
  3596  053A  0187               	clrf	7
  3597  053B  082C               	movf	??_ACTION,w
  3598  053C  0081               	movwf	1
  3599  053D  3001               	movlw	1
  3600  053E  07BB               	addwf	ACTION@response_starts,f
  3601  053F  3000               	movlw	0
  3602  0540  3DBC               	addwfc	ACTION@response_starts+1,f
  3603                           
  3604                           ;twodimmer_1fd_1sw.c: 1039: st[response_starts++]=sw_status;
  3605  0541  0827               	movf	ACTION@sw_status,w
  3606  0542  00AC               	movwf	??_ACTION
  3607  0543  083B               	movf	ACTION@response_starts,w
  3608  0544  3EC4               	addlw	(low (_st| 0))& (0+255)
  3609  0545  0086               	movwf	6
  3610  0546  0187               	clrf	7
  3611  0547  082C               	movf	??_ACTION,w
  3612  0548  0081               	movwf	1
  3613  0549  3001               	movlw	1
  3614  054A  07BB               	addwf	ACTION@response_starts,f
  3615  054B  3000               	movlw	0
  3616  054C  3DBC               	addwfc	ACTION@response_starts+1,f
  3617                           
  3618                           ;twodimmer_1fd_1sw.c: 1040: st[response_starts++]=Switch_Num_10s;
  3619  054D  0834               	movf	ACTION@Switch_Num_10s,w
  3620  054E  00AC               	movwf	??_ACTION
  3621  054F  083B               	movf	ACTION@response_starts,w
  3622  0550  3EC4               	addlw	(low (_st| 0))& (0+255)
  3623  0551  0086               	movwf	6
  3624  0552  0187               	clrf	7
  3625  0553  082C               	movf	??_ACTION,w
  3626  0554  0081               	movwf	1
  3627  0555  3001               	movlw	1
  3628  0556  07BB               	addwf	ACTION@response_starts,f
  3629  0557  3000               	movlw	0
  3630  0558  3DBC               	addwfc	ACTION@response_starts+1,f
  3631                           
  3632                           ;twodimmer_1fd_1sw.c: 1041: st[response_starts]=Switch_Num_1s;
  3633  0559  0826               	movf	ACTION@Switch_Num_1s,w
  3634  055A  00AC               	movwf	??_ACTION
  3635  055B  083B               	movf	ACTION@response_starts,w
  3636  055C  3EC4               	addlw	(low (_st| 0))& (0+255)
  3637  055D  0086               	movwf	6
  3638  055E  0187               	clrf	7
  3639  055F  082C               	movf	??_ACTION,w
  3640  0560  0081               	movwf	1
  3641                           
  3642                           ;twodimmer_1fd_1sw.c: 1043: response_starts-=3;
  3643  0561  30FD               	movlw	253
  3644  0562  07BB               	addwf	ACTION@response_starts,f
  3645  0563  30FF               	movlw	255
  3646  0564  3DBC               	addwfc	ACTION@response_starts+1,f
  3647                           
  3648                           ;twodimmer_1fd_1sw.c: 1044: if(finalFrameStat=='1')
  3649  0565  3031               	movlw	49
  3650  0566  062B               	xorwf	ACTION@finalFrameStat,w
  3651  0567  1D03               	btfss	3,2
  3652  0568  2D6E               	goto	l6990
  3653                           
  3654                           ;twodimmer_1fd_1sw.c: 1045: {
  3655                           ;twodimmer_1fd_1sw.c: 1046: writeUART(st+response_starts);
  3656  0569  083B               	movf	ACTION@response_starts,w
  3657  056A  3EC4               	addlw	(low (_st| 0))& (0+255)
  3658  056B  318A  22DF  3184   	fcall	_writeUART
  3659  056E                     l6990:	
  3660                           
  3661                           ;twodimmer_1fd_1sw.c: 1047: }
  3662                           ;twodimmer_1fd_1sw.c: 1048: man=0;
  3663  056E  0020               	movlb	0	; select bank0
  3664  056F  01DF               	clrf	_man
  3665  0570  01E0               	clrf	_man+1
  3666                           
  3667                           ;twodimmer_1fd_1sw.c: 1049: }
  3668                           ;twodimmer_1fd_1sw.c: 1052: switch(SwNum){
  3669  0571  2F4F               	goto	l7090
  3670  0572                     l623:	
  3671                           ;twodimmer_1fd_1sw.c: 1053: case 1:
  3672                           
  3673                           
  3674                           ;twodimmer_1fd_1sw.c: 1054: RF0=switch_status;
  3675  0572  1C3D               	btfss	ACTION@switch_status,0
  3676  0573  2D77               	goto	u2660
  3677  0574  0025               	movlb	5	; select bank5
  3678  0575  140C               	bsf	12,0	;volatile
  3679  0576  2D79               	goto	l6992
  3680  0577                     u2660:	
  3681  0577  0025               	movlb	5	; select bank5
  3682  0578  100C               	bcf	12,0	;volatile
  3683  0579                     l6992:	
  3684                           
  3685                           ;twodimmer_1fd_1sw.c: 1055: M1=switch_status;
  3686  0579  0020               	movlb	0	; select bank0
  3687  057A  083E               	movf	ACTION@switch_status+1,w
  3688  057B  00CE               	movwf	_M1+1
  3689  057C  083D               	movf	ACTION@switch_status,w
  3690  057D  00CD               	movwf	_M1
  3691                           
  3692                           ;twodimmer_1fd_1sw.c: 1056: break;
  3693  057E  0008               	return
  3694  057F                     l625:	
  3695                           ;twodimmer_1fd_1sw.c: 1057: case 2:
  3696                           
  3697                           
  3698                           ;twodimmer_1fd_1sw.c: 1058: RF1=switch_status;
  3699  057F  1C3D               	btfss	ACTION@switch_status,0
  3700  0580  2D84               	goto	u2680
  3701  0581  0025               	movlb	5	; select bank5
  3702  0582  148C               	bsf	12,1	;volatile
  3703  0583  2D86               	goto	l6994
  3704  0584                     u2680:	
  3705  0584  0025               	movlb	5	; select bank5
  3706  0585  108C               	bcf	12,1	;volatile
  3707  0586                     l6994:	
  3708                           
  3709                           ;twodimmer_1fd_1sw.c: 1059: M2=switch_status;
  3710  0586  0020               	movlb	0	; select bank0
  3711  0587  083E               	movf	ACTION@switch_status+1,w
  3712  0588  00CC               	movwf	_M2+1
  3713  0589  083D               	movf	ACTION@switch_status,w
  3714  058A  00CB               	movwf	_M2
  3715                           
  3716                           ;twodimmer_1fd_1sw.c: 1060: break;
  3717  058B  0008               	return
  3718  058C                     l6996:	
  3719                           ;twodimmer_1fd_1sw.c: 1061: case 3:
  3720                           
  3721                           
  3722                           ;twodimmer_1fd_1sw.c: 1062: {
  3723                           ;twodimmer_1fd_1sw.c: 1063: M1=switch_status;
  3724  058C  083E               	movf	ACTION@switch_status+1,w
  3725  058D  00CE               	movwf	_M1+1
  3726  058E  083D               	movf	ACTION@switch_status,w
  3727  058F  00CD               	movwf	_M1
  3728                           
  3729                           ;twodimmer_1fd_1sw.c: 1065: switch(switch_status){
  3730  0590  2EC3               	goto	l7058
  3731  0591                     l628:	
  3732                           ;twodimmer_1fd_1sw.c: 1066: case 0:
  3733                           
  3734                           
  3735                           ;twodimmer_1fd_1sw.c: 1067: {
  3736                           ;twodimmer_1fd_1sw.c: 1068: RE1=0;
  3737  0591  1090               	bcf	16,1	;volatile
  3738                           
  3739                           ;twodimmer_1fd_1sw.c: 1069: _delay((unsigned long)((200)*(16000000/4000.0)));
  3740  0592  3005               	movlw	5
  3741  0593  0020               	movlb	0	; select bank0
  3742  0594  00AD               	movwf	??_ACTION+1
  3743  0595  300F               	movlw	15
  3744  0596  00AC               	movwf	??_ACTION
  3745  0597  30F1               	movlw	241
  3746  0598                     u3557:	
  3747  0598  0B89               	decfsz	9,f
  3748  0599  2D98               	goto	u3557
  3749  059A  0BAC               	decfsz	??_ACTION,f
  3750  059B  2D98               	goto	u3557
  3751  059C  0BAD               	decfsz	??_ACTION+1,f
  3752  059D  2D98               	goto	u3557
  3753                           
  3754                           ;twodimmer_1fd_1sw.c: 1070: RE2=0;
  3755  059E  0020               	movlb	0	; select bank0
  3756  059F  1110               	bcf	16,2	;volatile
  3757                           
  3758                           ;twodimmer_1fd_1sw.c: 1071: _delay((unsigned long)((200)*(16000000/4000.0)));
  3759  05A0  3005               	movlw	5
  3760  05A1  0020               	movlb	0	; select bank0
  3761  05A2  00AD               	movwf	??_ACTION+1
  3762  05A3  300F               	movlw	15
  3763  05A4  00AC               	movwf	??_ACTION
  3764  05A5  30F1               	movlw	241
  3765  05A6                     u3567:	
  3766  05A6  0B89               	decfsz	9,f
  3767  05A7  2DA6               	goto	u3567
  3768  05A8  0BAC               	decfsz	??_ACTION,f
  3769  05A9  2DA6               	goto	u3567
  3770  05AA  0BAD               	decfsz	??_ACTION+1,f
  3771  05AB  2DA6               	goto	u3567
  3772                           
  3773                           ;twodimmer_1fd_1sw.c: 1072: RE4=0;
  3774  05AC  0020               	movlb	0	; select bank0
  3775  05AD  1210               	bcf	16,4	;volatile
  3776                           
  3777                           ;twodimmer_1fd_1sw.c: 1073: _delay((unsigned long)((200)*(16000000/4000.0)));
  3778  05AE  3005               	movlw	5
  3779  05AF  0020               	movlb	0	; select bank0
  3780  05B0  00AD               	movwf	??_ACTION+1
  3781  05B1  300F               	movlw	15
  3782  05B2  00AC               	movwf	??_ACTION
  3783  05B3  30F1               	movlw	241
  3784  05B4                     u3577:	
  3785  05B4  0B89               	decfsz	9,f
  3786  05B5  2DB4               	goto	u3577
  3787  05B6  0BAC               	decfsz	??_ACTION,f
  3788  05B7  2DB4               	goto	u3577
  3789  05B8  0BAD               	decfsz	??_ACTION+1,f
  3790  05B9  2DB4               	goto	u3577
  3791                           
  3792                           ;twodimmer_1fd_1sw.c: 1074: }
  3793                           ;twodimmer_1fd_1sw.c: 1075: break;
  3794  05BA  0008               	return
  3795  05BB                     l7004:	
  3796                           ;twodimmer_1fd_1sw.c: 1077: case 1:
  3797                           
  3798                           
  3799                           ;twodimmer_1fd_1sw.c: 1078: {
  3800                           ;twodimmer_1fd_1sw.c: 1079: if(speed_bitHigh=='0')
  3801  05BB  3030               	movlw	48
  3802  05BC  0020               	movlb	0	; select bank0
  3803  05BD  0628               	xorwf	ACTION@speed_bitHigh,w
  3804  05BE  1D03               	btfss	3,2
  3805  05BF  2DF7               	goto	l7014
  3806                           
  3807                           ;twodimmer_1fd_1sw.c: 1080: {
  3808                           ;twodimmer_1fd_1sw.c: 1082: _delay((unsigned long)((200)*(16000000/4000.0)));
  3809  05C0  3005               	movlw	5
  3810  05C1  0020               	movlb	0	; select bank0
  3811  05C2  00AD               	movwf	??_ACTION+1
  3812  05C3  300F               	movlw	15
  3813  05C4  00AC               	movwf	??_ACTION
  3814  05C5  30F1               	movlw	241
  3815  05C6                     u3587:	
  3816  05C6  0B89               	decfsz	9,f
  3817  05C7  2DC6               	goto	u3587
  3818  05C8  0BAC               	decfsz	??_ACTION,f
  3819  05C9  2DC6               	goto	u3587
  3820  05CA  0BAD               	decfsz	??_ACTION+1,f
  3821  05CB  2DC6               	goto	u3587
  3822                           
  3823                           ;twodimmer_1fd_1sw.c: 1083: RE1=0;
  3824  05CC  0020               	movlb	0	; select bank0
  3825  05CD  1090               	bcf	16,1	;volatile
  3826                           
  3827                           ;twodimmer_1fd_1sw.c: 1084: _delay((unsigned long)((200)*(16000000/4000.0)));
  3828  05CE  3005               	movlw	5
  3829  05CF  0020               	movlb	0	; select bank0
  3830  05D0  00AD               	movwf	??_ACTION+1
  3831  05D1  300F               	movlw	15
  3832  05D2  00AC               	movwf	??_ACTION
  3833  05D3  30F1               	movlw	241
  3834  05D4                     u3597:	
  3835  05D4  0B89               	decfsz	9,f
  3836  05D5  2DD4               	goto	u3597
  3837  05D6  0BAC               	decfsz	??_ACTION,f
  3838  05D7  2DD4               	goto	u3597
  3839  05D8  0BAD               	decfsz	??_ACTION+1,f
  3840  05D9  2DD4               	goto	u3597
  3841                           
  3842                           ;twodimmer_1fd_1sw.c: 1085: RE2=0;
  3843  05DA  0020               	movlb	0	; select bank0
  3844  05DB  1110               	bcf	16,2	;volatile
  3845                           
  3846                           ;twodimmer_1fd_1sw.c: 1086: _delay((unsigned long)((200)*(16000000/4000.0)));
  3847  05DC  3005               	movlw	5
  3848  05DD  0020               	movlb	0	; select bank0
  3849  05DE  00AD               	movwf	??_ACTION+1
  3850  05DF  300F               	movlw	15
  3851  05E0  00AC               	movwf	??_ACTION
  3852  05E1  30F1               	movlw	241
  3853  05E2                     u3607:	
  3854  05E2  0B89               	decfsz	9,f
  3855  05E3  2DE2               	goto	u3607
  3856  05E4  0BAC               	decfsz	??_ACTION,f
  3857  05E5  2DE2               	goto	u3607
  3858  05E6  0BAD               	decfsz	??_ACTION+1,f
  3859  05E7  2DE2               	goto	u3607
  3860                           
  3861                           ;twodimmer_1fd_1sw.c: 1087: RE4=0;
  3862  05E8  0020               	movlb	0	; select bank0
  3863  05E9  1210               	bcf	16,4	;volatile
  3864                           
  3865                           ;twodimmer_1fd_1sw.c: 1088: _delay((unsigned long)((200)*(16000000/4000.0)));
  3866  05EA  3005               	movlw	5
  3867  05EB  0020               	movlb	0	; select bank0
  3868  05EC  00AD               	movwf	??_ACTION+1
  3869  05ED  300F               	movlw	15
  3870  05EE  00AC               	movwf	??_ACTION
  3871  05EF  30F1               	movlw	241
  3872  05F0                     u3617:	
  3873  05F0  0B89               	decfsz	9,f
  3874  05F1  2DF0               	goto	u3617
  3875  05F2  0BAC               	decfsz	??_ACTION,f
  3876  05F3  2DF0               	goto	u3617
  3877  05F4  0BAD               	decfsz	??_ACTION+1,f
  3878  05F5  2DF0               	goto	u3617
  3879                           
  3880                           ;twodimmer_1fd_1sw.c: 1089: }
  3881  05F6  0008               	return
  3882  05F7                     l7014:	
  3883                           
  3884                           ;twodimmer_1fd_1sw.c: 1090: else if(speed_bitHigh=='2')
  3885  05F7  3032               	movlw	50
  3886  05F8  0020               	movlb	0	; select bank0
  3887  05F9  0628               	xorwf	ACTION@speed_bitHigh,w
  3888  05FA  1D03               	btfss	3,2
  3889  05FB  2E26               	goto	l7024
  3890                           
  3891                           ;twodimmer_1fd_1sw.c: 1091: {
  3892                           ;twodimmer_1fd_1sw.c: 1092: RE1=0;
  3893  05FC  1090               	bcf	16,1	;volatile
  3894                           
  3895                           ;twodimmer_1fd_1sw.c: 1093: _delay((unsigned long)((200)*(16000000/4000.0)));
  3896  05FD  3005               	movlw	5
  3897  05FE  0020               	movlb	0	; select bank0
  3898  05FF  00AD               	movwf	??_ACTION+1
  3899  0600  300F               	movlw	15
  3900  0601  00AC               	movwf	??_ACTION
  3901  0602  30F1               	movlw	241
  3902  0603                     u3627:	
  3903  0603  0B89               	decfsz	9,f
  3904  0604  2E03               	goto	u3627
  3905  0605  0BAC               	decfsz	??_ACTION,f
  3906  0606  2E03               	goto	u3627
  3907  0607  0BAD               	decfsz	??_ACTION+1,f
  3908  0608  2E03               	goto	u3627
  3909                           
  3910                           ;twodimmer_1fd_1sw.c: 1094: RE4=0;
  3911  0609  0020               	movlb	0	; select bank0
  3912  060A  1210               	bcf	16,4	;volatile
  3913                           
  3914                           ;twodimmer_1fd_1sw.c: 1095: _delay((unsigned long)((200)*(16000000/4000.0)));
  3915  060B  3005               	movlw	5
  3916  060C  0020               	movlb	0	; select bank0
  3917  060D  00AD               	movwf	??_ACTION+1
  3918  060E  300F               	movlw	15
  3919  060F  00AC               	movwf	??_ACTION
  3920  0610  30F1               	movlw	241
  3921  0611                     u3637:	
  3922  0611  0B89               	decfsz	9,f
  3923  0612  2E11               	goto	u3637
  3924  0613  0BAC               	decfsz	??_ACTION,f
  3925  0614  2E11               	goto	u3637
  3926  0615  0BAD               	decfsz	??_ACTION+1,f
  3927  0616  2E11               	goto	u3637
  3928                           
  3929                           ;twodimmer_1fd_1sw.c: 1096: RE2=1;
  3930  0617  0020               	movlb	0	; select bank0
  3931  0618  1510               	bsf	16,2	;volatile
  3932                           
  3933                           ;twodimmer_1fd_1sw.c: 1097: _delay((unsigned long)((200)*(16000000/4000.0)));
  3934  0619  3005               	movlw	5
  3935  061A  0020               	movlb	0	; select bank0
  3936  061B  00AD               	movwf	??_ACTION+1
  3937  061C  300F               	movlw	15
  3938  061D  00AC               	movwf	??_ACTION
  3939  061E  30F1               	movlw	241
  3940  061F                     u3647:	
  3941  061F  0B89               	decfsz	9,f
  3942  0620  2E1F               	goto	u3647
  3943  0621  0BAC               	decfsz	??_ACTION,f
  3944  0622  2E1F               	goto	u3647
  3945  0623  0BAD               	decfsz	??_ACTION+1,f
  3946  0624  2E1F               	goto	u3647
  3947                           
  3948                           ;twodimmer_1fd_1sw.c: 1098: }
  3949  0625  0008               	return
  3950  0626                     l7024:	
  3951                           
  3952                           ;twodimmer_1fd_1sw.c: 1099: else if( speed_bitHigh=='5')
  3953  0626  3035               	movlw	53
  3954  0627  0020               	movlb	0	; select bank0
  3955  0628  0628               	xorwf	ACTION@speed_bitHigh,w
  3956  0629  1D03               	btfss	3,2
  3957  062A  2E55               	goto	l7034
  3958                           
  3959                           ;twodimmer_1fd_1sw.c: 1100: {
  3960                           ;twodimmer_1fd_1sw.c: 1101: RE2=0;
  3961  062B  1110               	bcf	16,2	;volatile
  3962                           
  3963                           ;twodimmer_1fd_1sw.c: 1102: _delay((unsigned long)((200)*(16000000/4000.0)));
  3964  062C  3005               	movlw	5
  3965  062D  0020               	movlb	0	; select bank0
  3966  062E  00AD               	movwf	??_ACTION+1
  3967  062F  300F               	movlw	15
  3968  0630  00AC               	movwf	??_ACTION
  3969  0631  30F1               	movlw	241
  3970  0632                     u3657:	
  3971  0632  0B89               	decfsz	9,f
  3972  0633  2E32               	goto	u3657
  3973  0634  0BAC               	decfsz	??_ACTION,f
  3974  0635  2E32               	goto	u3657
  3975  0636  0BAD               	decfsz	??_ACTION+1,f
  3976  0637  2E32               	goto	u3657
  3977                           
  3978                           ;twodimmer_1fd_1sw.c: 1103: RE4=0;
  3979  0638  0020               	movlb	0	; select bank0
  3980  0639  1210               	bcf	16,4	;volatile
  3981                           
  3982                           ;twodimmer_1fd_1sw.c: 1104: _delay((unsigned long)((200)*(16000000/4000.0)));
  3983  063A  3005               	movlw	5
  3984  063B  0020               	movlb	0	; select bank0
  3985  063C  00AD               	movwf	??_ACTION+1
  3986  063D  300F               	movlw	15
  3987  063E  00AC               	movwf	??_ACTION
  3988  063F  30F1               	movlw	241
  3989  0640                     u3667:	
  3990  0640  0B89               	decfsz	9,f
  3991  0641  2E40               	goto	u3667
  3992  0642  0BAC               	decfsz	??_ACTION,f
  3993  0643  2E40               	goto	u3667
  3994  0644  0BAD               	decfsz	??_ACTION+1,f
  3995  0645  2E40               	goto	u3667
  3996                           
  3997                           ;twodimmer_1fd_1sw.c: 1105: RE4=1;
  3998  0646  0020               	movlb	0	; select bank0
  3999  0647  1610               	bsf	16,4	;volatile
  4000                           
  4001                           ;twodimmer_1fd_1sw.c: 1106: _delay((unsigned long)((200)*(16000000/4000.0)));
  4002  0648  3005               	movlw	5
  4003  0649  0020               	movlb	0	; select bank0
  4004  064A  00AD               	movwf	??_ACTION+1
  4005  064B  300F               	movlw	15
  4006  064C  00AC               	movwf	??_ACTION
  4007  064D  30F1               	movlw	241
  4008  064E                     u3677:	
  4009  064E  0B89               	decfsz	9,f
  4010  064F  2E4E               	goto	u3677
  4011  0650  0BAC               	decfsz	??_ACTION,f
  4012  0651  2E4E               	goto	u3677
  4013  0652  0BAD               	decfsz	??_ACTION+1,f
  4014  0653  2E4E               	goto	u3677
  4015                           
  4016                           ;twodimmer_1fd_1sw.c: 1108: }
  4017  0654  0008               	return
  4018  0655                     l7034:	
  4019                           
  4020                           ;twodimmer_1fd_1sw.c: 1109: else if( speed_bitHigh=='7')
  4021  0655  3037               	movlw	55
  4022  0656  0020               	movlb	0	; select bank0
  4023  0657  0628               	xorwf	ACTION@speed_bitHigh,w
  4024  0658  1D03               	btfss	3,2
  4025  0659  2E84               	goto	l7044
  4026                           
  4027                           ;twodimmer_1fd_1sw.c: 1110: {
  4028                           ;twodimmer_1fd_1sw.c: 1111: RE1=0;
  4029  065A  1090               	bcf	16,1	;volatile
  4030                           
  4031                           ;twodimmer_1fd_1sw.c: 1112: _delay((unsigned long)((200)*(16000000/4000.0)));
  4032  065B  3005               	movlw	5
  4033  065C  0020               	movlb	0	; select bank0
  4034  065D  00AD               	movwf	??_ACTION+1
  4035  065E  300F               	movlw	15
  4036  065F  00AC               	movwf	??_ACTION
  4037  0660  30F1               	movlw	241
  4038  0661                     u3687:	
  4039  0661  0B89               	decfsz	9,f
  4040  0662  2E61               	goto	u3687
  4041  0663  0BAC               	decfsz	??_ACTION,f
  4042  0664  2E61               	goto	u3687
  4043  0665  0BAD               	decfsz	??_ACTION+1,f
  4044  0666  2E61               	goto	u3687
  4045                           
  4046                           ;twodimmer_1fd_1sw.c: 1113: RE2=1;
  4047  0667  0020               	movlb	0	; select bank0
  4048  0668  1510               	bsf	16,2	;volatile
  4049                           
  4050                           ;twodimmer_1fd_1sw.c: 1114: _delay((unsigned long)((200)*(16000000/4000.0)));
  4051  0669  3005               	movlw	5
  4052  066A  0020               	movlb	0	; select bank0
  4053  066B  00AD               	movwf	??_ACTION+1
  4054  066C  300F               	movlw	15
  4055  066D  00AC               	movwf	??_ACTION
  4056  066E  30F1               	movlw	241
  4057  066F                     u3697:	
  4058  066F  0B89               	decfsz	9,f
  4059  0670  2E6F               	goto	u3697
  4060  0671  0BAC               	decfsz	??_ACTION,f
  4061  0672  2E6F               	goto	u3697
  4062  0673  0BAD               	decfsz	??_ACTION+1,f
  4063  0674  2E6F               	goto	u3697
  4064                           
  4065                           ;twodimmer_1fd_1sw.c: 1115: RE4=1;
  4066  0675  0020               	movlb	0	; select bank0
  4067  0676  1610               	bsf	16,4	;volatile
  4068                           
  4069                           ;twodimmer_1fd_1sw.c: 1116: _delay((unsigned long)((200)*(16000000/4000.0)));
  4070  0677  3005               	movlw	5
  4071  0678  0020               	movlb	0	; select bank0
  4072  0679  00AD               	movwf	??_ACTION+1
  4073  067A  300F               	movlw	15
  4074  067B  00AC               	movwf	??_ACTION
  4075  067C  30F1               	movlw	241
  4076  067D                     u3707:	
  4077  067D  0B89               	decfsz	9,f
  4078  067E  2E7D               	goto	u3707
  4079  067F  0BAC               	decfsz	??_ACTION,f
  4080  0680  2E7D               	goto	u3707
  4081  0681  0BAD               	decfsz	??_ACTION+1,f
  4082  0682  2E7D               	goto	u3707
  4083                           
  4084                           ;twodimmer_1fd_1sw.c: 1117: }
  4085  0683  0008               	return
  4086  0684                     l7044:	
  4087                           
  4088                           ;twodimmer_1fd_1sw.c: 1118: else if(speed_bitHigh=='9')
  4089  0684  3039               	movlw	57
  4090  0685  0020               	movlb	0	; select bank0
  4091  0686  0628               	xorwf	ACTION@speed_bitHigh,w
  4092  0687  1D03               	btfss	3,2
  4093  0688  0008               	return
  4094                           
  4095                           ;twodimmer_1fd_1sw.c: 1119: {
  4096                           ;twodimmer_1fd_1sw.c: 1121: RE0=1;
  4097  0689  1410               	bsf	16,0	;volatile
  4098                           
  4099                           ;twodimmer_1fd_1sw.c: 1122: _delay((unsigned long)((200)*(16000000/4000.0)));
  4100  068A  3005               	movlw	5
  4101  068B  0020               	movlb	0	; select bank0
  4102  068C  00AD               	movwf	??_ACTION+1
  4103  068D  300F               	movlw	15
  4104  068E  00AC               	movwf	??_ACTION
  4105  068F  30F1               	movlw	241
  4106  0690                     u3717:	
  4107  0690  0B89               	decfsz	9,f
  4108  0691  2E90               	goto	u3717
  4109  0692  0BAC               	decfsz	??_ACTION,f
  4110  0693  2E90               	goto	u3717
  4111  0694  0BAD               	decfsz	??_ACTION+1,f
  4112  0695  2E90               	goto	u3717
  4113                           
  4114                           ;twodimmer_1fd_1sw.c: 1123: RE2=0;
  4115  0696  0020               	movlb	0	; select bank0
  4116  0697  1110               	bcf	16,2	;volatile
  4117                           
  4118                           ;twodimmer_1fd_1sw.c: 1124: _delay((unsigned long)((200)*(16000000/4000.0)));
  4119  0698  3005               	movlw	5
  4120  0699  0020               	movlb	0	; select bank0
  4121  069A  00AD               	movwf	??_ACTION+1
  4122  069B  300F               	movlw	15
  4123  069C  00AC               	movwf	??_ACTION
  4124  069D  30F1               	movlw	241
  4125  069E                     u3727:	
  4126  069E  0B89               	decfsz	9,f
  4127  069F  2E9E               	goto	u3727
  4128  06A0  0BAC               	decfsz	??_ACTION,f
  4129  06A1  2E9E               	goto	u3727
  4130  06A2  0BAD               	decfsz	??_ACTION+1,f
  4131  06A3  2E9E               	goto	u3727
  4132                           
  4133                           ;twodimmer_1fd_1sw.c: 1125: RE4=0;
  4134  06A4  0020               	movlb	0	; select bank0
  4135  06A5  1210               	bcf	16,4	;volatile
  4136                           
  4137                           ;twodimmer_1fd_1sw.c: 1126: _delay((unsigned long)((400)*(16000000/4000.0)));
  4138  06A6  3009               	movlw	9
  4139  06A7  0020               	movlb	0	; select bank0
  4140  06A8  00AD               	movwf	??_ACTION+1
  4141  06A9  301E               	movlw	30
  4142  06AA  00AC               	movwf	??_ACTION
  4143  06AB  30E4               	movlw	228
  4144  06AC                     u3737:	
  4145  06AC  0B89               	decfsz	9,f
  4146  06AD  2EAC               	goto	u3737
  4147  06AE  0BAC               	decfsz	??_ACTION,f
  4148  06AF  2EAC               	goto	u3737
  4149  06B0  0BAD               	decfsz	??_ACTION+1,f
  4150  06B1  2EAC               	goto	u3737
  4151  06B2  0000               	nop
  4152                           
  4153                           ;twodimmer_1fd_1sw.c: 1127: RE1=1;
  4154  06B3  0020               	movlb	0	; select bank0
  4155  06B4  1490               	bsf	16,1	;volatile
  4156                           
  4157                           ;twodimmer_1fd_1sw.c: 1128: _delay((unsigned long)((400)*(16000000/4000.0)));
  4158  06B5  3009               	movlw	9
  4159  06B6  0020               	movlb	0	; select bank0
  4160  06B7  00AD               	movwf	??_ACTION+1
  4161  06B8  301E               	movlw	30
  4162  06B9  00AC               	movwf	??_ACTION
  4163  06BA  30E4               	movlw	228
  4164  06BB                     u3747:	
  4165  06BB  0B89               	decfsz	9,f
  4166  06BC  2EBB               	goto	u3747
  4167  06BD  0BAC               	decfsz	??_ACTION,f
  4168  06BE  2EBB               	goto	u3747
  4169  06BF  0BAD               	decfsz	??_ACTION+1,f
  4170  06C0  2EBB               	goto	u3747
  4171  06C1  0000               	nop
  4172                           
  4173                           ;twodimmer_1fd_1sw.c: 1134: }
  4174                           
  4175                           ;twodimmer_1fd_1sw.c: 1133: break;
  4176                           
  4177                           ;twodimmer_1fd_1sw.c: 1132: default:
  4178                           
  4179                           ;twodimmer_1fd_1sw.c: 1129: }
  4180                           ;twodimmer_1fd_1sw.c: 1130: }
  4181                           ;twodimmer_1fd_1sw.c: 1131: break;
  4182  06C2  0008               	return
  4183  06C3                     l7058:	
  4184                           
  4185                           ; Switch on 2 bytes has been partitioned into a top level switch of size 1, and 1 sub-sw
      +                          itches
  4186                           ; Switch size 1, requested type "space"
  4187                           ; Number of cases is 1, Range of values is 0 to 0
  4188                           ; switch strategies available:
  4189                           ; Name         Instructions Cycles
  4190                           ; simple_byte            4     3 (average)
  4191                           ; direct_byte            8     6 (fixed)
  4192                           ; jumptable            260     6 (fixed)
  4193                           ;	Chosen strategy is simple_byte
  4194  06C3  0020               	movlb	0	; select bank0
  4195  06C4  083E               	movf	ACTION@switch_status+1,w
  4196  06C5  3A00               	xorlw	0	; case 0
  4197  06C6  1903               	skipnz
  4198  06C7  2EC9               	goto	l8356
  4199  06C8  2F65               	goto	l650
  4200  06C9                     l8356:	
  4201                           
  4202                           ; Switch size 1, requested type "space"
  4203                           ; Number of cases is 2, Range of values is 0 to 1
  4204                           ; switch strategies available:
  4205                           ; Name         Instructions Cycles
  4206                           ; simple_byte            7     4 (average)
  4207                           ; direct_byte           10     6 (fixed)
  4208                           ; jumptable            260     6 (fixed)
  4209                           ;	Chosen strategy is simple_byte
  4210  06C9  083D               	movf	ACTION@switch_status,w
  4211  06CA  3A00               	xorlw	0	; case 0
  4212  06CB  1903               	skipnz
  4213  06CC  2D91               	goto	l628
  4214  06CD  3A01               	xorlw	1	; case 1
  4215  06CE  1903               	skipnz
  4216  06CF  2DBB               	goto	l7004
  4217  06D0  2F65               	goto	l650
  4218                           
  4219                           ;twodimmer_1fd_1sw.c: 1136: }
  4220                           ;twodimmer_1fd_1sw.c: 1137: break;
  4221  06D1  0008               	return
  4222  06D2                     l7060:	
  4223                           ;twodimmer_1fd_1sw.c: 1138: case 4:
  4224                           
  4225                           
  4226                           ;twodimmer_1fd_1sw.c: 1139: FAN_FLAG1 = switch_status;
  4227  06D2  083E               	movf	ACTION@switch_status+1,w
  4228  06D3  0021               	movlb	1	; select bank1
  4229  06D4  00E3               	movwf	(_FAN_FLAG1+1)^(0+128)
  4230  06D5  0020               	movlb	0	; select bank0
  4231  06D6  083D               	movf	ACTION@switch_status,w
  4232  06D7  0021               	movlb	1	; select bank1
  4233  06D8  00E2               	movwf	_FAN_FLAG1^(0+128)
  4234                           
  4235                           ;twodimmer_1fd_1sw.c: 1140: if(switch_status==0)
  4236  06D9  0020               	movlb	0	; select bank0
  4237  06DA  083D               	movf	ACTION@switch_status,w
  4238  06DB  043E               	iorwf	ACTION@switch_status+1,w
  4239  06DC  1D03               	btfss	3,2
  4240  06DD  2EEB               	goto	l7068
  4241                           
  4242                           ;twodimmer_1fd_1sw.c: 1141: {
  4243                           ;twodimmer_1fd_1sw.c: 1142: PIE1bits.CCP1IE = 0;
  4244  06DE  0021               	movlb	1	; select bank1
  4245  06DF  1111               	bcf	17,2	;volatile
  4246                           
  4247                           ;twodimmer_1fd_1sw.c: 1143: RA3 =(switch_status^1);
  4248  06E0  0020               	movlb	0	; select bank0
  4249  06E1  183D               	btfsc	ACTION@switch_status,0
  4250  06E2  2EE6               	goto	u2760
  4251  06E3  0020               	movlb	0	; select bank0
  4252  06E4  158C               	bsf	12,3	;volatile
  4253  06E5  2EE8               	goto	l7066
  4254  06E6                     u2760:	
  4255  06E6  0020               	movlb	0	; select bank0
  4256  06E7  118C               	bcf	12,3	;volatile
  4257  06E8                     l7066:	
  4258                           
  4259                           ;twodimmer_1fd_1sw.c: 1144: pk=0;
  4260  06E8  01D9               	clrf	_pk
  4261  06E9  01DA               	clrf	_pk+1
  4262                           
  4263                           ;twodimmer_1fd_1sw.c: 1145: }
  4264  06EA  2F08               	goto	l643
  4265  06EB                     l7068:	
  4266                           
  4267                           ;twodimmer_1fd_1sw.c: 1146: else if(switch_status==1)
  4268  06EB  033D               	decf	ACTION@switch_status,w
  4269  06EC  043E               	iorwf	ACTION@switch_status+1,w
  4270  06ED  1D03               	btfss	3,2
  4271  06EE  2F08               	goto	l643
  4272                           
  4273                           ;twodimmer_1fd_1sw.c: 1147: {
  4274                           ;twodimmer_1fd_1sw.c: 1148: PIE1bits.CCP1IE = 1;
  4275  06EF  0021               	movlb	1	; select bank1
  4276  06F0  1511               	bsf	17,2	;volatile
  4277                           
  4278                           ;twodimmer_1fd_1sw.c: 1149: dimmer1=speed_bitHigh;
  4279  06F1  0020               	movlb	0	; select bank0
  4280  06F2  0828               	movf	ACTION@speed_bitHigh,w
  4281  06F3  00AC               	movwf	??_ACTION
  4282  06F4  082C               	movf	??_ACTION,w
  4283  06F5  00DE               	movwf	_dimmer1
  4284                           
  4285                           ;twodimmer_1fd_1sw.c: 1150: pk=1;
  4286  06F6  3001               	movlw	1
  4287  06F7  00D9               	movwf	_pk
  4288  06F8  3000               	movlw	0
  4289  06F9  00DA               	movwf	_pk+1
  4290                           
  4291                           ;twodimmer_1fd_1sw.c: 1151: FAN_SPEED1_10s = speed_bitHigh;
  4292  06FA  0828               	movf	ACTION@speed_bitHigh,w
  4293  06FB  00AC               	movwf	??_ACTION
  4294  06FC  01AD               	clrf	??_ACTION+1
  4295  06FD  082C               	movf	??_ACTION,w
  4296  06FE  00D5               	movwf	_FAN_SPEED1_10s
  4297  06FF  082D               	movf	??_ACTION+1,w
  4298  0700  00D6               	movwf	_FAN_SPEED1_10s+1
  4299                           
  4300                           ;twodimmer_1fd_1sw.c: 1152: FAN_SPEED1_1s= speed_bitLow;
  4301  0701  0829               	movf	ACTION@speed_bitLow,w
  4302  0702  00AC               	movwf	??_ACTION
  4303  0703  01AD               	clrf	??_ACTION+1
  4304  0704  082C               	movf	??_ACTION,w
  4305  0705  00D3               	movwf	_FAN_SPEED1_1s
  4306  0706  082D               	movf	??_ACTION+1,w
  4307  0707  00D4               	movwf	_FAN_SPEED1_1s+1
  4308  0708                     l643:	
  4309                           
  4310                           ;twodimmer_1fd_1sw.c: 1154: }
  4311                           ;twodimmer_1fd_1sw.c: 1155: M4=switch_status;
  4312  0708  083E               	movf	ACTION@switch_status+1,w
  4313  0709  00C8               	movwf	_M4+1
  4314  070A  083D               	movf	ACTION@switch_status,w
  4315  070B  00C7               	movwf	_M4
  4316                           
  4317                           ;twodimmer_1fd_1sw.c: 1156: break;
  4318  070C  0008               	return
  4319  070D                     l7074:	
  4320                           ;twodimmer_1fd_1sw.c: 1157: case 5:
  4321                           
  4322                           
  4323                           ;twodimmer_1fd_1sw.c: 1158: FAN_FLAG2 = switch_status;
  4324  070D  083E               	movf	ACTION@switch_status+1,w
  4325  070E  0021               	movlb	1	; select bank1
  4326  070F  00E1               	movwf	(_FAN_FLAG2+1)^(0+128)
  4327  0710  0020               	movlb	0	; select bank0
  4328  0711  083D               	movf	ACTION@switch_status,w
  4329  0712  0021               	movlb	1	; select bank1
  4330  0713  00E0               	movwf	_FAN_FLAG2^(0+128)
  4331                           
  4332                           ;twodimmer_1fd_1sw.c: 1159: if(switch_status==0)
  4333  0714  0020               	movlb	0	; select bank0
  4334  0715  083D               	movf	ACTION@switch_status,w
  4335  0716  043E               	iorwf	ACTION@switch_status+1,w
  4336  0717  1D03               	btfss	3,2
  4337  0718  2F29               	goto	l7082
  4338                           
  4339                           ;twodimmer_1fd_1sw.c: 1160: {
  4340                           ;twodimmer_1fd_1sw.c: 1161: T3CONbits.TMR3ON=0;
  4341  0719  0028               	movlb	8	; select bank8
  4342  071A  1013               	bcf	19,0	;volatile
  4343                           
  4344                           ;twodimmer_1fd_1sw.c: 1162: T4CONbits.TMR4ON = 0;
  4345  071B  1117               	bcf	23,2	;volatile
  4346                           
  4347                           ;twodimmer_1fd_1sw.c: 1163: PIE3bits.CCP3IE = 0;
  4348  071C  0021               	movlb	1	; select bank1
  4349  071D  1213               	bcf	19,4	;volatile
  4350                           
  4351                           ;twodimmer_1fd_1sw.c: 1164: RE5 =(switch_status^1);
  4352  071E  0020               	movlb	0	; select bank0
  4353  071F  183D               	btfsc	ACTION@switch_status,0
  4354  0720  2F24               	goto	u2800
  4355  0721  0020               	movlb	0	; select bank0
  4356  0722  1690               	bsf	16,5	;volatile
  4357  0723  2F26               	goto	l7080
  4358  0724                     u2800:	
  4359  0724  0020               	movlb	0	; select bank0
  4360  0725  1290               	bcf	16,5	;volatile
  4361  0726                     l7080:	
  4362                           
  4363                           ;twodimmer_1fd_1sw.c: 1165: ak=0;
  4364  0726  01D7               	clrf	_ak
  4365  0727  01D8               	clrf	_ak+1
  4366                           
  4367                           ;twodimmer_1fd_1sw.c: 1166: }
  4368  0728  2F4A               	goto	l647
  4369  0729                     l7082:	
  4370                           
  4371                           ;twodimmer_1fd_1sw.c: 1167: else if(switch_status==1)
  4372  0729  033D               	decf	ACTION@switch_status,w
  4373  072A  043E               	iorwf	ACTION@switch_status+1,w
  4374  072B  1D03               	btfss	3,2
  4375  072C  2F4A               	goto	l647
  4376                           
  4377                           ;twodimmer_1fd_1sw.c: 1168: {
  4378                           ;twodimmer_1fd_1sw.c: 1169: PIE3bits.CCP3IE = 1;
  4379  072D  0021               	movlb	1	; select bank1
  4380  072E  1613               	bsf	19,4	;volatile
  4381                           
  4382                           ;twodimmer_1fd_1sw.c: 1170: dimmer2=speed_bitHigh;
  4383  072F  0020               	movlb	0	; select bank0
  4384  0730  0828               	movf	ACTION@speed_bitHigh,w
  4385  0731  00AC               	movwf	??_ACTION
  4386  0732  082C               	movf	??_ACTION,w
  4387  0733  00DD               	movwf	_dimmer2
  4388                           
  4389                           ;twodimmer_1fd_1sw.c: 1171: ak=1;
  4390  0734  3001               	movlw	1
  4391  0735  00D7               	movwf	_ak
  4392  0736  3000               	movlw	0
  4393  0737  00D8               	movwf	_ak+1
  4394                           
  4395                           ;twodimmer_1fd_1sw.c: 1172: FAN_SPEED2_10s = speed_bitHigh;
  4396  0738  0828               	movf	ACTION@speed_bitHigh,w
  4397  0739  00AC               	movwf	??_ACTION
  4398  073A  01AD               	clrf	??_ACTION+1
  4399  073B  082C               	movf	??_ACTION,w
  4400  073C  0021               	movlb	1	; select bank1
  4401  073D  00EA               	movwf	_FAN_SPEED2_10s^(0+128)
  4402  073E  0020               	movlb	0	; select bank0
  4403  073F  082D               	movf	??_ACTION+1,w
  4404  0740  0021               	movlb	1	; select bank1
  4405  0741  00EB               	movwf	(_FAN_SPEED2_10s+1)^(0+128)
  4406                           
  4407                           ;twodimmer_1fd_1sw.c: 1173: FAN_SPEED2_1s= speed_bitLow;
  4408  0742  0020               	movlb	0	; select bank0
  4409  0743  0829               	movf	ACTION@speed_bitLow,w
  4410  0744  00AC               	movwf	??_ACTION
  4411  0745  01AD               	clrf	??_ACTION+1
  4412  0746  082C               	movf	??_ACTION,w
  4413  0747  00D1               	movwf	_FAN_SPEED2_1s
  4414  0748  082D               	movf	??_ACTION+1,w
  4415  0749  00D2               	movwf	_FAN_SPEED2_1s+1
  4416  074A                     l647:	
  4417                           
  4418                           ;twodimmer_1fd_1sw.c: 1175: }
  4419                           ;twodimmer_1fd_1sw.c: 1176: M5=switch_status;
  4420  074A  083E               	movf	ACTION@switch_status+1,w
  4421  074B  00C6               	movwf	_M5+1
  4422  074C  083D               	movf	ACTION@switch_status,w
  4423  074D  00C5               	movwf	_M5
  4424                           
  4425                           ;twodimmer_1fd_1sw.c: 1180: }
  4426                           
  4427                           ;twodimmer_1fd_1sw.c: 1179: break;
  4428                           
  4429                           ;twodimmer_1fd_1sw.c: 1178: default:
  4430                           
  4431                           ;twodimmer_1fd_1sw.c: 1177: break;
  4432  074E  0008               	return
  4433  074F                     l7090:	
  4434                           
  4435                           ; Switch on 2 bytes has been partitioned into a top level switch of size 1, and 1 sub-sw
      +                          itches
  4436                           ; Switch size 1, requested type "space"
  4437                           ; Number of cases is 1, Range of values is 0 to 0
  4438                           ; switch strategies available:
  4439                           ; Name         Instructions Cycles
  4440                           ; simple_byte            4     3 (average)
  4441                           ; direct_byte            8     6 (fixed)
  4442                           ; jumptable            260     6 (fixed)
  4443                           ;	Chosen strategy is simple_byte
  4444  074F  083A               	movf	ACTION@SwNum+1,w
  4445  0750  3A00               	xorlw	0	; case 0
  4446  0751  1903               	skipnz
  4447  0752  2F54               	goto	l8358
  4448  0753  2F65               	goto	l650
  4449  0754                     l8358:	
  4450                           
  4451                           ; Switch size 1, requested type "space"
  4452                           ; Number of cases is 5, Range of values is 1 to 5
  4453                           ; switch strategies available:
  4454                           ; Name         Instructions Cycles
  4455                           ; simple_byte           16     9 (average)
  4456                           ; direct_byte           19     9 (fixed)
  4457                           ; jumptable            263     9 (fixed)
  4458                           ;	Chosen strategy is simple_byte
  4459  0754  0839               	movf	ACTION@SwNum,w
  4460  0755  3A01               	xorlw	1	; case 1
  4461  0756  1903               	skipnz
  4462  0757  2D72               	goto	l623
  4463  0758  3A03               	xorlw	3	; case 2
  4464  0759  1903               	skipnz
  4465  075A  2D7F               	goto	l625
  4466  075B  3A01               	xorlw	1	; case 3
  4467  075C  1903               	skipnz
  4468  075D  2D8C               	goto	l6996
  4469  075E  3A07               	xorlw	7	; case 4
  4470  075F  1903               	skipnz
  4471  0760  2ED2               	goto	l7060
  4472  0761  3A01               	xorlw	1	; case 5
  4473  0762  1903               	skipnz
  4474  0763  2F0D               	goto	l7074
  4475  0764  2F65               	goto	l650
  4476  0765                     l650:	
  4477  0765  0008               	return
  4478  0766                     __end_of_ACTION:	
  4479                           
  4480                           	psect	text15
  4481  0ADF                     __ptext15:	
  4482 ;; *************** function _writeUART *****************
  4483 ;; Defined at:
  4484 ;;		line 1184 in file "twodimmer_1fd_1sw.c"
  4485 ;; Parameters:    Size  Location     Type
  4486 ;;  str2Write       1    wreg     PTR unsigned char 
  4487 ;;		 -> st(26), 
  4488 ;; Auto vars:     Size  Location     Type
  4489 ;;  str2Write       1    5[COMMON] PTR unsigned char 
  4490 ;;		 -> st(26), 
  4491 ;;  Tx_count        2    3[COMMON] int 
  4492 ;; Return value:  Size  Location     Type
  4493 ;;                  1    wreg      void 
  4494 ;; Registers used:
  4495 ;;		wreg, fsr1l, fsr1h, status,2, status,0
  4496 ;; Tracked objects:
  4497 ;;		On entry : 0/0
  4498 ;;		On exit  : 0/0
  4499 ;;		Unchanged: 0/0
  4500 ;; Data sizes:     COMMON   BANK0   BANK1   BANK2   BANK3   BANK4   BANK5   BANK6   BANK7   BANK8   BANK9
  4501 ;;      Params:         0       0       0       0       0       0       0       0       0       0       0
  4502 ;;      Locals:         3       0       0       0       0       0       0       0       0       0       0
  4503 ;;      Temps:          1       0       0       0       0       0       0       0       0       0       0
  4504 ;;      Totals:         4       0       0       0       0       0       0       0       0       0       0
  4505 ;;Total ram usage:        4 bytes
  4506 ;; Hardware stack levels used:    1
  4507 ;; Hardware stack levels required when called:    1
  4508 ;; This function calls:
  4509 ;;		Nothing
  4510 ;; This function is called by:
  4511 ;;		_main
  4512 ;;		_ACTION
  4513 ;; This function uses a non-reentrant model
  4514 ;;
  4515                           
  4516                           
  4517                           ;psect for function _writeUART
  4518  0ADF                     _writeUART:	
  4519                           
  4520                           ;incstack = 0
  4521                           ; Regs used in _writeUART: [wreg+fsr1l+fsr1h+status,2+status,0]
  4522                           ;writeUART@str2Write stored from wreg
  4523  0ADF  00F5               	movwf	writeUART@str2Write
  4524                           
  4525                           ;twodimmer_1fd_1sw.c: 1186: int Tx_count=0;
  4526  0AE0  01F3               	clrf	writeUART@Tx_count
  4527  0AE1  01F4               	clrf	writeUART@Tx_count+1
  4528  0AE2                     l6844:	
  4529                           ;twodimmer_1fd_1sw.c: 1188: while(Tx_count!=4)
  4530                           
  4531  0AE2  3004               	movlw	4
  4532  0AE3  0673               	xorwf	writeUART@Tx_count,w
  4533  0AE4  0474               	iorwf	writeUART@Tx_count+1,w
  4534  0AE5  1903               	btfsc	3,2
  4535  0AE6  0008               	return
  4536  0AE7                     l655:	
  4537                           ;twodimmer_1fd_1sw.c: 1189: {
  4538                           ;twodimmer_1fd_1sw.c: 1191: while (!TX1STAbits.TRMT);
  4539                           
  4540  0AE7  0023               	movlb	3	; select bank3
  4541  0AE8  1C9E               	btfss	30,1	;volatile
  4542  0AE9  2AE7               	goto	l655
  4543                           
  4544                           ;twodimmer_1fd_1sw.c: 1192: TX1REG = *str2Write;
  4545  0AEA  0875               	movf	writeUART@str2Write,w
  4546  0AEB  0086               	movwf	6
  4547  0AEC  0187               	clrf	7
  4548  0AED  0801               	movf	1,w
  4549  0AEE  009A               	movwf	26	;volatile
  4550                           
  4551                           ;twodimmer_1fd_1sw.c: 1193: *str2Write++;
  4552  0AEF  3001               	movlw	1
  4553  0AF0  00F2               	movwf	??_writeUART
  4554  0AF1  0872               	movf	??_writeUART,w
  4555  0AF2  07F5               	addwf	writeUART@str2Write,f
  4556                           
  4557                           ;twodimmer_1fd_1sw.c: 1194: Tx_count++;
  4558  0AF3  3001               	movlw	1
  4559  0AF4  07F3               	addwf	writeUART@Tx_count,f
  4560  0AF5  3000               	movlw	0
  4561  0AF6  3DF4               	addwfc	writeUART@Tx_count+1,f
  4562  0AF7  2AE2               	goto	l6844
  4563  0AF8                     __end_of_writeUART:	
  4564                           
  4565                           	psect	text16
  4566  0766                     __ptext16:	
  4567 ;; *************** function _atoi *****************
  4568 ;; Defined at:
  4569 ;;		line 5 in file "C:\Program Files\Microchip\xc8\v1.45\sources\common\atoi.c"
  4570 ;; Parameters:    Size  Location     Type
  4571 ;;  s               1    wreg     PTR const unsigned char 
  4572 ;;		 -> ACTION@FanSpeedString(2), ACTION@SwNumString(2), 
  4573 ;; Auto vars:     Size  Location     Type
  4574 ;;  s               1    5[BANK0 ] PTR const unsigned char 
  4575 ;;		 -> ACTION@FanSpeedString(2), ACTION@SwNumString(2), 
  4576 ;;  a               2    3[BANK0 ] int 
  4577 ;;  sign            1    2[BANK0 ] unsigned char 
  4578 ;; Return value:  Size  Location     Type
  4579 ;;                  2    8[COMMON] int 
  4580 ;; Registers used:
  4581 ;;		wreg, fsr1l, fsr1h, status,2, status,0, pclath, cstack
  4582 ;; Tracked objects:
  4583 ;;		On entry : 0/0
  4584 ;;		On exit  : 0/0
  4585 ;;		Unchanged: 0/0
  4586 ;; Data sizes:     COMMON   BANK0   BANK1   BANK2   BANK3   BANK4   BANK5   BANK6   BANK7   BANK8   BANK9
  4587 ;;      Params:         2       0       0       0       0       0       0       0       0       0       0
  4588 ;;      Locals:         0       4       0       0       0       0       0       0       0       0       0
  4589 ;;      Temps:          0       2       0       0       0       0       0       0       0       0       0
  4590 ;;      Totals:         2       6       0       0       0       0       0       0       0       0       0
  4591 ;;Total ram usage:        8 bytes
  4592 ;; Hardware stack levels used:    1
  4593 ;; Hardware stack levels required when called:    2
  4594 ;; This function calls:
  4595 ;;		___wmul
  4596 ;;		_isdigit
  4597 ;; This function is called by:
  4598 ;;		_ACTION
  4599 ;; This function uses a non-reentrant model
  4600 ;;
  4601                           
  4602                           
  4603                           ;psect for function _atoi
  4604  0766                     _atoi:	
  4605                           
  4606                           ;incstack = 0
  4607                           ; Regs used in _atoi: [wreg+fsr1l+fsr1h+status,2+status,0+pclath+cstack]
  4608                           ;atoi@s stored from wreg
  4609  0766  0020               	movlb	0	; select bank0
  4610  0767  00A5               	movwf	atoi@s
  4611  0768                     l6850:	
  4612  0768  0825               	movf	atoi@s,w
  4613  0769  0086               	movwf	6
  4614  076A  0187               	clrf	7
  4615  076B  3020               	movlw	32
  4616  076C  0601               	xorwf	1,w
  4617  076D  1D03               	btfss	3,2
  4618  076E  2F74               	goto	l6852
  4619  076F                     l6848:	
  4620  076F  3001               	movlw	1
  4621  0770  00A0               	movwf	??_atoi
  4622  0771  0820               	movf	??_atoi,w
  4623  0772  07A5               	addwf	atoi@s,f
  4624  0773  2F68               	goto	l6850
  4625  0774                     l6852:	
  4626  0774  0825               	movf	atoi@s,w
  4627  0775  0086               	movwf	6
  4628  0776  0187               	clrf	7
  4629  0777  3009               	movlw	9
  4630  0778  0601               	xorwf	1,w
  4631  0779  1903               	btfsc	3,2
  4632  077A  2F6F               	goto	l6848
  4633  077B  01A3               	clrf	atoi@a
  4634  077C  01A4               	clrf	atoi@a+1
  4635  077D  01A2               	clrf	atoi@sign
  4636  077E  0825               	movf	atoi@s,w
  4637  077F  0086               	movwf	6
  4638  0780  0187               	clrf	7
  4639  0781  302D               	movlw	45
  4640  0782  0601               	xorwf	1,w
  4641  0783  1D03               	btfss	3,2
  4642  0784  2F8A               	goto	l6860
  4643  0785  3001               	movlw	1
  4644  0786  00A0               	movwf	??_atoi
  4645  0787  0820               	movf	??_atoi,w
  4646  0788  07A2               	addwf	atoi@sign,f
  4647  0789  2F91               	goto	l6866
  4648  078A                     l6860:	
  4649  078A  0825               	movf	atoi@s,w
  4650  078B  0086               	movwf	6
  4651  078C  0187               	clrf	7
  4652  078D  302B               	movlw	43
  4653  078E  0601               	xorwf	1,w
  4654  078F  1D03               	btfss	3,2
  4655  0790  2F95               	goto	l6868
  4656  0791                     l6866:	
  4657  0791  3001               	movlw	1
  4658  0792  00A0               	movwf	??_atoi
  4659  0793  0820               	movf	??_atoi,w
  4660  0794  07A5               	addwf	atoi@s,f
  4661  0795                     l6868:	
  4662  0795  0825               	movf	atoi@s,w
  4663  0796  0086               	movwf	6
  4664  0797  0187               	clrf	7
  4665  0798  0801               	movf	1,w
  4666  0799  3189  21C8  3187   	fcall	_isdigit
  4667  079C  1C03               	btfss	3,0
  4668  079D  2FBC               	goto	l6870
  4669  079E  0020               	movlb	0	; select bank0
  4670  079F  0824               	movf	atoi@a+1,w
  4671  07A0  00F3               	movwf	___wmul@multiplier+1
  4672  07A1  0823               	movf	atoi@a,w
  4673  07A2  00F2               	movwf	___wmul@multiplier
  4674  07A3  300A               	movlw	10
  4675  07A4  00F4               	movwf	___wmul@multiplicand
  4676  07A5  3000               	movlw	0
  4677  07A6  00F5               	movwf	___wmul@multiplicand+1
  4678  07A7  318A  22F8  3187   	fcall	___wmul
  4679  07AA  0020               	movlb	0	; select bank0
  4680  07AB  0825               	movf	atoi@s,w
  4681  07AC  0086               	movwf	6
  4682  07AD  0187               	clrf	7
  4683  07AE  0801               	movf	1,w
  4684  07AF  0772               	addwf	?___wmul,w
  4685  07B0  00A0               	movwf	??_atoi
  4686  07B1  0873               	movf	?___wmul+1,w
  4687  07B2  1803               	skipnc
  4688  07B3  0A73               	incf	?___wmul+1,w
  4689  07B4  00A1               	movwf	??_atoi+1
  4690  07B5  0820               	movf	??_atoi,w
  4691  07B6  3ED0               	addlw	208
  4692  07B7  00A3               	movwf	atoi@a
  4693  07B8  30FF               	movlw	255
  4694  07B9  3D21               	addwfc	??_atoi+1,w
  4695  07BA  00A4               	movwf	atoi@a+1
  4696  07BB  2F91               	goto	l6866
  4697  07BC                     l6870:	
  4698  07BC  0020               	movlb	0	; select bank0
  4699  07BD  0822               	movf	atoi@sign,w
  4700  07BE  1903               	btfsc	3,2
  4701  07BF  2FCC               	goto	l6876
  4702  07C0  0923               	comf	atoi@a,w
  4703  07C1  00A0               	movwf	??_atoi
  4704  07C2  0924               	comf	atoi@a+1,w
  4705  07C3  00A1               	movwf	??_atoi+1
  4706  07C4  0AA0               	incf	??_atoi,f
  4707  07C5  1903               	skipnz
  4708  07C6  0AA1               	incf	??_atoi+1,f
  4709  07C7  0820               	movf	??_atoi,w
  4710  07C8  00F8               	movwf	?_atoi
  4711  07C9  0821               	movf	??_atoi+1,w
  4712  07CA  00F9               	movwf	?_atoi+1
  4713  07CB  0008               	return
  4714  07CC                     l6876:	
  4715  07CC  0824               	movf	atoi@a+1,w
  4716  07CD  00F9               	movwf	?_atoi+1
  4717  07CE  0823               	movf	atoi@a,w
  4718  07CF  00F8               	movwf	?_atoi
  4719  07D0  0008               	return
  4720  07D1                     __end_of_atoi:	
  4721                           
  4722                           	psect	text17
  4723  09C8                     __ptext17:	
  4724 ;; *************** function _isdigit *****************
  4725 ;; Defined at:
  4726 ;;		line 8 in file "C:\Program Files\Microchip\xc8\v1.45\sources\common\isdigit.c"
  4727 ;; Parameters:    Size  Location     Type
  4728 ;;  c               1    wreg     unsigned char 
  4729 ;; Auto vars:     Size  Location     Type
  4730 ;;  c               1    3[COMMON] unsigned char 
  4731 ;; Return value:  Size  Location     Type
  4732 ;;		None               void
  4733 ;; Registers used:
  4734 ;;		wreg, status,2, status,0
  4735 ;; Tracked objects:
  4736 ;;		On entry : 0/0
  4737 ;;		On exit  : 0/0
  4738 ;;		Unchanged: 0/0
  4739 ;; Data sizes:     COMMON   BANK0   BANK1   BANK2   BANK3   BANK4   BANK5   BANK6   BANK7   BANK8   BANK9
  4740 ;;      Params:         0       0       0       0       0       0       0       0       0       0       0
  4741 ;;      Locals:         2       0       0       0       0       0       0       0       0       0       0
  4742 ;;      Temps:          0       0       0       0       0       0       0       0       0       0       0
  4743 ;;      Totals:         2       0       0       0       0       0       0       0       0       0       0
  4744 ;;Total ram usage:        2 bytes
  4745 ;; Hardware stack levels used:    1
  4746 ;; Hardware stack levels required when called:    1
  4747 ;; This function calls:
  4748 ;;		Nothing
  4749 ;; This function is called by:
  4750 ;;		_atoi
  4751 ;; This function uses a non-reentrant model
  4752 ;;
  4753                           
  4754                           
  4755                           ;psect for function _isdigit
  4756  09C8                     _isdigit:	
  4757                           
  4758                           ;incstack = 0
  4759                           ; Regs used in _isdigit: [wreg+status,2+status,0]
  4760                           ;isdigit@c stored from wreg
  4761  09C8  00F3               	movwf	isdigit@c
  4762  09C9  01F2               	clrf	_isdigit$908
  4763  09CA  303A               	movlw	58
  4764  09CB  0273               	subwf	isdigit@c,w
  4765  09CC  1803               	skipnc
  4766  09CD  29D4               	goto	l6734
  4767  09CE  3030               	movlw	48
  4768  09CF  0273               	subwf	isdigit@c,w
  4769  09D0  1C03               	skipc
  4770  09D1  29D4               	goto	l6734
  4771  09D2  01F2               	clrf	_isdigit$908
  4772  09D3  0AF2               	incf	_isdigit$908,f
  4773  09D4                     l6734:	
  4774  09D4  0C72               	rrf	_isdigit$908,w
  4775  09D5  0008               	return
  4776  09D6                     __end_of_isdigit:	
  4777                           
  4778                           	psect	text18
  4779  0AF8                     __ptext18:	
  4780 ;; *************** function ___wmul *****************
  4781 ;; Defined at:
  4782 ;;		line 15 in file "C:\Program Files\Microchip\xc8\v1.45\sources\common\Umul16.c"
  4783 ;; Parameters:    Size  Location     Type
  4784 ;;  multiplier      2    2[COMMON] unsigned int 
  4785 ;;  multiplicand    2    4[COMMON] unsigned int 
  4786 ;; Auto vars:     Size  Location     Type
  4787 ;;  product         2    6[COMMON] unsigned int 
  4788 ;; Return value:  Size  Location     Type
  4789 ;;                  2    2[COMMON] unsigned int 
  4790 ;; Registers used:
  4791 ;;		wreg, status,2, status,0
  4792 ;; Tracked objects:
  4793 ;;		On entry : 0/0
  4794 ;;		On exit  : 0/0
  4795 ;;		Unchanged: 0/0
  4796 ;; Data sizes:     COMMON   BANK0   BANK1   BANK2   BANK3   BANK4   BANK5   BANK6   BANK7   BANK8   BANK9
  4797 ;;      Params:         4       0       0       0       0       0       0       0       0       0       0
  4798 ;;      Locals:         2       0       0       0       0       0       0       0       0       0       0
  4799 ;;      Temps:          0       0       0       0       0       0       0       0       0       0       0
  4800 ;;      Totals:         6       0       0       0       0       0       0       0       0       0       0
  4801 ;;Total ram usage:        6 bytes
  4802 ;; Hardware stack levels used:    1
  4803 ;; Hardware stack levels required when called:    1
  4804 ;; This function calls:
  4805 ;;		Nothing
  4806 ;; This function is called by:
  4807 ;;		_atoi
  4808 ;; This function uses a non-reentrant model
  4809 ;;
  4810                           
  4811                           
  4812                           ;psect for function ___wmul
  4813  0AF8                     ___wmul:	
  4814                           
  4815                           ;incstack = 0
  4816                           ; Regs used in ___wmul: [wreg+status,2+status,0]
  4817  0AF8  01F6               	clrf	___wmul@product
  4818  0AF9  01F7               	clrf	___wmul@product+1
  4819  0AFA                     l6714:	
  4820  0AFA  1C72               	btfss	___wmul@multiplier,0
  4821  0AFB  2B00               	goto	l696
  4822  0AFC  0874               	movf	___wmul@multiplicand,w
  4823  0AFD  07F6               	addwf	___wmul@product,f
  4824  0AFE  0875               	movf	___wmul@multiplicand+1,w
  4825  0AFF  3DF7               	addwfc	___wmul@product+1,f
  4826  0B00                     l696:	
  4827  0B00  3001               	movlw	1
  4828  0B01                     u2505:	
  4829  0B01  35F4               	lslf	___wmul@multiplicand,f
  4830  0B02  0DF5               	rlf	___wmul@multiplicand+1,f
  4831  0B03  0B89               	decfsz	9,f
  4832  0B04  2B01               	goto	u2505
  4833  0B05  3001               	movlw	1
  4834  0B06                     u2515:	
  4835  0B06  36F3               	lsrf	___wmul@multiplier+1,f
  4836  0B07  0CF2               	rrf	___wmul@multiplier,f
  4837  0B08  0B89               	decfsz	9,f
  4838  0B09  2B06               	goto	u2515
  4839  0B0A  0872               	movf	___wmul@multiplier,w
  4840  0B0B  0473               	iorwf	___wmul@multiplier+1,w
  4841  0B0C  1D03               	btfss	3,2
  4842  0B0D  2AFA               	goto	l6714
  4843  0B0E  0877               	movf	___wmul@product+1,w
  4844  0B0F  00F3               	movwf	?___wmul+1
  4845  0B10  0876               	movf	___wmul@product,w
  4846  0B11  00F2               	movwf	?___wmul
  4847  0B12  0008               	return
  4848  0B13                     __end_of___wmul:	
  4849                           
  4850                           	psect	intentry
  4851  0004                     __pintentry:	
  4852 ;; *************** function _isr *****************
  4853 ;; Defined at:
  4854 ;;		line 82 in file "twodimmer_1fd_1sw.c"
  4855 ;; Parameters:    Size  Location     Type
  4856 ;;		None
  4857 ;; Auto vars:     Size  Location     Type
  4858 ;;		None
  4859 ;; Return value:  Size  Location     Type
  4860 ;;                  1    wreg      void 
  4861 ;; Registers used:
  4862 ;;		wreg, fsr0l, fsr0h, fsr1l, fsr1h, status,2, status,0
  4863 ;; Tracked objects:
  4864 ;;		On entry : 0/0
  4865 ;;		On exit  : 0/0
  4866 ;;		Unchanged: 0/0
  4867 ;; Data sizes:     COMMON   BANK0   BANK1   BANK2   BANK3   BANK4   BANK5   BANK6   BANK7   BANK8   BANK9
  4868 ;;      Params:         0       0       0       0       0       0       0       0       0       0       0
  4869 ;;      Locals:         0       0       0       0       0       0       0       0       0       0       0
  4870 ;;      Temps:          2       0       0       0       0       0       0       0       0       0       0
  4871 ;;      Totals:         2       0       0       0       0       0       0       0       0       0       0
  4872 ;;Total ram usage:        2 bytes
  4873 ;; Hardware stack levels used:    1
  4874 ;; This function calls:
  4875 ;;		Nothing
  4876 ;; This function is called by:
  4877 ;;		Interrupt level 1
  4878 ;; This function uses a non-reentrant model
  4879 ;;
  4880                           
  4881  0004                     _isr:	
  4882                           
  4883                           ;incstack = 0
  4884  0004  147E               	bsf	126,0	;set compiler interrupt flag (level 1)
  4885                           
  4886                           ; Regs used in _isr: [wreg-fsr1h+status,2+status,0]
  4887  0005  3180               	pagesel	$
  4888  0006  0020               	movlb	0	; select bank0
  4889  0007  087F               	movf	127,w
  4890  0008  00F1               	movwf	??_isr+1
  4891                           
  4892                           ;twodimmer_1fd_1sw.c: 85: if(RCIF == 1)
  4893  0009  1E91               	btfss	17,5	;volatile
  4894  000A  285A               	goto	i1l4318
  4895                           
  4896                           ;twodimmer_1fd_1sw.c: 86: {
  4897                           ;twodimmer_1fd_1sw.c: 87: if(RC1STAbits.OERR)
  4898  000B  0023               	movlb	3	; select bank3
  4899  000C  1C9D               	btfss	29,1	;volatile
  4900  000D  2819               	goto	i1l4298
  4901                           
  4902                           ;twodimmer_1fd_1sw.c: 88: {
  4903                           ;twodimmer_1fd_1sw.c: 89: RC1STAbits.CREN = 0;
  4904  000E  121D               	bcf	29,4	;volatile
  4905                           
  4906                           ;twodimmer_1fd_1sw.c: 90: RC1STAbits.CREN = 1;
  4907  000F  161D               	bsf	29,4	;volatile
  4908  0010                     i1l245:	
  4909                           ;twodimmer_1fd_1sw.c: 92: while(PIR1bits.TXIF==0);
  4910                           
  4911  0010  0020               	movlb	0	; select bank0
  4912  0011  1E11               	btfss	17,4	;volatile
  4913  0012  2810               	goto	i1l245
  4914                           
  4915                           ;twodimmer_1fd_1sw.c: 93: TX1REG='F';
  4916  0013  3046               	movlw	70
  4917  0014  0023               	movlb	3	; select bank3
  4918  0015  009A               	movwf	26	;volatile
  4919  0016                     i1l248:	
  4920                           ;twodimmer_1fd_1sw.c: 94: while(PIR1bits.TXIF==0);
  4921                           
  4922  0016  0020               	movlb	0	; select bank0
  4923  0017  1E11               	btfss	17,4	;volatile
  4924  0018  2816               	goto	i1l248
  4925  0019                     i1l4298:	
  4926                           
  4927                           ;twodimmer_1fd_1sw.c: 96: }
  4928                           ;twodimmer_1fd_1sw.c: 97: name[i]=RC1REG;
  4929  0019  0023               	movlb	3	; select bank3
  4930  001A  0819               	movf	25,w	;volatile
  4931  001B  00F0               	movwf	??_isr
  4932  001C  0020               	movlb	0	; select bank0
  4933  001D  085B               	movf	_i,w
  4934  001E  3EA0               	addlw	(low (_name| 0))& (0+255)
  4935  001F  0086               	movwf	6
  4936  0020  0187               	clrf	7
  4937  0021  0870               	movf	??_isr,w
  4938  0022  0081               	movwf	1
  4939                           
  4940                           ;twodimmer_1fd_1sw.c: 98: if(name[0]=='%')
  4941  0023  3025               	movlw	37
  4942  0024  0021               	movlb	1	; select bank1
  4943  0025  0620               	xorwf	_name^(0+128),w
  4944  0026  1D03               	btfss	3,2
  4945  0027  2843               	goto	i1l251
  4946                           
  4947                           ;twodimmer_1fd_1sw.c: 99: {
  4948                           ;twodimmer_1fd_1sw.c: 100: i++;
  4949  0028  3001               	movlw	1
  4950  0029  0020               	movlb	0	; select bank0
  4951  002A  07DB               	addwf	_i,f
  4952  002B  3000               	movlw	0
  4953  002C  3DDC               	addwfc	_i+1,f
  4954                           
  4955                           ;twodimmer_1fd_1sw.c: 101: if(i>15)
  4956  002D  085C               	movf	_i+1,w
  4957  002E  3A80               	xorlw	128
  4958  002F  00F0               	movwf	??_isr
  4959  0030  3080               	movlw	128
  4960  0031  0270               	subwf	??_isr,w
  4961  0032  1D03               	skipz
  4962  0033  2836               	goto	u164_25
  4963  0034  3010               	movlw	16
  4964  0035  025B               	subwf	_i,w
  4965  0036                     u164_25:	
  4966  0036  1C03               	skipc
  4967  0037  285A               	goto	i1l4318
  4968                           
  4969                           ;twodimmer_1fd_1sw.c: 102: {
  4970                           ;twodimmer_1fd_1sw.c: 103: i=0;
  4971  0038  0020               	movlb	0	; select bank0
  4972  0039  01DB               	clrf	_i
  4973  003A  01DC               	clrf	_i+1
  4974                           
  4975                           ;twodimmer_1fd_1sw.c: 104: TX_FLAG = 1;
  4976  003B  3001               	movlw	1
  4977  003C  0021               	movlb	1	; select bank1
  4978  003D  00E4               	movwf	_TX_FLAG^(0+128)
  4979  003E  3000               	movlw	0
  4980  003F  00E5               	movwf	(_TX_FLAG^(0+128)+1)
  4981                           
  4982                           ;twodimmer_1fd_1sw.c: 105: RCIF=0;
  4983  0040  0020               	movlb	0	; select bank0
  4984  0041  1291               	bcf	17,5	;volatile
  4985                           
  4986                           ;twodimmer_1fd_1sw.c: 106: }
  4987                           ;twodimmer_1fd_1sw.c: 107: }
  4988  0042  285A               	goto	i1l4318
  4989  0043                     i1l251:	
  4990                           
  4991                           ;twodimmer_1fd_1sw.c: 108: else
  4992                           ;twodimmer_1fd_1sw.c: 109: {
  4993                           ;twodimmer_1fd_1sw.c: 110: RC1STAbits.CREN = 0;
  4994  0043  0023               	movlb	3	; select bank3
  4995  0044  121D               	bcf	29,4	;volatile
  4996                           
  4997                           ;twodimmer_1fd_1sw.c: 111: RC1STAbits.CREN = 1;
  4998  0045  161D               	bsf	29,4	;volatile
  4999                           
  5000                           ;twodimmer_1fd_1sw.c: 113: i=0;
  5001  0046  0020               	movlb	0	; select bank0
  5002  0047  01DB               	clrf	_i
  5003  0048  01DC               	clrf	_i+1
  5004  0049                     i1l254:	
  5005                           ;twodimmer_1fd_1sw.c: 114: while(PIR1bits.TXIF==0);
  5006                           
  5007  0049  1E11               	btfss	17,4	;volatile
  5008  004A  2849               	goto	i1l254
  5009                           
  5010                           ;twodimmer_1fd_1sw.c: 115: TX1REG='F';
  5011  004B  3046               	movlw	70
  5012  004C  0023               	movlb	3	; select bank3
  5013  004D  009A               	movwf	26	;volatile
  5014  004E                     i1l257:	
  5015                           ;twodimmer_1fd_1sw.c: 116: while(PIR1bits.TXIF==0);
  5016                           
  5017  004E  0020               	movlb	0	; select bank0
  5018  004F  1E11               	btfss	17,4	;volatile
  5019  0050  284E               	goto	i1l257
  5020                           
  5021                           ;twodimmer_1fd_1sw.c: 117: TX1REG='R';
  5022  0051  3052               	movlw	82
  5023  0052  0023               	movlb	3	; select bank3
  5024  0053  009A               	movwf	26	;volatile
  5025  0054                     i1l260:	
  5026                           ;twodimmer_1fd_1sw.c: 118: while(PIR1bits.TXIF==0);
  5027                           
  5028  0054  0020               	movlb	0	; select bank0
  5029  0055  1E11               	btfss	17,4	;volatile
  5030  0056  2854               	goto	i1l260
  5031                           
  5032                           ;twodimmer_1fd_1sw.c: 119: TX1REG='R';
  5033  0057  3052               	movlw	82
  5034  0058  0023               	movlb	3	; select bank3
  5035  0059  009A               	movwf	26	;volatile
  5036  005A                     i1l4318:	
  5037                           
  5038                           ;twodimmer_1fd_1sw.c: 120: }
  5039                           ;twodimmer_1fd_1sw.c: 121: }
  5040                           ;twodimmer_1fd_1sw.c: 124: if(PIE1bits.TMR2IE==1 && PIR1bits.TMR2IF==1)
  5041  005A  0021               	movlb	1	; select bank1
  5042  005B  1C91               	btfss	17,1	;volatile
  5043  005C  2868               	goto	i1l263
  5044  005D  0020               	movlb	0	; select bank0
  5045  005E  1C91               	btfss	17,1	;volatile
  5046  005F  2868               	goto	i1l263
  5047  0060                     i1l4324:	
  5048                           ;twodimmer_1fd_1sw.c: 125: {
  5049                           ;twodimmer_1fd_1sw.c: 127: while(TX1REG==0);
  5050                           
  5051  0060  0023               	movlb	3	; select bank3
  5052  0061  081A               	movf	26,w	;volatile
  5053  0062  1903               	btfsc	3,2
  5054  0063  2860               	goto	i1l4324
  5055                           
  5056                           ;twodimmer_1fd_1sw.c: 128: PIR1bits.TMR2IF=0;
  5057  0064  0020               	movlb	0	; select bank0
  5058  0065  1091               	bcf	17,1	;volatile
  5059                           
  5060                           ;twodimmer_1fd_1sw.c: 129: RA3=1;
  5061  0066  158C               	bsf	12,3	;volatile
  5062                           
  5063                           ;twodimmer_1fd_1sw.c: 130: T2CONbits.TMR2ON=0;
  5064  0067  111C               	bcf	28,2	;volatile
  5065  0068                     i1l263:	
  5066                           
  5067                           ;twodimmer_1fd_1sw.c: 131: }
  5068                           ;twodimmer_1fd_1sw.c: 133: if(PIE1bits.TMR1IE == 1 && PIR1bits.TMR1IF==1)
  5069  0068  0021               	movlb	1	; select bank1
  5070  0069  1C11               	btfss	17,0	;volatile
  5071  006A  2874               	goto	i1l4334
  5072  006B  0020               	movlb	0	; select bank0
  5073  006C  1C11               	btfss	17,0	;volatile
  5074  006D  2874               	goto	i1l4334
  5075                           
  5076                           ;twodimmer_1fd_1sw.c: 134: {
  5077                           ;twodimmer_1fd_1sw.c: 136: PIR1bits.TMR1IF=0;
  5078  006E  1011               	bcf	17,0	;volatile
  5079                           
  5080                           ;twodimmer_1fd_1sw.c: 137: T1CONbits.TMR1ON = 0;
  5081  006F  1018               	bcf	24,0	;volatile
  5082                           
  5083                           ;twodimmer_1fd_1sw.c: 138: RA3=0;
  5084  0070  118C               	bcf	12,3	;volatile
  5085                           
  5086                           ;twodimmer_1fd_1sw.c: 139: PR2=0x9F;
  5087  0071  309F               	movlw	159
  5088  0072  009B               	movwf	27	;volatile
  5089                           
  5090                           ;twodimmer_1fd_1sw.c: 140: T2CONbits.TMR2ON=1;
  5091  0073  151C               	bsf	28,2	;volatile
  5092  0074                     i1l4334:	
  5093                           
  5094                           ;twodimmer_1fd_1sw.c: 142: }
  5095                           ;twodimmer_1fd_1sw.c: 146: if(PIE3bits.TMR4IE==1 && PIR3bits.TMR4IF==1)
  5096  0074  0021               	movlb	1	; select bank1
  5097  0075  1C93               	btfss	19,1	;volatile
  5098  0076  287E               	goto	i1l268
  5099  0077  0020               	movlb	0	; select bank0
  5100  0078  1C93               	btfss	19,1	;volatile
  5101  0079  287E               	goto	i1l268
  5102                           
  5103                           ;twodimmer_1fd_1sw.c: 147: {
  5104                           ;twodimmer_1fd_1sw.c: 149: PIR3bits.TMR4IF=0;
  5105  007A  1093               	bcf	19,1	;volatile
  5106                           
  5107                           ;twodimmer_1fd_1sw.c: 150: RE5=1;
  5108  007B  1690               	bsf	16,5	;volatile
  5109                           
  5110                           ;twodimmer_1fd_1sw.c: 151: T4CONbits.TMR4ON=0;
  5111  007C  0028               	movlb	8	; select bank8
  5112  007D  1117               	bcf	23,2	;volatile
  5113  007E                     i1l268:	
  5114                           
  5115                           ;twodimmer_1fd_1sw.c: 153: }
  5116                           ;twodimmer_1fd_1sw.c: 155: if(PIE3bits.TMR3IE == 1 && PIR3bits.TMR3IF==1)
  5117  007E  0021               	movlb	1	; select bank1
  5118  007F  1C13               	btfss	19,0	;volatile
  5119  0080  288B               	goto	i1l4350
  5120  0081  0020               	movlb	0	; select bank0
  5121  0082  1C13               	btfss	19,0	;volatile
  5122  0083  288B               	goto	i1l4350
  5123                           
  5124                           ;twodimmer_1fd_1sw.c: 156: {
  5125                           ;twodimmer_1fd_1sw.c: 158: PIR3bits.TMR3IF=0;
  5126  0084  1013               	bcf	19,0	;volatile
  5127                           
  5128                           ;twodimmer_1fd_1sw.c: 159: RE5=0;
  5129  0085  1290               	bcf	16,5	;volatile
  5130                           
  5131                           ;twodimmer_1fd_1sw.c: 160: PR4=0x9F;
  5132  0086  309F               	movlw	159
  5133  0087  0028               	movlb	8	; select bank8
  5134  0088  0096               	movwf	22	;volatile
  5135                           
  5136                           ;twodimmer_1fd_1sw.c: 161: T4CONbits.TMR4ON=1;
  5137  0089  1517               	bsf	23,2	;volatile
  5138                           
  5139                           ;twodimmer_1fd_1sw.c: 162: T3CONbits.TMR3ON = 0;
  5140  008A  1013               	bcf	19,0	;volatile
  5141  008B                     i1l4350:	
  5142                           
  5143                           ;twodimmer_1fd_1sw.c: 163: }
  5144                           ;twodimmer_1fd_1sw.c: 165: if(PIR1bits.CCP1IF==1 || PIR3bits.CCP3IF == 1 || PIR4bits.CCP
      +                          9IF==1) {
  5145  008B  0020               	movlb	0	; select bank0
  5146  008C  1D11               	btfss	17,2	;volatile
  5147  008D  1A13               	btfsc	19,4	;volatile
  5148  008E  2891               	goto	i1l272
  5149  008F  1F14               	btfss	20,6	;volatile
  5150  0090  2C8E               	goto	i1l563
  5151  0091                     i1l272:	
  5152                           
  5153                           ;twodimmer_1fd_1sw.c: 166: if(PIR1bits.CCP1IF == 1)
  5154  0091  1D11               	btfss	17,2	;volatile
  5155  0092  2A7A               	goto	i1l273
  5156                           
  5157                           ;twodimmer_1fd_1sw.c: 167: {
  5158                           ;twodimmer_1fd_1sw.c: 168: PIR1bits.CCP1IF = 0;
  5159  0093  1111               	bcf	17,2	;volatile
  5160                           
  5161                           ;twodimmer_1fd_1sw.c: 170: if(FAN_FLAG1==1 && pk==1)
  5162  0094  0021               	movlb	1	; select bank1
  5163  0095  0362               	decf	_FAN_FLAG1^(0+128),w
  5164  0096  0463               	iorwf	(_FAN_FLAG1+1)^(0+128),w
  5165  0097  1D03               	btfss	3,2
  5166  0098  2A78               	goto	i1l274
  5167  0099  0020               	movlb	0	; select bank0
  5168  009A  0359               	decf	_pk,w
  5169  009B  045A               	iorwf	_pk+1,w
  5170  009C  1903               	btfsc	3,2
  5171  009D  2A66               	goto	i1l4816
  5172  009E  2A78               	goto	i1l274
  5173  009F                     i1l4364:	
  5174                           ;twodimmer_1fd_1sw.c: 176: {
  5175                           ;twodimmer_1fd_1sw.c: 177: case '0':
  5176                           
  5177                           ;twodimmer_1fd_1sw.c: 175: switch(FAN_SPEED1_1s)
  5178                           
  5179                           ;twodimmer_1fd_1sw.c: 173: {
  5180                           ;twodimmer_1fd_1sw.c: 174: case '0':
  5181                           
  5182                           ;twodimmer_1fd_1sw.c: 171: {
  5183                           ;twodimmer_1fd_1sw.c: 172: switch(FAN_SPEED1_10s)
  5184                           
  5185                           
  5186                           ;twodimmer_1fd_1sw.c: 178: TMR1H=0x7B; TMR1L=0x30; T1CONbits.TMR1ON = 1; break;
  5187  009F  307B               	movlw	123
  5188  00A0  2A42               	goto	L49
  5189  00A1                     i1l4368:	
  5190                           ;twodimmer_1fd_1sw.c: 179: case '1':
  5191                           
  5192                           
  5193                           ;twodimmer_1fd_1sw.c: 180: TMR1H=0x7C; TMR1L=0xC0; T1CONbits.TMR1ON = 1; break;
  5194  00A1  307C               	movlw	124
  5195  00A2  2A46               	goto	L50
  5196  00A3                     i1l4372:	
  5197                           ;twodimmer_1fd_1sw.c: 181: case '2':
  5198                           
  5199                           
  5200                           ;twodimmer_1fd_1sw.c: 182: TMR1H=0x7D; TMR1L=0x88; T1CONbits.TMR1ON = 1; break;
  5201  00A3  307D               	movlw	125
  5202  00A4  0097               	movwf	23	;volatile
  5203  00A5  3088               	movlw	136
  5204  00A6  2A50               	goto	L4
  5205  00A7                     i1l4376:	
  5206                           ;twodimmer_1fd_1sw.c: 183: case '3':
  5207                           
  5208                           
  5209                           ;twodimmer_1fd_1sw.c: 184: TMR1H=0x7F; TMR1L=0x18; T1CONbits.TMR1ON = 1; break;
  5210  00A7  307F               	movlw	127
  5211  00A8  0097               	movwf	23	;volatile
  5212  00A9  3018               	movlw	24
  5213  00AA  2A50               	goto	L4
  5214  00AB                     i1l4380:	
  5215                           ;twodimmer_1fd_1sw.c: 185: case '4':
  5216                           
  5217                           
  5218                           ;twodimmer_1fd_1sw.c: 186: TMR1H=0x80; TMR1L=0xA8; T1CONbits.TMR1ON = 1; break;
  5219  00AB  3080               	movlw	128
  5220  00AC  29F3               	goto	L100
  5221  00AD                     i1l4384:	
  5222                           ;twodimmer_1fd_1sw.c: 187: case '5':
  5223                           
  5224                           
  5225                           ;twodimmer_1fd_1sw.c: 188: TMR1H=0x81; TMR1L=0x70; T1CONbits.TMR1ON = 1; break;
  5226  00AD  3081               	movlw	129
  5227  00AE  29F7               	goto	L37
  5228  00AF                     i1l4388:	
  5229                           ;twodimmer_1fd_1sw.c: 189: case '6':
  5230                           
  5231                           
  5232                           ;twodimmer_1fd_1sw.c: 190: TMR1H=0x83; TMR1L=0x00; T1CONbits.TMR1ON = 1; break;
  5233  00AF  3083               	movlw	131
  5234  00B0  29FF               	goto	L38
  5235  00B1                     i1l4394:	
  5236                           ;twodimmer_1fd_1sw.c: 191: case '7':
  5237                           
  5238                           
  5239                           ;twodimmer_1fd_1sw.c: 192: TMR1H=0x83; TMR1L=0xC8; T1CONbits.TMR1ON = 1; break;
  5240  00B1  3083               	movlw	131
  5241  00B2  0097               	movwf	23	;volatile
  5242  00B3  30C8               	movlw	200
  5243  00B4  2A50               	goto	L4
  5244  00B5                     i1l4398:	
  5245                           ;twodimmer_1fd_1sw.c: 193: case '8':
  5246                           
  5247  00B5  28D3               	goto	i1l4418
  5248  00B6                     i1l4402:	
  5249                           ;twodimmer_1fd_1sw.c: 195: case '9':
  5250                           
  5251                           ;twodimmer_1fd_1sw.c: 194: TMR1H=0x87; TMR1L=0xB0; T1CONbits.TMR1ON = 1; break;
  5252                           
  5253                           
  5254                           ;twodimmer_1fd_1sw.c: 196: TMR1H=0x85; TMR1L=0x58; T1CONbits.TMR1ON = 1; break;
  5255  00B6  3085               	movlw	133
  5256  00B7  0097               	movwf	23	;volatile
  5257  00B8  3058               	movlw	88
  5258  00B9  2A50               	goto	L4
  5259  00BA                     i1l4408:	
  5260                           ;twodimmer_1fd_1sw.c: 199: }
  5261                           
  5262                           ;twodimmer_1fd_1sw.c: 198: break;
  5263                           
  5264                           ;twodimmer_1fd_1sw.c: 197: default:
  5265                           
  5266                           
  5267                           ; Switch on 2 bytes has been partitioned into a top level switch of size 1, and 1 sub-sw
      +                          itches
  5268                           ; Switch size 1, requested type "space"
  5269                           ; Number of cases is 1, Range of values is 0 to 0
  5270                           ; switch strategies available:
  5271                           ; Name         Instructions Cycles
  5272                           ; simple_byte            4     3 (average)
  5273                           ; direct_byte            8     6 (fixed)
  5274                           ; jumptable            260     6 (fixed)
  5275                           ;	Chosen strategy is simple_byte
  5276  00BA  0854               	movf	_FAN_SPEED1_1s+1,w
  5277  00BB  3A00               	xorlw	0	; case 0
  5278  00BC  1903               	skipnz
  5279  00BD  28BF               	goto	i1l8360
  5280  00BE  2A78               	goto	i1l274
  5281  00BF                     i1l8360:	
  5282                           
  5283                           ; Switch size 1, requested type "space"
  5284                           ; Number of cases is 10, Range of values is 48 to 57
  5285                           ; switch strategies available:
  5286                           ; Name         Instructions Cycles
  5287                           ; direct_byte           29     9 (fixed)
  5288                           ; simple_byte           31    16 (average)
  5289                           ; jumptable            263     9 (fixed)
  5290                           ;	Chosen strategy is direct_byte
  5291  00BF  0853               	movf	_FAN_SPEED1_1s,w
  5292  00C0  3ED0               	addlw	-48
  5293  00C1  1C03               	skipc
  5294  00C2  2A78               	goto	i1l274
  5295  00C3  0084               	movwf	4
  5296  00C4  300A               	movlw	10
  5297  00C5  0204               	subwf	4,w
  5298  00C6  1803               	skipnc
  5299  00C7  2A78               	goto	i1l274
  5300  00C8  3188               	movlp	high i1S8362
  5301  00C9  3504               	lslf	4,w
  5302  00CA  3E00               	addlw	low i1S8362
  5303  00CB  0082               	movwf	2
  5304                           
  5305                           ;twodimmer_1fd_1sw.c: 200: break;
  5306  00CC  2A78               	goto	i1l274
  5307  00CD                     i1l4410:	
  5308                           ;twodimmer_1fd_1sw.c: 204: {
  5309                           ;twodimmer_1fd_1sw.c: 205: case '0':
  5310                           
  5311                           ;twodimmer_1fd_1sw.c: 203: switch(FAN_SPEED1_1s)
  5312                           
  5313                           ;twodimmer_1fd_1sw.c: 201: case '1':
  5314                           
  5315                           
  5316                           ;twodimmer_1fd_1sw.c: 206: TMR1H=0x86; TMR1L=0x20; T1CONbits.TMR1ON = 1; break;
  5317  00CD  3086               	movlw	134
  5318  00CE  2A07               	goto	L40
  5319  00CF                     i1l4414:	
  5320                           ;twodimmer_1fd_1sw.c: 207: case '1':
  5321                           
  5322                           
  5323                           ;twodimmer_1fd_1sw.c: 208: TMR1H=0x86; TMR1L=0xE8; T1CONbits.TMR1ON = 1; break;
  5324  00CF  3086               	movlw	134
  5325  00D0  0097               	movwf	23	;volatile
  5326  00D1  30E8               	movlw	232
  5327  00D2  2A50               	goto	L4
  5328  00D3                     i1l4418:	
  5329                           ;twodimmer_1fd_1sw.c: 209: case '2':
  5330                           
  5331                           
  5332                           ;twodimmer_1fd_1sw.c: 210: TMR1H=0x87; TMR1L=0xB0; T1CONbits.TMR1ON = 1; break;
  5333  00D3  3087               	movlw	135
  5334  00D4  2A0B               	goto	L41
  5335  00D5                     i1l4422:	
  5336                           ;twodimmer_1fd_1sw.c: 211: case '3':
  5337                           
  5338                           
  5339                           ;twodimmer_1fd_1sw.c: 212: TMR1H=0x88; TMR1L=0x78; T1CONbits.TMR1ON = 1; break;
  5340  00D5  3088               	movlw	136
  5341  00D6  2A0F               	goto	L102
  5342  00D7                     i1l4426:	
  5343                           ;twodimmer_1fd_1sw.c: 213: case '4':
  5344                           
  5345                           
  5346                           ;twodimmer_1fd_1sw.c: 214: TMR1H=0x89; TMR1L=0x40; T1CONbits.TMR1ON = 1; break;
  5347  00D7  3089               	movlw	137
  5348  00D8  2A13               	goto	L42
  5349  00D9                     i1l4430:	
  5350                           ;twodimmer_1fd_1sw.c: 215: case '5':
  5351                           
  5352                           
  5353                           ;twodimmer_1fd_1sw.c: 216: TMR1H=0x8A; TMR1L=0x08; T1CONbits.TMR1ON = 1; break;
  5354  00D9  308A               	movlw	138
  5355  00DA  0097               	movwf	23	;volatile
  5356  00DB  3008               	movlw	8
  5357  00DC  2A50               	goto	L4
  5358  00DD                     i1l4434:	
  5359                           ;twodimmer_1fd_1sw.c: 217: case '6':
  5360                           
  5361                           
  5362                           ;twodimmer_1fd_1sw.c: 218: TMR1H=0x8A; TMR1L=0xD0; T1CONbits.TMR1ON = 1; break;
  5363  00DD  308A               	movlw	138
  5364  00DE  2A2A               	goto	L43
  5365  00DF                     i1l4438:	
  5366                           ;twodimmer_1fd_1sw.c: 219: case '7':
  5367                           
  5368                           
  5369                           ;twodimmer_1fd_1sw.c: 220: TMR1H=0x8B; TMR1L=0x98; T1CONbits.TMR1ON = 1; break;
  5370  00DF  308B               	movlw	139
  5371  00E0  0097               	movwf	23	;volatile
  5372  00E1  3098               	movlw	152
  5373  00E2  2A50               	goto	L4
  5374  00E3                     i1l4442:	
  5375                           ;twodimmer_1fd_1sw.c: 221: case '8':
  5376                           
  5377                           
  5378                           ;twodimmer_1fd_1sw.c: 222: TMR1H=0x8C; TMR1L=0x60; T1CONbits.TMR1ON = 1; break;
  5379  00E3  308C               	movlw	140
  5380  00E4  2A2E               	goto	L44
  5381  00E5                     i1l4446:	
  5382                           ;twodimmer_1fd_1sw.c: 223: case '9':
  5383                           
  5384                           
  5385                           ;twodimmer_1fd_1sw.c: 224: TMR1H=0x8D; TMR1L=0x28; T1CONbits.TMR1ON = 1; break;
  5386  00E5  308D               	movlw	141
  5387  00E6  0097               	movwf	23	;volatile
  5388  00E7  3028               	movlw	40
  5389  00E8  2A50               	goto	L4
  5390  00E9                     i1l4452:	
  5391                           ;twodimmer_1fd_1sw.c: 227: }
  5392                           
  5393                           ;twodimmer_1fd_1sw.c: 226: break;
  5394                           
  5395                           ;twodimmer_1fd_1sw.c: 225: default:
  5396                           
  5397                           
  5398                           ; Switch on 2 bytes has been partitioned into a top level switch of size 1, and 1 sub-sw
      +                          itches
  5399                           ; Switch size 1, requested type "space"
  5400                           ; Number of cases is 1, Range of values is 0 to 0
  5401                           ; switch strategies available:
  5402                           ; Name         Instructions Cycles
  5403                           ; simple_byte            4     3 (average)
  5404                           ; direct_byte            8     6 (fixed)
  5405                           ; jumptable            260     6 (fixed)
  5406                           ;	Chosen strategy is simple_byte
  5407  00E9  0854               	movf	_FAN_SPEED1_1s+1,w
  5408  00EA  3A00               	xorlw	0	; case 0
  5409  00EB  1903               	skipnz
  5410  00EC  28EE               	goto	i1l8364
  5411  00ED  2A78               	goto	i1l274
  5412  00EE                     i1l8364:	
  5413                           
  5414                           ; Switch size 1, requested type "space"
  5415                           ; Number of cases is 10, Range of values is 48 to 57
  5416                           ; switch strategies available:
  5417                           ; Name         Instructions Cycles
  5418                           ; direct_byte           29     9 (fixed)
  5419                           ; simple_byte           31    16 (average)
  5420                           ; jumptable            263     9 (fixed)
  5421                           ;	Chosen strategy is direct_byte
  5422  00EE  0853               	movf	_FAN_SPEED1_1s,w
  5423  00EF  3ED0               	addlw	-48
  5424  00F0  1C03               	skipc
  5425  00F1  2A78               	goto	i1l274
  5426  00F2  0084               	movwf	4
  5427  00F3  300A               	movlw	10
  5428  00F4  0204               	subwf	4,w
  5429  00F5  1803               	skipnc
  5430  00F6  2A78               	goto	i1l274
  5431  00F7  3188               	movlp	high i1S8366
  5432  00F8  3504               	lslf	4,w
  5433  00F9  3E14               	addlw	low i1S8366
  5434  00FA  0082               	movwf	2
  5435                           
  5436                           ;twodimmer_1fd_1sw.c: 228: break;
  5437  00FB  2A78               	goto	i1l274
  5438  00FC                     i1l4454:	
  5439                           ;twodimmer_1fd_1sw.c: 232: {
  5440                           ;twodimmer_1fd_1sw.c: 233: case '0':
  5441                           
  5442                           ;twodimmer_1fd_1sw.c: 231: switch(FAN_SPEED1_1s)
  5443                           
  5444                           ;twodimmer_1fd_1sw.c: 229: case '2':
  5445                           
  5446                           
  5447                           ;twodimmer_1fd_1sw.c: 234: TMR1H=0x8D; TMR1L=0xF0; T1CONbits.TMR1ON = 1; break;
  5448  00FC  308D               	movlw	141
  5449  00FD  2A32               	goto	L45
  5450  00FE                     i1l4458:	
  5451                           ;twodimmer_1fd_1sw.c: 235: case '1':
  5452                           
  5453                           
  5454                           ;twodimmer_1fd_1sw.c: 236: TMR1H=0x8E; TMR1L=0xB8; T1CONbits.TMR1ON = 1; break;
  5455  00FE  308E               	movlw	142
  5456  00FF  0097               	movwf	23	;volatile
  5457  0100  30B8               	movlw	184
  5458  0101  2A50               	goto	L4
  5459  0102                     i1l4462:	
  5460                           ;twodimmer_1fd_1sw.c: 237: case '2':
  5461                           
  5462                           
  5463                           ;twodimmer_1fd_1sw.c: 238: TMR1H=0x8F; TMR1L=0x80; T1CONbits.TMR1ON = 1; break;
  5464  0102  308F               	movlw	143
  5465  0103  2A36               	goto	L46
  5466  0104                     i1l4466:	
  5467                           ;twodimmer_1fd_1sw.c: 239: case '3':
  5468                           
  5469                           
  5470                           ;twodimmer_1fd_1sw.c: 240: TMR1H=0x90; TMR1L=0x48; T1CONbits.TMR1ON = 1; break;
  5471  0104  3090               	movlw	144
  5472  0105  0097               	movwf	23	;volatile
  5473  0106  3048               	movlw	72
  5474  0107  2A50               	goto	L4
  5475  0108                     i1l4470:	
  5476                           ;twodimmer_1fd_1sw.c: 241: case '4':
  5477                           
  5478                           
  5479                           ;twodimmer_1fd_1sw.c: 242: TMR1H=0x91; TMR1L=0x10; T1CONbits.TMR1ON = 1; break;
  5480  0108  3091               	movlw	145
  5481  0109  2A3A               	goto	L47
  5482  010A                     i1l4474:	
  5483                           ;twodimmer_1fd_1sw.c: 243: case '5':
  5484                           
  5485                           
  5486                           ;twodimmer_1fd_1sw.c: 244: TMR1H=0x91; TMR1L=0xD8; T1CONbits.TMR1ON = 1; break;
  5487  010A  3091               	movlw	145
  5488  010B  0097               	movwf	23	;volatile
  5489  010C  30D8               	movlw	216
  5490  010D  2A50               	goto	L4
  5491  010E                     i1l4478:	
  5492                           ;twodimmer_1fd_1sw.c: 245: case '6':
  5493                           
  5494                           
  5495                           ;twodimmer_1fd_1sw.c: 246: TMR1H=0x92; TMR1L=0xA0; T1CONbits.TMR1ON = 1; break;
  5496  010E  3092               	movlw	146
  5497  010F  2A3E               	goto	L48
  5498  0110                     i1l4482:	
  5499                           ;twodimmer_1fd_1sw.c: 247: case '7':
  5500                           
  5501                           
  5502                           ;twodimmer_1fd_1sw.c: 248: TMR1H=0x93; TMR1L=0x68; T1CONbits.TMR1ON = 1; break;
  5503  0110  3093               	movlw	147
  5504  0111  0097               	movwf	23	;volatile
  5505  0112  3068               	movlw	104
  5506  0113  2A50               	goto	L4
  5507  0114                     i1l4486:	
  5508                           ;twodimmer_1fd_1sw.c: 249: case '8':
  5509                           
  5510                           
  5511                           ;twodimmer_1fd_1sw.c: 250: TMR1H=0x94; TMR1L=0x30; T1CONbits.TMR1ON = 1; break;
  5512  0114  3094               	movlw	148
  5513  0115  2A42               	goto	L49
  5514  0116                     i1l4490:	
  5515                           ;twodimmer_1fd_1sw.c: 251: case '9':
  5516                           
  5517                           
  5518                           ;twodimmer_1fd_1sw.c: 252: TMR1H=0x94; TMR1L=0xF8; T1CONbits.TMR1ON = 1; break;
  5519  0116  3094               	movlw	148
  5520  0117  0097               	movwf	23	;volatile
  5521  0118  30F8               	movlw	248
  5522  0119  2A50               	goto	L4
  5523  011A                     i1l4496:	
  5524                           ;twodimmer_1fd_1sw.c: 255: }
  5525                           
  5526                           ;twodimmer_1fd_1sw.c: 254: break;
  5527                           
  5528                           ;twodimmer_1fd_1sw.c: 253: default:
  5529                           
  5530                           
  5531                           ; Switch on 2 bytes has been partitioned into a top level switch of size 1, and 1 sub-sw
      +                          itches
  5532                           ; Switch size 1, requested type "space"
  5533                           ; Number of cases is 1, Range of values is 0 to 0
  5534                           ; switch strategies available:
  5535                           ; Name         Instructions Cycles
  5536                           ; simple_byte            4     3 (average)
  5537                           ; direct_byte            8     6 (fixed)
  5538                           ; jumptable            260     6 (fixed)
  5539                           ;	Chosen strategy is simple_byte
  5540  011A  0854               	movf	_FAN_SPEED1_1s+1,w
  5541  011B  3A00               	xorlw	0	; case 0
  5542  011C  1903               	skipnz
  5543  011D  291F               	goto	i1l8368
  5544  011E  2A78               	goto	i1l274
  5545  011F                     i1l8368:	
  5546                           
  5547                           ; Switch size 1, requested type "space"
  5548                           ; Number of cases is 10, Range of values is 48 to 57
  5549                           ; switch strategies available:
  5550                           ; Name         Instructions Cycles
  5551                           ; direct_byte           29     9 (fixed)
  5552                           ; simple_byte           31    16 (average)
  5553                           ; jumptable            263     9 (fixed)
  5554                           ;	Chosen strategy is direct_byte
  5555  011F  0853               	movf	_FAN_SPEED1_1s,w
  5556  0120  3ED0               	addlw	-48
  5557  0121  1C03               	skipc
  5558  0122  2A78               	goto	i1l274
  5559  0123  0084               	movwf	4
  5560  0124  300A               	movlw	10
  5561  0125  0204               	subwf	4,w
  5562  0126  1803               	skipnc
  5563  0127  2A78               	goto	i1l274
  5564  0128  3188               	movlp	high i1S8370
  5565  0129  3504               	lslf	4,w
  5566  012A  3E28               	addlw	low i1S8370
  5567  012B  0082               	movwf	2
  5568                           
  5569                           ;twodimmer_1fd_1sw.c: 256: break;
  5570  012C  2A78               	goto	i1l274
  5571  012D                     i1l4498:	
  5572                           ;twodimmer_1fd_1sw.c: 260: {
  5573                           ;twodimmer_1fd_1sw.c: 261: case '0':
  5574                           
  5575                           ;twodimmer_1fd_1sw.c: 259: switch(FAN_SPEED1_1s)
  5576                           
  5577                           ;twodimmer_1fd_1sw.c: 257: case '3':
  5578                           
  5579                           
  5580                           ;twodimmer_1fd_1sw.c: 262: TMR1H=0x95; TMR1L=0xC0; T1CONbits.TMR1ON = 1; break;
  5581  012D  3095               	movlw	149
  5582  012E  2A46               	goto	L50
  5583  012F                     i1l4502:	
  5584                           ;twodimmer_1fd_1sw.c: 263: case '1':
  5585                           
  5586                           
  5587                           ;twodimmer_1fd_1sw.c: 264: TMR1H=0x97; TMR1L=0x50; T1CONbits.TMR1ON = 1; break;
  5588  012F  3097               	movlw	151
  5589  0130  2A4A               	goto	L51
  5590  0131                     i1l4506:	
  5591                           ;twodimmer_1fd_1sw.c: 265: case '2':
  5592                           
  5593                           
  5594                           ;twodimmer_1fd_1sw.c: 266: TMR1H=0x98; TMR1L=0xE0; T1CONbits.TMR1ON = 1; break;
  5595  0131  3098               	movlw	152
  5596  0132  2A4E               	goto	L21
  5597  0133                     i1l4510:	
  5598                           ;twodimmer_1fd_1sw.c: 267: case '3':
  5599                           
  5600                           
  5601                           ;twodimmer_1fd_1sw.c: 268: TMR1H=0x9A; TMR1L=0x70; T1CONbits.TMR1ON = 1; break;
  5602  0133  309A               	movlw	154
  5603  0134  29F7               	goto	L37
  5604  0135                     i1l4514:	
  5605                           ;twodimmer_1fd_1sw.c: 269: case '4':
  5606                           
  5607                           
  5608                           ;twodimmer_1fd_1sw.c: 270: TMR1H=0x9C; TMR1L=0x00; T1CONbits.TMR1ON = 1; break;
  5609  0135  309C               	movlw	156
  5610  0136  29FF               	goto	L38
  5611  0137                     i1l4520:	
  5612                           ;twodimmer_1fd_1sw.c: 271: case '5':
  5613                           
  5614                           
  5615                           ;twodimmer_1fd_1sw.c: 272: TMR1H=0x9D; TMR1L=0x90; T1CONbits.TMR1ON = 1; break;
  5616  0137  309D               	movlw	157
  5617  0138  2A03               	goto	L39
  5618  0139                     i1l4524:	
  5619                           ;twodimmer_1fd_1sw.c: 273: case '6':
  5620                           
  5621                           
  5622                           ;twodimmer_1fd_1sw.c: 274: TMR1H=0x9F; TMR1L=0x20; T1CONbits.TMR1ON = 1; break;
  5623  0139  309F               	movlw	159
  5624  013A  2A07               	goto	L40
  5625  013B                     i1l4528:	
  5626                           ;twodimmer_1fd_1sw.c: 275: case '7':
  5627                           
  5628                           
  5629                           ;twodimmer_1fd_1sw.c: 276: TMR1H=0xA0; TMR1L=0xB0; T1CONbits.TMR1ON = 1; break;
  5630  013B  30A0               	movlw	160
  5631  013C  2A0B               	goto	L41
  5632  013D                     i1l4532:	
  5633                           ;twodimmer_1fd_1sw.c: 277: case '8':
  5634                           
  5635                           
  5636                           ;twodimmer_1fd_1sw.c: 278: TMR1H=0xA2; TMR1L=0x40; T1CONbits.TMR1ON = 1; break;
  5637  013D  30A2               	movlw	162
  5638  013E  2A13               	goto	L42
  5639  013F                     i1l4536:	
  5640                           ;twodimmer_1fd_1sw.c: 279: case '9':
  5641                           
  5642                           
  5643                           ;twodimmer_1fd_1sw.c: 280: TMR1H=0xA3; TMR1L=0xD0; T1CONbits.TMR1ON = 1; break;
  5644  013F  30A3               	movlw	163
  5645  0140  2A2A               	goto	L43
  5646  0141                     i1l4542:	
  5647                           ;twodimmer_1fd_1sw.c: 283: }
  5648                           
  5649                           ;twodimmer_1fd_1sw.c: 282: break;
  5650                           
  5651                           ;twodimmer_1fd_1sw.c: 281: default:
  5652                           
  5653                           
  5654                           ; Switch on 2 bytes has been partitioned into a top level switch of size 1, and 1 sub-sw
      +                          itches
  5655                           ; Switch size 1, requested type "space"
  5656                           ; Number of cases is 1, Range of values is 0 to 0
  5657                           ; switch strategies available:
  5658                           ; Name         Instructions Cycles
  5659                           ; simple_byte            4     3 (average)
  5660                           ; direct_byte            8     6 (fixed)
  5661                           ; jumptable            260     6 (fixed)
  5662                           ;	Chosen strategy is simple_byte
  5663  0141  0854               	movf	_FAN_SPEED1_1s+1,w
  5664  0142  3A00               	xorlw	0	; case 0
  5665  0143  1903               	skipnz
  5666  0144  2946               	goto	i1l8372
  5667  0145  2A78               	goto	i1l274
  5668  0146                     i1l8372:	
  5669                           
  5670                           ; Switch size 1, requested type "space"
  5671                           ; Number of cases is 10, Range of values is 48 to 57
  5672                           ; switch strategies available:
  5673                           ; Name         Instructions Cycles
  5674                           ; direct_byte           29     9 (fixed)
  5675                           ; simple_byte           31    16 (average)
  5676                           ; jumptable            263     9 (fixed)
  5677                           ;	Chosen strategy is direct_byte
  5678  0146  0853               	movf	_FAN_SPEED1_1s,w
  5679  0147  3ED0               	addlw	-48
  5680  0148  1C03               	skipc
  5681  0149  2A78               	goto	i1l274
  5682  014A  0084               	movwf	4
  5683  014B  300A               	movlw	10
  5684  014C  0204               	subwf	4,w
  5685  014D  1803               	skipnc
  5686  014E  2A78               	goto	i1l274
  5687  014F  3188               	movlp	high i1S8374
  5688  0150  3504               	lslf	4,w
  5689  0151  3E3C               	addlw	low i1S8374
  5690  0152  0082               	movwf	2
  5691                           
  5692                           ;twodimmer_1fd_1sw.c: 284: break;
  5693  0153  2A78               	goto	i1l274
  5694  0154                     i1l4544:	
  5695                           ;twodimmer_1fd_1sw.c: 288: {
  5696                           ;twodimmer_1fd_1sw.c: 289: case '0':
  5697                           
  5698                           ;twodimmer_1fd_1sw.c: 287: switch(FAN_SPEED1_1s)
  5699                           
  5700                           ;twodimmer_1fd_1sw.c: 285: case '4':
  5701                           
  5702                           
  5703                           ;twodimmer_1fd_1sw.c: 290: TMR1H=0xA5; TMR1L=0x60; T1CONbits.TMR1ON = 1; break;
  5704  0154  30A5               	movlw	165
  5705  0155  2A2E               	goto	L44
  5706  0156                     i1l4548:	
  5707                           ;twodimmer_1fd_1sw.c: 291: case '1':
  5708                           
  5709                           
  5710                           ;twodimmer_1fd_1sw.c: 292: TMR1H=0xA6; TMR1L=0xF0; T1CONbits.TMR1ON = 1; break;
  5711  0156  30A6               	movlw	166
  5712  0157  2A32               	goto	L45
  5713  0158                     i1l4552:	
  5714                           ;twodimmer_1fd_1sw.c: 293: case '2':
  5715                           
  5716                           
  5717                           ;twodimmer_1fd_1sw.c: 294: TMR1H=0xA8; TMR1L=0x80; T1CONbits.TMR1ON = 1; break;
  5718  0158  30A8               	movlw	168
  5719  0159  2A36               	goto	L46
  5720  015A                     i1l4556:	
  5721                           ;twodimmer_1fd_1sw.c: 295: case '3':
  5722                           
  5723                           
  5724                           ;twodimmer_1fd_1sw.c: 296: TMR1H=0xAA; TMR1L=0x10; T1CONbits.TMR1ON = 1; break;
  5725  015A  30AA               	movlw	170
  5726  015B  2A3A               	goto	L47
  5727  015C                     i1l4560:	
  5728                           ;twodimmer_1fd_1sw.c: 297: case '4':
  5729                           
  5730                           
  5731                           ;twodimmer_1fd_1sw.c: 298: TMR1H=0xAB; TMR1L=0xA0; T1CONbits.TMR1ON = 1; break;
  5732  015C  30AB               	movlw	171
  5733  015D  2A3E               	goto	L48
  5734  015E                     i1l4564:	
  5735                           ;twodimmer_1fd_1sw.c: 299: case '5':
  5736                           
  5737                           
  5738                           ;twodimmer_1fd_1sw.c: 300: TMR1H=0xAD; TMR1L=0x30; T1CONbits.TMR1ON = 1; break;
  5739  015E  30AD               	movlw	173
  5740  015F  2A42               	goto	L49
  5741  0160                     i1l4568:	
  5742                           ;twodimmer_1fd_1sw.c: 301: case '6':
  5743                           
  5744                           
  5745                           ;twodimmer_1fd_1sw.c: 302: TMR1H=0xAE; TMR1L=0xC0; T1CONbits.TMR1ON = 1; break;
  5746  0160  30AE               	movlw	174
  5747  0161  2A46               	goto	L50
  5748  0162                     i1l4572:	
  5749                           ;twodimmer_1fd_1sw.c: 303: case '7':
  5750                           
  5751                           
  5752                           ;twodimmer_1fd_1sw.c: 304: TMR1H=0xB0; TMR1L=0x50; T1CONbits.TMR1ON = 1; break;
  5753  0162  30B0               	movlw	176
  5754  0163  2A4A               	goto	L51
  5755  0164                     i1l4576:	
  5756                           ;twodimmer_1fd_1sw.c: 305: case '8':
  5757                           
  5758                           
  5759                           ;twodimmer_1fd_1sw.c: 306: TMR1H=0xB1; TMR1L=0xE0; T1CONbits.TMR1ON = 1; break;
  5760  0164  30B1               	movlw	177
  5761  0165  2A4E               	goto	L21
  5762  0166                     i1l4580:	
  5763                           ;twodimmer_1fd_1sw.c: 307: case '9':
  5764                           
  5765                           
  5766                           ;twodimmer_1fd_1sw.c: 308: TMR1H=0xB3; TMR1L=0x70; T1CONbits.TMR1ON = 1; break;
  5767  0166  30B3               	movlw	179
  5768  0167  29F7               	goto	L37
  5769  0168                     i1l4586:	
  5770                           ;twodimmer_1fd_1sw.c: 311: }
  5771                           
  5772                           ;twodimmer_1fd_1sw.c: 310: break;
  5773                           
  5774                           ;twodimmer_1fd_1sw.c: 309: default:
  5775                           
  5776                           
  5777                           ; Switch on 2 bytes has been partitioned into a top level switch of size 1, and 1 sub-sw
      +                          itches
  5778                           ; Switch size 1, requested type "space"
  5779                           ; Number of cases is 1, Range of values is 0 to 0
  5780                           ; switch strategies available:
  5781                           ; Name         Instructions Cycles
  5782                           ; simple_byte            4     3 (average)
  5783                           ; direct_byte            8     6 (fixed)
  5784                           ; jumptable            260     6 (fixed)
  5785                           ;	Chosen strategy is simple_byte
  5786  0168  0854               	movf	_FAN_SPEED1_1s+1,w
  5787  0169  3A00               	xorlw	0	; case 0
  5788  016A  1903               	skipnz
  5789  016B  296D               	goto	i1l8376
  5790  016C  2A78               	goto	i1l274
  5791  016D                     i1l8376:	
  5792                           
  5793                           ; Switch size 1, requested type "space"
  5794                           ; Number of cases is 10, Range of values is 48 to 57
  5795                           ; switch strategies available:
  5796                           ; Name         Instructions Cycles
  5797                           ; direct_byte           29     9 (fixed)
  5798                           ; simple_byte           31    16 (average)
  5799                           ; jumptable            263     9 (fixed)
  5800                           ;	Chosen strategy is direct_byte
  5801  016D  0853               	movf	_FAN_SPEED1_1s,w
  5802  016E  3ED0               	addlw	-48
  5803  016F  1C03               	skipc
  5804  0170  2A78               	goto	i1l274
  5805  0171  0084               	movwf	4
  5806  0172  300A               	movlw	10
  5807  0173  0204               	subwf	4,w
  5808  0174  1803               	skipnc
  5809  0175  2A78               	goto	i1l274
  5810  0176  3188               	movlp	high i1S8378
  5811  0177  3504               	lslf	4,w
  5812  0178  3E50               	addlw	low i1S8378
  5813  0179  0082               	movwf	2
  5814                           
  5815                           ;twodimmer_1fd_1sw.c: 312: break;
  5816  017A  2A78               	goto	i1l274
  5817  017B                     i1l4588:	
  5818                           ;twodimmer_1fd_1sw.c: 316: {
  5819                           ;twodimmer_1fd_1sw.c: 317: case '0':
  5820                           
  5821                           ;twodimmer_1fd_1sw.c: 315: switch(FAN_SPEED1_1s)
  5822                           
  5823                           ;twodimmer_1fd_1sw.c: 313: case '5':
  5824                           
  5825                           
  5826                           ;twodimmer_1fd_1sw.c: 318: TMR1H=0xB5; TMR1L=0x00; T1CONbits.TMR1ON = 1; break;
  5827  017B  30B5               	movlw	181
  5828  017C  29FF               	goto	L38
  5829  017D                     i1l4594:	
  5830                           ;twodimmer_1fd_1sw.c: 319: case '1':
  5831                           
  5832                           
  5833                           ;twodimmer_1fd_1sw.c: 320: TMR1H=0xB6; TMR1L=0x90; T1CONbits.TMR1ON = 1; break;
  5834  017D  30B6               	movlw	182
  5835  017E  2A03               	goto	L39
  5836  017F                     i1l4598:	
  5837                           ;twodimmer_1fd_1sw.c: 321: case '2':
  5838                           
  5839                           
  5840                           ;twodimmer_1fd_1sw.c: 322: TMR1H=0xB8; TMR1L=0x20; T1CONbits.TMR1ON = 1; break;
  5841  017F  30B8               	movlw	184
  5842  0180  2A07               	goto	L40
  5843  0181                     i1l4602:	
  5844                           ;twodimmer_1fd_1sw.c: 323: case '3':
  5845                           
  5846                           
  5847                           ;twodimmer_1fd_1sw.c: 324: TMR1H=0xB9; TMR1L=0xB0; T1CONbits.TMR1ON = 1; break;
  5848  0181  30B9               	movlw	185
  5849  0182  2A0B               	goto	L41
  5850  0183                     i1l4606:	
  5851                           ;twodimmer_1fd_1sw.c: 325: case '4':
  5852                           
  5853                           
  5854                           ;twodimmer_1fd_1sw.c: 326: TMR1H=0xBB; TMR1L=0x40; T1CONbits.TMR1ON = 1; break;
  5855  0183  30BB               	movlw	187
  5856  0184  2A13               	goto	L42
  5857  0185                     i1l4610:	
  5858                           ;twodimmer_1fd_1sw.c: 327: case '5':
  5859                           
  5860                           
  5861                           ;twodimmer_1fd_1sw.c: 328: TMR1H=0xBC; TMR1L=0xD0; T1CONbits.TMR1ON = 1; break;
  5862  0185  30BC               	movlw	188
  5863  0186  2A2A               	goto	L43
  5864  0187                     i1l4614:	
  5865                           ;twodimmer_1fd_1sw.c: 329: case '6':
  5866                           
  5867                           
  5868                           ;twodimmer_1fd_1sw.c: 330: TMR1H=0xBE; TMR1L=0x60; T1CONbits.TMR1ON = 1; break;
  5869  0187  30BE               	movlw	190
  5870  0188  2A2E               	goto	L44
  5871  0189                     i1l4618:	
  5872                           ;twodimmer_1fd_1sw.c: 331: case '7':
  5873                           
  5874                           
  5875                           ;twodimmer_1fd_1sw.c: 332: TMR1H=0xBF; TMR1L=0xF0; T1CONbits.TMR1ON = 1; break;
  5876  0189  30BF               	movlw	191
  5877  018A  2A32               	goto	L45
  5878  018B                     i1l4622:	
  5879                           ;twodimmer_1fd_1sw.c: 333: case '8':
  5880                           
  5881                           
  5882                           ;twodimmer_1fd_1sw.c: 334: TMR1H=0xC1; TMR1L=0x80; T1CONbits.TMR1ON = 1; break;
  5883  018B  30C1               	movlw	193
  5884  018C  2A36               	goto	L46
  5885  018D                     i1l4626:	
  5886                           ;twodimmer_1fd_1sw.c: 335: case '9':
  5887                           
  5888                           
  5889                           ;twodimmer_1fd_1sw.c: 336: TMR1H=0xC3; TMR1L=0x10; T1CONbits.TMR1ON = 1; break;
  5890  018D  30C3               	movlw	195
  5891  018E  2A3A               	goto	L47
  5892  018F                     i1l4632:	
  5893                           ;twodimmer_1fd_1sw.c: 339: }
  5894                           
  5895                           ;twodimmer_1fd_1sw.c: 338: break;
  5896                           
  5897                           ;twodimmer_1fd_1sw.c: 337: default:
  5898                           
  5899                           
  5900                           ; Switch on 2 bytes has been partitioned into a top level switch of size 1, and 1 sub-sw
      +                          itches
  5901                           ; Switch size 1, requested type "space"
  5902                           ; Number of cases is 1, Range of values is 0 to 0
  5903                           ; switch strategies available:
  5904                           ; Name         Instructions Cycles
  5905                           ; simple_byte            4     3 (average)
  5906                           ; direct_byte            8     6 (fixed)
  5907                           ; jumptable            260     6 (fixed)
  5908                           ;	Chosen strategy is simple_byte
  5909  018F  0854               	movf	_FAN_SPEED1_1s+1,w
  5910  0190  3A00               	xorlw	0	; case 0
  5911  0191  1903               	skipnz
  5912  0192  2994               	goto	i1l8380
  5913  0193  2A78               	goto	i1l274
  5914  0194                     i1l8380:	
  5915                           
  5916                           ; Switch size 1, requested type "space"
  5917                           ; Number of cases is 10, Range of values is 48 to 57
  5918                           ; switch strategies available:
  5919                           ; Name         Instructions Cycles
  5920                           ; direct_byte           29     9 (fixed)
  5921                           ; simple_byte           31    16 (average)
  5922                           ; jumptable            263     9 (fixed)
  5923                           ;	Chosen strategy is direct_byte
  5924  0194  0853               	movf	_FAN_SPEED1_1s,w
  5925  0195  3ED0               	addlw	-48
  5926  0196  1C03               	skipc
  5927  0197  2A78               	goto	i1l274
  5928  0198  0084               	movwf	4
  5929  0199  300A               	movlw	10
  5930  019A  0204               	subwf	4,w
  5931  019B  1803               	skipnc
  5932  019C  2A78               	goto	i1l274
  5933  019D  3188               	movlp	high i1S8382
  5934  019E  3504               	lslf	4,w
  5935  019F  3E64               	addlw	low i1S8382
  5936  01A0  0082               	movwf	2
  5937                           
  5938                           ;twodimmer_1fd_1sw.c: 340: break;
  5939  01A1  2A78               	goto	i1l274
  5940  01A2                     i1l4634:	
  5941                           ;twodimmer_1fd_1sw.c: 344: {
  5942                           ;twodimmer_1fd_1sw.c: 345: case '0':
  5943                           
  5944                           ;twodimmer_1fd_1sw.c: 343: switch(FAN_SPEED1_1s)
  5945                           
  5946                           ;twodimmer_1fd_1sw.c: 341: case '6':
  5947                           
  5948                           
  5949                           ;twodimmer_1fd_1sw.c: 346: TMR1H=0xC4; TMR1L=0xA0; T1CONbits.TMR1ON = 1; break;
  5950  01A2  30C4               	movlw	196
  5951  01A3  2A3E               	goto	L48
  5952  01A4                     i1l4638:	
  5953                           ;twodimmer_1fd_1sw.c: 347: case '1':
  5954                           
  5955                           
  5956                           ;twodimmer_1fd_1sw.c: 348: TMR1H=0xC6; TMR1L=0x30; T1CONbits.TMR1ON = 1; break;
  5957  01A4  30C6               	movlw	198
  5958  01A5  2A42               	goto	L49
  5959  01A6                     i1l4642:	
  5960                           ;twodimmer_1fd_1sw.c: 349: case '2':
  5961                           
  5962                           
  5963                           ;twodimmer_1fd_1sw.c: 350: TMR1H=0xC7; TMR1L=0xC0; T1CONbits.TMR1ON = 1; break;
  5964  01A6  30C7               	movlw	199
  5965  01A7  2A46               	goto	L50
  5966  01A8                     i1l4646:	
  5967                           ;twodimmer_1fd_1sw.c: 351: case '3':
  5968                           
  5969                           
  5970                           ;twodimmer_1fd_1sw.c: 352: TMR1H=0xC9; TMR1L=0x50; T1CONbits.TMR1ON = 1; break;
  5971  01A8  30C9               	movlw	201
  5972  01A9  2A4A               	goto	L51
  5973  01AA                     i1l4650:	
  5974                           ;twodimmer_1fd_1sw.c: 353: case '4':
  5975                           
  5976                           
  5977                           ;twodimmer_1fd_1sw.c: 354: TMR1H=0xCA; TMR1L=0xE0; T1CONbits.TMR1ON = 1; break;
  5978  01AA  30CA               	movlw	202
  5979  01AB  2A4E               	goto	L21
  5980  01AC                     i1l4654:	
  5981                           ;twodimmer_1fd_1sw.c: 355: case '5':
  5982                           
  5983                           
  5984                           ;twodimmer_1fd_1sw.c: 356: TMR1H=0xCC; TMR1L=0x70; T1CONbits.TMR1ON = 1; break;
  5985  01AC  30CC               	movlw	204
  5986  01AD  29F7               	goto	L37
  5987  01AE                     i1l4658:	
  5988                           ;twodimmer_1fd_1sw.c: 357: case '6':
  5989                           
  5990                           
  5991                           ;twodimmer_1fd_1sw.c: 358: TMR1H=0xCE; TMR1L=0x00; T1CONbits.TMR1ON = 1; break;
  5992  01AE  30CE               	movlw	206
  5993  01AF  29FF               	goto	L38
  5994  01B0                     i1l4664:	
  5995                           ;twodimmer_1fd_1sw.c: 359: case '7':
  5996                           
  5997                           
  5998                           ;twodimmer_1fd_1sw.c: 360: TMR1H=0xCF; TMR1L=0x90; T1CONbits.TMR1ON = 1; break;
  5999  01B0  30CF               	movlw	207
  6000  01B1  2A03               	goto	L39
  6001  01B2                     i1l4668:	
  6002                           ;twodimmer_1fd_1sw.c: 361: case '8':
  6003                           
  6004                           
  6005                           ;twodimmer_1fd_1sw.c: 362: TMR1H=0xD1; TMR1L=0x20; T1CONbits.TMR1ON = 1; break;
  6006  01B2  30D1               	movlw	209
  6007  01B3  2A07               	goto	L40
  6008  01B4                     i1l4672:	
  6009                           ;twodimmer_1fd_1sw.c: 363: case '9':
  6010                           
  6011                           
  6012                           ;twodimmer_1fd_1sw.c: 364: TMR1H=0xD2; TMR1L=0xB0; T1CONbits.TMR1ON = 1; break;
  6013  01B4  30D2               	movlw	210
  6014  01B5  2A0B               	goto	L41
  6015  01B6                     i1l4678:	
  6016                           ;twodimmer_1fd_1sw.c: 367: }
  6017                           
  6018                           ;twodimmer_1fd_1sw.c: 366: break;
  6019                           
  6020                           ;twodimmer_1fd_1sw.c: 365: default:
  6021                           
  6022                           
  6023                           ; Switch on 2 bytes has been partitioned into a top level switch of size 1, and 1 sub-sw
      +                          itches
  6024                           ; Switch size 1, requested type "space"
  6025                           ; Number of cases is 1, Range of values is 0 to 0
  6026                           ; switch strategies available:
  6027                           ; Name         Instructions Cycles
  6028                           ; simple_byte            4     3 (average)
  6029                           ; direct_byte            8     6 (fixed)
  6030                           ; jumptable            260     6 (fixed)
  6031                           ;	Chosen strategy is simple_byte
  6032  01B6  0854               	movf	_FAN_SPEED1_1s+1,w
  6033  01B7  3A00               	xorlw	0	; case 0
  6034  01B8  1903               	skipnz
  6035  01B9  29BB               	goto	i1l8384
  6036  01BA  2A78               	goto	i1l274
  6037  01BB                     i1l8384:	
  6038                           
  6039                           ; Switch size 1, requested type "space"
  6040                           ; Number of cases is 10, Range of values is 48 to 57
  6041                           ; switch strategies available:
  6042                           ; Name         Instructions Cycles
  6043                           ; direct_byte           29     9 (fixed)
  6044                           ; simple_byte           31    16 (average)
  6045                           ; jumptable            263     9 (fixed)
  6046                           ;	Chosen strategy is direct_byte
  6047  01BB  0853               	movf	_FAN_SPEED1_1s,w
  6048  01BC  3ED0               	addlw	-48
  6049  01BD  1C03               	skipc
  6050  01BE  2A78               	goto	i1l274
  6051  01BF  0084               	movwf	4
  6052  01C0  300A               	movlw	10
  6053  01C1  0204               	subwf	4,w
  6054  01C2  1803               	skipnc
  6055  01C3  2A78               	goto	i1l274
  6056  01C4  3188               	movlp	high i1S8386
  6057  01C5  3504               	lslf	4,w
  6058  01C6  3E78               	addlw	low i1S8386
  6059  01C7  0082               	movwf	2
  6060                           
  6061                           ;twodimmer_1fd_1sw.c: 368: break;
  6062  01C8  2A78               	goto	i1l274
  6063  01C9                     i1l4680:	
  6064                           ;twodimmer_1fd_1sw.c: 372: {
  6065                           ;twodimmer_1fd_1sw.c: 373: case '0':
  6066                           
  6067                           ;twodimmer_1fd_1sw.c: 371: switch(FAN_SPEED1_1s)
  6068                           
  6069                           ;twodimmer_1fd_1sw.c: 369: case '7':
  6070                           
  6071                           
  6072                           ;twodimmer_1fd_1sw.c: 374: TMR1H=0xD4; TMR1L=0x40; T1CONbits.TMR1ON = 1; break;
  6073  01C9  30D4               	movlw	212
  6074  01CA  2A13               	goto	L42
  6075  01CB                     i1l4684:	
  6076                           ;twodimmer_1fd_1sw.c: 375: case '1':
  6077                           
  6078                           
  6079                           ;twodimmer_1fd_1sw.c: 376: TMR1H=0xD5; TMR1L=0xD0; T1CONbits.TMR1ON = 1; break;
  6080  01CB  30D5               	movlw	213
  6081  01CC  2A2A               	goto	L43
  6082  01CD                     i1l4688:	
  6083                           ;twodimmer_1fd_1sw.c: 377: case '2':
  6084                           
  6085                           
  6086                           ;twodimmer_1fd_1sw.c: 378: TMR1H=0xD7; TMR1L=0x60; T1CONbits.TMR1ON = 1; break;
  6087  01CD  30D7               	movlw	215
  6088  01CE  2A2E               	goto	L44
  6089  01CF                     i1l4692:	
  6090                           ;twodimmer_1fd_1sw.c: 379: case '3':
  6091                           
  6092                           
  6093                           ;twodimmer_1fd_1sw.c: 380: TMR1H=0xD8; TMR1L=0xF0; T1CONbits.TMR1ON = 1; break;
  6094  01CF  30D8               	movlw	216
  6095  01D0  2A32               	goto	L45
  6096  01D1                     i1l4696:	
  6097                           ;twodimmer_1fd_1sw.c: 381: case '4':
  6098                           
  6099                           
  6100                           ;twodimmer_1fd_1sw.c: 382: TMR1H=0xDA; TMR1L=0x80; T1CONbits.TMR1ON = 1; break;
  6101  01D1  30DA               	movlw	218
  6102  01D2  2A36               	goto	L46
  6103  01D3                     i1l4700:	
  6104                           ;twodimmer_1fd_1sw.c: 383: case '5':
  6105                           
  6106                           
  6107                           ;twodimmer_1fd_1sw.c: 384: TMR1H=0xDC; TMR1L=0x10; T1CONbits.TMR1ON = 1; break;
  6108  01D3  30DC               	movlw	220
  6109  01D4  2A3A               	goto	L47
  6110  01D5                     i1l4704:	
  6111                           ;twodimmer_1fd_1sw.c: 385: case '6':
  6112                           
  6113                           
  6114                           ;twodimmer_1fd_1sw.c: 386: TMR1H=0xDD; TMR1L=0xA0; T1CONbits.TMR1ON = 1; break;
  6115  01D5  30DD               	movlw	221
  6116  01D6  2A3E               	goto	L48
  6117  01D7                     i1l4708:	
  6118                           ;twodimmer_1fd_1sw.c: 387: case '7':
  6119                           
  6120                           
  6121                           ;twodimmer_1fd_1sw.c: 388: TMR1H=0xDF; TMR1L=0x30; T1CONbits.TMR1ON = 1; break;
  6122  01D7  30DF               	movlw	223
  6123  01D8  2A42               	goto	L49
  6124  01D9                     i1l4712:	
  6125                           ;twodimmer_1fd_1sw.c: 389: case '8':
  6126                           
  6127                           
  6128                           ;twodimmer_1fd_1sw.c: 390: TMR1H=0xE0; TMR1L=0xC0; T1CONbits.TMR1ON = 1; break;
  6129  01D9  30E0               	movlw	224
  6130  01DA  2A46               	goto	L50
  6131  01DB                     i1l4716:	
  6132                           ;twodimmer_1fd_1sw.c: 391: case '9':
  6133                           
  6134                           
  6135                           ;twodimmer_1fd_1sw.c: 392: TMR1H=0xE2; TMR1L=0x50; T1CONbits.TMR1ON = 1; break;
  6136  01DB  30E2               	movlw	226
  6137  01DC  2A4A               	goto	L51
  6138  01DD                     i1l4722:	
  6139                           ;twodimmer_1fd_1sw.c: 395: }
  6140                           
  6141                           ;twodimmer_1fd_1sw.c: 394: break;
  6142                           
  6143                           ;twodimmer_1fd_1sw.c: 393: default:
  6144                           
  6145                           
  6146                           ; Switch on 2 bytes has been partitioned into a top level switch of size 1, and 1 sub-sw
      +                          itches
  6147                           ; Switch size 1, requested type "space"
  6148                           ; Number of cases is 1, Range of values is 0 to 0
  6149                           ; switch strategies available:
  6150                           ; Name         Instructions Cycles
  6151                           ; simple_byte            4     3 (average)
  6152                           ; direct_byte            8     6 (fixed)
  6153                           ; jumptable            260     6 (fixed)
  6154                           ;	Chosen strategy is simple_byte
  6155  01DD  0854               	movf	_FAN_SPEED1_1s+1,w
  6156  01DE  3A00               	xorlw	0	; case 0
  6157  01DF  1903               	skipnz
  6158  01E0  29E2               	goto	i1l8388
  6159  01E1  2A78               	goto	i1l274
  6160  01E2                     i1l8388:	
  6161                           
  6162                           ; Switch size 1, requested type "space"
  6163                           ; Number of cases is 10, Range of values is 48 to 57
  6164                           ; switch strategies available:
  6165                           ; Name         Instructions Cycles
  6166                           ; direct_byte           29     9 (fixed)
  6167                           ; simple_byte           31    16 (average)
  6168                           ; jumptable            263     9 (fixed)
  6169                           ;	Chosen strategy is direct_byte
  6170  01E2  0853               	movf	_FAN_SPEED1_1s,w
  6171  01E3  3ED0               	addlw	-48
  6172  01E4  1C03               	skipc
  6173  01E5  2A78               	goto	i1l274
  6174  01E6  0084               	movwf	4
  6175  01E7  300A               	movlw	10
  6176  01E8  0204               	subwf	4,w
  6177  01E9  1803               	skipnc
  6178  01EA  2A78               	goto	i1l274
  6179  01EB  3188               	movlp	high i1S8390
  6180  01EC  3504               	lslf	4,w
  6181  01ED  3E8C               	addlw	low i1S8390
  6182  01EE  0082               	movwf	2
  6183                           
  6184                           ;twodimmer_1fd_1sw.c: 396: break;
  6185  01EF  2A78               	goto	i1l274
  6186  01F0                     i1l4724:	
  6187                           ;twodimmer_1fd_1sw.c: 400: {
  6188                           ;twodimmer_1fd_1sw.c: 401: case '0':
  6189                           
  6190                           ;twodimmer_1fd_1sw.c: 399: switch(FAN_SPEED1_1s)
  6191                           
  6192                           ;twodimmer_1fd_1sw.c: 397: case '8':
  6193                           
  6194                           
  6195                           ;twodimmer_1fd_1sw.c: 402: TMR1H=0xE3; TMR1L=0xE0; T1CONbits.TMR1ON = 1; break;
  6196  01F0  30E3               	movlw	227
  6197  01F1  2A4E               	goto	L21
  6198  01F2                     i1l4728:	
  6199                           ;twodimmer_1fd_1sw.c: 403: case '1':
  6200                           
  6201                           
  6202                           ;twodimmer_1fd_1sw.c: 404: TMR1H=0xE4; TMR1L=0xA8; T1CONbits.TMR1ON = 1; break;
  6203  01F2  30E4               	movlw	228
  6204  01F3                     L100:	
  6205  01F3  0097               	movwf	23	;volatile
  6206  01F4  30A8               	movlw	168
  6207  01F5  2A50               	goto	L4
  6208  01F6                     i1l4732:	
  6209                           ;twodimmer_1fd_1sw.c: 405: case '2':
  6210                           
  6211                           
  6212                           ;twodimmer_1fd_1sw.c: 406: TMR1H=0xE5; TMR1L=0x70; T1CONbits.TMR1ON = 1; break;
  6213  01F6  30E5               	movlw	229
  6214  01F7                     L37:	
  6215  01F7  0097               	movwf	23	;volatile
  6216  01F8  3070               	movlw	112
  6217  01F9  2A50               	goto	L4
  6218  01FA                     i1l4736:	
  6219                           ;twodimmer_1fd_1sw.c: 407: case '3':
  6220                           
  6221                           
  6222                           ;twodimmer_1fd_1sw.c: 408: TMR1H=0xE6; TMR1L=0x38; T1CONbits.TMR1ON = 1; break;
  6223  01FA  30E6               	movlw	230
  6224  01FB  0097               	movwf	23	;volatile
  6225  01FC  3038               	movlw	56
  6226  01FD  2A50               	goto	L4
  6227  01FE                     i1l4740:	
  6228                           ;twodimmer_1fd_1sw.c: 409: case '4':
  6229                           
  6230                           
  6231                           ;twodimmer_1fd_1sw.c: 410: TMR1H=0xE7; TMR1L=0x00; T1CONbits.TMR1ON = 1; break;
  6232  01FE  30E7               	movlw	231
  6233  01FF                     L38:	
  6234  01FF  0097               	movwf	23	;volatile
  6235  0200  0196               	clrf	22	;volatile
  6236  0201  2A51               	goto	i1l4808
  6237  0202                     i1l4746:	
  6238                           ;twodimmer_1fd_1sw.c: 411: case '5':
  6239                           
  6240                           
  6241                           ;twodimmer_1fd_1sw.c: 412: TMR1H=0xE8; TMR1L=0x90; T1CONbits.TMR1ON = 1; break;
  6242  0202  30E8               	movlw	232
  6243  0203                     L39:	
  6244  0203  0097               	movwf	23	;volatile
  6245  0204  3090               	movlw	144
  6246  0205  2A50               	goto	L4
  6247  0206                     i1l4750:	
  6248                           ;twodimmer_1fd_1sw.c: 413: case '6':
  6249                           
  6250                           
  6251                           ;twodimmer_1fd_1sw.c: 414: TMR1H=0xEA; TMR1L=0x20; T1CONbits.TMR1ON = 1; break;
  6252  0206  30EA               	movlw	234
  6253  0207                     L40:	
  6254  0207  0097               	movwf	23	;volatile
  6255  0208  3020               	movlw	32
  6256  0209  2A50               	goto	L4
  6257  020A                     i1l4754:	
  6258                           ;twodimmer_1fd_1sw.c: 415: case '7':
  6259                           
  6260                           
  6261                           ;twodimmer_1fd_1sw.c: 416: TMR1H=0xEB; TMR1L=0xB0; T1CONbits.TMR1ON = 1; break;
  6262  020A  30EB               	movlw	235
  6263  020B                     L41:	
  6264  020B  0097               	movwf	23	;volatile
  6265  020C  30B0               	movlw	176
  6266  020D  2A50               	goto	L4
  6267  020E                     i1l4758:	
  6268                           ;twodimmer_1fd_1sw.c: 417: case '8':
  6269                           
  6270                           
  6271                           ;twodimmer_1fd_1sw.c: 418: TMR1H=0xEC; TMR1L=0x78; T1CONbits.TMR1ON = 1; break;
  6272  020E  30EC               	movlw	236
  6273  020F                     L102:	
  6274  020F  0097               	movwf	23	;volatile
  6275  0210  3078               	movlw	120
  6276  0211  2A50               	goto	L4
  6277  0212                     i1l4762:	
  6278                           ;twodimmer_1fd_1sw.c: 419: case '9':
  6279                           
  6280                           
  6281                           ;twodimmer_1fd_1sw.c: 420: TMR1H=0xED; TMR1L=0x40; T1CONbits.TMR1ON = 1; break;
  6282  0212  30ED               	movlw	237
  6283  0213                     L42:	
  6284  0213  0097               	movwf	23	;volatile
  6285  0214  3040               	movlw	64
  6286  0215  2A50               	goto	L4
  6287  0216                     i1l4768:	
  6288                           ;twodimmer_1fd_1sw.c: 423: }
  6289                           
  6290                           ;twodimmer_1fd_1sw.c: 422: break;
  6291                           
  6292                           ;twodimmer_1fd_1sw.c: 421: default:
  6293                           
  6294                           
  6295                           ; Switch on 2 bytes has been partitioned into a top level switch of size 1, and 1 sub-sw
      +                          itches
  6296                           ; Switch size 1, requested type "space"
  6297                           ; Number of cases is 1, Range of values is 0 to 0
  6298                           ; switch strategies available:
  6299                           ; Name         Instructions Cycles
  6300                           ; simple_byte            4     3 (average)
  6301                           ; direct_byte            8     6 (fixed)
  6302                           ; jumptable            260     6 (fixed)
  6303                           ;	Chosen strategy is simple_byte
  6304  0216  0854               	movf	_FAN_SPEED1_1s+1,w
  6305  0217  3A00               	xorlw	0	; case 0
  6306  0218  1903               	skipnz
  6307  0219  2A1B               	goto	i1l8392
  6308  021A  2A78               	goto	i1l274
  6309  021B                     i1l8392:	
  6310                           
  6311                           ; Switch size 1, requested type "space"
  6312                           ; Number of cases is 10, Range of values is 48 to 57
  6313                           ; switch strategies available:
  6314                           ; Name         Instructions Cycles
  6315                           ; direct_byte           29     9 (fixed)
  6316                           ; simple_byte           31    16 (average)
  6317                           ; jumptable            263     9 (fixed)
  6318                           ;	Chosen strategy is direct_byte
  6319  021B  0853               	movf	_FAN_SPEED1_1s,w
  6320  021C  3ED0               	addlw	-48
  6321  021D  1C03               	skipc
  6322  021E  2A78               	goto	i1l274
  6323  021F  0084               	movwf	4
  6324  0220  300A               	movlw	10
  6325  0221  0204               	subwf	4,w
  6326  0222  1803               	skipnc
  6327  0223  2A78               	goto	i1l274
  6328  0224  3188               	movlp	high i1S8394
  6329  0225  3504               	lslf	4,w
  6330  0226  3EA0               	addlw	low i1S8394
  6331  0227  0082               	movwf	2
  6332                           
  6333                           ;twodimmer_1fd_1sw.c: 424: break;
  6334  0228  2A78               	goto	i1l274
  6335  0229                     i1l4770:	
  6336                           ;twodimmer_1fd_1sw.c: 428: {
  6337                           ;twodimmer_1fd_1sw.c: 429: case '0':
  6338                           
  6339                           ;twodimmer_1fd_1sw.c: 427: switch(FAN_SPEED1_1s)
  6340                           
  6341                           ;twodimmer_1fd_1sw.c: 425: case '9':
  6342                           
  6343                           
  6344                           ;twodimmer_1fd_1sw.c: 430: TMR1H=0xEE; TMR1L=0xD0; T1CONbits.TMR1ON = 1; break;
  6345  0229  30EE               	movlw	238
  6346  022A                     L43:	
  6347  022A  0097               	movwf	23	;volatile
  6348  022B  30D0               	movlw	208
  6349  022C  2A50               	goto	L4
  6350  022D                     i1l4774:	
  6351                           ;twodimmer_1fd_1sw.c: 431: case '1':
  6352                           
  6353                           
  6354                           ;twodimmer_1fd_1sw.c: 432: TMR1H=0xF0; TMR1L=0x60; T1CONbits.TMR1ON = 1; break;
  6355  022D  30F0               	movlw	240
  6356  022E                     L44:	
  6357  022E  0097               	movwf	23	;volatile
  6358  022F  3060               	movlw	96
  6359  0230  2A50               	goto	L4
  6360  0231                     i1l4778:	
  6361                           ;twodimmer_1fd_1sw.c: 433: case '2':
  6362                           
  6363                           
  6364                           ;twodimmer_1fd_1sw.c: 434: TMR1H=0xF1; TMR1L=0xF0; T1CONbits.TMR1ON = 1; break;
  6365  0231  30F1               	movlw	241
  6366  0232                     L45:	
  6367  0232  0097               	movwf	23	;volatile
  6368  0233  30F0               	movlw	240
  6369  0234  2A50               	goto	L4
  6370  0235                     i1l4782:	
  6371                           ;twodimmer_1fd_1sw.c: 435: case '3':
  6372                           
  6373                           
  6374                           ;twodimmer_1fd_1sw.c: 436: TMR1H=0xF3; TMR1L=0x80; T1CONbits.TMR1ON = 1; break;
  6375  0235  30F3               	movlw	243
  6376  0236                     L46:	
  6377  0236  0097               	movwf	23	;volatile
  6378  0237  3080               	movlw	128
  6379  0238  2A50               	goto	L4
  6380  0239                     i1l4786:	
  6381                           ;twodimmer_1fd_1sw.c: 437: case '4':
  6382                           
  6383                           
  6384                           ;twodimmer_1fd_1sw.c: 438: TMR1H=0xF5; TMR1L=0x10; T1CONbits.TMR1ON = 1; break;
  6385  0239  30F5               	movlw	245
  6386  023A                     L47:	
  6387  023A  0097               	movwf	23	;volatile
  6388  023B  3010               	movlw	16
  6389  023C  2A50               	goto	L4
  6390  023D                     i1l4790:	
  6391                           ;twodimmer_1fd_1sw.c: 439: case '5':
  6392                           
  6393                           
  6394                           ;twodimmer_1fd_1sw.c: 440: TMR1H=0xF6; TMR1L=0xA0; T1CONbits.TMR1ON = 1; break;
  6395  023D  30F6               	movlw	246
  6396  023E                     L48:	
  6397  023E  0097               	movwf	23	;volatile
  6398  023F  30A0               	movlw	160
  6399  0240  2A50               	goto	L4
  6400  0241                     i1l4794:	
  6401                           ;twodimmer_1fd_1sw.c: 441: case '6':
  6402                           
  6403                           
  6404                           ;twodimmer_1fd_1sw.c: 442: TMR1H=0xF8; TMR1L=0x30; T1CONbits.TMR1ON = 1; break;
  6405  0241  30F8               	movlw	248
  6406  0242                     L49:	
  6407  0242  0097               	movwf	23	;volatile
  6408  0243  3030               	movlw	48
  6409  0244  2A50               	goto	L4
  6410  0245                     i1l4798:	
  6411                           ;twodimmer_1fd_1sw.c: 443: case '7':
  6412                           
  6413                           
  6414                           ;twodimmer_1fd_1sw.c: 444: TMR1H=0xF9; TMR1L=0xC0; T1CONbits.TMR1ON = 1; break;
  6415  0245  30F9               	movlw	249
  6416  0246                     L50:	
  6417  0246  0097               	movwf	23	;volatile
  6418  0247  30C0               	movlw	192
  6419  0248  2A50               	goto	L4
  6420  0249                     i1l4802:	
  6421                           ;twodimmer_1fd_1sw.c: 445: case '8':
  6422                           
  6423                           
  6424                           ;twodimmer_1fd_1sw.c: 446: TMR1H=0xFB; TMR1L=0x50; T1CONbits.TMR1ON = 1; break;
  6425  0249  30FB               	movlw	251
  6426  024A                     L51:	
  6427  024A  0097               	movwf	23	;volatile
  6428  024B  3050               	movlw	80
  6429  024C  2A50               	goto	L4
  6430  024D                     i1l4806:	
  6431                           ;twodimmer_1fd_1sw.c: 447: case '9':
  6432                           
  6433                           
  6434                           ;twodimmer_1fd_1sw.c: 448: TMR1H=0xFC; TMR1L=0xE0; T1CONbits.TMR1ON = 1; break;
  6435  024D  30FC               	movlw	252
  6436  024E                     L21:	
  6437  024E  0097               	movwf	23	;volatile
  6438  024F  30E0               	movlw	224
  6439  0250                     L4:	
  6440  0250  0096               	movwf	22	;volatile
  6441  0251                     i1l4808:	
  6442  0251  1418               	bsf	24,0	;volatile
  6443                           
  6444                           ;twodimmer_1fd_1sw.c: 451: }
  6445                           
  6446                           ;twodimmer_1fd_1sw.c: 450: break;
  6447                           
  6448                           ;twodimmer_1fd_1sw.c: 449: default:
  6449  0252  2A78               	goto	i1l274
  6450  0253                     i1l4812:	
  6451                           
  6452                           ; Switch on 2 bytes has been partitioned into a top level switch of size 1, and 1 sub-sw
      +                          itches
  6453                           ; Switch size 1, requested type "space"
  6454                           ; Number of cases is 1, Range of values is 0 to 0
  6455                           ; switch strategies available:
  6456                           ; Name         Instructions Cycles
  6457                           ; simple_byte            4     3 (average)
  6458                           ; direct_byte            8     6 (fixed)
  6459                           ; jumptable            260     6 (fixed)
  6460                           ;	Chosen strategy is simple_byte
  6461  0253  0854               	movf	_FAN_SPEED1_1s+1,w
  6462  0254  3A00               	xorlw	0	; case 0
  6463  0255  1903               	skipnz
  6464  0256  2A58               	goto	i1l8396
  6465  0257  2A78               	goto	i1l274
  6466  0258                     i1l8396:	
  6467                           
  6468                           ; Switch size 1, requested type "space"
  6469                           ; Number of cases is 10, Range of values is 48 to 57
  6470                           ; switch strategies available:
  6471                           ; Name         Instructions Cycles
  6472                           ; direct_byte           29     9 (fixed)
  6473                           ; simple_byte           31    16 (average)
  6474                           ; jumptable            263     9 (fixed)
  6475                           ;	Chosen strategy is direct_byte
  6476  0258  0853               	movf	_FAN_SPEED1_1s,w
  6477  0259  3ED0               	addlw	-48
  6478  025A  1C03               	skipc
  6479  025B  2A78               	goto	i1l274
  6480  025C  0084               	movwf	4
  6481  025D  300A               	movlw	10
  6482  025E  0204               	subwf	4,w
  6483  025F  1803               	skipnc
  6484  0260  2A78               	goto	i1l274
  6485  0261  3188               	movlp	high i1S8398
  6486  0262  3504               	lslf	4,w
  6487  0263  3EB4               	addlw	low i1S8398
  6488  0264  0082               	movwf	2
  6489                           
  6490                           ;twodimmer_1fd_1sw.c: 455: }
  6491                           
  6492                           ;twodimmer_1fd_1sw.c: 454: break;
  6493                           
  6494                           ;twodimmer_1fd_1sw.c: 453: default:
  6495                           
  6496                           ;twodimmer_1fd_1sw.c: 452: break;
  6497  0265  2A78               	goto	i1l274
  6498  0266                     i1l4816:	
  6499                           
  6500                           ; Switch on 2 bytes has been partitioned into a top level switch of size 1, and 1 sub-sw
      +                          itches
  6501                           ; Switch size 1, requested type "space"
  6502                           ; Number of cases is 1, Range of values is 0 to 0
  6503                           ; switch strategies available:
  6504                           ; Name         Instructions Cycles
  6505                           ; simple_byte            4     3 (average)
  6506                           ; direct_byte            8     6 (fixed)
  6507                           ; jumptable            260     6 (fixed)
  6508                           ;	Chosen strategy is simple_byte
  6509  0266  0856               	movf	_FAN_SPEED1_10s+1,w
  6510  0267  3A00               	xorlw	0	; case 0
  6511  0268  1903               	skipnz
  6512  0269  2A6B               	goto	i1l8400
  6513  026A  2A78               	goto	i1l274
  6514  026B                     i1l8400:	
  6515                           
  6516                           ; Switch size 1, requested type "space"
  6517                           ; Number of cases is 10, Range of values is 48 to 57
  6518                           ; switch strategies available:
  6519                           ; Name         Instructions Cycles
  6520                           ; direct_byte           29     9 (fixed)
  6521                           ; simple_byte           31    16 (average)
  6522                           ; jumptable            263     9 (fixed)
  6523                           ;	Chosen strategy is direct_byte
  6524  026B  0855               	movf	_FAN_SPEED1_10s,w
  6525  026C  3ED0               	addlw	-48
  6526  026D  1C03               	skipc
  6527  026E  2A78               	goto	i1l274
  6528  026F  0084               	movwf	4
  6529  0270  300A               	movlw	10
  6530  0271  0204               	subwf	4,w
  6531  0272  1803               	skipnc
  6532  0273  2A78               	goto	i1l274
  6533  0274  3188               	movlp	high i1S8402
  6534  0275  3504               	lslf	4,w
  6535  0276  3EC8               	addlw	low i1S8402
  6536  0277  0082               	movwf	2
  6537  0278                     i1l274:	
  6538                           
  6539                           ;twodimmer_1fd_1sw.c: 456: }
  6540                           ;twodimmer_1fd_1sw.c: 457: PIR1bits.CCP1IF = 0;
  6541  0278  0020               	movlb	0	; select bank0
  6542  0279  1111               	bcf	17,2	;volatile
  6543  027A                     i1l273:	
  6544                           
  6545                           ;twodimmer_1fd_1sw.c: 458: }
  6546                           ;twodimmer_1fd_1sw.c: 459: if(PIR3bits.CCP3IF == 1)
  6547  027A  1E13               	btfss	19,4	;volatile
  6548  027B  2C8E               	goto	i1l563
  6549                           
  6550                           ;twodimmer_1fd_1sw.c: 460: {
  6551                           ;twodimmer_1fd_1sw.c: 461: PIR3bits.CCP3IF=0;
  6552  027C  1213               	bcf	19,4	;volatile
  6553                           
  6554                           ;twodimmer_1fd_1sw.c: 463: if(FAN_FLAG2==1 && ak==1)
  6555  027D  0021               	movlb	1	; select bank1
  6556  027E  0360               	decf	_FAN_FLAG2^(0+128),w
  6557  027F  0461               	iorwf	(_FAN_FLAG2+1)^(0+128),w
  6558  0280  1D03               	btfss	3,2
  6559  0281  2C8C               	goto	i1l419
  6560  0282  0020               	movlb	0	; select bank0
  6561  0283  0357               	decf	_ak,w
  6562  0284  0458               	iorwf	_ak+1,w
  6563  0285  1903               	btfsc	3,2
  6564  0286  2C79               	goto	i1l5278
  6565  0287  2C8C               	goto	i1l419
  6566  0288                     i1l4826:	
  6567                           ;twodimmer_1fd_1sw.c: 470: {
  6568                           ;twodimmer_1fd_1sw.c: 471: case '0':
  6569                           
  6570                           ;twodimmer_1fd_1sw.c: 469: switch(FAN_SPEED2_1s)
  6571                           
  6572                           ;twodimmer_1fd_1sw.c: 466: {
  6573                           ;twodimmer_1fd_1sw.c: 467: case '0':
  6574                           
  6575                           ;twodimmer_1fd_1sw.c: 464: {
  6576                           ;twodimmer_1fd_1sw.c: 465: switch(FAN_SPEED2_10s)
  6577                           
  6578                           
  6579                           ;twodimmer_1fd_1sw.c: 472: TMR3H=0x7B; TMR3L=0x30; T3CONbits.TMR3ON = 1; break;
  6580  0288  307B               	movlw	123
  6581  0289  2C50               	goto	L95
  6582  028A                     i1l4830:	
  6583                           ;twodimmer_1fd_1sw.c: 473: case '1':
  6584                           
  6585                           
  6586                           ;twodimmer_1fd_1sw.c: 474: TMR3H=0x7C; TMR3L=0xC0; T3CONbits.TMR3ON = 1; break;
  6587  028A  307C               	movlw	124
  6588  028B  2C55               	goto	L96
  6589  028C                     i1l4834:	
  6590                           ;twodimmer_1fd_1sw.c: 475: case '2':
  6591                           
  6592                           
  6593                           ;twodimmer_1fd_1sw.c: 476: TMR3H=0x7D; TMR3L=0x88; T3CONbits.TMR3ON = 1; break;
  6594  028C  307D               	movlw	125
  6595  028D  0028               	movlb	8	; select bank8
  6596  028E  0092               	movwf	18	;volatile
  6597  028F  3088               	movlw	136
  6598  0290  2C62               	goto	L5
  6599  0291                     i1l4838:	
  6600                           ;twodimmer_1fd_1sw.c: 477: case '3':
  6601                           
  6602                           
  6603                           ;twodimmer_1fd_1sw.c: 478: TMR3H=0x7F; TMR3L=0x18; T3CONbits.TMR3ON = 1; break;
  6604  0291  307F               	movlw	127
  6605  0292  0028               	movlb	8	; select bank8
  6606  0293  0092               	movwf	18	;volatile
  6607  0294  3018               	movlw	24
  6608  0295  2C62               	goto	L5
  6609  0296                     i1l4842:	
  6610                           ;twodimmer_1fd_1sw.c: 479: case '4':
  6611                           
  6612                           
  6613                           ;twodimmer_1fd_1sw.c: 480: TMR3H=0x80; TMR3L=0xA8; T3CONbits.TMR3ON = 1; break;
  6614  0296  3080               	movlw	128
  6615  0297  2BF1               	goto	L105
  6616  0298                     i1l4846:	
  6617                           ;twodimmer_1fd_1sw.c: 481: case '5':
  6618                           
  6619                           
  6620                           ;twodimmer_1fd_1sw.c: 482: TMR3H=0x81; TMR3L=0x70; T3CONbits.TMR3ON = 1; break;
  6621  0298  3081               	movlw	129
  6622  0299  2BF6               	goto	L83
  6623  029A                     i1l4850:	
  6624                           ;twodimmer_1fd_1sw.c: 483: case '6':
  6625                           
  6626                           
  6627                           ;twodimmer_1fd_1sw.c: 484: TMR3H=0x83; TMR3L=0x00; T3CONbits.TMR3ON = 1; break;
  6628  029A  3083               	movlw	131
  6629  029B  2C00               	goto	L84
  6630  029C                     i1l4856:	
  6631                           ;twodimmer_1fd_1sw.c: 485: case '7':
  6632                           
  6633                           
  6634                           ;twodimmer_1fd_1sw.c: 486: TMR3H=0x83; TMR3L=0xC8; T3CONbits.TMR3ON = 1; break;
  6635  029C  3083               	movlw	131
  6636  029D  0028               	movlb	8	; select bank8
  6637  029E  0092               	movwf	18	;volatile
  6638  029F  30C8               	movlw	200
  6639  02A0  2C62               	goto	L5
  6640  02A1                     i1l4860:	
  6641                           ;twodimmer_1fd_1sw.c: 487: case '8':
  6642                           
  6643  02A1  2AC2               	goto	i1l4880
  6644  02A2                     i1l4864:	
  6645                           ;twodimmer_1fd_1sw.c: 489: case '9':
  6646                           
  6647                           ;twodimmer_1fd_1sw.c: 488: TMR3H=0x87; TMR3L=0xB0; T3CONbits.TMR3ON = 1; break;
  6648                           
  6649                           
  6650                           ;twodimmer_1fd_1sw.c: 490: TMR3H=0x85; TMR3L=0x58; T3CONbits.TMR3ON = 1; break;
  6651  02A2  3085               	movlw	133
  6652  02A3  0028               	movlb	8	; select bank8
  6653  02A4  0092               	movwf	18	;volatile
  6654  02A5  3058               	movlw	88
  6655  02A6  2C62               	goto	L5
  6656  02A7                     i1l4870:	
  6657                           ;twodimmer_1fd_1sw.c: 493: }
  6658                           
  6659                           ;twodimmer_1fd_1sw.c: 492: break;
  6660                           
  6661                           ;twodimmer_1fd_1sw.c: 491: default:
  6662                           
  6663                           
  6664                           ; Switch on 2 bytes has been partitioned into a top level switch of size 1, and 1 sub-sw
      +                          itches
  6665                           ; Switch size 1, requested type "space"
  6666                           ; Number of cases is 1, Range of values is 0 to 0
  6667                           ; switch strategies available:
  6668                           ; Name         Instructions Cycles
  6669                           ; simple_byte            4     3 (average)
  6670                           ; direct_byte            8     6 (fixed)
  6671                           ; jumptable            260     6 (fixed)
  6672                           ;	Chosen strategy is simple_byte
  6673  02A7  0020               	movlb	0	; select bank0
  6674  02A8  0852               	movf	_FAN_SPEED2_1s+1,w
  6675  02A9  3A00               	xorlw	0	; case 0
  6676  02AA  1903               	skipnz
  6677  02AB  2AAD               	goto	i1l8404
  6678  02AC  2C8C               	goto	i1l419
  6679  02AD                     i1l8404:	
  6680                           
  6681                           ; Switch size 1, requested type "space"
  6682                           ; Number of cases is 10, Range of values is 48 to 57
  6683                           ; switch strategies available:
  6684                           ; Name         Instructions Cycles
  6685                           ; direct_byte           29     9 (fixed)
  6686                           ; simple_byte           31    16 (average)
  6687                           ; jumptable            263     9 (fixed)
  6688                           ;	Chosen strategy is direct_byte
  6689  02AD  0851               	movf	_FAN_SPEED2_1s,w
  6690  02AE  3ED0               	addlw	-48
  6691  02AF  1C03               	skipc
  6692  02B0  2C8C               	goto	i1l419
  6693  02B1  0084               	movwf	4
  6694  02B2  300A               	movlw	10
  6695  02B3  0204               	subwf	4,w
  6696  02B4  1803               	skipnc
  6697  02B5  2C8C               	goto	i1l419
  6698  02B6  3188               	movlp	high i1S8406
  6699  02B7  3504               	lslf	4,w
  6700  02B8  3EDC               	addlw	low i1S8406
  6701  02B9  0082               	movwf	2
  6702                           
  6703                           ;twodimmer_1fd_1sw.c: 494: break;
  6704  02BA  2C8C               	goto	i1l419
  6705  02BB                     i1l4872:	
  6706                           ;twodimmer_1fd_1sw.c: 498: {
  6707                           ;twodimmer_1fd_1sw.c: 499: case '0':
  6708                           
  6709                           ;twodimmer_1fd_1sw.c: 497: switch(FAN_SPEED2_1s)
  6710                           
  6711                           ;twodimmer_1fd_1sw.c: 495: case '1':
  6712                           
  6713                           
  6714                           ;twodimmer_1fd_1sw.c: 500: TMR3H=0x86; TMR3L=0x20; T3CONbits.TMR3ON = 1; break;
  6715  02BB  3086               	movlw	134
  6716  02BC  2C0A               	goto	L86
  6717  02BD                     i1l4876:	
  6718                           ;twodimmer_1fd_1sw.c: 501: case '1':
  6719                           
  6720                           
  6721                           ;twodimmer_1fd_1sw.c: 502: TMR3H=0x86; TMR3L=0xE8; T3CONbits.TMR3ON = 1; break;
  6722  02BD  3086               	movlw	134
  6723  02BE  0028               	movlb	8	; select bank8
  6724  02BF  0092               	movwf	18	;volatile
  6725  02C0  30E8               	movlw	232
  6726  02C1  2C62               	goto	L5
  6727  02C2                     i1l4880:	
  6728                           ;twodimmer_1fd_1sw.c: 503: case '2':
  6729                           
  6730                           
  6731                           ;twodimmer_1fd_1sw.c: 504: TMR3H=0x87; TMR3L=0xB0; T3CONbits.TMR3ON = 1; break;
  6732  02C2  3087               	movlw	135
  6733  02C3  2C0F               	goto	L87
  6734  02C4                     i1l4884:	
  6735                           ;twodimmer_1fd_1sw.c: 505: case '3':
  6736                           
  6737                           
  6738                           ;twodimmer_1fd_1sw.c: 506: TMR3H=0x88; TMR3L=0x78; T3CONbits.TMR3ON = 1; break;
  6739  02C4  3088               	movlw	136
  6740  02C5  2C14               	goto	L107
  6741  02C6                     i1l4888:	
  6742                           ;twodimmer_1fd_1sw.c: 507: case '4':
  6743                           
  6744                           
  6745                           ;twodimmer_1fd_1sw.c: 508: TMR3H=0x89; TMR3L=0x40; T3CONbits.TMR3ON = 1; break;
  6746  02C6  3089               	movlw	137
  6747  02C7  2C19               	goto	L88
  6748  02C8                     i1l4892:	
  6749                           ;twodimmer_1fd_1sw.c: 509: case '5':
  6750                           
  6751                           
  6752                           ;twodimmer_1fd_1sw.c: 510: TMR3H=0x8A; TMR3L=0x08; T3CONbits.TMR3ON = 1; break;
  6753  02C8  308A               	movlw	138
  6754  02C9  0028               	movlb	8	; select bank8
  6755  02CA  0092               	movwf	18	;volatile
  6756  02CB  3008               	movlw	8
  6757  02CC  2C62               	goto	L5
  6758  02CD                     i1l4896:	
  6759                           ;twodimmer_1fd_1sw.c: 511: case '6':
  6760                           
  6761                           
  6762                           ;twodimmer_1fd_1sw.c: 512: TMR3H=0x8A; TMR3L=0xD0; T3CONbits.TMR3ON = 1; break;
  6763  02CD  308A               	movlw	138
  6764  02CE  2C32               	goto	L89
  6765  02CF                     i1l4900:	
  6766                           ;twodimmer_1fd_1sw.c: 513: case '7':
  6767                           
  6768                           
  6769                           ;twodimmer_1fd_1sw.c: 514: TMR3H=0x8B; TMR3L=0x98; T3CONbits.TMR3ON = 1; break;
  6770  02CF  308B               	movlw	139
  6771  02D0  0028               	movlb	8	; select bank8
  6772  02D1  0092               	movwf	18	;volatile
  6773  02D2  3098               	movlw	152
  6774  02D3  2C62               	goto	L5
  6775  02D4                     i1l4904:	
  6776                           ;twodimmer_1fd_1sw.c: 515: case '8':
  6777                           
  6778                           
  6779                           ;twodimmer_1fd_1sw.c: 516: TMR3H=0x8C; TMR3L=0x60; T3CONbits.TMR3ON = 1; break;
  6780  02D4  308C               	movlw	140
  6781  02D5  2C37               	goto	L90
  6782  02D6                     i1l4908:	
  6783                           ;twodimmer_1fd_1sw.c: 517: case '9':
  6784                           
  6785                           
  6786                           ;twodimmer_1fd_1sw.c: 518: TMR3H=0x8D; TMR3L=0x28; T3CONbits.TMR3ON = 1; break;
  6787  02D6  308D               	movlw	141
  6788  02D7  0028               	movlb	8	; select bank8
  6789  02D8  0092               	movwf	18	;volatile
  6790  02D9  3028               	movlw	40
  6791  02DA  2C62               	goto	L5
  6792  02DB                     i1l4914:	
  6793                           ;twodimmer_1fd_1sw.c: 521: }
  6794                           
  6795                           ;twodimmer_1fd_1sw.c: 520: break;
  6796                           
  6797                           ;twodimmer_1fd_1sw.c: 519: default:
  6798                           
  6799                           
  6800                           ; Switch on 2 bytes has been partitioned into a top level switch of size 1, and 1 sub-sw
      +                          itches
  6801                           ; Switch size 1, requested type "space"
  6802                           ; Number of cases is 1, Range of values is 0 to 0
  6803                           ; switch strategies available:
  6804                           ; Name         Instructions Cycles
  6805                           ; simple_byte            4     3 (average)
  6806                           ; direct_byte            8     6 (fixed)
  6807                           ; jumptable            260     6 (fixed)
  6808                           ;	Chosen strategy is simple_byte
  6809  02DB  0020               	movlb	0	; select bank0
  6810  02DC  0852               	movf	_FAN_SPEED2_1s+1,w
  6811  02DD  3A00               	xorlw	0	; case 0
  6812  02DE  1903               	skipnz
  6813  02DF  2AE1               	goto	i1l8408
  6814  02E0  2C8C               	goto	i1l419
  6815  02E1                     i1l8408:	
  6816                           
  6817                           ; Switch size 1, requested type "space"
  6818                           ; Number of cases is 10, Range of values is 48 to 57
  6819                           ; switch strategies available:
  6820                           ; Name         Instructions Cycles
  6821                           ; direct_byte           29     9 (fixed)
  6822                           ; simple_byte           31    16 (average)
  6823                           ; jumptable            263     9 (fixed)
  6824                           ;	Chosen strategy is direct_byte
  6825  02E1  0851               	movf	_FAN_SPEED2_1s,w
  6826  02E2  3ED0               	addlw	-48
  6827  02E3  1C03               	skipc
  6828  02E4  2C8C               	goto	i1l419
  6829  02E5  0084               	movwf	4
  6830  02E6  300A               	movlw	10
  6831  02E7  0204               	subwf	4,w
  6832  02E8  1803               	skipnc
  6833  02E9  2C8C               	goto	i1l419
  6834  02EA  3189               	movlp	high i1S8410
  6835  02EB  3504               	lslf	4,w
  6836  02EC  3E00               	addlw	low i1S8410
  6837  02ED  0082               	movwf	2
  6838                           
  6839                           ;twodimmer_1fd_1sw.c: 522: break;
  6840  02EE  2C8C               	goto	i1l419
  6841  02EF                     i1l4916:	
  6842                           ;twodimmer_1fd_1sw.c: 526: {
  6843                           ;twodimmer_1fd_1sw.c: 527: case '0':
  6844                           
  6845                           ;twodimmer_1fd_1sw.c: 525: switch(FAN_SPEED2_1s)
  6846                           
  6847                           ;twodimmer_1fd_1sw.c: 523: case '2':
  6848                           
  6849                           
  6850                           ;twodimmer_1fd_1sw.c: 528: TMR3H=0x8D; TMR3L=0xF0; T3CONbits.TMR3ON = 1; break;
  6851  02EF  308D               	movlw	141
  6852  02F0  2C3C               	goto	L91
  6853  02F1                     i1l4920:	
  6854                           ;twodimmer_1fd_1sw.c: 529: case '1':
  6855                           
  6856                           
  6857                           ;twodimmer_1fd_1sw.c: 530: TMR3H=0x8E; TMR3L=0xB8; T3CONbits.TMR3ON = 1; break;
  6858  02F1  308E               	movlw	142
  6859  02F2  0028               	movlb	8	; select bank8
  6860  02F3  0092               	movwf	18	;volatile
  6861  02F4  30B8               	movlw	184
  6862  02F5  2C62               	goto	L5
  6863  02F6                     i1l4924:	
  6864                           ;twodimmer_1fd_1sw.c: 531: case '2':
  6865                           
  6866                           
  6867                           ;twodimmer_1fd_1sw.c: 532: TMR3H=0x8F; TMR3L=0x80; T3CONbits.TMR3ON = 1; break;
  6868  02F6  308F               	movlw	143
  6869  02F7  2C41               	goto	L92
  6870  02F8                     i1l4928:	
  6871                           ;twodimmer_1fd_1sw.c: 533: case '3':
  6872                           
  6873                           
  6874                           ;twodimmer_1fd_1sw.c: 534: TMR3H=0x90; TMR3L=0x48; T3CONbits.TMR3ON = 1; break;
  6875  02F8  3090               	movlw	144
  6876  02F9  0028               	movlb	8	; select bank8
  6877  02FA  0092               	movwf	18	;volatile
  6878  02FB  3048               	movlw	72
  6879  02FC  2C62               	goto	L5
  6880  02FD                     i1l4932:	
  6881                           ;twodimmer_1fd_1sw.c: 535: case '4':
  6882                           
  6883                           
  6884                           ;twodimmer_1fd_1sw.c: 536: TMR3H=0x91; TMR3L=0x10; T3CONbits.TMR3ON = 1; break;
  6885  02FD  3091               	movlw	145
  6886  02FE  2C46               	goto	L93
  6887  02FF                     i1l4936:	
  6888                           ;twodimmer_1fd_1sw.c: 537: case '5':
  6889                           
  6890                           
  6891                           ;twodimmer_1fd_1sw.c: 538: TMR3H=0x91; TMR3L=0xD8; T3CONbits.TMR3ON = 1; break;
  6892  02FF  3091               	movlw	145
  6893  0300  0028               	movlb	8	; select bank8
  6894  0301  0092               	movwf	18	;volatile
  6895  0302  30D8               	movlw	216
  6896  0303  2C62               	goto	L5
  6897  0304                     i1l4940:	
  6898                           ;twodimmer_1fd_1sw.c: 539: case '6':
  6899                           
  6900                           
  6901                           ;twodimmer_1fd_1sw.c: 540: TMR3H=0x92; TMR3L=0xA0; T3CONbits.TMR3ON = 1; break;
  6902  0304  3092               	movlw	146
  6903  0305  2C4B               	goto	L94
  6904  0306                     i1l4944:	
  6905                           ;twodimmer_1fd_1sw.c: 541: case '7':
  6906                           
  6907                           
  6908                           ;twodimmer_1fd_1sw.c: 542: TMR3H=0x93; TMR3L=0x68; T3CONbits.TMR3ON = 1; break;
  6909  0306  3093               	movlw	147
  6910  0307  0028               	movlb	8	; select bank8
  6911  0308  0092               	movwf	18	;volatile
  6912  0309  3068               	movlw	104
  6913  030A  2C62               	goto	L5
  6914  030B                     i1l4948:	
  6915                           ;twodimmer_1fd_1sw.c: 543: case '8':
  6916                           
  6917                           
  6918                           ;twodimmer_1fd_1sw.c: 544: TMR3H=0x94; TMR3L=0x30; T3CONbits.TMR3ON = 1; break;
  6919  030B  3094               	movlw	148
  6920  030C  2C50               	goto	L95
  6921  030D                     i1l4952:	
  6922                           ;twodimmer_1fd_1sw.c: 545: case '9':
  6923                           
  6924                           
  6925                           ;twodimmer_1fd_1sw.c: 546: TMR3H=0x94; TMR3L=0xF8; T3CONbits.TMR3ON = 1; break;
  6926  030D  3094               	movlw	148
  6927  030E  0028               	movlb	8	; select bank8
  6928  030F  0092               	movwf	18	;volatile
  6929  0310  30F8               	movlw	248
  6930  0311  2C62               	goto	L5
  6931  0312                     i1l4958:	
  6932                           ;twodimmer_1fd_1sw.c: 549: }
  6933                           
  6934                           ;twodimmer_1fd_1sw.c: 548: break;
  6935                           
  6936                           ;twodimmer_1fd_1sw.c: 547: default:
  6937                           
  6938                           
  6939                           ; Switch on 2 bytes has been partitioned into a top level switch of size 1, and 1 sub-sw
      +                          itches
  6940                           ; Switch size 1, requested type "space"
  6941                           ; Number of cases is 1, Range of values is 0 to 0
  6942                           ; switch strategies available:
  6943                           ; Name         Instructions Cycles
  6944                           ; simple_byte            4     3 (average)
  6945                           ; direct_byte            8     6 (fixed)
  6946                           ; jumptable            260     6 (fixed)
  6947                           ;	Chosen strategy is simple_byte
  6948  0312  0020               	movlb	0	; select bank0
  6949  0313  0852               	movf	_FAN_SPEED2_1s+1,w
  6950  0314  3A00               	xorlw	0	; case 0
  6951  0315  1903               	skipnz
  6952  0316  2B18               	goto	i1l8412
  6953  0317  2C8C               	goto	i1l419
  6954  0318                     i1l8412:	
  6955                           
  6956                           ; Switch size 1, requested type "space"
  6957                           ; Number of cases is 10, Range of values is 48 to 57
  6958                           ; switch strategies available:
  6959                           ; Name         Instructions Cycles
  6960                           ; direct_byte           29     9 (fixed)
  6961                           ; simple_byte           31    16 (average)
  6962                           ; jumptable            263     9 (fixed)
  6963                           ;	Chosen strategy is direct_byte
  6964  0318  0851               	movf	_FAN_SPEED2_1s,w
  6965  0319  3ED0               	addlw	-48
  6966  031A  1C03               	skipc
  6967  031B  2C8C               	goto	i1l419
  6968  031C  0084               	movwf	4
  6969  031D  300A               	movlw	10
  6970  031E  0204               	subwf	4,w
  6971  031F  1803               	skipnc
  6972  0320  2C8C               	goto	i1l419
  6973  0321  3189               	movlp	high i1S8414
  6974  0322  3504               	lslf	4,w
  6975  0323  3E14               	addlw	low i1S8414
  6976  0324  0082               	movwf	2
  6977                           
  6978                           ;twodimmer_1fd_1sw.c: 550: break;
  6979  0325  2C8C               	goto	i1l419
  6980  0326                     i1l4960:	
  6981                           ;twodimmer_1fd_1sw.c: 554: {
  6982                           ;twodimmer_1fd_1sw.c: 555: case '0':
  6983                           
  6984                           ;twodimmer_1fd_1sw.c: 553: switch(FAN_SPEED2_1s)
  6985                           
  6986                           ;twodimmer_1fd_1sw.c: 551: case '3':
  6987                           
  6988                           
  6989                           ;twodimmer_1fd_1sw.c: 556: TMR3H=0x95; TMR3L=0xC0; T3CONbits.TMR3ON = 1; break;
  6990  0326  3095               	movlw	149
  6991  0327  2C55               	goto	L96
  6992  0328                     i1l4964:	
  6993                           ;twodimmer_1fd_1sw.c: 557: case '1':
  6994                           
  6995                           
  6996                           ;twodimmer_1fd_1sw.c: 558: TMR3H=0x97; TMR3L=0x50; T3CONbits.TMR3ON = 1; break;
  6997  0328  3097               	movlw	151
  6998  0329  2C5A               	goto	L97
  6999  032A                     i1l4968:	
  7000                           ;twodimmer_1fd_1sw.c: 559: case '2':
  7001                           
  7002                           
  7003                           ;twodimmer_1fd_1sw.c: 560: TMR3H=0x98; TMR3L=0xE0; T3CONbits.TMR3ON = 1; break;
  7004  032A  3098               	movlw	152
  7005  032B  2C5F               	goto	L67
  7006  032C                     i1l4972:	
  7007                           ;twodimmer_1fd_1sw.c: 561: case '3':
  7008                           
  7009                           
  7010                           ;twodimmer_1fd_1sw.c: 562: TMR3H=0x9A; TMR3L=0x70; T3CONbits.TMR3ON = 1; break;
  7011  032C  309A               	movlw	154
  7012  032D  2BF6               	goto	L83
  7013  032E                     i1l4976:	
  7014                           ;twodimmer_1fd_1sw.c: 563: case '4':
  7015                           
  7016                           
  7017                           ;twodimmer_1fd_1sw.c: 564: TMR3H=0x9C; TMR3L=0x00; T3CONbits.TMR3ON = 1; break;
  7018  032E  309C               	movlw	156
  7019  032F  2C00               	goto	L84
  7020  0330                     i1l4982:	
  7021                           ;twodimmer_1fd_1sw.c: 565: case '5':
  7022                           
  7023                           
  7024                           ;twodimmer_1fd_1sw.c: 566: TMR3H=0x9D; TMR3L=0x90; T3CONbits.TMR3ON = 1; break;
  7025  0330  309D               	movlw	157
  7026  0331  2C05               	goto	L85
  7027  0332                     i1l4986:	
  7028                           ;twodimmer_1fd_1sw.c: 567: case '6':
  7029                           
  7030                           
  7031                           ;twodimmer_1fd_1sw.c: 568: TMR3H=0x9F; TMR3L=0x20; T3CONbits.TMR3ON = 1; break;
  7032  0332  309F               	movlw	159
  7033  0333  2C0A               	goto	L86
  7034  0334                     i1l4990:	
  7035                           ;twodimmer_1fd_1sw.c: 569: case '7':
  7036                           
  7037                           
  7038                           ;twodimmer_1fd_1sw.c: 570: TMR3H=0xA0; TMR3L=0xB0; T3CONbits.TMR3ON = 1; break;
  7039  0334  30A0               	movlw	160
  7040  0335  2C0F               	goto	L87
  7041  0336                     i1l4994:	
  7042                           ;twodimmer_1fd_1sw.c: 571: case '8':
  7043                           
  7044                           
  7045                           ;twodimmer_1fd_1sw.c: 572: TMR3H=0xA2; TMR3L=0x40; T3CONbits.TMR3ON = 1; break;
  7046  0336  30A2               	movlw	162
  7047  0337  2C19               	goto	L88
  7048  0338                     i1l4998:	
  7049                           ;twodimmer_1fd_1sw.c: 573: case '9':
  7050                           
  7051                           
  7052                           ;twodimmer_1fd_1sw.c: 574: TMR3H=0xA3; TMR3L=0xD0; T3CONbits.TMR3ON = 1; break;
  7053  0338  30A3               	movlw	163
  7054  0339  2C32               	goto	L89
  7055  033A                     i1l5004:	
  7056                           ;twodimmer_1fd_1sw.c: 577: }
  7057                           
  7058                           ;twodimmer_1fd_1sw.c: 576: break;
  7059                           
  7060                           ;twodimmer_1fd_1sw.c: 575: default:
  7061                           
  7062                           
  7063                           ; Switch on 2 bytes has been partitioned into a top level switch of size 1, and 1 sub-sw
      +                          itches
  7064                           ; Switch size 1, requested type "space"
  7065                           ; Number of cases is 1, Range of values is 0 to 0
  7066                           ; switch strategies available:
  7067                           ; Name         Instructions Cycles
  7068                           ; simple_byte            4     3 (average)
  7069                           ; direct_byte            8     6 (fixed)
  7070                           ; jumptable            260     6 (fixed)
  7071                           ;	Chosen strategy is simple_byte
  7072  033A  0020               	movlb	0	; select bank0
  7073  033B  0852               	movf	_FAN_SPEED2_1s+1,w
  7074  033C  3A00               	xorlw	0	; case 0
  7075  033D  1903               	skipnz
  7076  033E  2B40               	goto	i1l8416
  7077  033F  2C8C               	goto	i1l419
  7078  0340                     i1l8416:	
  7079                           
  7080                           ; Switch size 1, requested type "space"
  7081                           ; Number of cases is 10, Range of values is 48 to 57
  7082                           ; switch strategies available:
  7083                           ; Name         Instructions Cycles
  7084                           ; direct_byte           29     9 (fixed)
  7085                           ; simple_byte           31    16 (average)
  7086                           ; jumptable            263     9 (fixed)
  7087                           ;	Chosen strategy is direct_byte
  7088  0340  0851               	movf	_FAN_SPEED2_1s,w
  7089  0341  3ED0               	addlw	-48
  7090  0342  1C03               	skipc
  7091  0343  2C8C               	goto	i1l419
  7092  0344  0084               	movwf	4
  7093  0345  300A               	movlw	10
  7094  0346  0204               	subwf	4,w
  7095  0347  1803               	skipnc
  7096  0348  2C8C               	goto	i1l419
  7097  0349  3189               	movlp	high i1S8418
  7098  034A  3504               	lslf	4,w
  7099  034B  3E28               	addlw	low i1S8418
  7100  034C  0082               	movwf	2
  7101                           
  7102                           ;twodimmer_1fd_1sw.c: 578: break;
  7103  034D  2C8C               	goto	i1l419
  7104  034E                     i1l5006:	
  7105                           ;twodimmer_1fd_1sw.c: 582: {
  7106                           ;twodimmer_1fd_1sw.c: 583: case '0':
  7107                           
  7108                           ;twodimmer_1fd_1sw.c: 581: switch(FAN_SPEED2_1s)
  7109                           
  7110                           ;twodimmer_1fd_1sw.c: 579: case '4':
  7111                           
  7112                           
  7113                           ;twodimmer_1fd_1sw.c: 584: TMR3H=0xA5; TMR3L=0x60; T3CONbits.TMR3ON = 1; break;
  7114  034E  30A5               	movlw	165
  7115  034F  2C37               	goto	L90
  7116  0350                     i1l5010:	
  7117                           ;twodimmer_1fd_1sw.c: 585: case '1':
  7118                           
  7119                           
  7120                           ;twodimmer_1fd_1sw.c: 586: TMR3H=0xA6; TMR3L=0xF0; T3CONbits.TMR3ON = 1; break;
  7121  0350  30A6               	movlw	166
  7122  0351  2C3C               	goto	L91
  7123  0352                     i1l5014:	
  7124                           ;twodimmer_1fd_1sw.c: 587: case '2':
  7125                           
  7126                           
  7127                           ;twodimmer_1fd_1sw.c: 588: TMR3H=0xA8; TMR3L=0x80; T3CONbits.TMR3ON = 1; break;
  7128  0352  30A8               	movlw	168
  7129  0353  2C41               	goto	L92
  7130  0354                     i1l5018:	
  7131                           ;twodimmer_1fd_1sw.c: 589: case '3':
  7132                           
  7133                           
  7134                           ;twodimmer_1fd_1sw.c: 590: TMR3H=0xAA; TMR3L=0x10; T3CONbits.TMR3ON = 1; break;
  7135  0354  30AA               	movlw	170
  7136  0355  2C46               	goto	L93
  7137  0356                     i1l5022:	
  7138                           ;twodimmer_1fd_1sw.c: 591: case '4':
  7139                           
  7140                           
  7141                           ;twodimmer_1fd_1sw.c: 592: TMR3H=0xAB; TMR3L=0xA0; T3CONbits.TMR3ON = 1; break;
  7142  0356  30AB               	movlw	171
  7143  0357  2C4B               	goto	L94
  7144  0358                     i1l5026:	
  7145                           ;twodimmer_1fd_1sw.c: 593: case '5':
  7146                           
  7147                           
  7148                           ;twodimmer_1fd_1sw.c: 594: TMR3H=0xAD; TMR3L=0x30; T3CONbits.TMR3ON = 1; break;
  7149  0358  30AD               	movlw	173
  7150  0359  2C50               	goto	L95
  7151  035A                     i1l5030:	
  7152                           ;twodimmer_1fd_1sw.c: 595: case '6':
  7153                           
  7154                           
  7155                           ;twodimmer_1fd_1sw.c: 596: TMR3H=0xAE; TMR3L=0xC0; T3CONbits.TMR3ON = 1; break;
  7156  035A  30AE               	movlw	174
  7157  035B  2C55               	goto	L96
  7158  035C                     i1l5034:	
  7159                           ;twodimmer_1fd_1sw.c: 597: case '7':
  7160                           
  7161                           
  7162                           ;twodimmer_1fd_1sw.c: 598: TMR3H=0xB0; TMR3L=0x50; T3CONbits.TMR3ON = 1; break;
  7163  035C  30B0               	movlw	176
  7164  035D  2C5A               	goto	L97
  7165  035E                     i1l5038:	
  7166                           ;twodimmer_1fd_1sw.c: 599: case '8':
  7167                           
  7168                           
  7169                           ;twodimmer_1fd_1sw.c: 600: TMR3H=0xB1; TMR3L=0xE0; T3CONbits.TMR3ON = 1; break;
  7170  035E  30B1               	movlw	177
  7171  035F  2C5F               	goto	L67
  7172  0360                     i1l5042:	
  7173                           ;twodimmer_1fd_1sw.c: 601: case '9':
  7174                           
  7175                           
  7176                           ;twodimmer_1fd_1sw.c: 602: TMR3H=0xB3; TMR3L=0x70; T3CONbits.TMR3ON = 1; break;
  7177  0360  30B3               	movlw	179
  7178  0361  2BF6               	goto	L83
  7179  0362                     i1l5048:	
  7180                           ;twodimmer_1fd_1sw.c: 605: }
  7181                           
  7182                           ;twodimmer_1fd_1sw.c: 604: break;
  7183                           
  7184                           ;twodimmer_1fd_1sw.c: 603: default:
  7185                           
  7186                           
  7187                           ; Switch on 2 bytes has been partitioned into a top level switch of size 1, and 1 sub-sw
      +                          itches
  7188                           ; Switch size 1, requested type "space"
  7189                           ; Number of cases is 1, Range of values is 0 to 0
  7190                           ; switch strategies available:
  7191                           ; Name         Instructions Cycles
  7192                           ; simple_byte            4     3 (average)
  7193                           ; direct_byte            8     6 (fixed)
  7194                           ; jumptable            260     6 (fixed)
  7195                           ;	Chosen strategy is simple_byte
  7196  0362  0020               	movlb	0	; select bank0
  7197  0363  0852               	movf	_FAN_SPEED2_1s+1,w
  7198  0364  3A00               	xorlw	0	; case 0
  7199  0365  1903               	skipnz
  7200  0366  2B68               	goto	i1l8420
  7201  0367  2C8C               	goto	i1l419
  7202  0368                     i1l8420:	
  7203                           
  7204                           ; Switch size 1, requested type "space"
  7205                           ; Number of cases is 10, Range of values is 48 to 57
  7206                           ; switch strategies available:
  7207                           ; Name         Instructions Cycles
  7208                           ; direct_byte           29     9 (fixed)
  7209                           ; simple_byte           31    16 (average)
  7210                           ; jumptable            263     9 (fixed)
  7211                           ;	Chosen strategy is direct_byte
  7212  0368  0851               	movf	_FAN_SPEED2_1s,w
  7213  0369  3ED0               	addlw	-48
  7214  036A  1C03               	skipc
  7215  036B  2C8C               	goto	i1l419
  7216  036C  0084               	movwf	4
  7217  036D  300A               	movlw	10
  7218  036E  0204               	subwf	4,w
  7219  036F  1803               	skipnc
  7220  0370  2C8C               	goto	i1l419
  7221  0371  3189               	movlp	high i1S8422
  7222  0372  3504               	lslf	4,w
  7223  0373  3E3C               	addlw	low i1S8422
  7224  0374  0082               	movwf	2
  7225                           
  7226                           ;twodimmer_1fd_1sw.c: 606: break;
  7227  0375  2C8C               	goto	i1l419
  7228  0376                     i1l5050:	
  7229                           ;twodimmer_1fd_1sw.c: 610: {
  7230                           ;twodimmer_1fd_1sw.c: 611: case '0':
  7231                           
  7232                           ;twodimmer_1fd_1sw.c: 609: switch(FAN_SPEED2_1s)
  7233                           
  7234                           ;twodimmer_1fd_1sw.c: 607: case '5':
  7235                           
  7236                           
  7237                           ;twodimmer_1fd_1sw.c: 612: TMR3H=0xB5; TMR3L=0x00; T3CONbits.TMR3ON = 1; break;
  7238  0376  30B5               	movlw	181
  7239  0377  2C00               	goto	L84
  7240  0378                     i1l5056:	
  7241                           ;twodimmer_1fd_1sw.c: 613: case '1':
  7242                           
  7243                           
  7244                           ;twodimmer_1fd_1sw.c: 614: TMR3H=0xB6; TMR3L=0x90; T3CONbits.TMR3ON = 1; break;
  7245  0378  30B6               	movlw	182
  7246  0379  2C05               	goto	L85
  7247  037A                     i1l5060:	
  7248                           ;twodimmer_1fd_1sw.c: 615: case '2':
  7249                           
  7250                           
  7251                           ;twodimmer_1fd_1sw.c: 616: TMR3H=0xB8; TMR3L=0x20; T3CONbits.TMR3ON = 1; break;
  7252  037A  30B8               	movlw	184
  7253  037B  2C0A               	goto	L86
  7254  037C                     i1l5064:	
  7255                           ;twodimmer_1fd_1sw.c: 617: case '3':
  7256                           
  7257                           
  7258                           ;twodimmer_1fd_1sw.c: 618: TMR3H=0xB9; TMR3L=0xB0; T3CONbits.TMR3ON = 1; break;
  7259  037C  30B9               	movlw	185
  7260  037D  2C0F               	goto	L87
  7261  037E                     i1l5068:	
  7262                           ;twodimmer_1fd_1sw.c: 619: case '4':
  7263                           
  7264                           
  7265                           ;twodimmer_1fd_1sw.c: 620: TMR3H=0xBB; TMR3L=0x40; T3CONbits.TMR3ON = 1; break;
  7266  037E  30BB               	movlw	187
  7267  037F  2C19               	goto	L88
  7268  0380                     i1l5072:	
  7269                           ;twodimmer_1fd_1sw.c: 621: case '5':
  7270                           
  7271                           
  7272                           ;twodimmer_1fd_1sw.c: 622: TMR3H=0xBC; TMR3L=0xD0; T3CONbits.TMR3ON = 1; break;
  7273  0380  30BC               	movlw	188
  7274  0381  2C32               	goto	L89
  7275  0382                     i1l5076:	
  7276                           ;twodimmer_1fd_1sw.c: 623: case '6':
  7277                           
  7278                           
  7279                           ;twodimmer_1fd_1sw.c: 624: TMR3H=0xBE; TMR3L=0x60; T3CONbits.TMR3ON = 1; break;
  7280  0382  30BE               	movlw	190
  7281  0383  2C37               	goto	L90
  7282  0384                     i1l5080:	
  7283                           ;twodimmer_1fd_1sw.c: 625: case '7':
  7284                           
  7285                           
  7286                           ;twodimmer_1fd_1sw.c: 626: TMR3H=0xBF; TMR3L=0xF0; T3CONbits.TMR3ON = 1; break;
  7287  0384  30BF               	movlw	191
  7288  0385  2C3C               	goto	L91
  7289  0386                     i1l5084:	
  7290                           ;twodimmer_1fd_1sw.c: 627: case '8':
  7291                           
  7292                           
  7293                           ;twodimmer_1fd_1sw.c: 628: TMR3H=0xC1; TMR3L=0x80; T3CONbits.TMR3ON = 1; break;
  7294  0386  30C1               	movlw	193
  7295  0387  2C41               	goto	L92
  7296  0388                     i1l5088:	
  7297                           ;twodimmer_1fd_1sw.c: 629: case '9':
  7298                           
  7299                           
  7300                           ;twodimmer_1fd_1sw.c: 630: TMR3H=0xC3; TMR3L=0x10; T3CONbits.TMR3ON = 1; break;
  7301  0388  30C3               	movlw	195
  7302  0389  2C46               	goto	L93
  7303  038A                     i1l5094:	
  7304                           ;twodimmer_1fd_1sw.c: 633: }
  7305                           
  7306                           ;twodimmer_1fd_1sw.c: 632: break;
  7307                           
  7308                           ;twodimmer_1fd_1sw.c: 631: default:
  7309                           
  7310                           
  7311                           ; Switch on 2 bytes has been partitioned into a top level switch of size 1, and 1 sub-sw
      +                          itches
  7312                           ; Switch size 1, requested type "space"
  7313                           ; Number of cases is 1, Range of values is 0 to 0
  7314                           ; switch strategies available:
  7315                           ; Name         Instructions Cycles
  7316                           ; simple_byte            4     3 (average)
  7317                           ; direct_byte            8     6 (fixed)
  7318                           ; jumptable            260     6 (fixed)
  7319                           ;	Chosen strategy is simple_byte
  7320  038A  0020               	movlb	0	; select bank0
  7321  038B  0852               	movf	_FAN_SPEED2_1s+1,w
  7322  038C  3A00               	xorlw	0	; case 0
  7323  038D  1903               	skipnz
  7324  038E  2B90               	goto	i1l8424
  7325  038F  2C8C               	goto	i1l419
  7326  0390                     i1l8424:	
  7327                           
  7328                           ; Switch size 1, requested type "space"
  7329                           ; Number of cases is 10, Range of values is 48 to 57
  7330                           ; switch strategies available:
  7331                           ; Name         Instructions Cycles
  7332                           ; direct_byte           29     9 (fixed)
  7333                           ; simple_byte           31    16 (average)
  7334                           ; jumptable            263     9 (fixed)
  7335                           ;	Chosen strategy is direct_byte
  7336  0390  0851               	movf	_FAN_SPEED2_1s,w
  7337  0391  3ED0               	addlw	-48
  7338  0392  1C03               	skipc
  7339  0393  2C8C               	goto	i1l419
  7340  0394  0084               	movwf	4
  7341  0395  300A               	movlw	10
  7342  0396  0204               	subwf	4,w
  7343  0397  1803               	skipnc
  7344  0398  2C8C               	goto	i1l419
  7345  0399  3189               	movlp	high i1S8426
  7346  039A  3504               	lslf	4,w
  7347  039B  3E50               	addlw	low i1S8426
  7348  039C  0082               	movwf	2
  7349                           
  7350                           ;twodimmer_1fd_1sw.c: 634: break;
  7351  039D  2C8C               	goto	i1l419
  7352  039E                     i1l5096:	
  7353                           ;twodimmer_1fd_1sw.c: 638: {
  7354                           ;twodimmer_1fd_1sw.c: 639: case '0':
  7355                           
  7356                           ;twodimmer_1fd_1sw.c: 637: switch(FAN_SPEED2_1s)
  7357                           
  7358                           ;twodimmer_1fd_1sw.c: 635: case '6':
  7359                           
  7360                           
  7361                           ;twodimmer_1fd_1sw.c: 640: TMR3H=0xC4; TMR3L=0xA0; T3CONbits.TMR3ON = 1; break;
  7362  039E  30C4               	movlw	196
  7363  039F  2C4B               	goto	L94
  7364  03A0                     i1l5100:	
  7365                           ;twodimmer_1fd_1sw.c: 641: case '1':
  7366                           
  7367                           
  7368                           ;twodimmer_1fd_1sw.c: 642: TMR3H=0xC6; TMR3L=0x30; T3CONbits.TMR3ON = 1; break;
  7369  03A0  30C6               	movlw	198
  7370  03A1  2C50               	goto	L95
  7371  03A2                     i1l5104:	
  7372                           ;twodimmer_1fd_1sw.c: 643: case '2':
  7373                           
  7374                           
  7375                           ;twodimmer_1fd_1sw.c: 644: TMR3H=0xC7; TMR3L=0xC0; T3CONbits.TMR3ON = 1; break;
  7376  03A2  30C7               	movlw	199
  7377  03A3  2C55               	goto	L96
  7378  03A4                     i1l5108:	
  7379                           ;twodimmer_1fd_1sw.c: 645: case '3':
  7380                           
  7381                           
  7382                           ;twodimmer_1fd_1sw.c: 646: TMR3H=0xC9; TMR3L=0x50; T3CONbits.TMR3ON = 1; break;
  7383  03A4  30C9               	movlw	201
  7384  03A5  2C5A               	goto	L97
  7385  03A6                     i1l5112:	
  7386                           ;twodimmer_1fd_1sw.c: 647: case '4':
  7387                           
  7388                           
  7389                           ;twodimmer_1fd_1sw.c: 648: TMR3H=0xCA; TMR3L=0xE0; T3CONbits.TMR3ON = 1; break;
  7390  03A6  30CA               	movlw	202
  7391  03A7  2C5F               	goto	L67
  7392  03A8                     i1l5116:	
  7393                           ;twodimmer_1fd_1sw.c: 649: case '5':
  7394                           
  7395                           
  7396                           ;twodimmer_1fd_1sw.c: 650: TMR3H=0xCC; TMR3L=0x70; T3CONbits.TMR3ON = 1; break;
  7397  03A8  30CC               	movlw	204
  7398  03A9  2BF6               	goto	L83
  7399  03AA                     i1l5120:	
  7400                           ;twodimmer_1fd_1sw.c: 651: case '6':
  7401                           
  7402                           
  7403                           ;twodimmer_1fd_1sw.c: 652: TMR3H=0xCE; TMR3L=0x00; T3CONbits.TMR3ON = 1; break;
  7404  03AA  30CE               	movlw	206
  7405  03AB  2C00               	goto	L84
  7406  03AC                     i1l5126:	
  7407                           ;twodimmer_1fd_1sw.c: 653: case '7':
  7408                           
  7409                           
  7410                           ;twodimmer_1fd_1sw.c: 654: TMR3H=0xCF; TMR3L=0x90; T3CONbits.TMR3ON = 1; break;
  7411  03AC  30CF               	movlw	207
  7412  03AD  2C05               	goto	L85
  7413  03AE                     i1l5130:	
  7414                           ;twodimmer_1fd_1sw.c: 655: case '8':
  7415                           
  7416                           
  7417                           ;twodimmer_1fd_1sw.c: 656: TMR3H=0xD1; TMR3L=0x20; T3CONbits.TMR3ON = 1; break;
  7418  03AE  30D1               	movlw	209
  7419  03AF  2C0A               	goto	L86
  7420  03B0                     i1l5134:	
  7421                           ;twodimmer_1fd_1sw.c: 657: case '9':
  7422                           
  7423                           
  7424                           ;twodimmer_1fd_1sw.c: 658: TMR3H=0xD2; TMR3L=0xB0; T3CONbits.TMR3ON = 1; break;
  7425  03B0  30D2               	movlw	210
  7426  03B1  2C0F               	goto	L87
  7427  03B2                     i1l5140:	
  7428                           ;twodimmer_1fd_1sw.c: 661: }
  7429                           
  7430                           ;twodimmer_1fd_1sw.c: 660: break;
  7431                           
  7432                           ;twodimmer_1fd_1sw.c: 659: default:
  7433                           
  7434                           
  7435                           ; Switch on 2 bytes has been partitioned into a top level switch of size 1, and 1 sub-sw
      +                          itches
  7436                           ; Switch size 1, requested type "space"
  7437                           ; Number of cases is 1, Range of values is 0 to 0
  7438                           ; switch strategies available:
  7439                           ; Name         Instructions Cycles
  7440                           ; simple_byte            4     3 (average)
  7441                           ; direct_byte            8     6 (fixed)
  7442                           ; jumptable            260     6 (fixed)
  7443                           ;	Chosen strategy is simple_byte
  7444  03B2  0020               	movlb	0	; select bank0
  7445  03B3  0852               	movf	_FAN_SPEED2_1s+1,w
  7446  03B4  3A00               	xorlw	0	; case 0
  7447  03B5  1903               	skipnz
  7448  03B6  2BB8               	goto	i1l8428
  7449  03B7  2C8C               	goto	i1l419
  7450  03B8                     i1l8428:	
  7451                           
  7452                           ; Switch size 1, requested type "space"
  7453                           ; Number of cases is 10, Range of values is 48 to 57
  7454                           ; switch strategies available:
  7455                           ; Name         Instructions Cycles
  7456                           ; direct_byte           29     9 (fixed)
  7457                           ; simple_byte           31    16 (average)
  7458                           ; jumptable            263     9 (fixed)
  7459                           ;	Chosen strategy is direct_byte
  7460  03B8  0851               	movf	_FAN_SPEED2_1s,w
  7461  03B9  3ED0               	addlw	-48
  7462  03BA  1C03               	skipc
  7463  03BB  2C8C               	goto	i1l419
  7464  03BC  0084               	movwf	4
  7465  03BD  300A               	movlw	10
  7466  03BE  0204               	subwf	4,w
  7467  03BF  1803               	skipnc
  7468  03C0  2C8C               	goto	i1l419
  7469  03C1  3189               	movlp	high i1S8430
  7470  03C2  3504               	lslf	4,w
  7471  03C3  3E64               	addlw	low i1S8430
  7472  03C4  0082               	movwf	2
  7473                           
  7474                           ;twodimmer_1fd_1sw.c: 662: break;
  7475  03C5  2C8C               	goto	i1l419
  7476  03C6                     i1l5142:	
  7477                           ;twodimmer_1fd_1sw.c: 666: {
  7478                           ;twodimmer_1fd_1sw.c: 667: case '0':
  7479                           
  7480                           ;twodimmer_1fd_1sw.c: 665: switch(FAN_SPEED2_1s)
  7481                           
  7482                           ;twodimmer_1fd_1sw.c: 663: case '7':
  7483                           
  7484                           
  7485                           ;twodimmer_1fd_1sw.c: 668: TMR3H=0xD4; TMR3L=0x40; T3CONbits.TMR3ON = 1; break;
  7486  03C6  30D4               	movlw	212
  7487  03C7  2C19               	goto	L88
  7488  03C8                     i1l5146:	
  7489                           ;twodimmer_1fd_1sw.c: 669: case '1':
  7490                           
  7491                           
  7492                           ;twodimmer_1fd_1sw.c: 670: TMR3H=0xD5; TMR3L=0xD0; T3CONbits.TMR3ON = 1; break;
  7493  03C8  30D5               	movlw	213
  7494  03C9  2C32               	goto	L89
  7495  03CA                     i1l5150:	
  7496                           ;twodimmer_1fd_1sw.c: 671: case '2':
  7497                           
  7498                           
  7499                           ;twodimmer_1fd_1sw.c: 672: TMR3H=0xD7; TMR3L=0x60; T3CONbits.TMR3ON = 1; break;
  7500  03CA  30D7               	movlw	215
  7501  03CB  2C37               	goto	L90
  7502  03CC                     i1l5154:	
  7503                           ;twodimmer_1fd_1sw.c: 673: case '3':
  7504                           
  7505                           
  7506                           ;twodimmer_1fd_1sw.c: 674: TMR3H=0xD8; TMR3L=0xF0; T3CONbits.TMR3ON = 1; break;
  7507  03CC  30D8               	movlw	216
  7508  03CD  2C3C               	goto	L91
  7509  03CE                     i1l5158:	
  7510                           ;twodimmer_1fd_1sw.c: 675: case '4':
  7511                           
  7512                           
  7513                           ;twodimmer_1fd_1sw.c: 676: TMR3H=0xDA; TMR3L=0x80; T3CONbits.TMR3ON = 1; break;
  7514  03CE  30DA               	movlw	218
  7515  03CF  2C41               	goto	L92
  7516  03D0                     i1l5162:	
  7517                           ;twodimmer_1fd_1sw.c: 677: case '5':
  7518                           
  7519                           
  7520                           ;twodimmer_1fd_1sw.c: 678: TMR3H=0xDC; TMR3L=0x10; T3CONbits.TMR3ON = 1; break;
  7521  03D0  30DC               	movlw	220
  7522  03D1  2C46               	goto	L93
  7523  03D2                     i1l5166:	
  7524                           ;twodimmer_1fd_1sw.c: 679: case '6':
  7525                           
  7526                           
  7527                           ;twodimmer_1fd_1sw.c: 680: TMR3H=0xDD; TMR3L=0xA0; T3CONbits.TMR3ON = 1; break;
  7528  03D2  30DD               	movlw	221
  7529  03D3  2C4B               	goto	L94
  7530  03D4                     i1l5170:	
  7531                           ;twodimmer_1fd_1sw.c: 681: case '7':
  7532                           
  7533                           
  7534                           ;twodimmer_1fd_1sw.c: 682: TMR3H=0xDF; TMR3L=0x30; T3CONbits.TMR3ON = 1; break;
  7535  03D4  30DF               	movlw	223
  7536  03D5  2C50               	goto	L95
  7537  03D6                     i1l5174:	
  7538                           ;twodimmer_1fd_1sw.c: 683: case '8':
  7539                           
  7540                           
  7541                           ;twodimmer_1fd_1sw.c: 684: TMR3H=0xE0; TMR3L=0xC0; T3CONbits.TMR3ON = 1; break;
  7542  03D6  30E0               	movlw	224
  7543  03D7  2C55               	goto	L96
  7544  03D8                     i1l5178:	
  7545                           ;twodimmer_1fd_1sw.c: 685: case '9':
  7546                           
  7547                           
  7548                           ;twodimmer_1fd_1sw.c: 686: TMR3H=0xE2; TMR3L=0x50; T3CONbits.TMR3ON = 1; break;
  7549  03D8  30E2               	movlw	226
  7550  03D9  2C5A               	goto	L97
  7551  03DA                     i1l5184:	
  7552                           ;twodimmer_1fd_1sw.c: 689: }
  7553                           
  7554                           ;twodimmer_1fd_1sw.c: 688: break;
  7555                           
  7556                           ;twodimmer_1fd_1sw.c: 687: default:
  7557                           
  7558                           
  7559                           ; Switch on 2 bytes has been partitioned into a top level switch of size 1, and 1 sub-sw
      +                          itches
  7560                           ; Switch size 1, requested type "space"
  7561                           ; Number of cases is 1, Range of values is 0 to 0
  7562                           ; switch strategies available:
  7563                           ; Name         Instructions Cycles
  7564                           ; simple_byte            4     3 (average)
  7565                           ; direct_byte            8     6 (fixed)
  7566                           ; jumptable            260     6 (fixed)
  7567                           ;	Chosen strategy is simple_byte
  7568  03DA  0020               	movlb	0	; select bank0
  7569  03DB  0852               	movf	_FAN_SPEED2_1s+1,w
  7570  03DC  3A00               	xorlw	0	; case 0
  7571  03DD  1903               	skipnz
  7572  03DE  2BE0               	goto	i1l8432
  7573  03DF  2C8C               	goto	i1l419
  7574  03E0                     i1l8432:	
  7575                           
  7576                           ; Switch size 1, requested type "space"
  7577                           ; Number of cases is 10, Range of values is 48 to 57
  7578                           ; switch strategies available:
  7579                           ; Name         Instructions Cycles
  7580                           ; direct_byte           29     9 (fixed)
  7581                           ; simple_byte           31    16 (average)
  7582                           ; jumptable            263     9 (fixed)
  7583                           ;	Chosen strategy is direct_byte
  7584  03E0  0851               	movf	_FAN_SPEED2_1s,w
  7585  03E1  3ED0               	addlw	-48
  7586  03E2  1C03               	skipc
  7587  03E3  2C8C               	goto	i1l419
  7588  03E4  0084               	movwf	4
  7589  03E5  300A               	movlw	10
  7590  03E6  0204               	subwf	4,w
  7591  03E7  1803               	skipnc
  7592  03E8  2C8C               	goto	i1l419
  7593  03E9  3189               	movlp	high i1S8434
  7594  03EA  3504               	lslf	4,w
  7595  03EB  3E78               	addlw	low i1S8434
  7596  03EC  0082               	movwf	2
  7597                           
  7598                           ;twodimmer_1fd_1sw.c: 690: break;
  7599  03ED  2C8C               	goto	i1l419
  7600  03EE                     i1l5186:	
  7601                           ;twodimmer_1fd_1sw.c: 694: {
  7602                           ;twodimmer_1fd_1sw.c: 695: case '0':
  7603                           
  7604                           ;twodimmer_1fd_1sw.c: 693: switch(FAN_SPEED2_1s)
  7605                           
  7606                           ;twodimmer_1fd_1sw.c: 691: case '8':
  7607                           
  7608                           
  7609                           ;twodimmer_1fd_1sw.c: 696: TMR3H=0xE3; TMR3L=0xE0; T3CONbits.TMR3ON = 1; break;
  7610  03EE  30E3               	movlw	227
  7611  03EF  2C5F               	goto	L67
  7612  03F0                     i1l5190:	
  7613                           ;twodimmer_1fd_1sw.c: 697: case '1':
  7614                           
  7615                           
  7616                           ;twodimmer_1fd_1sw.c: 698: TMR3H=0xE4; TMR3L=0xA8; T3CONbits.TMR3ON = 1; break;
  7617  03F0  30E4               	movlw	228
  7618  03F1                     L105:	
  7619  03F1  0028               	movlb	8	; select bank8
  7620  03F2  0092               	movwf	18	;volatile
  7621  03F3  30A8               	movlw	168
  7622  03F4  2C62               	goto	L5
  7623  03F5                     i1l5194:	
  7624                           ;twodimmer_1fd_1sw.c: 699: case '2':
  7625                           
  7626                           
  7627                           ;twodimmer_1fd_1sw.c: 700: TMR3H=0xE5; TMR3L=0x70; T3CONbits.TMR3ON = 1; break;
  7628  03F5  30E5               	movlw	229
  7629  03F6                     L83:	
  7630  03F6  0028               	movlb	8	; select bank8
  7631  03F7  0092               	movwf	18	;volatile
  7632  03F8  3070               	movlw	112
  7633  03F9  2C62               	goto	L5
  7634  03FA                     i1l5198:	
  7635                           ;twodimmer_1fd_1sw.c: 701: case '3':
  7636                           
  7637                           
  7638                           ;twodimmer_1fd_1sw.c: 702: TMR3H=0xE6; TMR3L=0x38; T3CONbits.TMR3ON = 1; break;
  7639  03FA  30E6               	movlw	230
  7640  03FB  0028               	movlb	8	; select bank8
  7641  03FC  0092               	movwf	18	;volatile
  7642  03FD  3038               	movlw	56
  7643  03FE  2C62               	goto	L5
  7644  03FF                     i1l5202:	
  7645                           ;twodimmer_1fd_1sw.c: 703: case '4':
  7646                           
  7647                           
  7648                           ;twodimmer_1fd_1sw.c: 704: TMR3H=0xE7; TMR3L=0x00; T3CONbits.TMR3ON = 1; break;
  7649  03FF  30E7               	movlw	231
  7650  0400                     L84:	
  7651  0400  0028               	movlb	8	; select bank8
  7652  0401  0092               	movwf	18	;volatile
  7653  0402  0191               	clrf	17	;volatile
  7654  0403  2C63               	goto	i1l5270
  7655  0404                     i1l5208:	
  7656                           ;twodimmer_1fd_1sw.c: 705: case '5':
  7657                           
  7658                           
  7659                           ;twodimmer_1fd_1sw.c: 706: TMR3H=0xE8; TMR3L=0x90; T3CONbits.TMR3ON = 1; break;
  7660  0404  30E8               	movlw	232
  7661  0405                     L85:	
  7662  0405  0028               	movlb	8	; select bank8
  7663  0406  0092               	movwf	18	;volatile
  7664  0407  3090               	movlw	144
  7665  0408  2C62               	goto	L5
  7666  0409                     i1l5212:	
  7667                           ;twodimmer_1fd_1sw.c: 707: case '6':
  7668                           
  7669                           
  7670                           ;twodimmer_1fd_1sw.c: 708: TMR3H=0xEA; TMR3L=0x20; T3CONbits.TMR3ON = 1; break;
  7671  0409  30EA               	movlw	234
  7672  040A                     L86:	
  7673  040A  0028               	movlb	8	; select bank8
  7674  040B  0092               	movwf	18	;volatile
  7675  040C  3020               	movlw	32
  7676  040D  2C62               	goto	L5
  7677  040E                     i1l5216:	
  7678                           ;twodimmer_1fd_1sw.c: 709: case '7':
  7679                           
  7680                           
  7681                           ;twodimmer_1fd_1sw.c: 710: TMR3H=0xEB; TMR3L=0xB0; T3CONbits.TMR3ON = 1; break;
  7682  040E  30EB               	movlw	235
  7683  040F                     L87:	
  7684  040F  0028               	movlb	8	; select bank8
  7685  0410  0092               	movwf	18	;volatile
  7686  0411  30B0               	movlw	176
  7687  0412  2C62               	goto	L5
  7688  0413                     i1l5220:	
  7689                           ;twodimmer_1fd_1sw.c: 711: case '8':
  7690                           
  7691                           
  7692                           ;twodimmer_1fd_1sw.c: 712: TMR3H=0xEC; TMR3L=0x78; T3CONbits.TMR3ON = 1; break;
  7693  0413  30EC               	movlw	236
  7694  0414                     L107:	
  7695  0414  0028               	movlb	8	; select bank8
  7696  0415  0092               	movwf	18	;volatile
  7697  0416  3078               	movlw	120
  7698  0417  2C62               	goto	L5
  7699  0418                     i1l5224:	
  7700                           ;twodimmer_1fd_1sw.c: 713: case '9':
  7701                           
  7702                           
  7703                           ;twodimmer_1fd_1sw.c: 714: TMR3H=0xED; TMR3L=0x40; T3CONbits.TMR3ON = 1; break;
  7704  0418  30ED               	movlw	237
  7705  0419                     L88:	
  7706  0419  0028               	movlb	8	; select bank8
  7707  041A  0092               	movwf	18	;volatile
  7708  041B  3040               	movlw	64
  7709  041C  2C62               	goto	L5
  7710  041D                     i1l5230:	
  7711                           ;twodimmer_1fd_1sw.c: 717: }
  7712                           
  7713                           ;twodimmer_1fd_1sw.c: 716: break;
  7714                           
  7715                           ;twodimmer_1fd_1sw.c: 715: default:
  7716                           
  7717                           
  7718                           ; Switch on 2 bytes has been partitioned into a top level switch of size 1, and 1 sub-sw
      +                          itches
  7719                           ; Switch size 1, requested type "space"
  7720                           ; Number of cases is 1, Range of values is 0 to 0
  7721                           ; switch strategies available:
  7722                           ; Name         Instructions Cycles
  7723                           ; simple_byte            4     3 (average)
  7724                           ; direct_byte            8     6 (fixed)
  7725                           ; jumptable            260     6 (fixed)
  7726                           ;	Chosen strategy is simple_byte
  7727  041D  0020               	movlb	0	; select bank0
  7728  041E  0852               	movf	_FAN_SPEED2_1s+1,w
  7729  041F  3A00               	xorlw	0	; case 0
  7730  0420  1903               	skipnz
  7731  0421  2C23               	goto	i1l8436
  7732  0422  2C8C               	goto	i1l419
  7733  0423                     i1l8436:	
  7734                           
  7735                           ; Switch size 1, requested type "space"
  7736                           ; Number of cases is 10, Range of values is 48 to 57
  7737                           ; switch strategies available:
  7738                           ; Name         Instructions Cycles
  7739                           ; direct_byte           29     9 (fixed)
  7740                           ; simple_byte           31    16 (average)
  7741                           ; jumptable            263     9 (fixed)
  7742                           ;	Chosen strategy is direct_byte
  7743  0423  0851               	movf	_FAN_SPEED2_1s,w
  7744  0424  3ED0               	addlw	-48
  7745  0425  1C03               	skipc
  7746  0426  2C8C               	goto	i1l419
  7747  0427  0084               	movwf	4
  7748  0428  300A               	movlw	10
  7749  0429  0204               	subwf	4,w
  7750  042A  1803               	skipnc
  7751  042B  2C8C               	goto	i1l419
  7752  042C  3189               	movlp	high i1S8438
  7753  042D  3504               	lslf	4,w
  7754  042E  3E8C               	addlw	low i1S8438
  7755  042F  0082               	movwf	2
  7756                           
  7757                           ;twodimmer_1fd_1sw.c: 718: break;
  7758  0430  2C8C               	goto	i1l419
  7759  0431                     i1l5232:	
  7760                           ;twodimmer_1fd_1sw.c: 722: {
  7761                           ;twodimmer_1fd_1sw.c: 723: case '0':
  7762                           
  7763                           ;twodimmer_1fd_1sw.c: 721: switch(FAN_SPEED2_1s)
  7764                           
  7765                           ;twodimmer_1fd_1sw.c: 719: case '9':
  7766                           
  7767                           
  7768                           ;twodimmer_1fd_1sw.c: 724: TMR3H=0xEE; TMR3L=0xD0; T3CONbits.TMR3ON = 1; break;
  7769  0431  30EE               	movlw	238
  7770  0432                     L89:	
  7771  0432  0028               	movlb	8	; select bank8
  7772  0433  0092               	movwf	18	;volatile
  7773  0434  30D0               	movlw	208
  7774  0435  2C62               	goto	L5
  7775  0436                     i1l5236:	
  7776                           ;twodimmer_1fd_1sw.c: 725: case '1':
  7777                           
  7778                           
  7779                           ;twodimmer_1fd_1sw.c: 726: TMR3H=0xF0; TMR3L=0x60; T3CONbits.TMR3ON = 1; break;
  7780  0436  30F0               	movlw	240
  7781  0437                     L90:	
  7782  0437  0028               	movlb	8	; select bank8
  7783  0438  0092               	movwf	18	;volatile
  7784  0439  3060               	movlw	96
  7785  043A  2C62               	goto	L5
  7786  043B                     i1l5240:	
  7787                           ;twodimmer_1fd_1sw.c: 727: case '2':
  7788                           
  7789                           
  7790                           ;twodimmer_1fd_1sw.c: 728: TMR3H=0xF1; TMR3L=0xF0; T3CONbits.TMR3ON = 1; break;
  7791  043B  30F1               	movlw	241
  7792  043C                     L91:	
  7793  043C  0028               	movlb	8	; select bank8
  7794  043D  0092               	movwf	18	;volatile
  7795  043E  30F0               	movlw	240
  7796  043F  2C62               	goto	L5
  7797  0440                     i1l5244:	
  7798                           ;twodimmer_1fd_1sw.c: 729: case '3':
  7799                           
  7800                           
  7801                           ;twodimmer_1fd_1sw.c: 730: TMR3H=0xF3; TMR3L=0x80; T3CONbits.TMR3ON = 1; break;
  7802  0440  30F3               	movlw	243
  7803  0441                     L92:	
  7804  0441  0028               	movlb	8	; select bank8
  7805  0442  0092               	movwf	18	;volatile
  7806  0443  3080               	movlw	128
  7807  0444  2C62               	goto	L5
  7808  0445                     i1l5248:	
  7809                           ;twodimmer_1fd_1sw.c: 731: case '4':
  7810                           
  7811                           
  7812                           ;twodimmer_1fd_1sw.c: 732: TMR3H=0xF5; TMR3L=0x10; T3CONbits.TMR3ON = 1; break;
  7813  0445  30F5               	movlw	245
  7814  0446                     L93:	
  7815  0446  0028               	movlb	8	; select bank8
  7816  0447  0092               	movwf	18	;volatile
  7817  0448  3010               	movlw	16
  7818  0449  2C62               	goto	L5
  7819  044A                     i1l5252:	
  7820                           ;twodimmer_1fd_1sw.c: 733: case '5':
  7821                           
  7822                           
  7823                           ;twodimmer_1fd_1sw.c: 734: TMR3H=0xF6; TMR3L=0xA0; T3CONbits.TMR3ON = 1; break;
  7824  044A  30F6               	movlw	246
  7825  044B                     L94:	
  7826  044B  0028               	movlb	8	; select bank8
  7827  044C  0092               	movwf	18	;volatile
  7828  044D  30A0               	movlw	160
  7829  044E  2C62               	goto	L5
  7830  044F                     i1l5256:	
  7831                           ;twodimmer_1fd_1sw.c: 735: case '6':
  7832                           
  7833                           
  7834                           ;twodimmer_1fd_1sw.c: 736: TMR3H=0xF8; TMR3L=0x30; T3CONbits.TMR3ON = 1; break;
  7835  044F  30F8               	movlw	248
  7836  0450                     L95:	
  7837  0450  0028               	movlb	8	; select bank8
  7838  0451  0092               	movwf	18	;volatile
  7839  0452  3030               	movlw	48
  7840  0453  2C62               	goto	L5
  7841  0454                     i1l5260:	
  7842                           ;twodimmer_1fd_1sw.c: 737: case '7':
  7843                           
  7844                           
  7845                           ;twodimmer_1fd_1sw.c: 738: TMR3H=0xF9; TMR3L=0xC0; T3CONbits.TMR3ON = 1; break;
  7846  0454  30F9               	movlw	249
  7847  0455                     L96:	
  7848  0455  0028               	movlb	8	; select bank8
  7849  0456  0092               	movwf	18	;volatile
  7850  0457  30C0               	movlw	192
  7851  0458  2C62               	goto	L5
  7852  0459                     i1l5264:	
  7853                           ;twodimmer_1fd_1sw.c: 739: case '8':
  7854                           
  7855                           
  7856                           ;twodimmer_1fd_1sw.c: 740: TMR3H=0xFB; TMR3L=0x50; T3CONbits.TMR3ON = 1; break;
  7857  0459  30FB               	movlw	251
  7858  045A                     L97:	
  7859  045A  0028               	movlb	8	; select bank8
  7860  045B  0092               	movwf	18	;volatile
  7861  045C  3050               	movlw	80
  7862  045D  2C62               	goto	L5
  7863  045E                     i1l5268:	
  7864                           ;twodimmer_1fd_1sw.c: 741: case '9':
  7865                           
  7866                           
  7867                           ;twodimmer_1fd_1sw.c: 742: TMR3H=0xFC; TMR3L=0xE0; T3CONbits.TMR3ON = 1; break;
  7868  045E  30FC               	movlw	252
  7869  045F                     L67:	
  7870  045F  0028               	movlb	8	; select bank8
  7871  0460  0092               	movwf	18	;volatile
  7872  0461  30E0               	movlw	224
  7873  0462                     L5:	
  7874  0462  0091               	movwf	17	;volatile
  7875  0463                     i1l5270:	
  7876  0463  1413               	bsf	19,0	;volatile
  7877                           
  7878                           ;twodimmer_1fd_1sw.c: 745: }
  7879                           
  7880                           ;twodimmer_1fd_1sw.c: 744: break;
  7881                           
  7882                           ;twodimmer_1fd_1sw.c: 743: default:
  7883  0464  2C8C               	goto	i1l419
  7884  0465                     i1l5274:	
  7885                           
  7886                           ; Switch on 2 bytes has been partitioned into a top level switch of size 1, and 1 sub-sw
      +                          itches
  7887                           ; Switch size 1, requested type "space"
  7888                           ; Number of cases is 1, Range of values is 0 to 0
  7889                           ; switch strategies available:
  7890                           ; Name         Instructions Cycles
  7891                           ; simple_byte            4     3 (average)
  7892                           ; direct_byte            8     6 (fixed)
  7893                           ; jumptable            260     6 (fixed)
  7894                           ;	Chosen strategy is simple_byte
  7895  0465  0020               	movlb	0	; select bank0
  7896  0466  0852               	movf	_FAN_SPEED2_1s+1,w
  7897  0467  3A00               	xorlw	0	; case 0
  7898  0468  1903               	skipnz
  7899  0469  2C6B               	goto	i1l8440
  7900  046A  2C8C               	goto	i1l419
  7901  046B                     i1l8440:	
  7902                           
  7903                           ; Switch size 1, requested type "space"
  7904                           ; Number of cases is 10, Range of values is 48 to 57
  7905                           ; switch strategies available:
  7906                           ; Name         Instructions Cycles
  7907                           ; direct_byte           29     9 (fixed)
  7908                           ; simple_byte           31    16 (average)
  7909                           ; jumptable            263     9 (fixed)
  7910                           ;	Chosen strategy is direct_byte
  7911  046B  0851               	movf	_FAN_SPEED2_1s,w
  7912  046C  3ED0               	addlw	-48
  7913  046D  1C03               	skipc
  7914  046E  2C8C               	goto	i1l419
  7915  046F  0084               	movwf	4
  7916  0470  300A               	movlw	10
  7917  0471  0204               	subwf	4,w
  7918  0472  1803               	skipnc
  7919  0473  2C8C               	goto	i1l419
  7920  0474  3189               	movlp	high i1S8442
  7921  0475  3504               	lslf	4,w
  7922  0476  3EA0               	addlw	low i1S8442
  7923  0477  0082               	movwf	2
  7924                           
  7925                           ;twodimmer_1fd_1sw.c: 749: }
  7926                           
  7927                           ;twodimmer_1fd_1sw.c: 748: break;
  7928                           
  7929                           ;twodimmer_1fd_1sw.c: 747: default:
  7930                           
  7931                           ;twodimmer_1fd_1sw.c: 746: break;
  7932  0478  2C8C               	goto	i1l419
  7933  0479                     i1l5278:	
  7934                           
  7935                           ; Switch on 2 bytes has been partitioned into a top level switch of size 1, and 1 sub-sw
      +                          itches
  7936                           ; Switch size 1, requested type "space"
  7937                           ; Number of cases is 1, Range of values is 0 to 0
  7938                           ; switch strategies available:
  7939                           ; Name         Instructions Cycles
  7940                           ; simple_byte            4     3 (average)
  7941                           ; direct_byte            8     6 (fixed)
  7942                           ; jumptable            260     6 (fixed)
  7943                           ;	Chosen strategy is simple_byte
  7944  0479  0021               	movlb	1	; select bank1
  7945  047A  086B               	movf	(_FAN_SPEED2_10s+1)^(0+128),w
  7946  047B  3A00               	xorlw	0	; case 0
  7947  047C  1903               	skipnz
  7948  047D  2C7F               	goto	i1l8444
  7949  047E  2C8C               	goto	i1l419
  7950  047F                     i1l8444:	
  7951                           
  7952                           ; Switch size 1, requested type "space"
  7953                           ; Number of cases is 10, Range of values is 48 to 57
  7954                           ; switch strategies available:
  7955                           ; Name         Instructions Cycles
  7956                           ; direct_byte           29     9 (fixed)
  7957                           ; simple_byte           31    16 (average)
  7958                           ; jumptable            263     9 (fixed)
  7959                           ;	Chosen strategy is direct_byte
  7960  047F  086A               	movf	_FAN_SPEED2_10s^(0+128),w
  7961  0480  3ED0               	addlw	-48
  7962  0481  1C03               	skipc
  7963  0482  2C8C               	goto	i1l419
  7964  0483  0084               	movwf	4
  7965  0484  300A               	movlw	10
  7966  0485  0204               	subwf	4,w
  7967  0486  1803               	skipnc
  7968  0487  2C8C               	goto	i1l419
  7969  0488  3189               	movlp	high i1S8446
  7970  0489  3504               	lslf	4,w
  7971  048A  3EB4               	addlw	low i1S8446
  7972  048B  0082               	movwf	2
  7973  048C                     i1l419:	
  7974                           
  7975                           ;twodimmer_1fd_1sw.c: 750: }
  7976                           ;twodimmer_1fd_1sw.c: 751: PIR3bits.CCP3IF = 0;
  7977  048C  0020               	movlb	0	; select bank0
  7978  048D  1213               	bcf	19,4	;volatile
  7979  048E                     i1l563:	
  7980  048E  0871               	movf	??_isr+1,w
  7981  048F  00FF               	movwf	127
  7982  0490  107E               	bcf	126,0	;clear compiler interrupt flag (level 1)
  7983  0491  0009               	retfie
  7984  0492                     __end_of_isr:	
  7985  007E                     btemp	set	126	;btemp
  7986  007E                     int$flags	set	126
  7987  007E                     wtemp0	set	126
  7988                           
  7989                           	psect	swtext1
  7990  0800                     __pswtext1:	
  7991  0800                     i1S8362:	
  7992  0800  3180  289F         	ljmp	i1l4364
  7993  0802  3180  28A1         	ljmp	i1l4368
  7994  0804  3180  28A3         	ljmp	i1l4372
  7995  0806  3180  28A7         	ljmp	i1l4376
  7996  0808  3180  28AB         	ljmp	i1l4380
  7997  080A  3180  28AD         	ljmp	i1l4384
  7998  080C  3180  28AF         	ljmp	i1l4388
  7999  080E  3180  28B1         	ljmp	i1l4394
  8000  0810  3180  28B5         	ljmp	i1l4398
  8001  0812  3180  28B6         	ljmp	i1l4402
  8002                           
  8003                           	psect	swtext2
  8004  0814                     __pswtext2:	
  8005  0814                     i1S8366:	
  8006  0814  3180  28CD         	ljmp	i1l4410
  8007  0816  3180  28CF         	ljmp	i1l4414
  8008  0818  3180  28D3         	ljmp	i1l4418
  8009  081A  3180  28D5         	ljmp	i1l4422
  8010  081C  3180  28D7         	ljmp	i1l4426
  8011  081E  3180  28D9         	ljmp	i1l4430
  8012  0820  3180  28DD         	ljmp	i1l4434
  8013  0822  3180  28DF         	ljmp	i1l4438
  8014  0824  3180  28E3         	ljmp	i1l4442
  8015  0826  3180  28E5         	ljmp	i1l4446
  8016                           
  8017                           	psect	swtext3
  8018  0828                     __pswtext3:	
  8019  0828                     i1S8370:	
  8020  0828  3180  28FC         	ljmp	i1l4454
  8021  082A  3180  28FE         	ljmp	i1l4458
  8022  082C  3181  2902         	ljmp	i1l4462
  8023  082E  3181  2904         	ljmp	i1l4466
  8024  0830  3181  2908         	ljmp	i1l4470
  8025  0832  3181  290A         	ljmp	i1l4474
  8026  0834  3181  290E         	ljmp	i1l4478
  8027  0836  3181  2910         	ljmp	i1l4482
  8028  0838  3181  2914         	ljmp	i1l4486
  8029  083A  3181  2916         	ljmp	i1l4490
  8030                           
  8031                           	psect	swtext4
  8032  083C                     __pswtext4:	
  8033  083C                     i1S8374:	
  8034  083C  3181  292D         	ljmp	i1l4498
  8035  083E  3181  292F         	ljmp	i1l4502
  8036  0840  3181  2931         	ljmp	i1l4506
  8037  0842  3181  2933         	ljmp	i1l4510
  8038  0844  3181  2935         	ljmp	i1l4514
  8039  0846  3181  2937         	ljmp	i1l4520
  8040  0848  3181  2939         	ljmp	i1l4524
  8041  084A  3181  293B         	ljmp	i1l4528
  8042  084C  3181  293D         	ljmp	i1l4532
  8043  084E  3181  293F         	ljmp	i1l4536
  8044                           
  8045                           	psect	swtext5
  8046  0850                     __pswtext5:	
  8047  0850                     i1S8378:	
  8048  0850  3181  2954         	ljmp	i1l4544
  8049  0852  3181  2956         	ljmp	i1l4548
  8050  0854  3181  2958         	ljmp	i1l4552
  8051  0856  3181  295A         	ljmp	i1l4556
  8052  0858  3181  295C         	ljmp	i1l4560
  8053  085A  3181  295E         	ljmp	i1l4564
  8054  085C  3181  2960         	ljmp	i1l4568
  8055  085E  3181  2962         	ljmp	i1l4572
  8056  0860  3181  2964         	ljmp	i1l4576
  8057  0862  3181  2966         	ljmp	i1l4580
  8058                           
  8059                           	psect	swtext6
  8060  0864                     __pswtext6:	
  8061  0864                     i1S8382:	
  8062  0864  3181  297B         	ljmp	i1l4588
  8063  0866  3181  297D         	ljmp	i1l4594
  8064  0868  3181  297F         	ljmp	i1l4598
  8065  086A  3181  2981         	ljmp	i1l4602
  8066  086C  3181  2983         	ljmp	i1l4606
  8067  086E  3181  2985         	ljmp	i1l4610
  8068  0870  3181  2987         	ljmp	i1l4614
  8069  0872  3181  2989         	ljmp	i1l4618
  8070  0874  3181  298B         	ljmp	i1l4622
  8071  0876  3181  298D         	ljmp	i1l4626
  8072                           
  8073                           	psect	swtext7
  8074  0878                     __pswtext7:	
  8075  0878                     i1S8386:	
  8076  0878  3181  29A2         	ljmp	i1l4634
  8077  087A  3181  29A4         	ljmp	i1l4638
  8078  087C  3181  29A6         	ljmp	i1l4642
  8079  087E  3181  29A8         	ljmp	i1l4646
  8080  0880  3181  29AA         	ljmp	i1l4650
  8081  0882  3181  29AC         	ljmp	i1l4654
  8082  0884  3181  29AE         	ljmp	i1l4658
  8083  0886  3181  29B0         	ljmp	i1l4664
  8084  0888  3181  29B2         	ljmp	i1l4668
  8085  088A  3181  29B4         	ljmp	i1l4672
  8086                           
  8087                           	psect	swtext8
  8088  088C                     __pswtext8:	
  8089  088C                     i1S8390:	
  8090  088C  3181  29C9         	ljmp	i1l4680
  8091  088E  3181  29CB         	ljmp	i1l4684
  8092  0890  3181  29CD         	ljmp	i1l4688
  8093  0892  3181  29CF         	ljmp	i1l4692
  8094  0894  3181  29D1         	ljmp	i1l4696
  8095  0896  3181  29D3         	ljmp	i1l4700
  8096  0898  3181  29D5         	ljmp	i1l4704
  8097  089A  3181  29D7         	ljmp	i1l4708
  8098  089C  3181  29D9         	ljmp	i1l4712
  8099  089E  3181  29DB         	ljmp	i1l4716
  8100                           
  8101                           	psect	swtext9
  8102  08A0                     __pswtext9:	
  8103  08A0                     i1S8394:	
  8104  08A0  3181  29F0         	ljmp	i1l4724
  8105  08A2  3181  29F2         	ljmp	i1l4728
  8106  08A4  3181  29F6         	ljmp	i1l4732
  8107  08A6  3181  29FA         	ljmp	i1l4736
  8108  08A8  3181  29FE         	ljmp	i1l4740
  8109  08AA  3182  2A02         	ljmp	i1l4746
  8110  08AC  3182  2A06         	ljmp	i1l4750
  8111  08AE  3182  2A0A         	ljmp	i1l4754
  8112  08B0  3182  2A0E         	ljmp	i1l4758
  8113  08B2  3182  2A12         	ljmp	i1l4762
  8114                           
  8115                           	psect	swtext10
  8116  08B4                     __pswtext10:	
  8117  08B4                     i1S8398:	
  8118  08B4  3182  2A29         	ljmp	i1l4770
  8119  08B6  3182  2A2D         	ljmp	i1l4774
  8120  08B8  3182  2A31         	ljmp	i1l4778
  8121  08BA  3182  2A35         	ljmp	i1l4782
  8122  08BC  3182  2A39         	ljmp	i1l4786
  8123  08BE  3182  2A3D         	ljmp	i1l4790
  8124  08C0  3182  2A41         	ljmp	i1l4794
  8125  08C2  3182  2A45         	ljmp	i1l4798
  8126  08C4  3182  2A49         	ljmp	i1l4802
  8127  08C6  3182  2A4D         	ljmp	i1l4806
  8128                           
  8129                           	psect	swtext11
  8130  08C8                     __pswtext11:	
  8131  08C8                     i1S8402:	
  8132  08C8  3180  28BA         	ljmp	i1l4408
  8133  08CA  3180  28E9         	ljmp	i1l4452
  8134  08CC  3181  291A         	ljmp	i1l4496
  8135  08CE  3181  2941         	ljmp	i1l4542
  8136  08D0  3181  2968         	ljmp	i1l4586
  8137  08D2  3181  298F         	ljmp	i1l4632
  8138  08D4  3181  29B6         	ljmp	i1l4678
  8139  08D6  3181  29DD         	ljmp	i1l4722
  8140  08D8  3182  2A16         	ljmp	i1l4768
  8141  08DA  3182  2A53         	ljmp	i1l4812
  8142                           
  8143                           	psect	swtext12
  8144  08DC                     __pswtext12:	
  8145  08DC                     i1S8406:	
  8146  08DC  3182  2A88         	ljmp	i1l4826
  8147  08DE  3182  2A8A         	ljmp	i1l4830
  8148  08E0  3182  2A8C         	ljmp	i1l4834
  8149  08E2  3182  2A91         	ljmp	i1l4838
  8150  08E4  3182  2A96         	ljmp	i1l4842
  8151  08E6  3182  2A98         	ljmp	i1l4846
  8152  08E8  3182  2A9A         	ljmp	i1l4850
  8153  08EA  3182  2A9C         	ljmp	i1l4856
  8154  08EC  3182  2AA1         	ljmp	i1l4860
  8155  08EE  3182  2AA2         	ljmp	i1l4864
  8156                           
  8157                           	psect	swtext13
  8158  0900                     __pswtext13:	
  8159  0900                     i1S8410:	
  8160  0900  3182  2ABB         	ljmp	i1l4872
  8161  0902  3182  2ABD         	ljmp	i1l4876
  8162  0904  3182  2AC2         	ljmp	i1l4880
  8163  0906  3182  2AC4         	ljmp	i1l4884
  8164  0908  3182  2AC6         	ljmp	i1l4888
  8165  090A  3182  2AC8         	ljmp	i1l4892
  8166  090C  3182  2ACD         	ljmp	i1l4896
  8167  090E  3182  2ACF         	ljmp	i1l4900
  8168  0910  3182  2AD4         	ljmp	i1l4904
  8169  0912  3182  2AD6         	ljmp	i1l4908
  8170                           
  8171                           	psect	swtext14
  8172  0914                     __pswtext14:	
  8173  0914                     i1S8414:	
  8174  0914  3182  2AEF         	ljmp	i1l4916
  8175  0916  3182  2AF1         	ljmp	i1l4920
  8176  0918  3182  2AF6         	ljmp	i1l4924
  8177  091A  3182  2AF8         	ljmp	i1l4928
  8178  091C  3182  2AFD         	ljmp	i1l4932
  8179  091E  3182  2AFF         	ljmp	i1l4936
  8180  0920  3183  2B04         	ljmp	i1l4940
  8181  0922  3183  2B06         	ljmp	i1l4944
  8182  0924  3183  2B0B         	ljmp	i1l4948
  8183  0926  3183  2B0D         	ljmp	i1l4952
  8184                           
  8185                           	psect	swtext15
  8186  0928                     __pswtext15:	
  8187  0928                     i1S8418:	
  8188  0928  3183  2B26         	ljmp	i1l4960
  8189  092A  3183  2B28         	ljmp	i1l4964
  8190  092C  3183  2B2A         	ljmp	i1l4968
  8191  092E  3183  2B2C         	ljmp	i1l4972
  8192  0930  3183  2B2E         	ljmp	i1l4976
  8193  0932  3183  2B30         	ljmp	i1l4982
  8194  0934  3183  2B32         	ljmp	i1l4986
  8195  0936  3183  2B34         	ljmp	i1l4990
  8196  0938  3183  2B36         	ljmp	i1l4994
  8197  093A  3183  2B38         	ljmp	i1l4998
  8198                           
  8199                           	psect	swtext16
  8200  093C                     __pswtext16:	
  8201  093C                     i1S8422:	
  8202  093C  3183  2B4E         	ljmp	i1l5006
  8203  093E  3183  2B50         	ljmp	i1l5010
  8204  0940  3183  2B52         	ljmp	i1l5014
  8205  0942  3183  2B54         	ljmp	i1l5018
  8206  0944  3183  2B56         	ljmp	i1l5022
  8207  0946  3183  2B58         	ljmp	i1l5026
  8208  0948  3183  2B5A         	ljmp	i1l5030
  8209  094A  3183  2B5C         	ljmp	i1l5034
  8210  094C  3183  2B5E         	ljmp	i1l5038
  8211  094E  3183  2B60         	ljmp	i1l5042
  8212                           
  8213                           	psect	swtext17
  8214  0950                     __pswtext17:	
  8215  0950                     i1S8426:	
  8216  0950  3183  2B76         	ljmp	i1l5050
  8217  0952  3183  2B78         	ljmp	i1l5056
  8218  0954  3183  2B7A         	ljmp	i1l5060
  8219  0956  3183  2B7C         	ljmp	i1l5064
  8220  0958  3183  2B7E         	ljmp	i1l5068
  8221  095A  3183  2B80         	ljmp	i1l5072
  8222  095C  3183  2B82         	ljmp	i1l5076
  8223  095E  3183  2B84         	ljmp	i1l5080
  8224  0960  3183  2B86         	ljmp	i1l5084
  8225  0962  3183  2B88         	ljmp	i1l5088
  8226                           
  8227                           	psect	swtext18
  8228  0964                     __pswtext18:	
  8229  0964                     i1S8430:	
  8230  0964  3183  2B9E         	ljmp	i1l5096
  8231  0966  3183  2BA0         	ljmp	i1l5100
  8232  0968  3183  2BA2         	ljmp	i1l5104
  8233  096A  3183  2BA4         	ljmp	i1l5108
  8234  096C  3183  2BA6         	ljmp	i1l5112
  8235  096E  3183  2BA8         	ljmp	i1l5116
  8236  0970  3183  2BAA         	ljmp	i1l5120
  8237  0972  3183  2BAC         	ljmp	i1l5126
  8238  0974  3183  2BAE         	ljmp	i1l5130
  8239  0976  3183  2BB0         	ljmp	i1l5134
  8240                           
  8241                           	psect	swtext19
  8242  0978                     __pswtext19:	
  8243  0978                     i1S8434:	
  8244  0978  3183  2BC6         	ljmp	i1l5142
  8245  097A  3183  2BC8         	ljmp	i1l5146
  8246  097C  3183  2BCA         	ljmp	i1l5150
  8247  097E  3183  2BCC         	ljmp	i1l5154
  8248  0980  3183  2BCE         	ljmp	i1l5158
  8249  0982  3183  2BD0         	ljmp	i1l5162
  8250  0984  3183  2BD2         	ljmp	i1l5166
  8251  0986  3183  2BD4         	ljmp	i1l5170
  8252  0988  3183  2BD6         	ljmp	i1l5174
  8253  098A  3183  2BD8         	ljmp	i1l5178
  8254                           
  8255                           	psect	swtext20
  8256  098C                     __pswtext20:	
  8257  098C                     i1S8438:	
  8258  098C  3183  2BEE         	ljmp	i1l5186
  8259  098E  3183  2BF0         	ljmp	i1l5190
  8260  0990  3183  2BF5         	ljmp	i1l5194
  8261  0992  3183  2BFA         	ljmp	i1l5198
  8262  0994  3183  2BFF         	ljmp	i1l5202
  8263  0996  3184  2C04         	ljmp	i1l5208
  8264  0998  3184  2C09         	ljmp	i1l5212
  8265  099A  3184  2C0E         	ljmp	i1l5216
  8266  099C  3184  2C13         	ljmp	i1l5220
  8267  099E  3184  2C18         	ljmp	i1l5224
  8268                           
  8269                           	psect	swtext21
  8270  09A0                     __pswtext21:	
  8271  09A0                     i1S8442:	
  8272  09A0  3184  2C31         	ljmp	i1l5232
  8273  09A2  3184  2C36         	ljmp	i1l5236
  8274  09A4  3184  2C3B         	ljmp	i1l5240
  8275  09A6  3184  2C40         	ljmp	i1l5244
  8276  09A8  3184  2C45         	ljmp	i1l5248
  8277  09AA  3184  2C4A         	ljmp	i1l5252
  8278  09AC  3184  2C4F         	ljmp	i1l5256
  8279  09AE  3184  2C54         	ljmp	i1l5260
  8280  09B0  3184  2C59         	ljmp	i1l5264
  8281  09B2  3184  2C5E         	ljmp	i1l5268
  8282                           
  8283                           	psect	swtext22
  8284  09B4                     __pswtext22:	
  8285  09B4                     i1S8446:	
  8286  09B4  3182  2AA7         	ljmp	i1l4870
  8287  09B6  3182  2ADB         	ljmp	i1l4914
  8288  09B8  3183  2B12         	ljmp	i1l4958
  8289  09BA  3183  2B3A         	ljmp	i1l5004
  8290  09BC  3183  2B62         	ljmp	i1l5048
  8291  09BE  3183  2B8A         	ljmp	i1l5094
  8292  09C0  3183  2BB2         	ljmp	i1l5140
  8293  09C2  3183  2BDA         	ljmp	i1l5184
  8294  09C4  3184  2C1D         	ljmp	i1l5230
  8295  09C6  3184  2C65         	ljmp	i1l5274


Data Sizes:
    Strings     33
    Constant    0
    Data        164
    BSS         43
    Persistent  0
    Stack       0

Auto Spaces:
    Space          Size  Autos    Used
    COMMON           14     11      12
    BANK0            80     37      65
    BANK1            80      0      78
    BANK2            80     16      52
    BANK3            80      0      64
    BANK4            80      0       0
    BANK5            80      0       0
    BANK6            80      0       0
    BANK7            80      0       0
    BANK8            80      0       0
    BANK9            32      0       0

Pointer List with Targets:

    atoi@s	PTR const unsigned char  size(1) Largest target is 2
		 -> ACTION@FanSpeedString(BANK0[2]), ACTION@SwNumString(BANK0[2]), 

    writeUART@str2Write	PTR unsigned char  size(1) Largest target is 26
		 -> st(BANK1[26]), 


Critical Paths under _main in COMMON

    _main->_copy_frame
    _ACTION->_atoi
    _atoi->___wmul

Critical Paths under _isr in COMMON

    None.

Critical Paths under _main in BANK0

    _main->_ACTION
    _ACTION->_atoi

Critical Paths under _isr in BANK0

    None.

Critical Paths under _main in BANK1

    None.

Critical Paths under _isr in BANK1

    None.

Critical Paths under _main in BANK2

    None.

Critical Paths under _isr in BANK2

    None.

Critical Paths under _main in BANK3

    None.

Critical Paths under _isr in BANK3

    None.

Critical Paths under _main in BANK4

    None.

Critical Paths under _isr in BANK4

    None.

Critical Paths under _main in BANK5

    None.

Critical Paths under _isr in BANK5

    None.

Critical Paths under _main in BANK6

    None.

Critical Paths under _isr in BANK6

    None.

Critical Paths under _main in BANK7

    None.

Critical Paths under _isr in BANK7

    None.

Critical Paths under _main in BANK8

    None.

Critical Paths under _isr in BANK8

    None.

Critical Paths under _main in BANK9

    None.

Critical Paths under _isr in BANK9

    None.

Call Graph Tables:

 ---------------------------------------------------------------------------------
 (Depth) Function   	        Calls       Base Space   Used Autos Params    Refs
 ---------------------------------------------------------------------------------
 (0) _main                                                22    22      0    5339
                                             31 BANK0      6     6      0
                                              0 BANK2     16    16      0
                             _ACTION
                         _copy_frame
                     _periperal_init
                        _pin_manager
                          _writeUART
 ---------------------------------------------------------------------------------
 (1) _pin_manager                                          0     0      0       0
 ---------------------------------------------------------------------------------
 (1) _periperal_init                                       0     0      0       0
                    _CCP1_Initialize
                    _CCP3_Initialize
                    _CCP9_Initialize
                  _EUSART_Initialize
                    _TMR1_Initialize
                    _TMR2_Initialize
                    _TMR3_Initialize
                    _TMR4_Initialize
                    _TMR5_Initialize
                    _TMR6_Initialize
 ---------------------------------------------------------------------------------
 (2) _TMR6_Initialize                                      0     0      0       0
 ---------------------------------------------------------------------------------
 (2) _TMR5_Initialize                                      0     0      0       0
 ---------------------------------------------------------------------------------
 (2) _TMR4_Initialize                                      0     0      0       0
 ---------------------------------------------------------------------------------
 (2) _TMR3_Initialize                                      0     0      0       0
 ---------------------------------------------------------------------------------
 (2) _TMR2_Initialize                                      0     0      0       0
 ---------------------------------------------------------------------------------
 (2) _TMR1_Initialize                                      0     0      0       0
 ---------------------------------------------------------------------------------
 (2) _EUSART_Initialize                                    0     0      0       0
 ---------------------------------------------------------------------------------
 (2) _CCP9_Initialize                                      0     0      0       0
 ---------------------------------------------------------------------------------
 (2) _CCP3_Initialize                                      0     0      0       0
 ---------------------------------------------------------------------------------
 (2) _CCP1_Initialize                                      0     0      0       0
 ---------------------------------------------------------------------------------
 (1) _copy_frame                                           9     5      4     461
                                              2 COMMON     9     5      4
 ---------------------------------------------------------------------------------
 (1) _ACTION                                              25    19      6    3648
                                              6 BANK0     25    19      6
                               _atoi
                          _writeUART
 ---------------------------------------------------------------------------------
 (1) _writeUART                                            4     4      0     401
                                              2 COMMON     4     4      0
 ---------------------------------------------------------------------------------
 (2) _atoi                                                 8     6      2     759
                                              8 COMMON     2     0      2
                                              0 BANK0      6     6      0
                             ___wmul
                            _isdigit
 ---------------------------------------------------------------------------------
 (3) _isdigit                                              2     2      0      99
                                              2 COMMON     2     2      0
 ---------------------------------------------------------------------------------
 (3) ___wmul                                               6     2      4     266
                                              2 COMMON     6     2      4
 ---------------------------------------------------------------------------------
 Estimated maximum stack depth 3
 ---------------------------------------------------------------------------------
 (Depth) Function   	        Calls       Base Space   Used Autos Params    Refs
 ---------------------------------------------------------------------------------
 (4) _isr                                                  2     2      0       0
                                              0 COMMON     2     2      0
 ---------------------------------------------------------------------------------
 Estimated maximum stack depth 4
 ---------------------------------------------------------------------------------

 Call Graph Graphs:

 _main (ROOT)
   _ACTION
     _atoi
       ___wmul
       _isdigit
     _writeUART
   _copy_frame
   _periperal_init
     _CCP1_Initialize
     _CCP3_Initialize
     _CCP9_Initialize
     _EUSART_Initialize
     _TMR1_Initialize
     _TMR2_Initialize
     _TMR3_Initialize
     _TMR4_Initialize
     _TMR5_Initialize
     _TMR6_Initialize
   _pin_manager
   _writeUART

 _isr (ROOT)

 Address spaces:
Name               Size   Autos  Total    Cost      Usage
BIGRAM             2F0      0       0       0        0.0%
NULL                 0      0       0       0        0.0%
CODE                 0      0       0       0        0.0%
BITCOMMON            E      0       0       1        0.0%
BITSFR0              0      0       0       1        0.0%
SFR0                 0      0       0       1        0.0%
COMMON               E      B       C       2       85.7%
BITSFR1              0      0       0       2        0.0%
SFR1                 0      0       0       2        0.0%
BITSFR2              0      0       0       3        0.0%
SFR2                 0      0       0       3        0.0%
STACK                0      0       0       3        0.0%
BITSFR3              0      0       0       4        0.0%
SFR3                 0      0       0       4        0.0%
ABS                  0      0     10F       4        0.0%
BITBANK0            50      0       0       5        0.0%
BITSFR4              0      0       0       5        0.0%
SFR4                 0      0       0       5        0.0%
BANK0               50     25      41       6       81.3%
BITSFR5              0      0       0       6        0.0%
SFR5                 0      0       0       6        0.0%
BITBANK1            50      0       0       7        0.0%
BITSFR6              0      0       0       7        0.0%
SFR6                 0      0       0       7        0.0%
BANK1               50      0      4E       8       97.5%
BITSFR7              0      0       0       8        0.0%
SFR7                 0      0       0       8        0.0%
BITBANK2            50      0       0       9        0.0%
BITSFR8              0      0       0       9        0.0%
SFR8                 0      0       0       9        0.0%
BANK2               50     10      34      10       65.0%
BITSFR9              0      0       0      10        0.0%
SFR9                 0      0       0      10        0.0%
BITBANK3            50      0       0      11        0.0%
BITSFR10             0      0       0      11        0.0%
SFR10                0      0       0      11        0.0%
BANK3               50      0      40      12       80.0%
BITSFR11             0      0       0      12        0.0%
SFR11                0      0       0      12        0.0%
BITBANK4            50      0       0      13        0.0%
BITSFR12             0      0       0      13        0.0%
SFR12                0      0       0      13        0.0%
BANK4               50      0       0      14        0.0%
BITSFR13             0      0       0      14        0.0%
SFR13                0      0       0      14        0.0%
BITBANK5            50      0       0      15        0.0%
BITSFR14             0      0       0      15        0.0%
SFR14                0      0       0      15        0.0%
BANK5               50      0       0      16        0.0%
BITSFR15             0      0       0      16        0.0%
SFR15                0      0       0      16        0.0%
BITBANK6            50      0       0      17        0.0%
BITSFR16             0      0       0      17        0.0%
SFR16                0      0       0      17        0.0%
BANK6               50      0       0      18        0.0%
BITSFR17             0      0       0      18        0.0%
SFR17                0      0       0      18        0.0%
BITBANK7            50      0       0      19        0.0%
BITSFR18             0      0       0      19        0.0%
SFR18                0      0       0      19        0.0%
BANK7               50      0       0      20        0.0%
BITSFR19             0      0       0      20        0.0%
SFR19                0      0       0      20        0.0%
BITBANK8            50      0       0      21        0.0%
BITSFR20             0      0       0      21        0.0%
SFR20                0      0       0      21        0.0%
BANK8               50      0       0      22        0.0%
BITSFR21             0      0       0      22        0.0%
SFR21                0      0       0      22        0.0%
BITBANK9            20      0       0      23        0.0%
BITSFR22             0      0       0      23        0.0%
SFR22                0      0       0      23        0.0%
BANK9               20      0       0      24        0.0%
BITSFR23             0      0       0      24        0.0%
SFR23                0      0       0      24        0.0%
BITSFR24             0      0       0      25        0.0%
SFR24                0      0       0      25        0.0%
DATA                 0      0     10F      25        0.0%
BITSFR25             0      0       0      26        0.0%
SFR25                0      0       0      26        0.0%
BITSFR26             0      0       0      27        0.0%
SFR26                0      0       0      27        0.0%
BITSFR27             0      0       0      28        0.0%
SFR27                0      0       0      28        0.0%
BITSFR28             0      0       0      29        0.0%
SFR28                0      0       0      29        0.0%
BITSFR29             0      0       0      30        0.0%
SFR29                0      0       0      30        0.0%
BITSFR30             0      0       0      31        0.0%
SFR30                0      0       0      31        0.0%
BITSFR31             0      0       0      32        0.0%
SFR31                0      0       0      32        0.0%


Microchip Technology PIC Macro Assembler V1.45 build -152302408 
Symbol Table                                                                                   Thu Jul 26 19:31:38 2018

   __size_of_periperal_init 001E                           _i 005B                           pc 0002  
               __CFG_CP$OFF 0000                          _M1 004D                          _M2 004B  
                        _M3 0049                          _M4 0047                          _M5 0045  
                        _ak 0057                          _pk 0059                          _tk 00EC  
                        _st 00C4         ___wmul@multiplicand 0074     __end_of_CCP1_Initialize 09E2  
                       l614 0B5D                         l623 0572                         l625 057F  
                       l650 0765                         l643 0708                         l628 0591  
                       l655 0AE7                         l647 074A                         l696 0B00  
                       _GIE 005F                         _RA3 0063                         _RA5 0065  
                       _RE0 0080                         _RE1 0081                         _RF0 1460  
                       _RE2 0082                         _RF1 1461                         _RF2 1462  
                       _RE4 0084                         _RF3 1463                         _RE5 0085  
                       _RF5 1465                         _RF7 1467                         _PR2 001B  
                       _PR4 0416                         _man 005F                         _isr 0004  
           _TMR2_Initialize 09F6                __CFG_BORV$LO 0000                         wreg 0009  
              __CFG_FOSC$HS 0000                __CFG_LVP$OFF 0000                        l7004 05BB  
                      l7014 05F7                        l7024 0626                        l7200 0CFC  
                      l7034 0655                        l7060 06D2                        l7044 0684  
                      l7300 0E6B                        l7212 0D33                        l7220 0D53  
                      l7080 0726                        l7304 0E72                        l7232 0D9C  
                      l7082 0729                        l7074 070D                        l7066 06E8  
                      l7058 06C3                        l7090 074F                        l7250 0DD2  
                      l7226 0D61                        l7218 0D50                        l7146 0C51  
                      l7068 06EB                        l7412 0FC0                        l7180 0CB7  
                      l7172 0C9D                        l7334 0EE2                        l7246 0DC9  
                      l7190 0CD6                        l7432 0FF9                        l7416 0FC8  
                      l7352 0F19                        l7264 0DFF                        l6714 0AFA  
                      l7338 0EEB                        l7282 0E34                        l7372 0F50  
                      l7356 0F1F                        l7268 0E06                        ?_isr 0070  
                      l6734 09D4                        l7286 0E3D                        l7198 0CF6  
                      l7392 0F89                        l7376 0F58                        l6850 0768  
                      l6860 078A                        l6852 0774                        l6844 0AE2  
                      l8356 06C9                        l6940 0B87                        l7396 0F8F  
                      l6870 07BC                        l8358 0754                        l6848 076F  
                      l6866 0791                        l6876 07CC                        l6868 0795  
                      l6990 056E                        l6992 0579                        l6994 0586  
                      l6996 058C                        STR_1 1000                        u3025 0D31  
                      u3035 0D4E                        u2505 0B01                        u2515 0B06  
                      u2800 0724                        u2635 0B67                        u3507 0EA4  
                      u2660 0577                        u3517 0EB2                        u3607 05E2  
                      u3527 0EC0                        u2760 06E6                        u2680 0584  
                      u3617 05F0                        u3537 0ECE                        u3707 067D  
                      u3627 0603                        u3547 0EDC                        u3467 0C0F  
                      _PEIE 005E                        u3717 0690                        u3637 0611  
                      u3557 0598                        u3477 0D00                        u3727 069E  
                      u3647 061F                        u3567 05A6                        u3487 0D0C  
                      u3737 06AC                        u3657 0632                        u3577 05B4  
                      u3497 0D18                        u3747 06BB                        u3667 0640  
                      u3587 05C6                        _RCIF 008D                        u3677 064E  
                      u3597 05D4                        u2885 0C7C                        u3687 0661  
                      u3697 066F                        _TMR2 001A                        _TMR4 0415  
                      _TMR6 041C                        _WPUE 0210                        _WPUG 048D  
              __CFG_WRT$OFF 0000           ACTION@SwNumString 0037                        _atoi 0766  
         writeUART@Tx_count 0073                        _main 0C09                        _copy 0120  
                      _name 00A0                        fsr0h 0005                        fsr1h 0007  
                      indf0 0000                        fsr0l 0004                        indf1 0001  
                      fsr1l 0006                        btemp 007E                        start 0492  
             __CFG_IESO$OFF 0000             _TMR3_Initialize 09EC                       ??_isr 0070  
              main@end_flag 014E                       ?_atoi 0078     __end_of_CCP3_Initialize 0A14  
                     ?_main 0070               __CFG_WDTE$OFF 0000                       _T1CON 0018  
                     _T2CON 001C                       _T3CON 0413                       _T4CON 0417  
                     _T5CON 041A                       _T6CON 041E                       i1l251 0043  
                     i1l260 0054                       i1l245 0010                       i1l254 0049  
                     i1l263 0068                       i1l272 0091                       i1l248 0016  
                     i1l273 027A                       i1l257 004E                       i1l274 0278  
                     i1l419 048C                       i1l268 007E                       i1l563 048E  
                     _TMR1H 0017                       _TMR3H 0412                       _TMR1L 0016  
                     _TMR3L 0411                       _TMR5H 0419                       _TMR5L 0418  
           _TMR4_Initialize 0A1D              __CFG_FCMEN$OFF 0000             __end_of_isdigit 09D6  
                     atoi@a 0023                       atoi@s 0025                       main@k 0152  
               copy_frame@k 0079     __end_of_TMR1_Initialize 0800              __CFG_BOREN$OFF 0000  
                     status 0003                       wtemp0 007E             _TMR5_Initialize 09E2  
            __CFG_MCLRE$OFF 0000             __initialization 0494                __end_of_atoi 07D1  
              __end_of_main 1000     __end_of_TMR2_Initialize 0A00              __CFG_LPBOR$OFF 0000  
                    ??_atoi 0020                      ??_main 003F            ?_CCP1_Initialize 0070  
              ?_pin_manager 0070             _TMR6_Initialize 0A14             ACTION@sw_status 0027  
           _CCP9_Initialize 0A00                      i1S8410 0900                      i1S8402 08C8  
                    i1S8430 0964                      i1S8422 093C                      i1S8414 0914  
                    i1S8406 08DC                      i1S8442 09A0                      i1S8434 0978  
                    i1S8426 0950                      i1S8418 0928                      i1S8370 0828  
                    i1S8362 0800                      i1S8446 09B4                      i1S8438 098C  
                    i1S8390 088C                      i1S8382 0864                      i1S8374 083C  
                    i1S8366 0814                      _ACTION 04D4                      i1S8394 08A0  
                    i1S8386 0878                      i1S8378 0850                      _CCPR1H 0292  
                    i1S8398 08B4                      _CCPR3H 0312                      _CCPR1L 0291  
                    _CCPR3L 0311                      _CCPR9H 061B                      _CCPR9L 061A  
        ACTION@speed_bitLow 0029                      _ANSELA 018C                      _ANSELE 0190  
                    _ANSELF 040C                      _ANSELG 040D                      _T1GCON 0019  
                    _T3GCON 0414                      _T5GCON 041B                      _RC1REG 0199  
                    _RC1STA 019D                      i1l5010 0350                      i1l5100 03A0  
                    i1l5004 033A                      i1l5030 035A                      i1l5022 0356  
                    i1l5014 0352                      i1l5006 034E                      i1l5120 03AA  
                    i1l5112 03A6                      i1l5104 03A2                      i1l5202 03FF  
                    i1l5130 03AE                      i1l5050 0376                      i1l5042 0360  
                    i1l5034 035C                      i1l5026 0358                      i1l5018 0354  
                    i1l4410 00CD                      i1l4402 00B6                      i1l5220 0413  
                    i1l5212 0409                      i1l5116 03A8                      i1l5108 03A4  
                    i1l5140 03B2                      i1l5060 037A                      i1l4324 0060  
   __end_of_TMR3_Initialize 09F6                      i1l5230 041D                      i1l5150 03CA  
                    i1l5142 03C6                      i1l5134 03B0                      i1l5126 03AC  
                    i1l5038 035E                      i1l4510 0133                      i1l4502 012F  
                    i1l4430 00D9                      i1l4422 00D5                      i1l4414 00CF  
                    i1l4350 008B                      i1l4334 0074                      i1l4318 005A  
                    i1l5240 043B                      i1l5232 0431                      i1l5224 0418  
                    i1l5216 040E                      i1l5208 0404                      i1l5080 0384  
                    i1l5072 0380                      i1l5064 037C                      i1l5056 0378  
                    i1l5048 0362                      i1l4520 0137                      i1l4408 00BA  
                    i1l5170 03D4                      i1l5162 03D0                      i1l5154 03CC  
                    i1l5146 03C8                      i1l4610 0185                      i1l4602 0181  
                    i1l4514 0135                      i1l4506 0131                      i1l4442 00E3  
                    i1l4434 00DD                      i1l4426 00D7                      i1l4418 00D3  
                    i1l5260 0454                      i1l5252 044A                      i1l5244 0440  
                    i1l5236 0436                      i1l5084 0386                      i1l5076 0382  
                    i1l5068 037E                      i1l4700 01D3                      i1l4532 013D  
                    i1l4524 0139                      i1l4452 00E9                      i1l4380 00AB  
                    i1l4372 00A3                      i1l4364 009F                      i1l5270 0463  
                    i1l5190 03F0                      i1l5174 03D6                      i1l5166 03D2  
                    i1l5158 03CE                      i1l5094 038A                      i1l4622 018B  
                    i1l4614 0187                      i1l4606 0183                      i1l4542 0141  
                    i1l4470 0108                      i1l4462 0102                      i1l4454 00FC  
                    i1l4446 00E5                      i1l4438 00DF                      i1l5264 0459  
                    i1l5256 044F                      i1l5248 0445                      i1l5184 03DA  
                    i1l5096 039E                      i1l5088 0388                      i1l4712 01D9  
                    i1l4704 01D5                      i1l4632 018F                      i1l4560 015C  
                    i1l4552 0158                      i1l4544 0154                      i1l4536 013F  
                    i1l4528 013B                      i1l4384 00AD                      i1l4376 00A7  
                    i1l4368 00A1                      i1l5274 0465                      i1l5194 03F5  
                    i1l5186 03EE                      i1l5178 03D8                      i1l4802 0249  
                    i1l4722 01DD                      i1l4650 01AA                      i1l4642 01A6  
                    i1l4634 01A2                      i1l4626 018D                      i1l4618 0189  
                    i1l4490 0116                      i1l4482 0110                      i1l4474 010A  
                    i1l4466 0104                      i1l4458 00FE                      i1l4394 00B1  
                    i1l4298 0019                      i1l5268 045E                      i1l4900 02CF  
                    i1l4812 0253                      i1l4740 01FE                      i1l4732 01F6  
                    i1l4724 01F0                      i1l4716 01DB                      i1l4708 01D7  
                    i1l4580 0166                      i1l4572 0162                      i1l4564 015E  
                    i1l4556 015A                      i1l4548 0156                      i1l4388 00AF  
                    i1l5198 03FA                      i1l4830 028A                      i1l5278 0479  
                    i1l4806 024D                      i1l4750 0206                      i1l4654 01AC  
                    i1l4646 01A8                      i1l4638 01A4                      i1l4486 0114  
                    i1l4478 010E                      i1l4398 00B5                      i1l4920 02F1  
                    i1l4904 02D4                      i1l4808 0251                      i1l4736 01FA  
                    i1l4728 01F2                      i1l4680 01C9                      i1l4672 01B4  
                    i1l4664 01B0                      i1l4576 0164                      i1l4568 0160  
                    i1l4496 011A                      i1l4816 0266                      i1l4914 02DB  
                    i1l4850 029A                      i1l4842 0296                      i1l4834 028C  
                    i1l4826 0288                      i1l4770 0229                      i1l4762 0212  
                    i1l4754 020A                      i1l4746 0202                      i1l4658 01AE  
                    i1l4594 017D                      i1l4586 0168                      i1l4498 012D  
                    i1l4940 0304                      i1l4932 02FD                      i1l4924 02F6  
                    i1l4916 02EF                      i1l4908 02D6                      i1l4860 02A1  
                    i1l4692 01CF                      i1l4684 01CB                      i1l4668 01B2  
                    i1l4588 017B                      i1l4846 0298                      i1l4838 0291  
                    i1l4870 02A7                      i1l4790 023D                      i1l4782 0235  
                    i1l4774 022D                      i1l4758 020E                      i1l4678 01B6  
                    i1l4598 017F                      i1l4960 0326                      i1l4952 030D  
                    i1l4944 0306                      i1l4936 02FF                      i1l4928 02F8  
                    i1l4880 02C2                      i1l4872 02BB                      i1l4864 02A2  
                    i1l4856 029C                      i1l8400 026B                      i1l4768 0216  
                    i1l4696 01D1                      i1l4688 01CD                      i1l4794 0241  
                    i1l4786 0239                      i1l4778 0231                      i1l8420 0368  
                    i1l4972 032C                      i1l4964 0328                      i1l8412 0318  
                    i1l4948 030B                      i1l4892 02C8                      i1l4884 02C4  
                    i1l4876 02BD                      i1l8404 02AD                      i1l4990 0334  
                    i1l4982 0330                      i1l4958 0312                      i1l4798 0245  
                    i1l8440 046B                      i1l8432 03E0                      i1l8424 0390  
                    i1l8416 0340                      i1l4976 032E                      i1l4968 032A  
                    i1l8408 02E1                      i1l4896 02CD                      i1l4888 02C6  
                    i1l8360 00BF                      i1l4994 0336                      i1l4986 0332  
                    i1l8444 047F                      i1l8436 0423                      i1l8428 03B8  
                    i1l8380 0194                      i1l8372 0146                      i1l8364 00EE  
                    i1l4998 0338                      i1l8392 021B                      i1l8384 01BB  
                    i1l8376 016D                      i1l8368 011F                      i1l8396 0258  
                    i1l8388 01E2                      u164_25 0036                      _TX1REG 019A  
                    _TX1STA 019E              _FAN_SPEED1_10s 0055              _FAN_SPEED2_10s 00EA  
            _FAN_SPEED3_10s 00E8              __CFG_PWRTE$OFF 0000              _periperal_init 0B13  
                    ___wmul 0AF8      main@RX_CHK_FLAG_start1 0144      main@RX_CHK_FLAG_start2 0146  
   __end_of_TMR4_Initialize 0A26          writeUART@str2Write 0075            ?_CCP3_Initialize 0070  
              copy_frame@sw 0077        ACTION@Switch_Num_10s 0034                   ??_isdigit 0072  
          ?_TMR1_Initialize 0070     __end_of_TMR5_Initialize 09EC     __end_of__initialization 04D0  
    __end_of_periperal_init 0B31              __pcstackCOMMON 0070        ACTION@child_lock_num 0032  
              __pidataBANK0 0002                __pidataBANK1 0B8B                __pidataBANK2 07D1  
              __pidataBANK3 0BC9            ?_TMR2_Initialize 0070     __end_of_TMR6_Initialize 0A1D  
   __end_of_CCP9_Initialize 0A0A                     ?_ACTION 0026                  __pbssBANK0 0045  
                __pbssBANK1 00DE            ?_TMR3_Initialize 0070             __CFG_VCAPEN$OFF 0000  
                _child_LOCK 01A0             ?_periperal_init 0070                  __pmaintext 0C09  
     ACTION@response_starts 003B                     ?___wmul 0072                  __pintentry 0004  
                   _CCP1CON 0293                     _CCP3CON 0313                     _CCP9CON 061C  
       ACTION@speed_bitHigh 0028            ?_TMR4_Initialize 0070                     _SP1BRGH 019C  
                   _SP1BRGL 019B        __size_of_pin_manager 0024                  __pswtext10 08B4  
                __pswtext11 08C8                  __pswtext20 098C                  __pswtext12 08DC  
                __pswtext21 09A0                  __pswtext13 0900                  __pswtext22 09B4  
                __pswtext14 0914                  __pswtext15 0928                  __pswtext16 093C  
                __pswtext17 0950                  __pswtext18 0964                  __pswtext19 0978  
           __size_of_ACTION 0292                     _TX_FLAG 00E4            ?_TMR5_Initialize 0070  
                _copy_frame 0B55          __size_of_writeUART 0019                ACTION@parent 002A  
                 _FAN_FLAG1 00E2                   _FAN_FLAG2 00E0                   _FAN_FLAG3 00DE  
           __size_of___wmul 001B             __CFG_STVREN$OFF 0000            ?_TMR6_Initialize 0070  
                   _dimmer1 005E                     _dimmer2 005D                     _dimmer3 007B  
                   __ptext1 0B31                     __ptext2 0B13                     __ptext3 0A14  
                   __ptext4 09E2                     __ptext5 0A1D                     __ptext6 09EC  
                   __ptext7 09F6                     __ptext8 07F5                     __ptext9 0AC9  
                 _T1CONbits 0018            ?_CCP9_Initialize 0070                   _T2CONbits 001C  
                   _isdigit 09C8                __size_of_isr 048E                   _T3CONbits 0413  
                 _T4CONbits 0417                   _COPY_FLAG 004F                     clrloop0 0A2D  
      end_of_initialization 04D0               copy_frame@end 0074                     init_ram 0A26  
                   initloop 0A27           _EUSART_Initialize 0AC9              ACTION@FanSpeed 002E  
        ?_EUSART_Initialize 0070              main@start_flag 014C         ??_EUSART_Initialize 0072  
         __end_of_writeUART 0AF8                   _TRISAbits 008C                   _TRISCbits 008E  
                 _TRISEbits 0090                   _TRISFbits 030C                   _TRISGbits 030D  
  __size_of_CCP1_Initialize 000C              __end_of_ACTION 0766   __end_of_EUSART_Initialize 0ADF  
               ?_copy_frame 0072              ACTION@children 0030              __end_of___wmul 0B13  
      main@RX_CHK_FLAG_end1 0148        main@RX_CHK_FLAG_end2 014A         start_initialization 0494  
               __end_of_isr 0492                    ??_ACTION 002C    __size_of_CCP3_Initialize 000A  
          ??_periperal_init 0072               _FAN_SPEED1_1s 0053               _FAN_SPEED2_1s 0051  
             _FAN_SPEED3_1s 00E6    __size_of_TMR1_Initialize 000B                    ??___wmul 0076  
               __pdataBANK0 005F                 __pdataBANK1 00A0                 __pdataBANK2 0120  
               __pdataBANK3 01A0         ACTION@Switch_Num_1s 0026         __size_of_copy_frame 0036  
               __pbssCOMMON 007B                   ___latbits 0002               __pcstackBANK0 0020  
             __pcstackBANK2 0144    __size_of_TMR2_Initialize 000A  __size_of_EUSART_Initialize 0016  
         ??_CCP1_Initialize 0072    __size_of_TMR3_Initialize 000A                   __pswtext1 0800  
                 __pswtext2 0814                   __pswtext3 0828                   __pswtext4 083C  
                 __pswtext5 0850                   __pswtext6 0864                   __pswtext7 0878  
                 __pswtext8 088C                   __pswtext9 08A0               ??_pin_manager 0072  
               ACTION@SwNum 0039        ACTION@finalFrameStat 002B                    _BAUD1CON 019F  
                  ?_isdigit 0070    __size_of_TMR4_Initialize 0009        ACTION@FanSpeedString 0035  
            ___wmul@product 0076                   clear_ram0 0A2C           ??_CCP3_Initialize 0072  
                  _PIE1bits 0091                    _PIE3bits 0093                    _PIE4bits 0094  
                  _PIR1bits 0011                    _PIR3bits 0013                    _PIR4bits 0014  
  __size_of_TMR5_Initialize 000A           ??_TMR1_Initialize 0072           ___wmul@multiplier 0072  
                 main@k_682 0150                   _writeUART 0ADF    __size_of_TMR6_Initialize 0009  
       __end_of_pin_manager 0B55    __size_of_CCP9_Initialize 000A                ??_copy_frame 0076  
         ??_TMR2_Initialize 0072             copy_frame@start 0072         ACTION@switch_status 003D  
         ??_TMR3_Initialize 0072                 _isdigit$908 0072          __end_of_copy_frame 0B8B  
          __size_of_isdigit 000E                  ?_writeUART 0070                    __ptext10 0A00  
                  __ptext11 0A0A                    __ptext12 09D6                    __ptext13 0B55  
                  __ptext14 04D4                    __ptext15 0ADF                    __ptext16 0766  
                  __ptext17 09C8                    __ptext18 0AF8           ??_TMR4_Initialize 0072  
             __size_of_atoi 006B               __size_of_main 03F7                  _RC1STAbits 019D  
                  int$flags 007E                    atoi@sign 0022           ??_TMR5_Initialize 0072  
               _pin_manager 0B31             _CCP1_Initialize 09D6                    isdigit@c 0073  
                  intlevel1 0000           ??_TMR6_Initialize 0072           __CFG_CLKOUTEN$OFF 0000  
         ??_CCP9_Initialize 0072               __pstringtext1 1000               __pstringtext2 0000  
               ??_writeUART 0072             _CCP3_Initialize 0A0A                  _TX1STAbits 019E  
           _TMR1_Initialize 07F5  
