

Microchip Technology PIC LITE Macro Assembler V1.45 build -152302408 
                                                                                               Fri Oct 05 12:42:58 2018

Microchip Technology Omniscient Code Generator v1.45 (Free mode) build 201711160504
     1                           	processor	16F1526
     2                           	opt	pw 120
     3                           	opt	lm
     4                           	psect	idataBANK0,global,class=CODE,delta=2
     5                           	psect	idataBANK1,global,class=CODE,delta=2
     6                           	psect	idataBANK2,global,class=CODE,delta=2
     7                           	psect	stringtext1,global,class=STRCODE,delta=2
     8                           	psect	stringtext2,global,class=STRCODE,delta=2
     9                           	psect	cinit,global,class=CODE,merge=1,delta=2
    10                           	psect	bssCOMMON,global,class=COMMON,space=1,delta=1
    11                           	psect	bssBANK0,global,class=BANK0,space=1,delta=1
    12                           	psect	dataBANK0,global,class=BANK0,space=1,delta=1
    13                           	psect	bssBANK1,global,class=BANK1,space=1,delta=1
    14                           	psect	dataBANK1,global,class=BANK1,space=1,delta=1
    15                           	psect	dataBANK2,global,class=BANK2,space=1,delta=1
    16                           	psect	inittext,global,class=CODE,delta=2
    17                           	psect	clrtext,global,class=CODE,delta=2
    18                           	psect	cstackBANK1,global,class=BANK1,space=1,delta=1
    19                           	psect	cstackCOMMON,global,class=COMMON,space=1,delta=1
    20                           	psect	cstackBANK0,global,class=BANK0,space=1,delta=1
    21                           	psect	maintext,global,class=CODE,merge=1,split=1,delta=2
    22                           	psect	text1,local,class=CODE,merge=1,delta=2
    23                           	psect	text2,local,class=CODE,merge=1,delta=2
    24                           	psect	text3,local,class=CODE,merge=1,delta=2
    25                           	psect	text4,local,class=CODE,merge=1,delta=2
    26                           	psect	text5,local,class=CODE,merge=1,delta=2
    27                           	psect	text6,local,class=CODE,merge=1,delta=2
    28                           	psect	text7,local,class=CODE,merge=1,delta=2
    29                           	psect	text8,local,class=CODE,merge=1,delta=2
    30                           	psect	text9,local,class=CODE,merge=1,delta=2
    31                           	psect	text10,local,class=CODE,merge=1,delta=2
    32                           	psect	text11,local,class=CODE,merge=1,delta=2
    33                           	psect	text12,local,class=CODE,merge=1,delta=2
    34                           	psect	text13,local,class=CODE,merge=1,delta=2
    35                           	psect	text14,local,class=CODE,merge=1,delta=2
    36                           	psect	text15,local,class=CODE,merge=1,delta=2
    37                           	psect	text16,local,class=CODE,merge=1,delta=2,group=1
    38                           	psect	text17,local,class=CODE,merge=1,delta=2,group=1
    39                           	psect	text18,local,class=CODE,merge=1,delta=2,group=1
    40                           	psect	intentry,global,class=CODE,delta=2
    41                           	psect	swtext1,local,class=CONST,delta=2
    42                           	psect	swtext2,local,class=CONST,delta=2
    43                           	psect	swtext3,local,class=CONST,delta=2
    44                           	psect	swtext4,local,class=CONST,delta=2
    45                           	psect	swtext5,local,class=CONST,delta=2
    46                           	psect	swtext6,local,class=CONST,delta=2
    47                           	psect	swtext7,local,class=CONST,delta=2
    48                           	psect	swtext8,local,class=CONST,delta=2
    49                           	psect	swtext9,local,class=CONST,delta=2
    50                           	psect	swtext10,local,class=CONST,delta=2
    51                           	psect	swtext11,local,class=CONST,delta=2
    52                           	psect	swtext12,local,class=CONST,delta=2
    53                           	psect	swtext13,local,class=CONST,delta=2
    54                           	psect	swtext14,local,class=CONST,delta=2
    55                           	psect	swtext15,local,class=CONST,delta=2
    56                           	psect	swtext16,local,class=CONST,delta=2
    57                           	psect	swtext17,local,class=CONST,delta=2
    58                           	psect	swtext18,local,class=CONST,delta=2
    59                           	psect	swtext19,local,class=CONST,delta=2
    60                           	psect	swtext20,local,class=CONST,delta=2
    61                           	psect	swtext21,local,class=CONST,delta=2
    62                           	psect	swtext22,local,class=CONST,delta=2
    63                           	psect	swtext23,local,class=CONST,delta=2
    64                           	psect	swtext24,local,class=CONST,delta=2
    65                           	psect	swtext25,local,class=CONST,delta=2
    66                           	psect	swtext26,local,class=CONST,delta=2
    67                           	psect	swtext27,local,class=CONST,delta=2
    68                           	psect	swtext28,local,class=CONST,delta=2
    69                           	psect	swtext29,local,class=CONST,delta=2
    70                           	psect	swtext30,local,class=CONST,delta=2
    71                           	psect	swtext31,local,class=CONST,delta=2
    72                           	psect	swtext32,local,class=CONST,delta=2
    73                           	psect	swtext33,local,class=CONST,delta=2
    74                           	dabs	1,0x7E,2
    75  0000                     
    76                           ; Version 1.45
    77                           ; Generated 16/11/2017 GMT
    78                           ; 
    79                           ; Copyright © 2017, Microchip Technology Inc. and its subsidiaries ("Microchip")
    80                           ; All rights reserved.
    81                           ; 
    82                           ; This software is developed by Microchip Technology Inc. and its subsidiaries ("Microch
      +                          ip").
    83                           ; 
    84                           ; Redistribution and use in source and binary forms, with or without modification, are
    85                           ; permitted provided that the following conditions are met:
    86                           ; 
    87                           ;     1. Redistributions of source code must retain the above copyright notice, this lis
      +                          t of
    88                           ;        conditions and the following disclaimer.
    89                           ; 
    90                           ;     2. Redistributions in binary form must reproduce the above copyright notice, this 
      +                          list
    91                           ;        of conditions and the following disclaimer in the documentation and/or other
    92                           ;        materials provided with the distribution.
    93                           ; 
    94                           ;     3. Microchip's name may not be used to endorse or promote products derived from th
      +                          is
    95                           ;        software without specific prior written permission.
    96                           ; 
    97                           ; THIS SOFTWARE IS PROVIDED BY MICROCHIP "AS IS" AND ANY EXPRESS OR IMPLIED WARRANTIES,
    98                           ; INCLUDING, BUT NOT LIMITED TO, THE IMPLIED WARRANTIES OF MERCHANTABILITY AND FITNESS F
      +                          OR
    99                           ; PURPOSE ARE DISCLAIMED.  IN NO EVENT SHALL MICROCHIP BE LIABLE FOR ANY DIRECT, INDIREC
      +                          T,
   100                           ; INCIDENTAL, SPECIAL, EXEMPLARY, OR CONSEQUENTIAL DAMAGES (INCLUDING BUT NOT LIMITED TO
   101                           ; PROCUREMENT OF SUBSTITUTE GOODS OR SERVICES; LOSS OF USE, DATA OR PROFITS; OR BUSINESS
   102                           ; INTERRUPTION) HOWSOEVER CAUSED AND ON ANY THEORY OF LIABILITY, WHETHER IN CONTRACT, ST
      +                          RICT
   103                           ; LIABILITY, OR TORT (INCLUDING NEGLIGENCE OR OTHERWISE) ARISING IN ANY WAY OUT OF THE U
      +                          SE OF
   104                           ; THIS SOFTWARE, EVEN IF ADVISED OF THE POSSIBILITY OF SUCH DAMAGE.
   105                           ; 
   106                           ; 
   107                           ; Code-generator required, PIC16F1526 Definitions
   108                           ; 
   109                           ; SFR Addresses
   110  0000                     	;# 
   111  0001                     	;# 
   112  0002                     	;# 
   113  0003                     	;# 
   114  0004                     	;# 
   115  0005                     	;# 
   116  0006                     	;# 
   117  0007                     	;# 
   118  0008                     	;# 
   119  0009                     	;# 
   120  000A                     	;# 
   121  000B                     	;# 
   122  000C                     	;# 
   123  000D                     	;# 
   124  000E                     	;# 
   125  000F                     	;# 
   126  0010                     	;# 
   127  0011                     	;# 
   128  0012                     	;# 
   129  0013                     	;# 
   130  0014                     	;# 
   131  0015                     	;# 
   132  0016                     	;# 
   133  0016                     	;# 
   134  0017                     	;# 
   135  0018                     	;# 
   136  0019                     	;# 
   137  001A                     	;# 
   138  001B                     	;# 
   139  001C                     	;# 
   140  008C                     	;# 
   141  008D                     	;# 
   142  008E                     	;# 
   143  008F                     	;# 
   144  0090                     	;# 
   145  0091                     	;# 
   146  0092                     	;# 
   147  0093                     	;# 
   148  0094                     	;# 
   149  0095                     	;# 
   150  0096                     	;# 
   151  0097                     	;# 
   152  0099                     	;# 
   153  009A                     	;# 
   154  009B                     	;# 
   155  009B                     	;# 
   156  009C                     	;# 
   157  009D                     	;# 
   158  009E                     	;# 
   159  010C                     	;# 
   160  010D                     	;# 
   161  010E                     	;# 
   162  010F                     	;# 
   163  0110                     	;# 
   164  0116                     	;# 
   165  0117                     	;# 
   166  011D                     	;# 
   167  018C                     	;# 
   168  018D                     	;# 
   169  018F                     	;# 
   170  0190                     	;# 
   171  0191                     	;# 
   172  0191                     	;# 
   173  0192                     	;# 
   174  0193                     	;# 
   175  0193                     	;# 
   176  0194                     	;# 
   177  0195                     	;# 
   178  0196                     	;# 
   179  0197                     	;# 
   180  0199                     	;# 
   181  0199                     	;# 
   182  0199                     	;# 
   183  019A                     	;# 
   184  019A                     	;# 
   185  019A                     	;# 
   186  019B                     	;# 
   187  019B                     	;# 
   188  019B                     	;# 
   189  019B                     	;# 
   190  019B                     	;# 
   191  019C                     	;# 
   192  019C                     	;# 
   193  019C                     	;# 
   194  019D                     	;# 
   195  019D                     	;# 
   196  019D                     	;# 
   197  019E                     	;# 
   198  019E                     	;# 
   199  019E                     	;# 
   200  019F                     	;# 
   201  019F                     	;# 
   202  019F                     	;# 
   203  020D                     	;# 
   204  020F                     	;# 
   205  0210                     	;# 
   206  0211                     	;# 
   207  0211                     	;# 
   208  0212                     	;# 
   209  0212                     	;# 
   210  0213                     	;# 
   211  0213                     	;# 
   212  0214                     	;# 
   213  0214                     	;# 
   214  0215                     	;# 
   215  0215                     	;# 
   216  0215                     	;# 
   217  0216                     	;# 
   218  0216                     	;# 
   219  0217                     	;# 
   220  0217                     	;# 
   221  0219                     	;# 
   222  021A                     	;# 
   223  021B                     	;# 
   224  021C                     	;# 
   225  021D                     	;# 
   226  021E                     	;# 
   227  021F                     	;# 
   228  028C                     	;# 
   229  028D                     	;# 
   230  0291                     	;# 
   231  0291                     	;# 
   232  0292                     	;# 
   233  0293                     	;# 
   234  0298                     	;# 
   235  0298                     	;# 
   236  0299                     	;# 
   237  029A                     	;# 
   238  029D                     	;# 
   239  029E                     	;# 
   240  029F                     	;# 
   241  030C                     	;# 
   242  030D                     	;# 
   243  0311                     	;# 
   244  0311                     	;# 
   245  0312                     	;# 
   246  0313                     	;# 
   247  0318                     	;# 
   248  0318                     	;# 
   249  0319                     	;# 
   250  031A                     	;# 
   251  031C                     	;# 
   252  031C                     	;# 
   253  031D                     	;# 
   254  031E                     	;# 
   255  038C                     	;# 
   256  038D                     	;# 
   257  0394                     	;# 
   258  0395                     	;# 
   259  0396                     	;# 
   260  040C                     	;# 
   261  040D                     	;# 
   262  0411                     	;# 
   263  0411                     	;# 
   264  0412                     	;# 
   265  0413                     	;# 
   266  0414                     	;# 
   267  0415                     	;# 
   268  0416                     	;# 
   269  0417                     	;# 
   270  0418                     	;# 
   271  0418                     	;# 
   272  0419                     	;# 
   273  041A                     	;# 
   274  041B                     	;# 
   275  041C                     	;# 
   276  041D                     	;# 
   277  041E                     	;# 
   278  048D                     	;# 
   279  0491                     	;# 
   280  0491                     	;# 
   281  0492                     	;# 
   282  0492                     	;# 
   283  0493                     	;# 
   284  0493                     	;# 
   285  0493                     	;# 
   286  0494                     	;# 
   287  0494                     	;# 
   288  0495                     	;# 
   289  0495                     	;# 
   290  0496                     	;# 
   291  0496                     	;# 
   292  0497                     	;# 
   293  0497                     	;# 
   294  0595                     	;# 
   295  0596                     	;# 
   296  0597                     	;# 
   297  059C                     	;# 
   298  059D                     	;# 
   299  059E                     	;# 
   300  0611                     	;# 
   301  0611                     	;# 
   302  0612                     	;# 
   303  0613                     	;# 
   304  0614                     	;# 
   305  0614                     	;# 
   306  0615                     	;# 
   307  0616                     	;# 
   308  0617                     	;# 
   309  0617                     	;# 
   310  0618                     	;# 
   311  0619                     	;# 
   312  061A                     	;# 
   313  061A                     	;# 
   314  061B                     	;# 
   315  061C                     	;# 
   316  061D                     	;# 
   317  061D                     	;# 
   318  061E                     	;# 
   319  061F                     	;# 
   320  0FE4                     	;# 
   321  0FE5                     	;# 
   322  0FE6                     	;# 
   323  0FE7                     	;# 
   324  0FE8                     	;# 
   325  0FE9                     	;# 
   326  0FEA                     	;# 
   327  0FEB                     	;# 
   328  0FED                     	;# 
   329  0FEE                     	;# 
   330  0FEF                     	;# 
   331                           
   332                           	psect	idataBANK0
   333  0002                     __pidataBANK0:	
   334                           
   335                           ;initializer for _man
   336  0002  3401               	retlw	1
   337  0003  3400               	retlw	0
   338                           
   339                           	psect	idataBANK1
   340  0A80                     __pidataBANK1:	
   341                           
   342                           ;initializer for _child_LOCK
   343  0A80  34A0               	retlw	low (STR_1| (0+32768))
   344  0A81  3490               	retlw	high (STR_1| (0+32768))
   345  0A82  3400               	retlw	0
   346  0A83  3400               	retlw	0
   347  0A84  3400               	retlw	0
   348  0A85  3400               	retlw	0
   349  0A86  3400               	retlw	0
   350  0A87  3400               	retlw	0
   351  0A88  3400               	retlw	0
   352  0A89  3400               	retlw	0
   353  0A8A  3400               	retlw	0
   354  0A8B  3400               	retlw	0
   355  0A8C  3400               	retlw	0
   356  0A8D  3400               	retlw	0
   357  0A8E  3400               	retlw	0
   358  0A8F  3400               	retlw	0
   359  0A90  3400               	retlw	0
   360  0A91  3400               	retlw	0
   361  0A92  3400               	retlw	0
   362  0A93  3400               	retlw	0
   363                           
   364                           ;initializer for _st
   365  0A94  3454               	retlw	84
   366  0A95  3430               	retlw	48
   367  0A96  3430               	retlw	48
   368  0A97  3430               	retlw	48
   369  0A98  3430               	retlw	48
   370  0A99  3430               	retlw	48
   371  0A9A  3430               	retlw	48
   372  0A9B  3430               	retlw	48
   373  0A9C  3430               	retlw	48
   374  0A9D  3430               	retlw	48
   375  0A9E  3430               	retlw	48
   376  0A9F  3430               	retlw	48
   377  0AA0  3430               	retlw	48
   378  0AA1  3430               	retlw	48
   379  0AA2  3430               	retlw	48
   380  0AA3  3430               	retlw	48
   381  0AA4  3430               	retlw	48
   382  0AA5  3430               	retlw	48
   383  0AA6  3430               	retlw	48
   384  0AA7  3430               	retlw	48
   385  0AA8  3430               	retlw	48
   386  0AA9  3430               	retlw	48
   387  0AAA  3400               	retlw	0
   388  0AAB  3400               	retlw	0
   389  0AAC  3400               	retlw	0
   390  0AAD  3400               	retlw	0
   391                           
   392                           	psect	idataBANK2
   393  076A                     __pidataBANK2:	
   394                           
   395                           ;initializer for _copy
   396  076A  3424               	retlw	36
   397  076B  3400               	retlw	0
   398  076C  3400               	retlw	0
   399  076D  3400               	retlw	0
   400  076E  3400               	retlw	0
   401  076F  3400               	retlw	0
   402  0770  3400               	retlw	0
   403  0771  3400               	retlw	0
   404  0772  3400               	retlw	0
   405  0773  3400               	retlw	0
   406  0774  3400               	retlw	0
   407  0775  3400               	retlw	0
   408  0776  3400               	retlw	0
   409  0777  3400               	retlw	0
   410  0778  3400               	retlw	0
   411  0779  3400               	retlw	0
   412  077A  3400               	retlw	0
   413  077B  3400               	retlw	0
   414  077C  3400               	retlw	0
   415  077D  3400               	retlw	0
   416  077E  3400               	retlw	0
   417  077F  3400               	retlw	0
   418  0780  3400               	retlw	0
   419  0781  3400               	retlw	0
   420  0782  3400               	retlw	0
   421  0783  3400               	retlw	0
   422  0784  3400               	retlw	0
   423  0785  3400               	retlw	0
   424  0786  3400               	retlw	0
   425  0787  3400               	retlw	0
   426  0788  3400               	retlw	0
   427  0789  3400               	retlw	0
   428  078A  3400               	retlw	0
   429  078B  3400               	retlw	0
   430  078C  3400               	retlw	0
   431  078D  3400               	retlw	0
   432                           
   433                           ;initializer for _name
   434  078E  3461               	retlw	97
   435  078F  3400               	retlw	0
   436  0790  3400               	retlw	0
   437  0791  3400               	retlw	0
   438  0792  3400               	retlw	0
   439  0793  3400               	retlw	0
   440  0794  3400               	retlw	0
   441  0795  3400               	retlw	0
   442  0796  3400               	retlw	0
   443  0797  3400               	retlw	0
   444  0798  3400               	retlw	0
   445  0799  3400               	retlw	0
   446  079A  3400               	retlw	0
   447  079B  3400               	retlw	0
   448  079C  3400               	retlw	0
   449  079D  3400               	retlw	0
   450  079E  3400               	retlw	0
   451  079F  3400               	retlw	0
   452  07A0  3400               	retlw	0
   453  07A1  3400               	retlw	0
   454  07A2  3400               	retlw	0
   455  07A3  3400               	retlw	0
   456  07A4  3400               	retlw	0
   457  07A5  3400               	retlw	0
   458  07A6  3400               	retlw	0
   459  07A7  3400               	retlw	0
   460  07A8  3400               	retlw	0
   461  07A9  3400               	retlw	0
   462  07AA  3400               	retlw	0
   463  07AB  3400               	retlw	0
   464  07AC  3400               	retlw	0
   465  07AD  3400               	retlw	0
   466  07AE  3400               	retlw	0
   467  07AF  3400               	retlw	0
   468  07B0  3400               	retlw	0
   469  07B1  3400               	retlw	0
   470  001A                     _TMR2	set	26
   471  001C                     _T2CON	set	28
   472  0019                     _T1GCON	set	25
   473  0018                     _T1CON	set	24
   474  0016                     _TMR1L	set	22
   475  0017                     _TMR1H	set	23
   476  0014                     _PIR4bits	set	20
   477  0013                     _PIR3bits	set	19
   478  001B                     _PR2	set	27
   479  0018                     _T1CONbits	set	24
   480  001C                     _T2CONbits	set	28
   481  0011                     _PIR1bits	set	17
   482  005E                     _PEIE	set	94
   483  005F                     _GIE	set	95
   484  0065                     _RA5	set	101
   485  0085                     _RE5	set	133
   486  0063                     _RA3	set	99
   487  0062                     _RA2	set	98
   488  008D                     _RCIF	set	141
   489  008E                     _TRISCbits	set	142
   490  008C                     _TRISAbits	set	140
   491  0090                     _TRISEbits	set	144
   492  0094                     _PIE4bits	set	148
   493  0093                     _PIE3bits	set	147
   494  0091                     _PIE1bits	set	145
   495  018C                     _ANSELA	set	396
   496  0190                     _ANSELE	set	400
   497  019C                     _SP1BRGH	set	412
   498  019B                     _SP1BRGL	set	411
   499  019E                     _TX1STA	set	414
   500  019D                     _RC1STA	set	413
   501  019F                     _BAUD1CON	set	415
   502  019E                     _TX1STAbits	set	414
   503  0199                     _RC1REG	set	409
   504  019A                     _TX1REG	set	410
   505  019D                     _RC1STAbits	set	413
   506  0210                     _WPUE	set	528
   507  0291                     _CCPR1L	set	657
   508  0292                     _CCPR1H	set	658
   509  0293                     _CCP1CON	set	659
   510  1467                     _RF7	set	5223
   511  1465                     _RF5	set	5221
   512  1463                     _RF3	set	5219
   513  1462                     _RF2	set	5218
   514  1461                     _RF1	set	5217
   515  1460                     _RF0	set	5216
   516  030C                     _TRISFbits	set	780
   517  030D                     _TRISGbits	set	781
   518  0312                     _CCPR3H	set	786
   519  0311                     _CCPR3L	set	785
   520  0313                     _CCP3CON	set	787
   521  040C                     _ANSELF	set	1036
   522  040D                     _ANSELG	set	1037
   523  041C                     _TMR6	set	1052
   524  041E                     _T6CON	set	1054
   525  0415                     _TMR4	set	1045
   526  0417                     _T4CON	set	1047
   527  041B                     _T5GCON	set	1051
   528  041A                     _T5CON	set	1050
   529  0414                     _T3GCON	set	1044
   530  0413                     _T3CON	set	1043
   531  0418                     _TMR5L	set	1048
   532  0419                     _TMR5H	set	1049
   533  0411                     _TMR3L	set	1041
   534  0412                     _TMR3H	set	1042
   535  041A                     _T5CONbits	set	1050
   536  041D                     _PR6	set	1053
   537  041E                     _T6CONbits	set	1054
   538  0413                     _T3CONbits	set	1043
   539  0416                     _PR4	set	1046
   540  0417                     _T4CONbits	set	1047
   541  048D                     _WPUG	set	1165
   542  061A                     _CCPR9L	set	1562
   543  061B                     _CCPR9H	set	1563
   544  061C                     _CCP9CON	set	1564
   545                           
   546                           	psect	stringtext1
   547  10A0                     __pstringtext1:	
   548  10A0                     STR_1:	
   549  10A0  3430               	retlw	48	;'0'
   550  10A1  3430               	retlw	48	;'0'
   551  10A2  3430               	retlw	48	;'0'
   552  10A3  3430               	retlw	48	;'0'
   553  10A4  3430               	retlw	48	;'0'
   554  10A5  3430               	retlw	48	;'0'
   555  10A6  3430               	retlw	48	;'0'
   556  10A7  3430               	retlw	48	;'0'
   557  10A8  3430               	retlw	48	;'0'
   558  10A9  3430               	retlw	48	;'0'
   559  10AA  3430               	retlw	48	;'0'
   560  10AB  3400               	retlw	0
   561                           
   562                           	psect	stringtext2
   563  0000                     __pstringtext2:	
   564                           
   565                           ; #config settings
   566  0000                     
   567                           	psect	cinit
   568  06CA                     start_initialization:	
   569  06CA                     __initialization:	
   570                           
   571                           ; Initialize objects allocated to BANK0
   572  06CA  3180  2002  3186   	fcall	__pidataBANK0	;fetch initializer
   573  06CD  00E0               	movwf	__pdataBANK0& (0+127)
   574  06CE  3180  2003  3186   	fcall	__pidataBANK0+1	;fetch initializer
   575  06D1  00E1               	movwf	(__pdataBANK0+1)& (0+127)
   576                           
   577                           ; Initialize objects allocated to BANK1
   578  06D2  3080               	movlw	low __pidataBANK1
   579  06D3  0084               	movwf	4
   580  06D4  308A               	movlw	(high __pidataBANK1)| (0+128)
   581  06D5  0085               	movwf	5
   582  06D6  30A0               	movlw	low __pdataBANK1
   583  06D7  0086               	movwf	6
   584  06D8  3000               	movlw	high __pdataBANK1
   585  06D9  0087               	movwf	7
   586  06DA  302E               	movlw	46
   587  06DB  3189  21F0  3186   	fcall	init_ram
   588                           
   589                           ; Initialize objects allocated to BANK2
   590  06DE  306A               	movlw	low __pidataBANK2
   591  06DF  0084               	movwf	4
   592  06E0  3087               	movlw	(high __pidataBANK2)| (0+128)
   593  06E1  0085               	movwf	5
   594  06E2  3020               	movlw	low __pdataBANK2
   595  06E3  0086               	movwf	6
   596  06E4  3001               	movlw	high __pdataBANK2
   597  06E5  0087               	movwf	7
   598  06E6  3048               	movlw	72
   599  06E7  3189  21F0  3186   	fcall	init_ram
   600                           
   601                           ; Clear objects allocated to COMMON
   602  06EA  01FA               	clrf	__pbssCOMMON& (0+127)
   603  06EB  01FB               	clrf	(__pbssCOMMON+1)& (0+127)
   604                           
   605                           ; Clear objects allocated to BANK0
   606  06EC  3045               	movlw	low __pbssBANK0
   607  06ED  0084               	movwf	4
   608  06EE  3000               	movlw	high __pbssBANK0
   609  06EF  0085               	movwf	5
   610  06F0  301B               	movlw	27
   611  06F1  3197  279F  3186   	fcall	clear_ram0
   612                           
   613                           ; Clear objects allocated to BANK1
   614  06F4  30DE               	movlw	low __pbssBANK1
   615  06F5  0084               	movwf	4
   616  06F6  3000               	movlw	high __pbssBANK1
   617  06F7  0085               	movwf	5
   618  06F8  300E               	movlw	14
   619  06F9  3197  279F         	fcall	clear_ram0
   620  06FB                     end_of_initialization:	
   621                           ;End of C runtime variable initialization code
   622                           
   623  06FB                     __end_of__initialization:	
   624  06FB  107E               	bcf	int$flags,0	;clear compiler interrupt flag (level 1)
   625  06FC  0020               	movlb	0
   626  06FD  318C  2C41         	ljmp	_main	;jump to C main() function
   627                           
   628                           	psect	bssCOMMON
   629  007A                     __pbssCOMMON:	
   630  007A                     _tk:	
   631  007A                     	ds	2
   632                           
   633                           	psect	bssBANK0
   634  0045                     __pbssBANK0:	
   635  0045                     _M5:	
   636  0045                     	ds	2
   637  0047                     _M4:	
   638  0047                     	ds	2
   639  0049                     _M3:	
   640  0049                     	ds	2
   641  004B                     _M2:	
   642  004B                     	ds	2
   643  004D                     _M1:	
   644  004D                     	ds	2
   645  004F                     _COPY_FLAG:	
   646  004F                     	ds	2
   647  0051                     _FAN_SPEED3_1s:	
   648  0051                     	ds	2
   649  0053                     _FAN_SPEED2_1s:	
   650  0053                     	ds	2
   651  0055                     _FAN_SPEED1_1s:	
   652  0055                     	ds	2
   653  0057                     _ak:	
   654  0057                     	ds	2
   655  0059                     _pk:	
   656  0059                     	ds	2
   657  005B                     _i:	
   658  005B                     	ds	2
   659  005D                     _dimmer3:	
   660  005D                     	ds	1
   661  005E                     _dimmer2:	
   662  005E                     	ds	1
   663  005F                     _dimmer1:	
   664  005F                     	ds	1
   665                           
   666                           	psect	dataBANK0
   667  0060                     __pdataBANK0:	
   668  0060                     _man:	
   669  0060                     	ds	2
   670                           
   671                           	psect	bssBANK1
   672  00DE                     __pbssBANK1:	
   673  00DE                     _FAN_FLAG3:	
   674  00DE                     	ds	2
   675  00E0                     _FAN_FLAG2:	
   676  00E0                     	ds	2
   677  00E2                     _FAN_FLAG1:	
   678  00E2                     	ds	2
   679  00E4                     _TX_FLAG:	
   680  00E4                     	ds	2
   681  00E6                     _FAN_SPEED3_10s:	
   682  00E6                     	ds	2
   683  00E8                     _FAN_SPEED2_10s:	
   684  00E8                     	ds	2
   685  00EA                     _FAN_SPEED1_10s:	
   686  00EA                     	ds	2
   687                           
   688                           	psect	dataBANK1
   689  00A0                     __pdataBANK1:	
   690  00A0                     _child_LOCK:	
   691  00A0                     	ds	20
   692  00B4                     _st:	
   693  00B4                     	ds	26
   694                           
   695                           	psect	dataBANK2
   696  0120                     __pdataBANK2:	
   697  0120                     _copy:	
   698  0120                     	ds	36
   699  0144                     _name:	
   700  0144                     	ds	36
   701                           
   702                           	psect	inittext
   703  09F0                     init_ram:	
   704  09F0  00FE               	movwf	126
   705  09F1                     initloop:	
   706  09F1  0012               	moviw fsr0++
   707  09F2  001E               	movwi fsr1++
   708  09F3  0BFE               	decfsz	126,f
   709  09F4  29F1               	goto	initloop
   710  09F5  3400               	retlw	0
   711                           
   712                           	psect	clrtext
   713  179F                     clear_ram0:	
   714                           ;	Called with FSR0 containing the base address, and
   715                           ;	WREG with the size to clear
   716                           
   717  179F  0064               	clrwdt	;clear the watchdog before getting into this loop
   718  17A0                     clrloop0:	
   719  17A0  0180               	clrf	0	;clear RAM location pointed to by FSR
   720  17A1  3101               	addfsr 0,1
   721  17A2  0B89               	decfsz	9,f	;Have we reached the end of clearing yet?
   722  17A3  2FA0               	goto	clrloop0	;have we reached the end yet?
   723  17A4  3400               	retlw	0	;all done for this memory range, return
   724                           
   725                           	psect	cstackBANK1
   726  00CE                     __pcstackBANK1:	
   727  00CE                     main@RX_CHK_FLAG_start1:	
   728                           
   729                           ; 2 bytes @ 0x0
   730  00CE                     	ds	2
   731  00D0                     main@RX_CHK_FLAG_start2:	
   732                           
   733                           ; 2 bytes @ 0x2
   734  00D0                     	ds	2
   735  00D2                     main@RX_CHK_FLAG_end1:	
   736                           
   737                           ; 2 bytes @ 0x4
   738  00D2                     	ds	2
   739  00D4                     main@RX_CHK_FLAG_end2:	
   740                           
   741                           ; 2 bytes @ 0x6
   742  00D4                     	ds	2
   743  00D6                     main@start_flag:	
   744                           
   745                           ; 2 bytes @ 0x8
   746  00D6                     	ds	2
   747  00D8                     main@end_flag:	
   748                           
   749                           ; 2 bytes @ 0xA
   750  00D8                     	ds	2
   751  00DA                     main@k_749:	
   752                           
   753                           ; 2 bytes @ 0xC
   754  00DA                     	ds	2
   755  00DC                     main@k:	
   756                           
   757                           ; 2 bytes @ 0xE
   758  00DC                     	ds	2
   759                           
   760                           	psect	cstackCOMMON
   761  0070                     __pcstackCOMMON:	
   762  0070                     ?_isdigit:	
   763  0070                     ?_EUSART_Initialize:	
   764                           ; 1 bit 
   765                           
   766  0070                     ?_CCP1_Initialize:	
   767                           ; 1 bytes @ 0x0
   768                           
   769  0070                     ?_CCP3_Initialize:	
   770                           ; 1 bytes @ 0x0
   771                           
   772  0070                     ?_CCP9_Initialize:	
   773                           ; 1 bytes @ 0x0
   774                           
   775  0070                     ?_TMR1_Initialize:	
   776                           ; 1 bytes @ 0x0
   777                           
   778  0070                     ?_TMR3_Initialize:	
   779                           ; 1 bytes @ 0x0
   780                           
   781  0070                     ?_TMR2_Initialize:	
   782                           ; 1 bytes @ 0x0
   783                           
   784  0070                     ?_TMR4_Initialize:	
   785                           ; 1 bytes @ 0x0
   786                           
   787  0070                     ?_TMR5_Initialize:	
   788                           ; 1 bytes @ 0x0
   789                           
   790  0070                     ?_TMR6_Initialize:	
   791                           ; 1 bytes @ 0x0
   792                           
   793  0070                     ?_pin_manager:	
   794                           ; 1 bytes @ 0x0
   795                           
   796  0070                     ?_writeUART:	
   797                           ; 1 bytes @ 0x0
   798                           
   799  0070                     ?_isr:	
   800                           ; 1 bytes @ 0x0
   801                           
   802  0070                     ??_isr:	
   803                           ; 1 bytes @ 0x0
   804                           
   805  0070                     ?_periperal_init:	
   806                           ; 1 bytes @ 0x0
   807                           
   808  0070                     ?_main:	
   809                           ; 1 bytes @ 0x0
   810                           
   811                           
   812                           ; 1 bytes @ 0x0
   813  0070                     	ds	2
   814  0072                     ??_EUSART_Initialize:	
   815  0072                     ??_CCP1_Initialize:	
   816                           ; 1 bytes @ 0x2
   817                           
   818  0072                     ??_CCP3_Initialize:	
   819                           ; 1 bytes @ 0x2
   820                           
   821  0072                     ??_CCP9_Initialize:	
   822                           ; 1 bytes @ 0x2
   823                           
   824  0072                     ??_TMR1_Initialize:	
   825                           ; 1 bytes @ 0x2
   826                           
   827  0072                     ??_TMR3_Initialize:	
   828                           ; 1 bytes @ 0x2
   829                           
   830  0072                     ??_TMR2_Initialize:	
   831                           ; 1 bytes @ 0x2
   832                           
   833  0072                     ??_TMR4_Initialize:	
   834                           ; 1 bytes @ 0x2
   835                           
   836  0072                     ??_TMR5_Initialize:	
   837                           ; 1 bytes @ 0x2
   838                           
   839  0072                     ??_TMR6_Initialize:	
   840                           ; 1 bytes @ 0x2
   841                           
   842  0072                     ??_pin_manager:	
   843                           ; 1 bytes @ 0x2
   844                           
   845  0072                     ?_copy_frame:	
   846                           ; 1 bytes @ 0x2
   847                           
   848  0072                     ??_writeUART:	
   849                           ; 1 bytes @ 0x2
   850                           
   851  0072                     ??_isdigit:	
   852                           ; 1 bytes @ 0x2
   853                           
   854  0072                     ??_periperal_init:	
   855                           ; 1 bytes @ 0x2
   856                           
   857  0072                     ?___wmul:	
   858                           ; 1 bytes @ 0x2
   859                           
   860  0072                     _isdigit$975:	
   861                           ; 2 bytes @ 0x2
   862                           
   863  0072                     copy_frame@start:	
   864                           ; 1 bytes @ 0x2
   865                           
   866  0072                     ___wmul@multiplier:	
   867                           ; 2 bytes @ 0x2
   868                           
   869                           
   870                           ; 2 bytes @ 0x2
   871  0072                     	ds	1
   872  0073                     isdigit@c:	
   873  0073                     writeUART@Tx_count:	
   874                           ; 1 bytes @ 0x3
   875                           
   876                           
   877                           ; 2 bytes @ 0x3
   878  0073                     	ds	1
   879  0074                     copy_frame@end:	
   880  0074                     ___wmul@multiplicand:	
   881                           ; 2 bytes @ 0x4
   882                           
   883                           
   884                           ; 2 bytes @ 0x4
   885  0074                     	ds	1
   886  0075                     writeUART@str2Write:	
   887                           
   888                           ; 1 bytes @ 0x5
   889  0075                     	ds	1
   890  0076                     ??_copy_frame:	
   891  0076                     ??___wmul:	
   892                           ; 1 bytes @ 0x6
   893                           
   894  0076                     ___wmul@product:	
   895                           ; 1 bytes @ 0x6
   896                           
   897                           
   898                           ; 2 bytes @ 0x6
   899  0076                     	ds	2
   900  0078                     ?_atoi:	
   901                           
   902                           ; 2 bytes @ 0x8
   903  0078                     	ds	2
   904                           
   905                           	psect	cstackBANK0
   906  0020                     __pcstackBANK0:	
   907  0020                     ??_atoi:	
   908  0020                     copy_frame@sw:	
   909                           ; 1 bytes @ 0x0
   910                           
   911                           
   912                           ; 2 bytes @ 0x0
   913  0020                     	ds	2
   914  0022                     atoi@sign:	
   915  0022                     copy_frame@k:	
   916                           ; 1 bytes @ 0x2
   917                           
   918                           
   919                           ; 2 bytes @ 0x2
   920  0022                     	ds	1
   921  0023                     atoi@a:	
   922                           
   923                           ; 2 bytes @ 0x3
   924  0023                     	ds	2
   925  0025                     atoi@s:	
   926                           
   927                           ; 1 bytes @ 0x5
   928  0025                     	ds	1
   929  0026                     ?_ACTION:	
   930  0026                     ACTION@Switch_Num_1s:	
   931                           ; 1 bytes @ 0x6
   932                           
   933                           
   934                           ; 1 bytes @ 0x6
   935  0026                     	ds	1
   936  0027                     ACTION@sw_status:	
   937                           
   938                           ; 1 bytes @ 0x7
   939  0027                     	ds	1
   940  0028                     ACTION@speed_bitHigh:	
   941                           
   942                           ; 1 bytes @ 0x8
   943  0028                     	ds	1
   944  0029                     ACTION@speed_bitLow:	
   945                           
   946                           ; 1 bytes @ 0x9
   947  0029                     	ds	1
   948  002A                     ACTION@parent:	
   949                           
   950                           ; 1 bytes @ 0xA
   951  002A                     	ds	1
   952  002B                     ACTION@finalFrameStat:	
   953                           
   954                           ; 1 bytes @ 0xB
   955  002B                     	ds	1
   956  002C                     ??_ACTION:	
   957                           
   958                           ; 1 bytes @ 0xC
   959  002C                     	ds	2
   960  002E                     ACTION@FanSpeed:	
   961                           
   962                           ; 2 bytes @ 0xE
   963  002E                     	ds	2
   964  0030                     ACTION@children:	
   965                           
   966                           ; 2 bytes @ 0x10
   967  0030                     	ds	2
   968  0032                     ACTION@child_lock_num:	
   969                           
   970                           ; 2 bytes @ 0x12
   971  0032                     	ds	2
   972  0034                     ACTION@Switch_Num_10s:	
   973                           
   974                           ; 1 bytes @ 0x14
   975  0034                     	ds	1
   976  0035                     ACTION@FanSpeedString:	
   977                           
   978                           ; 2 bytes @ 0x15
   979  0035                     	ds	2
   980  0037                     ACTION@SwNumString:	
   981                           
   982                           ; 2 bytes @ 0x17
   983  0037                     	ds	2
   984  0039                     ACTION@SwNum:	
   985                           
   986                           ; 2 bytes @ 0x19
   987  0039                     	ds	2
   988  003B                     ACTION@response_starts:	
   989                           
   990                           ; 2 bytes @ 0x1B
   991  003B                     	ds	2
   992  003D                     ACTION@switch_status:	
   993                           
   994                           ; 2 bytes @ 0x1D
   995  003D                     	ds	2
   996  003F                     ??_main:	
   997                           
   998                           ; 1 bytes @ 0x1F
   999  003F                     	ds	6
  1000                           
  1001                           	psect	maintext
  1002  0C41                     __pmaintext:	
  1003 ;;
  1004 ;;Main: autosize = 0, tempsize = 6, incstack = 0, save=0
  1005 ;;
  1006 ;; *************** function _main *****************
  1007 ;; Defined at:
  1008 ;;		line 1109 in file "2_3DIM.c"
  1009 ;; Parameters:    Size  Location     Type
  1010 ;;		None
  1011 ;; Auto vars:     Size  Location     Type
  1012 ;;  k               2   12[BANK1 ] int 
  1013 ;;  k               2   14[BANK1 ] int 
  1014 ;;  end_flag        2   10[BANK1 ] int 
  1015 ;;  start_flag      2    8[BANK1 ] int 
  1016 ;;  RX_CHK_FLAG_    2    6[BANK1 ] int 
  1017 ;;  RX_CHK_FLAG_    2    4[BANK1 ] int 
  1018 ;;  RX_CHK_FLAG_    2    2[BANK1 ] int 
  1019 ;;  RX_CHK_FLAG_    2    0[BANK1 ] int 
  1020 ;; Return value:  Size  Location     Type
  1021 ;;                  1    wreg      void 
  1022 ;; Registers used:
  1023 ;;		wreg, fsr0l, fsr0h, fsr1l, fsr1h, status,2, status,0, pclath, cstack
  1024 ;; Tracked objects:
  1025 ;;		On entry : B1F/0
  1026 ;;		On exit  : 0/0
  1027 ;;		Unchanged: 0/0
  1028 ;; Data sizes:     COMMON   BANK0   BANK1   BANK2   BANK3   BANK4   BANK5   BANK6   BANK7   BANK8   BANK9
  1029 ;;      Params:         0       0       0       0       0       0       0       0       0       0       0
  1030 ;;      Locals:         0       0      16       0       0       0       0       0       0       0       0
  1031 ;;      Temps:          0       6       0       0       0       0       0       0       0       0       0
  1032 ;;      Totals:         0       6      16       0       0       0       0       0       0       0       0
  1033 ;;Total ram usage:       22 bytes
  1034 ;; Hardware stack levels required when called:    4
  1035 ;; This function calls:
  1036 ;;		_ACTION
  1037 ;;		_copy_frame
  1038 ;;		_periperal_init
  1039 ;;		_pin_manager
  1040 ;;		_writeUART
  1041 ;; This function is called by:
  1042 ;;		Startup code after reset
  1043 ;; This function uses a non-reentrant model
  1044 ;;
  1045                           
  1046                           
  1047                           ;psect for function _main
  1048  0C41                     _main:	
  1049                           
  1050                           ;2_3DIM.c: 1110: _delay((unsigned long)((2000)*(16000000/4000.0)));
  1051                           
  1052                           ;incstack = 0
  1053                           ; Regs used in _main: [wreg-fsr1h+status,2+status,0+pclath+cstack]
  1054  0C41  3029               	movlw	41
  1055  0C42  0020               	movlb	0	; select bank0
  1056  0C43  00C0               	movwf	??_main+1
  1057  0C44  3096               	movlw	150
  1058  0C45  00BF               	movwf	??_main
  1059  0C46  307F               	movlw	127
  1060  0C47                     u3577:	
  1061  0C47  0B89               	decfsz	9,f
  1062  0C48  2C47               	goto	u3577
  1063  0C49  0BBF               	decfsz	??_main,f
  1064  0C4A  2C47               	goto	u3577
  1065  0C4B  0BC0               	decfsz	??_main+1,f
  1066  0C4C  2C47               	goto	u3577
  1067                           
  1068                           ;2_3DIM.c: 1112: int RX_CHK_FLAG_start1 = 0 ,RX_CHK_FLAG_start2 = 0, start_flag=0;
  1069  0C4D  0021               	movlb	1	; select bank1
  1070  0C4E  01CE               	clrf	main@RX_CHK_FLAG_start1^(0+128)
  1071  0C4F  01CF               	clrf	(main@RX_CHK_FLAG_start1+1)^(0+128)
  1072  0C50  01D0               	clrf	main@RX_CHK_FLAG_start2^(0+128)
  1073  0C51  01D1               	clrf	(main@RX_CHK_FLAG_start2+1)^(0+128)
  1074  0C52  01D6               	clrf	main@start_flag^(0+128)
  1075  0C53  01D7               	clrf	(main@start_flag+1)^(0+128)
  1076                           
  1077                           ;2_3DIM.c: 1113: int RX_CHK_FLAG_end1 = 0, RX_CHK_FLAG_end2 = 0, end_flag=0;
  1078  0C54  01D2               	clrf	main@RX_CHK_FLAG_end1^(0+128)
  1079  0C55  01D3               	clrf	(main@RX_CHK_FLAG_end1+1)^(0+128)
  1080  0C56  01D4               	clrf	main@RX_CHK_FLAG_end2^(0+128)
  1081  0C57  01D5               	clrf	(main@RX_CHK_FLAG_end2+1)^(0+128)
  1082  0C58  01D8               	clrf	main@end_flag^(0+128)
  1083  0C59  01D9               	clrf	(main@end_flag+1)^(0+128)
  1084                           
  1085                           ;2_3DIM.c: 1115: pin_manager();
  1086  0C5A  318A  2260  318C   	fcall	_pin_manager
  1087                           
  1088                           ;2_3DIM.c: 1116: periperal_init();
  1089  0C5D  318A  2242  318C   	fcall	_periperal_init
  1090                           
  1091                           ;2_3DIM.c: 1118: RF0 = 0; RF1 = 0; RE5 = 1; RA3 = 1; RA2 = 1;
  1092  0C60  0025               	movlb	5	; select bank5
  1093  0C61  100C               	bcf	12,0	;volatile
  1094  0C62  108C               	bcf	12,1	;volatile
  1095  0C63  0020               	movlb	0	; select bank0
  1096  0C64  1690               	bsf	16,5	;volatile
  1097  0C65  158C               	bsf	12,3	;volatile
  1098  0C66  150C               	bsf	12,2	;volatile
  1099                           
  1100                           ;2_3DIM.c: 1119: M1=1; M2=1; M3=1; M4=1; M5=1;
  1101  0C67  3001               	movlw	1
  1102  0C68  00CD               	movwf	_M1
  1103  0C69  3000               	movlw	0
  1104  0C6A  00CE               	movwf	_M1+1
  1105  0C6B  3001               	movlw	1
  1106  0C6C  00CB               	movwf	_M2
  1107  0C6D  3000               	movlw	0
  1108  0C6E  00CC               	movwf	_M2+1
  1109  0C6F  3001               	movlw	1
  1110  0C70  00C9               	movwf	_M3
  1111  0C71  3000               	movlw	0
  1112  0C72  00CA               	movwf	_M3+1
  1113  0C73  3001               	movlw	1
  1114  0C74  00C7               	movwf	_M4
  1115  0C75  3000               	movlw	0
  1116  0C76  00C8               	movwf	_M4+1
  1117  0C77  3001               	movlw	1
  1118  0C78  00C5               	movwf	_M5
  1119  0C79  3000               	movlw	0
  1120  0C7A  00C6               	movwf	_M5+1
  1121                           
  1122                           ;2_3DIM.c: 1121: st[0]='%';
  1123  0C7B  3025               	movlw	37
  1124  0C7C  00BF               	movwf	??_main
  1125  0C7D  083F               	movf	??_main,w
  1126  0C7E  0021               	movlb	1	; select bank1
  1127  0C7F  00B4               	movwf	_st^(0+128)
  1128                           
  1129                           ;2_3DIM.c: 1122: st[21]='@';
  1130  0C80  3040               	movlw	64
  1131  0C81  0020               	movlb	0	; select bank0
  1132  0C82  00BF               	movwf	??_main
  1133  0C83  083F               	movf	??_main,w
  1134  0C84  0021               	movlb	1	; select bank1
  1135  0C85  00C9               	movwf	(_st^(0+128)+21)
  1136  0C86                     l9038:	
  1137                           ;2_3DIM.c: 1124: while(1){
  1138                           
  1139                           
  1140                           ;2_3DIM.c: 1126: if(TX_FLAG==1)
  1141  0C86  0021               	movlb	1	; select bank1
  1142  0C87  0364               	decf	_TX_FLAG^(0+128),w
  1143  0C88  0465               	iorwf	(_TX_FLAG+1)^(0+128),w
  1144  0C89  1D03               	btfss	3,2
  1145  0C8A  2DD9               	goto	l9124
  1146                           
  1147                           ;2_3DIM.c: 1127: {
  1148                           ;2_3DIM.c: 1129: TX_FLAG=0; start_flag = 0; end_flag = 0;
  1149  0C8B  01E4               	clrf	_TX_FLAG^(0+128)
  1150  0C8C  01E5               	clrf	(_TX_FLAG+1)^(0+128)
  1151  0C8D  01D6               	clrf	main@start_flag^(0+128)
  1152  0C8E  01D7               	clrf	(main@start_flag+1)^(0+128)
  1153  0C8F  01D8               	clrf	main@end_flag^(0+128)
  1154  0C90  01D9               	clrf	(main@end_flag+1)^(0+128)
  1155                           
  1156                           ;2_3DIM.c: 1131: if(name[0]=='%' && name[1]=='%' && name[14]=='@' && name[15]=='@')
  1157  0C91  3025               	movlw	37
  1158  0C92  0022               	movlb	2	; select bank2
  1159  0C93  0644               	xorwf	_name^(0+256),w
  1160  0C94  1D03               	btfss	3,2
  1161  0C95  2D38               	goto	l9092
  1162  0C96  3025               	movlw	37
  1163  0C97  0645               	xorwf	(_name^(0+256)+1),w
  1164  0C98  1D03               	btfss	3,2
  1165  0C99  2D38               	goto	l9092
  1166  0C9A  3040               	movlw	64
  1167  0C9B  0652               	xorwf	(_name^(0+256)+14),w
  1168  0C9C  1D03               	btfss	3,2
  1169  0C9D  2D38               	goto	l9092
  1170  0C9E  3040               	movlw	64
  1171  0C9F  0653               	xorwf	(_name^(0+256)+15),w
  1172  0CA0  1D03               	btfss	3,2
  1173  0CA1  2D38               	goto	l9092
  1174                           
  1175                           ;2_3DIM.c: 1132: {
  1176                           ;2_3DIM.c: 1133: for(int k=0;k<16;k++)
  1177  0CA2  0021               	movlb	1	; select bank1
  1178  0CA3  01DC               	clrf	main@k^(0+128)
  1179  0CA4  01DD               	clrf	(main@k+1)^(0+128)
  1180  0CA5                     L3:	
  1181  0CA5  085D               	movf	(main@k+1)^(0+128),w
  1182  0CA6  3A80               	xorlw	128
  1183  0CA7  0020               	movlb	0	; select bank0
  1184  0CA8  00BF               	movwf	??_main
  1185  0CA9  3080               	movlw	128
  1186  0CAA  023F               	subwf	??_main,w
  1187  0CAB  1D03               	skipz
  1188  0CAC  2CB0               	goto	u2995
  1189  0CAD  3010               	movlw	16
  1190  0CAE  0021               	movlb	1	; select bank1
  1191  0CAF  025C               	subwf	main@k^(0+128),w
  1192  0CB0                     u2995:	
  1193  0CB0  1803               	btfsc	3,0
  1194  0CB1  2D90               	goto	l9112
  1195                           
  1196                           ;2_3DIM.c: 1134: {
  1197                           ;2_3DIM.c: 1135: if(name[k] == '%' && name[k+1] == '%' && start_flag == 0)
  1198  0CB2  0021               	movlb	1	; select bank1
  1199  0CB3  085C               	movf	main@k^(0+128),w
  1200  0CB4  3E44               	addlw	(low (_name| (0+256)))& (0+255)
  1201  0CB5  0086               	movwf	6
  1202  0CB6  3001               	movlw	1	; select bank2/3
  1203  0CB7  0087               	movwf	7
  1204  0CB8  3025               	movlw	37
  1205  0CB9  0601               	xorwf	1,w
  1206  0CBA  1D03               	btfss	3,2
  1207  0CBB  2CD3               	goto	l9064
  1208  0CBC  085C               	movf	main@k^(0+128),w
  1209  0CBD  3E01               	addlw	1
  1210  0CBE  3E44               	addlw	(low (_name| (0+256)))& (0+255)
  1211  0CBF  0086               	movwf	6
  1212  0CC0  3001               	movlw	1	; select bank2/3
  1213  0CC1  0087               	movwf	7
  1214  0CC2  3025               	movlw	37
  1215  0CC3  0601               	xorwf	1,w
  1216  0CC4  1D03               	btfss	3,2
  1217  0CC5  2CD3               	goto	l9064
  1218  0CC6  0856               	movf	main@start_flag^(0+128),w
  1219  0CC7  0457               	iorwf	(main@start_flag+1)^(0+128),w
  1220  0CC8  1D03               	btfss	3,2
  1221  0CC9  2CD3               	goto	l9064
  1222                           
  1223                           ;2_3DIM.c: 1136: {
  1224                           ;2_3DIM.c: 1137: RX_CHK_FLAG_start1 = k;
  1225  0CCA  085D               	movf	(main@k+1)^(0+128),w
  1226  0CCB  00CF               	movwf	(main@RX_CHK_FLAG_start1+1)^(0+128)
  1227  0CCC  085C               	movf	main@k^(0+128),w
  1228  0CCD  00CE               	movwf	main@RX_CHK_FLAG_start1^(0+128)
  1229                           
  1230                           ;2_3DIM.c: 1138: start_flag = 1;
  1231  0CCE  3001               	movlw	1
  1232  0CCF  00D6               	movwf	main@start_flag^(0+128)
  1233  0CD0  3000               	movlw	0
  1234  0CD1  00D7               	movwf	(main@start_flag^(0+128)+1)
  1235                           
  1236                           ;2_3DIM.c: 1139: }
  1237  0CD2  2D32               	goto	l9090
  1238  0CD3                     l9064:	
  1239                           
  1240                           ;2_3DIM.c: 1140: else if(name[k] == '%' && name[k+1] == '%' && start_flag == 1)
  1241  0CD3  085C               	movf	main@k^(0+128),w
  1242  0CD4  3E44               	addlw	(low (_name| (0+256)))& (0+255)
  1243  0CD5  0086               	movwf	6
  1244  0CD6  3001               	movlw	1	; select bank2/3
  1245  0CD7  0087               	movwf	7
  1246  0CD8  3025               	movlw	37
  1247  0CD9  0601               	xorwf	1,w
  1248  0CDA  1D03               	btfss	3,2
  1249  0CDB  2CEF               	goto	l9072
  1250  0CDC  085C               	movf	main@k^(0+128),w
  1251  0CDD  3E01               	addlw	1
  1252  0CDE  3E44               	addlw	(low (_name| (0+256)))& (0+255)
  1253  0CDF  0086               	movwf	6
  1254  0CE0  3001               	movlw	1	; select bank2/3
  1255  0CE1  0087               	movwf	7
  1256  0CE2  3025               	movlw	37
  1257  0CE3  0601               	xorwf	1,w
  1258  0CE4  1D03               	btfss	3,2
  1259  0CE5  2CEF               	goto	l9072
  1260  0CE6  0356               	decf	main@start_flag^(0+128),w
  1261  0CE7  0457               	iorwf	(main@start_flag+1)^(0+128),w
  1262  0CE8  1D03               	btfss	3,2
  1263  0CE9  2CEF               	goto	l9072
  1264                           
  1265                           ;2_3DIM.c: 1141: {
  1266                           ;2_3DIM.c: 1142: RX_CHK_FLAG_start2 = k;
  1267  0CEA  085D               	movf	(main@k+1)^(0+128),w
  1268  0CEB  00D1               	movwf	(main@RX_CHK_FLAG_start2+1)^(0+128)
  1269  0CEC  085C               	movf	main@k^(0+128),w
  1270  0CED  00D0               	movwf	main@RX_CHK_FLAG_start2^(0+128)
  1271                           
  1272                           ;2_3DIM.c: 1143: }
  1273  0CEE  2D32               	goto	l9090
  1274  0CEF                     l9072:	
  1275                           
  1276                           ;2_3DIM.c: 1144: else if(name[k] == '@' && name[k+1] == '@' && end_flag == 0)
  1277  0CEF  085C               	movf	main@k^(0+128),w
  1278  0CF0  3E44               	addlw	(low (_name| (0+256)))& (0+255)
  1279  0CF1  0086               	movwf	6
  1280  0CF2  3001               	movlw	1	; select bank2/3
  1281  0CF3  0087               	movwf	7
  1282  0CF4  3040               	movlw	64
  1283  0CF5  0601               	xorwf	1,w
  1284  0CF6  1D03               	btfss	3,2
  1285  0CF7  2D10               	goto	l9082
  1286  0CF8  085C               	movf	main@k^(0+128),w
  1287  0CF9  3E01               	addlw	1
  1288  0CFA  3E44               	addlw	(low (_name| (0+256)))& (0+255)
  1289  0CFB  0086               	movwf	6
  1290  0CFC  3001               	movlw	1	; select bank2/3
  1291  0CFD  0087               	movwf	7
  1292  0CFE  3040               	movlw	64
  1293  0CFF  0601               	xorwf	1,w
  1294  0D00  1D03               	btfss	3,2
  1295  0D01  2D10               	goto	l9082
  1296  0D02  0858               	movf	main@end_flag^(0+128),w
  1297  0D03  0459               	iorwf	(main@end_flag+1)^(0+128),w
  1298  0D04  1D03               	btfss	3,2
  1299  0D05  2D10               	goto	l9082
  1300                           
  1301                           ;2_3DIM.c: 1145: {
  1302                           ;2_3DIM.c: 1146: RX_CHK_FLAG_end1 = k;
  1303  0D06  085D               	movf	(main@k+1)^(0+128),w
  1304  0D07  00D3               	movwf	(main@RX_CHK_FLAG_end1+1)^(0+128)
  1305  0D08  085C               	movf	main@k^(0+128),w
  1306  0D09  00D2               	movwf	main@RX_CHK_FLAG_end1^(0+128)
  1307                           
  1308                           ;2_3DIM.c: 1147: end_flag = 1;
  1309  0D0A  3001               	movlw	1
  1310  0D0B  00D8               	movwf	main@end_flag^(0+128)
  1311  0D0C  3000               	movlw	0
  1312  0D0D  00D9               	movwf	(main@end_flag^(0+128)+1)
  1313                           
  1314                           ;2_3DIM.c: 1148: COPY_FLAG=1;
  1315  0D0E  3001               	movlw	1
  1316  0D0F  2D2D               	goto	L1
  1317  0D10                     l9082:	
  1318                           ;2_3DIM.c: 1150: }
  1319                           
  1320                           ;2_3DIM.c: 1149: break;
  1321                           
  1322                           
  1323                           ;2_3DIM.c: 1151: else if(name[k] == '@' && name[k+1] == '@' && end_flag == 1)
  1324  0D10  0021               	movlb	1	; select bank1
  1325  0D11  085C               	movf	main@k^(0+128),w
  1326  0D12  3E44               	addlw	(low (_name| (0+256)))& (0+255)
  1327  0D13  0086               	movwf	6
  1328  0D14  3001               	movlw	1	; select bank2/3
  1329  0D15  0087               	movwf	7
  1330  0D16  3040               	movlw	64
  1331  0D17  0601               	xorwf	1,w
  1332  0D18  1D03               	btfss	3,2
  1333  0D19  2D32               	goto	l9090
  1334  0D1A  085C               	movf	main@k^(0+128),w
  1335  0D1B  3E01               	addlw	1
  1336  0D1C  3E44               	addlw	(low (_name| (0+256)))& (0+255)
  1337  0D1D  0086               	movwf	6
  1338  0D1E  3001               	movlw	1	; select bank2/3
  1339  0D1F  0087               	movwf	7
  1340  0D20  3040               	movlw	64
  1341  0D21  0601               	xorwf	1,w
  1342  0D22  1D03               	btfss	3,2
  1343  0D23  2D32               	goto	l9090
  1344  0D24  0358               	decf	main@end_flag^(0+128),w
  1345  0D25  0459               	iorwf	(main@end_flag+1)^(0+128),w
  1346  0D26  1D03               	btfss	3,2
  1347  0D27  2D32               	goto	l9090
  1348                           
  1349                           ;2_3DIM.c: 1152: {
  1350                           ;2_3DIM.c: 1153: RX_CHK_FLAG_end2 = k;
  1351  0D28  085D               	movf	(main@k+1)^(0+128),w
  1352  0D29  00D5               	movwf	(main@RX_CHK_FLAG_end2+1)^(0+128)
  1353  0D2A  085C               	movf	main@k^(0+128),w
  1354  0D2B  00D4               	movwf	main@RX_CHK_FLAG_end2^(0+128)
  1355                           
  1356                           ;2_3DIM.c: 1154: COPY_FLAG=2;
  1357  0D2C  3002               	movlw	2
  1358  0D2D                     L1:	
  1359  0D2D  0020               	movlb	0	; select bank0
  1360  0D2E  00CF               	movwf	_COPY_FLAG
  1361  0D2F  3000               	movlw	0
  1362  0D30  00D0               	movwf	_COPY_FLAG+1
  1363                           
  1364                           ;2_3DIM.c: 1155: break;
  1365  0D31  2D90               	goto	l9112
  1366  0D32                     l9090:	
  1367  0D32  3001               	movlw	1
  1368  0D33  0021               	movlb	1	; select bank1
  1369  0D34  07DC               	addwf	main@k^(0+128),f
  1370  0D35  3000               	movlw	0
  1371  0D36  3DDD               	addwfc	(main@k+1)^(0+128),f
  1372  0D37  2CA5               	goto	L3
  1373  0D38                     l9092:	
  1374                           ;2_3DIM.c: 1156: }
  1375                           ;2_3DIM.c: 1157: }
  1376                           ;2_3DIM.c: 1158: }
  1377                           
  1378                           
  1379                           ;2_3DIM.c: 1159: else
  1380                           ;2_3DIM.c: 1160: {
  1381                           ;2_3DIM.c: 1161: _delay((unsigned long)((10)*(16000000/4000.0))); TX1REG='P'; _delay((un
      +                          signed long)((1)*(16000000/4000.0))); TX1REG='K'; _delay((unsigned long)((1)*(16000000/4
      +                          000.0)));
  1382  0D38  3034               	movlw	52
  1383  0D39  0020               	movlb	0	; select bank0
  1384  0D3A  00BF               	movwf	??_main
  1385  0D3B  30F1               	movlw	241
  1386  0D3C                     u3587:	
  1387  0D3C  0B89               	decfsz	9,f
  1388  0D3D  2D3C               	goto	u3587
  1389  0D3E  0BBF               	decfsz	??_main,f
  1390  0D3F  2D3C               	goto	u3587
  1391  0D40  3200               	nop2
  1392  0D41  3050               	movlw	80
  1393  0D42  0023               	movlb	3	; select bank3
  1394  0D43  009A               	movwf	26	;volatile
  1395  0D44  3006               	movlw	6
  1396  0D45  0020               	movlb	0	; select bank0
  1397  0D46  00BF               	movwf	??_main
  1398  0D47  3030               	movlw	48
  1399  0D48                     u3597:	
  1400  0D48  0B89               	decfsz	9,f
  1401  0D49  2D48               	goto	u3597
  1402  0D4A  0BBF               	decfsz	??_main,f
  1403  0D4B  2D48               	goto	u3597
  1404  0D4C  0000               	nop
  1405  0D4D  304B               	movlw	75
  1406  0D4E  0023               	movlb	3	; select bank3
  1407  0D4F  009A               	movwf	26	;volatile
  1408  0D50  3006               	movlw	6
  1409  0D51  0020               	movlb	0	; select bank0
  1410  0D52  00BF               	movwf	??_main
  1411  0D53  3030               	movlw	48
  1412  0D54                     u3607:	
  1413  0D54  0B89               	decfsz	9,f
  1414  0D55  2D54               	goto	u3607
  1415  0D56  0BBF               	decfsz	??_main,f
  1416  0D57  2D54               	goto	u3607
  1417  0D58  0000               	nop
  1418                           
  1419                           ;2_3DIM.c: 1162: i=0; RC1STAbits.SPEN=0; RC1STAbits.SPEN=1;
  1420  0D59  0020               	movlb	0	; select bank0
  1421  0D5A  01DB               	clrf	_i
  1422  0D5B  01DC               	clrf	_i+1
  1423  0D5C  0023               	movlb	3	; select bank3
  1424  0D5D  139D               	bcf	29,7	;volatile
  1425  0D5E  179D               	bsf	29,7	;volatile
  1426                           
  1427                           ;2_3DIM.c: 1163: for(int k = 0; k< 15; k++)
  1428  0D5F  0021               	movlb	1	; select bank1
  1429  0D60  01DA               	clrf	main@k_749^(0+128)
  1430  0D61  01DB               	clrf	(main@k_749+1)^(0+128)
  1431  0D62  085B               	movf	(main@k_749+1)^(0+128),w
  1432  0D63  3A80               	xorlw	128
  1433  0D64  0020               	movlb	0	; select bank0
  1434  0D65  00BF               	movwf	??_main
  1435  0D66  3080               	movlw	128
  1436  0D67  023F               	subwf	??_main,w
  1437  0D68  1D03               	skipz
  1438  0D69  2D6D               	goto	u3135
  1439  0D6A  300F               	movlw	15
  1440  0D6B  0021               	movlb	1	; select bank1
  1441  0D6C  025A               	subwf	main@k_749^(0+128),w
  1442  0D6D                     u3135:	
  1443  0D6D  1803               	btfsc	3,0
  1444  0D6E  2D8D               	goto	l9110
  1445  0D6F                     l9104:	
  1446                           
  1447                           ;2_3DIM.c: 1164: {
  1448                           ;2_3DIM.c: 1165: name[k] = '#';
  1449  0D6F  3023               	movlw	35
  1450  0D70  0020               	movlb	0	; select bank0
  1451  0D71  00BF               	movwf	??_main
  1452  0D72  0021               	movlb	1	; select bank1
  1453  0D73  085A               	movf	main@k_749^(0+128),w
  1454  0D74  3E44               	addlw	(low (_name| (0+256)))& (0+255)
  1455  0D75  0086               	movwf	6
  1456  0D76  3001               	movlw	1	; select bank2/3
  1457  0D77  0087               	movwf	7
  1458  0D78  0020               	movlb	0	; select bank0
  1459  0D79  083F               	movf	??_main,w
  1460  0D7A  0081               	movwf	1
  1461  0D7B  3001               	movlw	1
  1462  0D7C  0021               	movlb	1	; select bank1
  1463  0D7D  07DA               	addwf	main@k_749^(0+128),f
  1464  0D7E  3000               	movlw	0
  1465  0D7F  3DDB               	addwfc	(main@k_749+1)^(0+128),f
  1466  0D80  085B               	movf	(main@k_749+1)^(0+128),w
  1467  0D81  3A80               	xorlw	128
  1468  0D82  0020               	movlb	0	; select bank0
  1469  0D83  00BF               	movwf	??_main
  1470  0D84  3080               	movlw	128
  1471  0D85  023F               	subwf	??_main,w
  1472  0D86  1D03               	skipz
  1473  0D87  2D8B               	goto	u3145
  1474  0D88  300F               	movlw	15
  1475  0D89  0021               	movlb	1	; select bank1
  1476  0D8A  025A               	subwf	main@k_749^(0+128),w
  1477  0D8B                     u3145:	
  1478  0D8B  1C03               	skipc
  1479  0D8C  2D6F               	goto	l9104
  1480  0D8D                     l9110:	
  1481                           
  1482                           ;2_3DIM.c: 1166: }
  1483                           ;2_3DIM.c: 1169: COPY_FLAG=0;
  1484  0D8D  0020               	movlb	0	; select bank0
  1485  0D8E  01CF               	clrf	_COPY_FLAG
  1486  0D8F  01D0               	clrf	_COPY_FLAG+1
  1487  0D90                     l9112:	
  1488                           
  1489                           ;2_3DIM.c: 1170: }
  1490                           ;2_3DIM.c: 1173: if(COPY_FLAG==1)
  1491  0D90  0020               	movlb	0	; select bank0
  1492  0D91  034F               	decf	_COPY_FLAG,w
  1493  0D92  0450               	iorwf	_COPY_FLAG+1,w
  1494  0D93  1D03               	btfss	3,2
  1495  0D94  2D9E               	goto	l9118
  1496                           
  1497                           ;2_3DIM.c: 1174: {
  1498                           ;2_3DIM.c: 1175: copy_frame(RX_CHK_FLAG_start1,RX_CHK_FLAG_end1);
  1499  0D95  0021               	movlb	1	; select bank1
  1500  0D96  084F               	movf	(main@RX_CHK_FLAG_start1+1)^(0+128),w
  1501  0D97  00F3               	movwf	copy_frame@start+1
  1502  0D98  084E               	movf	main@RX_CHK_FLAG_start1^(0+128),w
  1503  0D99  00F2               	movwf	copy_frame@start
  1504  0D9A  0853               	movf	(main@RX_CHK_FLAG_end1+1)^(0+128),w
  1505  0D9B  00F5               	movwf	copy_frame@end+1
  1506  0D9C  0852               	movf	main@RX_CHK_FLAG_end1^(0+128),w
  1507  0D9D  2DAC               	goto	L2
  1508  0D9E                     l9118:	
  1509                           ;2_3DIM.c: 1178: }
  1510                           
  1511                           ;2_3DIM.c: 1177: ACTION(copy[2], copy[3], copy[4], copy[5], copy[6], copy[7],copy[8]);
  1512                           
  1513                           
  1514                           ;2_3DIM.c: 1179: else if(COPY_FLAG==2)
  1515  0D9E  3002               	movlw	2
  1516  0D9F  0020               	movlb	0	; select bank0
  1517  0DA0  064F               	xorwf	_COPY_FLAG,w
  1518  0DA1  0450               	iorwf	_COPY_FLAG+1,w
  1519  0DA2  1D03               	btfss	3,2
  1520  0DA3  2DD9               	goto	l9124
  1521                           
  1522                           ;2_3DIM.c: 1180: {
  1523                           ;2_3DIM.c: 1181: copy_frame(RX_CHK_FLAG_start2,RX_CHK_FLAG_end2);
  1524  0DA4  0021               	movlb	1	; select bank1
  1525  0DA5  0851               	movf	(main@RX_CHK_FLAG_start2+1)^(0+128),w
  1526  0DA6  00F3               	movwf	copy_frame@start+1
  1527  0DA7  0850               	movf	main@RX_CHK_FLAG_start2^(0+128),w
  1528  0DA8  00F2               	movwf	copy_frame@start
  1529  0DA9  0855               	movf	(main@RX_CHK_FLAG_end2+1)^(0+128),w
  1530  0DAA  00F5               	movwf	copy_frame@end+1
  1531  0DAB  0854               	movf	main@RX_CHK_FLAG_end2^(0+128),w
  1532  0DAC                     L2:	
  1533  0DAC  00F4               	movwf	copy_frame@end
  1534  0DAD  3187  27B2  318C   	fcall	_copy_frame
  1535                           
  1536                           ;2_3DIM.c: 1182: ACTION(copy[2], copy[3], copy[4], copy[5], copy[6], copy[7],copy[8]);
  1537  0DB0  0022               	movlb	2	; select bank2
  1538  0DB1  0823               	movf	(_copy^(0+256)+3),w
  1539  0DB2  0020               	movlb	0	; select bank0
  1540  0DB3  00BF               	movwf	??_main
  1541  0DB4  083F               	movf	??_main,w
  1542  0DB5  00A6               	movwf	ACTION@Switch_Num_1s
  1543  0DB6  0022               	movlb	2	; select bank2
  1544  0DB7  0824               	movf	(_copy^(0+256)+4),w
  1545  0DB8  0020               	movlb	0	; select bank0
  1546  0DB9  00C0               	movwf	??_main+1
  1547  0DBA  0840               	movf	??_main+1,w
  1548  0DBB  00A7               	movwf	ACTION@sw_status
  1549  0DBC  0022               	movlb	2	; select bank2
  1550  0DBD  0825               	movf	(_copy^(0+256)+5),w
  1551  0DBE  0020               	movlb	0	; select bank0
  1552  0DBF  00C1               	movwf	??_main+2
  1553  0DC0  0841               	movf	??_main+2,w
  1554  0DC1  00A8               	movwf	ACTION@speed_bitHigh
  1555  0DC2  0022               	movlb	2	; select bank2
  1556  0DC3  0826               	movf	(_copy^(0+256)+6),w
  1557  0DC4  0020               	movlb	0	; select bank0
  1558  0DC5  00C2               	movwf	??_main+3
  1559  0DC6  0842               	movf	??_main+3,w
  1560  0DC7  00A9               	movwf	ACTION@speed_bitLow
  1561  0DC8  0022               	movlb	2	; select bank2
  1562  0DC9  0827               	movf	(_copy^(0+256)+7),w
  1563  0DCA  0020               	movlb	0	; select bank0
  1564  0DCB  00C3               	movwf	??_main+4
  1565  0DCC  0843               	movf	??_main+4,w
  1566  0DCD  00AA               	movwf	ACTION@parent
  1567  0DCE  0022               	movlb	2	; select bank2
  1568  0DCF  0828               	movf	(_copy^(0+256)+8),w
  1569  0DD0  0020               	movlb	0	; select bank0
  1570  0DD1  00C4               	movwf	??_main+5
  1571  0DD2  0844               	movf	??_main+5,w
  1572  0DD3  00AB               	movwf	ACTION@finalFrameStat
  1573  0DD4  0022               	movlb	2	; select bank2
  1574  0DD5  0822               	movf	(_copy^(0+256)+2),w
  1575  0DD6  318A  22AE  318C   	fcall	_ACTION
  1576  0DD9                     l9124:	
  1577                           
  1578                           ;2_3DIM.c: 1183: }
  1579                           ;2_3DIM.c: 1184: }
  1580                           ;2_3DIM.c: 1189: if(child_LOCK[1]==0 && RA5==0 && M1==0)
  1581  0DD9  0021               	movlb	1	; select bank1
  1582  0DDA  0822               	movf	(_child_LOCK^(0+128)+2),w
  1583  0DDB  0423               	iorwf	((_child_LOCK+1)^(0+128)+2),w
  1584  0DDC  1D03               	btfss	3,2
  1585  0DDD  2E0F               	goto	l9142
  1586  0DDE  0020               	movlb	0	; select bank0
  1587  0DDF  1A8C               	btfsc	12,5	;volatile
  1588  0DE0  2E0F               	goto	l9142
  1589  0DE1  084D               	movf	_M1,w
  1590  0DE2  044E               	iorwf	_M1+1,w
  1591  0DE3  1D03               	btfss	3,2
  1592  0DE4  2E0F               	goto	l9142
  1593                           
  1594                           ;2_3DIM.c: 1190: {
  1595                           ;2_3DIM.c: 1191: if(man==1)
  1596  0DE5  0360               	decf	_man,w
  1597  0DE6  0461               	iorwf	_man+1,w
  1598  0DE7  1D03               	btfss	3,2
  1599  0DE8  2E06               	goto	l9138
  1600                           
  1601                           ;2_3DIM.c: 1192: {
  1602                           ;2_3DIM.c: 1193: st[1]='R'; st[2]='0'; st[3]='0'; st[4]='1'; writeUART(st+1); RF0=0;
  1603  0DE9  3052               	movlw	82
  1604  0DEA  00BF               	movwf	??_main
  1605  0DEB  083F               	movf	??_main,w
  1606  0DEC  0021               	movlb	1	; select bank1
  1607  0DED  00B5               	movwf	(_st^(0+128)+1)
  1608  0DEE  3030               	movlw	48
  1609  0DEF  0020               	movlb	0	; select bank0
  1610  0DF0  00BF               	movwf	??_main
  1611  0DF1  083F               	movf	??_main,w
  1612  0DF2  0021               	movlb	1	; select bank1
  1613  0DF3  00B6               	movwf	(_st^(0+128)+2)
  1614  0DF4  3030               	movlw	48
  1615  0DF5  0020               	movlb	0	; select bank0
  1616  0DF6  00BF               	movwf	??_main
  1617  0DF7  083F               	movf	??_main,w
  1618  0DF8  0021               	movlb	1	; select bank1
  1619  0DF9  00B7               	movwf	(_st^(0+128)+3)
  1620  0DFA  3031               	movlw	49
  1621  0DFB  0020               	movlb	0	; select bank0
  1622  0DFC  00BF               	movwf	??_main
  1623  0DFD  083F               	movf	??_main,w
  1624  0DFE  0021               	movlb	1	; select bank1
  1625  0DFF  00B8               	movwf	(_st^(0+128)+4)
  1626  0E00  30B5               	movlw	(low ((_st| 0+1)))& (0+255)
  1627  0E01  318A  220E  318C   	fcall	_writeUART
  1628  0E04  0025               	movlb	5	; select bank5
  1629  0E05  100C               	bcf	12,0	;volatile
  1630  0E06                     l9138:	
  1631                           
  1632                           ;2_3DIM.c: 1194: }
  1633                           ;2_3DIM.c: 1195: M1=1; man=1;
  1634  0E06  3001               	movlw	1
  1635  0E07  0020               	movlb	0	; select bank0
  1636  0E08  00CD               	movwf	_M1
  1637  0E09  3000               	movlw	0
  1638  0E0A  00CE               	movwf	_M1+1
  1639  0E0B  3001               	movlw	1
  1640  0E0C  00E0               	movwf	_man
  1641  0E0D  3000               	movlw	0
  1642  0E0E  00E1               	movwf	_man+1
  1643  0E0F                     l9142:	
  1644                           
  1645                           ;2_3DIM.c: 1196: }
  1646                           ;2_3DIM.c: 1199: if(child_LOCK[1]==0 && RA5==1 && M1==1)
  1647  0E0F  0021               	movlb	1	; select bank1
  1648  0E10  0822               	movf	(_child_LOCK^(0+128)+2),w
  1649  0E11  0423               	iorwf	((_child_LOCK+1)^(0+128)+2),w
  1650  0E12  1D03               	btfss	3,2
  1651  0E13  2E43               	goto	l9160
  1652  0E14  0020               	movlb	0	; select bank0
  1653  0E15  1E8C               	btfss	12,5	;volatile
  1654  0E16  2E43               	goto	l9160
  1655  0E17  034D               	decf	_M1,w
  1656  0E18  044E               	iorwf	_M1+1,w
  1657  0E19  1D03               	btfss	3,2
  1658  0E1A  2E43               	goto	l9160
  1659                           
  1660                           ;2_3DIM.c: 1200: {
  1661                           ;2_3DIM.c: 1201: if(man==1)
  1662  0E1B  0360               	decf	_man,w
  1663  0E1C  0461               	iorwf	_man+1,w
  1664  0E1D  1D03               	btfss	3,2
  1665  0E1E  2E3C               	goto	l9156
  1666                           
  1667                           ;2_3DIM.c: 1202: {
  1668                           ;2_3DIM.c: 1203: st[1]='R'; st[2]='1'; st[3]='0'; st[4]='1'; writeUART(st+1); RF0=1;
  1669  0E1F  3052               	movlw	82
  1670  0E20  00BF               	movwf	??_main
  1671  0E21  083F               	movf	??_main,w
  1672  0E22  0021               	movlb	1	; select bank1
  1673  0E23  00B5               	movwf	(_st^(0+128)+1)
  1674  0E24  3031               	movlw	49
  1675  0E25  0020               	movlb	0	; select bank0
  1676  0E26  00BF               	movwf	??_main
  1677  0E27  083F               	movf	??_main,w
  1678  0E28  0021               	movlb	1	; select bank1
  1679  0E29  00B6               	movwf	(_st^(0+128)+2)
  1680  0E2A  3030               	movlw	48
  1681  0E2B  0020               	movlb	0	; select bank0
  1682  0E2C  00BF               	movwf	??_main
  1683  0E2D  083F               	movf	??_main,w
  1684  0E2E  0021               	movlb	1	; select bank1
  1685  0E2F  00B7               	movwf	(_st^(0+128)+3)
  1686  0E30  3031               	movlw	49
  1687  0E31  0020               	movlb	0	; select bank0
  1688  0E32  00BF               	movwf	??_main
  1689  0E33  083F               	movf	??_main,w
  1690  0E34  0021               	movlb	1	; select bank1
  1691  0E35  00B8               	movwf	(_st^(0+128)+4)
  1692  0E36  30B5               	movlw	(low ((_st| 0+1)))& (0+255)
  1693  0E37  318A  220E  318C   	fcall	_writeUART
  1694  0E3A  0025               	movlb	5	; select bank5
  1695  0E3B  140C               	bsf	12,0	;volatile
  1696  0E3C                     l9156:	
  1697                           
  1698                           ;2_3DIM.c: 1204: }
  1699                           ;2_3DIM.c: 1205: M1=0; man=1;
  1700  0E3C  0020               	movlb	0	; select bank0
  1701  0E3D  01CD               	clrf	_M1
  1702  0E3E  01CE               	clrf	_M1+1
  1703  0E3F  3001               	movlw	1
  1704  0E40  00E0               	movwf	_man
  1705  0E41  3000               	movlw	0
  1706  0E42  00E1               	movwf	_man+1
  1707  0E43                     l9160:	
  1708                           
  1709                           ;2_3DIM.c: 1206: }
  1710                           ;2_3DIM.c: 1208: if( child_LOCK[3]==0 && RF2==0 && M2==0)
  1711  0E43  0021               	movlb	1	; select bank1
  1712  0E44  0826               	movf	(_child_LOCK^(0+128)+6),w
  1713  0E45  0427               	iorwf	((_child_LOCK+1)^(0+128)+6),w
  1714  0E46  1D03               	btfss	3,2
  1715  0E47  2E7A               	goto	l9178
  1716  0E48  0025               	movlb	5	; select bank5
  1717  0E49  190C               	btfsc	12,2	;volatile
  1718  0E4A  2E7A               	goto	l9178
  1719  0E4B  0020               	movlb	0	; select bank0
  1720  0E4C  084B               	movf	_M2,w
  1721  0E4D  044C               	iorwf	_M2+1,w
  1722  0E4E  1D03               	btfss	3,2
  1723  0E4F  2E7A               	goto	l9178
  1724                           
  1725                           ;2_3DIM.c: 1209: {
  1726                           ;2_3DIM.c: 1210: if(man==1)
  1727  0E50  0360               	decf	_man,w
  1728  0E51  0461               	iorwf	_man+1,w
  1729  0E52  1D03               	btfss	3,2
  1730  0E53  2E71               	goto	l9174
  1731                           
  1732                           ;2_3DIM.c: 1211: {
  1733                           ;2_3DIM.c: 1212: st[5]='R'; st[6]='0'; st[7]='0'; st[8]='2'; writeUART(st+5); RF1=0;
  1734  0E54  3052               	movlw	82
  1735  0E55  00BF               	movwf	??_main
  1736  0E56  083F               	movf	??_main,w
  1737  0E57  0021               	movlb	1	; select bank1
  1738  0E58  00B9               	movwf	(_st^(0+128)+5)
  1739  0E59  3030               	movlw	48
  1740  0E5A  0020               	movlb	0	; select bank0
  1741  0E5B  00BF               	movwf	??_main
  1742  0E5C  083F               	movf	??_main,w
  1743  0E5D  0021               	movlb	1	; select bank1
  1744  0E5E  00BA               	movwf	(_st^(0+128)+6)
  1745  0E5F  3030               	movlw	48
  1746  0E60  0020               	movlb	0	; select bank0
  1747  0E61  00BF               	movwf	??_main
  1748  0E62  083F               	movf	??_main,w
  1749  0E63  0021               	movlb	1	; select bank1
  1750  0E64  00BB               	movwf	(_st^(0+128)+7)
  1751  0E65  3032               	movlw	50
  1752  0E66  0020               	movlb	0	; select bank0
  1753  0E67  00BF               	movwf	??_main
  1754  0E68  083F               	movf	??_main,w
  1755  0E69  0021               	movlb	1	; select bank1
  1756  0E6A  00BC               	movwf	(_st^(0+128)+8)
  1757  0E6B  30B9               	movlw	(low ((_st| 0+5)))& (0+255)
  1758  0E6C  318A  220E  318C   	fcall	_writeUART
  1759  0E6F  0025               	movlb	5	; select bank5
  1760  0E70  108C               	bcf	12,1	;volatile
  1761  0E71                     l9174:	
  1762                           
  1763                           ;2_3DIM.c: 1213: }
  1764                           ;2_3DIM.c: 1214: M2=1; man=1;
  1765  0E71  3001               	movlw	1
  1766  0E72  0020               	movlb	0	; select bank0
  1767  0E73  00CB               	movwf	_M2
  1768  0E74  3000               	movlw	0
  1769  0E75  00CC               	movwf	_M2+1
  1770  0E76  3001               	movlw	1
  1771  0E77  00E0               	movwf	_man
  1772  0E78  3000               	movlw	0
  1773  0E79  00E1               	movwf	_man+1
  1774  0E7A                     l9178:	
  1775                           
  1776                           ;2_3DIM.c: 1215: }
  1777                           ;2_3DIM.c: 1217: if(child_LOCK[3]==0 && RF2==1 && M2==1)
  1778  0E7A  0021               	movlb	1	; select bank1
  1779  0E7B  0826               	movf	(_child_LOCK^(0+128)+6),w
  1780  0E7C  0427               	iorwf	((_child_LOCK+1)^(0+128)+6),w
  1781  0E7D  1D03               	btfss	3,2
  1782  0E7E  2EAF               	goto	l9196
  1783  0E7F  0025               	movlb	5	; select bank5
  1784  0E80  1D0C               	btfss	12,2	;volatile
  1785  0E81  2EAF               	goto	l9196
  1786  0E82  0020               	movlb	0	; select bank0
  1787  0E83  034B               	decf	_M2,w
  1788  0E84  044C               	iorwf	_M2+1,w
  1789  0E85  1D03               	btfss	3,2
  1790  0E86  2EAF               	goto	l9196
  1791                           
  1792                           ;2_3DIM.c: 1218: {
  1793                           ;2_3DIM.c: 1219: if(man==1)
  1794  0E87  0360               	decf	_man,w
  1795  0E88  0461               	iorwf	_man+1,w
  1796  0E89  1D03               	btfss	3,2
  1797  0E8A  2EA8               	goto	l9192
  1798                           
  1799                           ;2_3DIM.c: 1220: {
  1800                           ;2_3DIM.c: 1221: st[5]='R'; st[6]='1'; st[7]='0'; st[8]='2'; writeUART(st+5); RF1=1;
  1801  0E8B  3052               	movlw	82
  1802  0E8C  00BF               	movwf	??_main
  1803  0E8D  083F               	movf	??_main,w
  1804  0E8E  0021               	movlb	1	; select bank1
  1805  0E8F  00B9               	movwf	(_st^(0+128)+5)
  1806  0E90  3031               	movlw	49
  1807  0E91  0020               	movlb	0	; select bank0
  1808  0E92  00BF               	movwf	??_main
  1809  0E93  083F               	movf	??_main,w
  1810  0E94  0021               	movlb	1	; select bank1
  1811  0E95  00BA               	movwf	(_st^(0+128)+6)
  1812  0E96  3030               	movlw	48
  1813  0E97  0020               	movlb	0	; select bank0
  1814  0E98  00BF               	movwf	??_main
  1815  0E99  083F               	movf	??_main,w
  1816  0E9A  0021               	movlb	1	; select bank1
  1817  0E9B  00BB               	movwf	(_st^(0+128)+7)
  1818  0E9C  3032               	movlw	50
  1819  0E9D  0020               	movlb	0	; select bank0
  1820  0E9E  00BF               	movwf	??_main
  1821  0E9F  083F               	movf	??_main,w
  1822  0EA0  0021               	movlb	1	; select bank1
  1823  0EA1  00BC               	movwf	(_st^(0+128)+8)
  1824  0EA2  30B9               	movlw	(low ((_st| 0+5)))& (0+255)
  1825  0EA3  318A  220E  318C   	fcall	_writeUART
  1826  0EA6  0025               	movlb	5	; select bank5
  1827  0EA7  148C               	bsf	12,1	;volatile
  1828  0EA8                     l9192:	
  1829                           
  1830                           ;2_3DIM.c: 1222: }
  1831                           ;2_3DIM.c: 1223: M2=0; man=1;
  1832  0EA8  0020               	movlb	0	; select bank0
  1833  0EA9  01CB               	clrf	_M2
  1834  0EAA  01CC               	clrf	_M2+1
  1835  0EAB  3001               	movlw	1
  1836  0EAC  00E0               	movwf	_man
  1837  0EAD  3000               	movlw	0
  1838  0EAE  00E1               	movwf	_man+1
  1839  0EAF                     l9196:	
  1840                           
  1841                           ;2_3DIM.c: 1224: }
  1842                           ;2_3DIM.c: 1226: if(child_LOCK[5]==0 && RF3==0 && M3==0)
  1843  0EAF  0021               	movlb	1	; select bank1
  1844  0EB0  082A               	movf	(_child_LOCK^(0+128)+10),w
  1845  0EB1  042B               	iorwf	((_child_LOCK+1)^(0+128)+10),w
  1846  0EB2  1D03               	btfss	3,2
  1847  0EB3  2EE8               	goto	l9216
  1848  0EB4  0025               	movlb	5	; select bank5
  1849  0EB5  198C               	btfsc	12,3	;volatile
  1850  0EB6  2EE8               	goto	l9216
  1851  0EB7  0020               	movlb	0	; select bank0
  1852  0EB8  0849               	movf	_M3,w
  1853  0EB9  044A               	iorwf	_M3+1,w
  1854  0EBA  1D03               	btfss	3,2
  1855  0EBB  2EE8               	goto	l9216
  1856                           
  1857                           ;2_3DIM.c: 1227: {
  1858                           ;2_3DIM.c: 1228: if(man==1)
  1859  0EBC  0360               	decf	_man,w
  1860  0EBD  0461               	iorwf	_man+1,w
  1861  0EBE  1D03               	btfss	3,2
  1862  0EBF  2EE0               	goto	l9212
  1863                           
  1864                           ;2_3DIM.c: 1229: {
  1865                           ;2_3DIM.c: 1230: st[9]='R'; st[10]='0'; st[11]='0'; st[12]='3'; writeUART(st+9);FAN_FLAG
      +                          1=0;
  1866  0EC0  3052               	movlw	82
  1867  0EC1  00BF               	movwf	??_main
  1868  0EC2  083F               	movf	??_main,w
  1869  0EC3  0021               	movlb	1	; select bank1
  1870  0EC4  00BD               	movwf	(_st^(0+128)+9)
  1871  0EC5  3030               	movlw	48
  1872  0EC6  0020               	movlb	0	; select bank0
  1873  0EC7  00BF               	movwf	??_main
  1874  0EC8  083F               	movf	??_main,w
  1875  0EC9  0021               	movlb	1	; select bank1
  1876  0ECA  00BE               	movwf	(_st^(0+128)+10)
  1877  0ECB  3030               	movlw	48
  1878  0ECC  0020               	movlb	0	; select bank0
  1879  0ECD  00BF               	movwf	??_main
  1880  0ECE  083F               	movf	??_main,w
  1881  0ECF  0021               	movlb	1	; select bank1
  1882  0ED0  00BF               	movwf	(_st^(0+128)+11)
  1883  0ED1  3033               	movlw	51
  1884  0ED2  0020               	movlb	0	; select bank0
  1885  0ED3  00BF               	movwf	??_main
  1886  0ED4  083F               	movf	??_main,w
  1887  0ED5  0021               	movlb	1	; select bank1
  1888  0ED6  00C0               	movwf	(_st^(0+128)+12)
  1889  0ED7  30BD               	movlw	(low ((_st| 0+9)))& (0+255)
  1890  0ED8  318A  220E  318C   	fcall	_writeUART
  1891  0EDB  0021               	movlb	1	; select bank1
  1892  0EDC  01E2               	clrf	_FAN_FLAG1^(0+128)
  1893  0EDD  01E3               	clrf	(_FAN_FLAG1+1)^(0+128)
  1894                           
  1895                           ;2_3DIM.c: 1231: RA2=1;
  1896  0EDE  0020               	movlb	0	; select bank0
  1897  0EDF  150C               	bsf	12,2	;volatile
  1898  0EE0                     l9212:	
  1899                           
  1900                           ;2_3DIM.c: 1232: }
  1901                           ;2_3DIM.c: 1233: M3=1;
  1902  0EE0  3001               	movlw	1
  1903  0EE1  00C9               	movwf	_M3
  1904  0EE2  3000               	movlw	0
  1905  0EE3  00CA               	movwf	_M3+1
  1906                           
  1907                           ;2_3DIM.c: 1234: man=1;
  1908  0EE4  3001               	movlw	1
  1909  0EE5  00E0               	movwf	_man
  1910  0EE6  3000               	movlw	0
  1911  0EE7  00E1               	movwf	_man+1
  1912  0EE8                     l9216:	
  1913                           
  1914                           ;2_3DIM.c: 1235: }
  1915                           ;2_3DIM.c: 1237: if( child_LOCK[5]==0 && RF3==1 && M3==1)
  1916  0EE8  0021               	movlb	1	; select bank1
  1917  0EE9  082A               	movf	(_child_LOCK^(0+128)+10),w
  1918  0EEA  042B               	iorwf	((_child_LOCK+1)^(0+128)+10),w
  1919  0EEB  1D03               	btfss	3,2
  1920  0EEC  2F1F               	goto	l9236
  1921  0EED  0025               	movlb	5	; select bank5
  1922  0EEE  1D8C               	btfss	12,3	;volatile
  1923  0EEF  2F1F               	goto	l9236
  1924  0EF0  0020               	movlb	0	; select bank0
  1925  0EF1  0349               	decf	_M3,w
  1926  0EF2  044A               	iorwf	_M3+1,w
  1927  0EF3  1D03               	btfss	3,2
  1928  0EF4  2F1F               	goto	l9236
  1929                           
  1930                           ;2_3DIM.c: 1238: {
  1931                           ;2_3DIM.c: 1239: if(man==1)
  1932  0EF5  0360               	decf	_man,w
  1933  0EF6  0461               	iorwf	_man+1,w
  1934  0EF7  1D03               	btfss	3,2
  1935  0EF8  2F19               	goto	l9232
  1936                           
  1937                           ;2_3DIM.c: 1240: {
  1938                           ;2_3DIM.c: 1241: st[9]='R'; st[10]='1'; st[11]='0'; st[12]='3'; writeUART(st+9);FAN_FLAG
      +                          1=0;
  1939  0EF9  3052               	movlw	82
  1940  0EFA  00BF               	movwf	??_main
  1941  0EFB  083F               	movf	??_main,w
  1942  0EFC  0021               	movlb	1	; select bank1
  1943  0EFD  00BD               	movwf	(_st^(0+128)+9)
  1944  0EFE  3031               	movlw	49
  1945  0EFF  0020               	movlb	0	; select bank0
  1946  0F00  00BF               	movwf	??_main
  1947  0F01  083F               	movf	??_main,w
  1948  0F02  0021               	movlb	1	; select bank1
  1949  0F03  00BE               	movwf	(_st^(0+128)+10)
  1950  0F04  3030               	movlw	48
  1951  0F05  0020               	movlb	0	; select bank0
  1952  0F06  00BF               	movwf	??_main
  1953  0F07  083F               	movf	??_main,w
  1954  0F08  0021               	movlb	1	; select bank1
  1955  0F09  00BF               	movwf	(_st^(0+128)+11)
  1956  0F0A  3033               	movlw	51
  1957  0F0B  0020               	movlb	0	; select bank0
  1958  0F0C  00BF               	movwf	??_main
  1959  0F0D  083F               	movf	??_main,w
  1960  0F0E  0021               	movlb	1	; select bank1
  1961  0F0F  00C0               	movwf	(_st^(0+128)+12)
  1962  0F10  30BD               	movlw	(low ((_st| 0+9)))& (0+255)
  1963  0F11  318A  220E  318C   	fcall	_writeUART
  1964  0F14  0021               	movlb	1	; select bank1
  1965  0F15  01E2               	clrf	_FAN_FLAG1^(0+128)
  1966  0F16  01E3               	clrf	(_FAN_FLAG1+1)^(0+128)
  1967                           
  1968                           ;2_3DIM.c: 1242: RA2=0;
  1969  0F17  0020               	movlb	0	; select bank0
  1970  0F18  110C               	bcf	12,2	;volatile
  1971  0F19                     l9232:	
  1972                           
  1973                           ;2_3DIM.c: 1243: }
  1974                           ;2_3DIM.c: 1244: M3=0;
  1975  0F19  01C9               	clrf	_M3
  1976  0F1A  01CA               	clrf	_M3+1
  1977                           
  1978                           ;2_3DIM.c: 1245: man=1;
  1979  0F1B  3001               	movlw	1
  1980  0F1C  00E0               	movwf	_man
  1981  0F1D  3000               	movlw	0
  1982  0F1E  00E1               	movwf	_man+1
  1983  0F1F                     l9236:	
  1984                           
  1985                           ;2_3DIM.c: 1246: }
  1986                           ;2_3DIM.c: 1248: if(child_LOCK[7]==0 && RF5==0 && M4==0)
  1987  0F1F  0021               	movlb	1	; select bank1
  1988  0F20  082E               	movf	(_child_LOCK^(0+128)+14),w
  1989  0F21  042F               	iorwf	((_child_LOCK+1)^(0+128)+14),w
  1990  0F22  1D03               	btfss	3,2
  1991  0F23  2F58               	goto	l9256
  1992  0F24  0025               	movlb	5	; select bank5
  1993  0F25  1A8C               	btfsc	12,5	;volatile
  1994  0F26  2F58               	goto	l9256
  1995  0F27  0020               	movlb	0	; select bank0
  1996  0F28  0847               	movf	_M4,w
  1997  0F29  0448               	iorwf	_M4+1,w
  1998  0F2A  1D03               	btfss	3,2
  1999  0F2B  2F58               	goto	l9256
  2000                           
  2001                           ;2_3DIM.c: 1249: {
  2002                           ;2_3DIM.c: 1250: if(man==1)
  2003  0F2C  0360               	decf	_man,w
  2004  0F2D  0461               	iorwf	_man+1,w
  2005  0F2E  1D03               	btfss	3,2
  2006  0F2F  2F50               	goto	l9252
  2007                           
  2008                           ;2_3DIM.c: 1251: {
  2009                           ;2_3DIM.c: 1252: st[13]='R'; st[14]='0'; st[15]='0'; st[16]='4'; writeUART(st+13);FAN_FL
      +                          AG2=0;
  2010  0F30  3052               	movlw	82
  2011  0F31  00BF               	movwf	??_main
  2012  0F32  083F               	movf	??_main,w
  2013  0F33  0021               	movlb	1	; select bank1
  2014  0F34  00C1               	movwf	(_st^(0+128)+13)
  2015  0F35  3030               	movlw	48
  2016  0F36  0020               	movlb	0	; select bank0
  2017  0F37  00BF               	movwf	??_main
  2018  0F38  083F               	movf	??_main,w
  2019  0F39  0021               	movlb	1	; select bank1
  2020  0F3A  00C2               	movwf	(_st^(0+128)+14)
  2021  0F3B  3030               	movlw	48
  2022  0F3C  0020               	movlb	0	; select bank0
  2023  0F3D  00BF               	movwf	??_main
  2024  0F3E  083F               	movf	??_main,w
  2025  0F3F  0021               	movlb	1	; select bank1
  2026  0F40  00C3               	movwf	(_st^(0+128)+15)
  2027  0F41  3034               	movlw	52
  2028  0F42  0020               	movlb	0	; select bank0
  2029  0F43  00BF               	movwf	??_main
  2030  0F44  083F               	movf	??_main,w
  2031  0F45  0021               	movlb	1	; select bank1
  2032  0F46  00C4               	movwf	(_st^(0+128)+16)
  2033  0F47  30C1               	movlw	(low ((_st| 0+13)))& (0+255)
  2034  0F48  318A  220E  318C   	fcall	_writeUART
  2035  0F4B  0021               	movlb	1	; select bank1
  2036  0F4C  01E0               	clrf	_FAN_FLAG2^(0+128)
  2037  0F4D  01E1               	clrf	(_FAN_FLAG2+1)^(0+128)
  2038                           
  2039                           ;2_3DIM.c: 1253: RA3=1;
  2040  0F4E  0020               	movlb	0	; select bank0
  2041  0F4F  158C               	bsf	12,3	;volatile
  2042  0F50                     l9252:	
  2043                           
  2044                           ;2_3DIM.c: 1254: }
  2045                           ;2_3DIM.c: 1255: M4=1;
  2046  0F50  3001               	movlw	1
  2047  0F51  00C7               	movwf	_M4
  2048  0F52  3000               	movlw	0
  2049  0F53  00C8               	movwf	_M4+1
  2050                           
  2051                           ;2_3DIM.c: 1256: man=1;
  2052  0F54  3001               	movlw	1
  2053  0F55  00E0               	movwf	_man
  2054  0F56  3000               	movlw	0
  2055  0F57  00E1               	movwf	_man+1
  2056  0F58                     l9256:	
  2057                           
  2058                           ;2_3DIM.c: 1257: }
  2059                           ;2_3DIM.c: 1259: if(child_LOCK[7]==0 && RF5==1 && M4==1)
  2060  0F58  0021               	movlb	1	; select bank1
  2061  0F59  082E               	movf	(_child_LOCK^(0+128)+14),w
  2062  0F5A  042F               	iorwf	((_child_LOCK+1)^(0+128)+14),w
  2063  0F5B  1D03               	btfss	3,2
  2064  0F5C  2F8F               	goto	l9276
  2065  0F5D  0025               	movlb	5	; select bank5
  2066  0F5E  1E8C               	btfss	12,5	;volatile
  2067  0F5F  2F8F               	goto	l9276
  2068  0F60  0020               	movlb	0	; select bank0
  2069  0F61  0347               	decf	_M4,w
  2070  0F62  0448               	iorwf	_M4+1,w
  2071  0F63  1D03               	btfss	3,2
  2072  0F64  2F8F               	goto	l9276
  2073                           
  2074                           ;2_3DIM.c: 1260: {
  2075                           ;2_3DIM.c: 1261: if(man==1)
  2076  0F65  0360               	decf	_man,w
  2077  0F66  0461               	iorwf	_man+1,w
  2078  0F67  1D03               	btfss	3,2
  2079  0F68  2F89               	goto	l9272
  2080                           
  2081                           ;2_3DIM.c: 1262: {
  2082                           ;2_3DIM.c: 1263: st[13]='R'; st[14]='1'; st[15]='0'; st[16]='4'; writeUART(st+13); FAN_F
      +                          LAG2=0;
  2083  0F69  3052               	movlw	82
  2084  0F6A  00BF               	movwf	??_main
  2085  0F6B  083F               	movf	??_main,w
  2086  0F6C  0021               	movlb	1	; select bank1
  2087  0F6D  00C1               	movwf	(_st^(0+128)+13)
  2088  0F6E  3031               	movlw	49
  2089  0F6F  0020               	movlb	0	; select bank0
  2090  0F70  00BF               	movwf	??_main
  2091  0F71  083F               	movf	??_main,w
  2092  0F72  0021               	movlb	1	; select bank1
  2093  0F73  00C2               	movwf	(_st^(0+128)+14)
  2094  0F74  3030               	movlw	48
  2095  0F75  0020               	movlb	0	; select bank0
  2096  0F76  00BF               	movwf	??_main
  2097  0F77  083F               	movf	??_main,w
  2098  0F78  0021               	movlb	1	; select bank1
  2099  0F79  00C3               	movwf	(_st^(0+128)+15)
  2100  0F7A  3034               	movlw	52
  2101  0F7B  0020               	movlb	0	; select bank0
  2102  0F7C  00BF               	movwf	??_main
  2103  0F7D  083F               	movf	??_main,w
  2104  0F7E  0021               	movlb	1	; select bank1
  2105  0F7F  00C4               	movwf	(_st^(0+128)+16)
  2106  0F80  30C1               	movlw	(low ((_st| 0+13)))& (0+255)
  2107  0F81  318A  220E  318C   	fcall	_writeUART
  2108  0F84  0021               	movlb	1	; select bank1
  2109  0F85  01E0               	clrf	_FAN_FLAG2^(0+128)
  2110  0F86  01E1               	clrf	(_FAN_FLAG2+1)^(0+128)
  2111                           
  2112                           ;2_3DIM.c: 1264: RA3=0;
  2113  0F87  0020               	movlb	0	; select bank0
  2114  0F88  118C               	bcf	12,3	;volatile
  2115  0F89                     l9272:	
  2116                           
  2117                           ;2_3DIM.c: 1265: }
  2118                           ;2_3DIM.c: 1266: M4=0;
  2119  0F89  01C7               	clrf	_M4
  2120  0F8A  01C8               	clrf	_M4+1
  2121                           
  2122                           ;2_3DIM.c: 1267: man=1;
  2123  0F8B  3001               	movlw	1
  2124  0F8C  00E0               	movwf	_man
  2125  0F8D  3000               	movlw	0
  2126  0F8E  00E1               	movwf	_man+1
  2127  0F8F                     l9276:	
  2128                           
  2129                           ;2_3DIM.c: 1268: }
  2130                           ;2_3DIM.c: 1271: if(child_LOCK[9] == 0 && RF7==0 && M5==0)
  2131  0F8F  0021               	movlb	1	; select bank1
  2132  0F90  0832               	movf	(_child_LOCK^(0+128)+18),w
  2133  0F91  0433               	iorwf	((_child_LOCK+1)^(0+128)+18),w
  2134  0F92  1D03               	btfss	3,2
  2135  0F93  2FC8               	goto	l9296
  2136  0F94  0025               	movlb	5	; select bank5
  2137  0F95  1B8C               	btfsc	12,7	;volatile
  2138  0F96  2FC8               	goto	l9296
  2139  0F97  0020               	movlb	0	; select bank0
  2140  0F98  0845               	movf	_M5,w
  2141  0F99  0446               	iorwf	_M5+1,w
  2142  0F9A  1D03               	btfss	3,2
  2143  0F9B  2FC8               	goto	l9296
  2144                           
  2145                           ;2_3DIM.c: 1272: {
  2146                           ;2_3DIM.c: 1273: if(man==1)
  2147  0F9C  0360               	decf	_man,w
  2148  0F9D  0461               	iorwf	_man+1,w
  2149  0F9E  1D03               	btfss	3,2
  2150  0F9F  2FC0               	goto	l9292
  2151                           
  2152                           ;2_3DIM.c: 1274: {
  2153                           ;2_3DIM.c: 1275: st[17]='R';
  2154  0FA0  3052               	movlw	82
  2155  0FA1  00BF               	movwf	??_main
  2156  0FA2  083F               	movf	??_main,w
  2157  0FA3  0021               	movlb	1	; select bank1
  2158  0FA4  00C5               	movwf	(_st^(0+128)+17)
  2159                           
  2160                           ;2_3DIM.c: 1276: st[18]='0';
  2161  0FA5  3030               	movlw	48
  2162  0FA6  0020               	movlb	0	; select bank0
  2163  0FA7  00BF               	movwf	??_main
  2164  0FA8  083F               	movf	??_main,w
  2165  0FA9  0021               	movlb	1	; select bank1
  2166  0FAA  00C6               	movwf	(_st^(0+128)+18)
  2167                           
  2168                           ;2_3DIM.c: 1277: st[19]='0';
  2169  0FAB  3030               	movlw	48
  2170  0FAC  0020               	movlb	0	; select bank0
  2171  0FAD  00BF               	movwf	??_main
  2172  0FAE  083F               	movf	??_main,w
  2173  0FAF  0021               	movlb	1	; select bank1
  2174  0FB0  00C7               	movwf	(_st^(0+128)+19)
  2175                           
  2176                           ;2_3DIM.c: 1278: st[20]='5';
  2177  0FB1  3035               	movlw	53
  2178  0FB2  0020               	movlb	0	; select bank0
  2179  0FB3  00BF               	movwf	??_main
  2180  0FB4  083F               	movf	??_main,w
  2181  0FB5  0021               	movlb	1	; select bank1
  2182  0FB6  00C8               	movwf	(_st^(0+128)+20)
  2183                           
  2184                           ;2_3DIM.c: 1279: writeUART(st+17);
  2185  0FB7  30C5               	movlw	(low ((_st| 0+17)))& (0+255)
  2186  0FB8  318A  220E  318C   	fcall	_writeUART
  2187                           
  2188                           ;2_3DIM.c: 1280: FAN_FLAG3=0;
  2189  0FBB  0021               	movlb	1	; select bank1
  2190  0FBC  01DE               	clrf	_FAN_FLAG3^(0+128)
  2191  0FBD  01DF               	clrf	(_FAN_FLAG3+1)^(0+128)
  2192                           
  2193                           ;2_3DIM.c: 1282: RE5=1;
  2194  0FBE  0020               	movlb	0	; select bank0
  2195  0FBF  1690               	bsf	16,5	;volatile
  2196  0FC0                     l9292:	
  2197                           
  2198                           ;2_3DIM.c: 1283: }
  2199                           ;2_3DIM.c: 1284: M5=1;
  2200  0FC0  3001               	movlw	1
  2201  0FC1  00C5               	movwf	_M5
  2202  0FC2  3000               	movlw	0
  2203  0FC3  00C6               	movwf	_M5+1
  2204                           
  2205                           ;2_3DIM.c: 1285: man=1;
  2206  0FC4  3001               	movlw	1
  2207  0FC5  00E0               	movwf	_man
  2208  0FC6  3000               	movlw	0
  2209  0FC7  00E1               	movwf	_man+1
  2210  0FC8                     l9296:	
  2211                           
  2212                           ;2_3DIM.c: 1287: }
  2213                           ;2_3DIM.c: 1289: if(child_LOCK[9] == 0 && RF7==1 && M5==1)
  2214  0FC8  0021               	movlb	1	; select bank1
  2215  0FC9  0832               	movf	(_child_LOCK^(0+128)+18),w
  2216  0FCA  0433               	iorwf	((_child_LOCK+1)^(0+128)+18),w
  2217  0FCB  1D03               	btfss	3,2
  2218  0FCC  2C86               	goto	l9038
  2219  0FCD  0025               	movlb	5	; select bank5
  2220  0FCE  1F8C               	btfss	12,7	;volatile
  2221  0FCF  2C86               	goto	l9038
  2222  0FD0  0020               	movlb	0	; select bank0
  2223  0FD1  0345               	decf	_M5,w
  2224  0FD2  0446               	iorwf	_M5+1,w
  2225  0FD3  1D03               	btfss	3,2
  2226  0FD4  2C86               	goto	l9038
  2227                           
  2228                           ;2_3DIM.c: 1290: {
  2229                           ;2_3DIM.c: 1291: if(man==1)
  2230  0FD5  0360               	decf	_man,w
  2231  0FD6  0461               	iorwf	_man+1,w
  2232  0FD7  1D03               	btfss	3,2
  2233  0FD8  2FF9               	goto	l9312
  2234                           
  2235                           ;2_3DIM.c: 1292: {
  2236                           ;2_3DIM.c: 1293: st[17]='R';
  2237  0FD9  3052               	movlw	82
  2238  0FDA  00BF               	movwf	??_main
  2239  0FDB  083F               	movf	??_main,w
  2240  0FDC  0021               	movlb	1	; select bank1
  2241  0FDD  00C5               	movwf	(_st^(0+128)+17)
  2242                           
  2243                           ;2_3DIM.c: 1294: st[18]='1';
  2244  0FDE  3031               	movlw	49
  2245  0FDF  0020               	movlb	0	; select bank0
  2246  0FE0  00BF               	movwf	??_main
  2247  0FE1  083F               	movf	??_main,w
  2248  0FE2  0021               	movlb	1	; select bank1
  2249  0FE3  00C6               	movwf	(_st^(0+128)+18)
  2250                           
  2251                           ;2_3DIM.c: 1295: st[19]='0';
  2252  0FE4  3030               	movlw	48
  2253  0FE5  0020               	movlb	0	; select bank0
  2254  0FE6  00BF               	movwf	??_main
  2255  0FE7  083F               	movf	??_main,w
  2256  0FE8  0021               	movlb	1	; select bank1
  2257  0FE9  00C7               	movwf	(_st^(0+128)+19)
  2258                           
  2259                           ;2_3DIM.c: 1296: st[20]='5';
  2260  0FEA  3035               	movlw	53
  2261  0FEB  0020               	movlb	0	; select bank0
  2262  0FEC  00BF               	movwf	??_main
  2263  0FED  083F               	movf	??_main,w
  2264  0FEE  0021               	movlb	1	; select bank1
  2265  0FEF  00C8               	movwf	(_st^(0+128)+20)
  2266                           
  2267                           ;2_3DIM.c: 1297: writeUART(st+17);
  2268  0FF0  30C5               	movlw	(low ((_st| 0+17)))& (0+255)
  2269  0FF1  318A  220E  318C   	fcall	_writeUART
  2270                           
  2271                           ;2_3DIM.c: 1298: FAN_FLAG3=0;
  2272  0FF4  0021               	movlb	1	; select bank1
  2273  0FF5  01DE               	clrf	_FAN_FLAG3^(0+128)
  2274  0FF6  01DF               	clrf	(_FAN_FLAG3+1)^(0+128)
  2275                           
  2276                           ;2_3DIM.c: 1299: RE5=0;
  2277  0FF7  0020               	movlb	0	; select bank0
  2278  0FF8  1290               	bcf	16,5	;volatile
  2279  0FF9                     l9312:	
  2280                           
  2281                           ;2_3DIM.c: 1300: }
  2282                           ;2_3DIM.c: 1301: M5=0;
  2283  0FF9  01C5               	clrf	_M5
  2284  0FFA  01C6               	clrf	_M5+1
  2285                           
  2286                           ;2_3DIM.c: 1302: man=1;
  2287  0FFB  3001               	movlw	1
  2288  0FFC  00E0               	movwf	_man
  2289  0FFD  3000               	movlw	0
  2290  0FFE  00E1               	movwf	_man+1
  2291  0FFF  2C86               	goto	l9038
  2292  1000                     __end_of_main:	
  2293                           
  2294                           	psect	text1
  2295  0A60                     __ptext1:	
  2296 ;; *************** function _pin_manager *****************
  2297 ;; Defined at:
  2298 ;;		line 1759 in file "2_3DIM.c"
  2299 ;; Parameters:    Size  Location     Type
  2300 ;;		None
  2301 ;; Auto vars:     Size  Location     Type
  2302 ;;		None
  2303 ;; Return value:  Size  Location     Type
  2304 ;;                  1    wreg      void 
  2305 ;; Registers used:
  2306 ;;		status,2
  2307 ;; Tracked objects:
  2308 ;;		On entry : 0/0
  2309 ;;		On exit  : 0/0
  2310 ;;		Unchanged: 0/0
  2311 ;; Data sizes:     COMMON   BANK0   BANK1   BANK2   BANK3   BANK4   BANK5   BANK6   BANK7   BANK8   BANK9
  2312 ;;      Params:         0       0       0       0       0       0       0       0       0       0       0
  2313 ;;      Locals:         0       0       0       0       0       0       0       0       0       0       0
  2314 ;;      Temps:          0       0       0       0       0       0       0       0       0       0       0
  2315 ;;      Totals:         0       0       0       0       0       0       0       0       0       0       0
  2316 ;;Total ram usage:        0 bytes
  2317 ;; Hardware stack levels used:    1
  2318 ;; Hardware stack levels required when called:    1
  2319 ;; This function calls:
  2320 ;;		Nothing
  2321 ;; This function is called by:
  2322 ;;		_main
  2323 ;; This function uses a non-reentrant model
  2324 ;;
  2325                           
  2326                           
  2327                           ;psect for function _pin_manager
  2328  0A60                     _pin_manager:	
  2329                           
  2330                           ;2_3DIM.c: 1764: ANSELG=0x00;
  2331                           
  2332                           ;incstack = 0
  2333                           ; Regs used in _pin_manager: [status,2]
  2334  0A60  0028               	movlb	8	; select bank8
  2335  0A61  018D               	clrf	13	;volatile
  2336                           
  2337                           ;2_3DIM.c: 1765: TRISGbits.TRISG0=1;
  2338  0A62  0026               	movlb	6	; select bank6
  2339  0A63  140D               	bsf	13,0	;volatile
  2340                           
  2341                           ;2_3DIM.c: 1767: WPUG = 0;
  2342  0A64  0029               	movlb	9	; select bank9
  2343  0A65  018D               	clrf	13	;volatile
  2344                           
  2345                           ;2_3DIM.c: 1770: ANSELF=0x00;
  2346  0A66  0028               	movlb	8	; select bank8
  2347  0A67  018C               	clrf	12	;volatile
  2348                           
  2349                           ;2_3DIM.c: 1771: TRISFbits.TRISF0=0;
  2350  0A68  0026               	movlb	6	; select bank6
  2351  0A69  100C               	bcf	12,0	;volatile
  2352                           
  2353                           ;2_3DIM.c: 1772: TRISFbits.TRISF1=0;
  2354  0A6A  108C               	bcf	12,1	;volatile
  2355                           
  2356                           ;2_3DIM.c: 1773: TRISFbits.TRISF2=1;
  2357  0A6B  150C               	bsf	12,2	;volatile
  2358                           
  2359                           ;2_3DIM.c: 1774: TRISFbits.TRISF3=1;
  2360  0A6C  158C               	bsf	12,3	;volatile
  2361                           
  2362                           ;2_3DIM.c: 1776: TRISFbits.TRISF5=1;
  2363  0A6D  168C               	bsf	12,5	;volatile
  2364                           
  2365                           ;2_3DIM.c: 1778: TRISFbits.TRISF7=1;
  2366  0A6E  178C               	bsf	12,7	;volatile
  2367                           
  2368                           ;2_3DIM.c: 1781: WPUE=0x00;
  2369  0A6F  0024               	movlb	4	; select bank4
  2370  0A70  0190               	clrf	16	;volatile
  2371                           
  2372                           ;2_3DIM.c: 1782: ANSELE=0x00;
  2373  0A71  0023               	movlb	3	; select bank3
  2374  0A72  0190               	clrf	16	;volatile
  2375                           
  2376                           ;2_3DIM.c: 1783: TRISEbits.TRISE3=1;
  2377  0A73  0021               	movlb	1	; select bank1
  2378  0A74  1590               	bsf	16,3	;volatile
  2379                           
  2380                           ;2_3DIM.c: 1784: TRISEbits.TRISE5=0;
  2381  0A75  1290               	bcf	16,5	;volatile
  2382                           
  2383                           ;2_3DIM.c: 1802: ANSELA = 0x00;
  2384  0A76  0023               	movlb	3	; select bank3
  2385  0A77  018C               	clrf	12	;volatile
  2386                           
  2387                           ;2_3DIM.c: 1805: TRISAbits.TRISA2=0;
  2388  0A78  0021               	movlb	1	; select bank1
  2389  0A79  110C               	bcf	12,2	;volatile
  2390                           
  2391                           ;2_3DIM.c: 1806: TRISAbits.TRISA3=0;
  2392  0A7A  118C               	bcf	12,3	;volatile
  2393                           
  2394                           ;2_3DIM.c: 1808: TRISAbits.TRISA5=1;
  2395  0A7B  168C               	bsf	12,5	;volatile
  2396                           
  2397                           ;2_3DIM.c: 1813: TRISCbits.TRISC2 = 1;
  2398  0A7C  150E               	bsf	14,2	;volatile
  2399                           
  2400                           ;2_3DIM.c: 1816: TRISCbits.TRISC6 = 0;
  2401  0A7D  130E               	bcf	14,6	;volatile
  2402                           
  2403                           ;2_3DIM.c: 1817: TRISCbits.TRISC7 = 1;
  2404  0A7E  178E               	bsf	14,7	;volatile
  2405  0A7F  0008               	return
  2406  0A80                     __end_of_pin_manager:	
  2407                           
  2408                           	psect	text2
  2409  0A42                     __ptext2:	
  2410 ;; *************** function _periperal_init *****************
  2411 ;; Defined at:
  2412 ;;		line 1092 in file "2_3DIM.c"
  2413 ;; Parameters:    Size  Location     Type
  2414 ;;		None
  2415 ;; Auto vars:     Size  Location     Type
  2416 ;;		None
  2417 ;; Return value:  Size  Location     Type
  2418 ;;                  1    wreg      void 
  2419 ;; Registers used:
  2420 ;;		wreg, status,2, status,0, pclath, cstack
  2421 ;; Tracked objects:
  2422 ;;		On entry : 0/0
  2423 ;;		On exit  : 0/0
  2424 ;;		Unchanged: 0/0
  2425 ;; Data sizes:     COMMON   BANK0   BANK1   BANK2   BANK3   BANK4   BANK5   BANK6   BANK7   BANK8   BANK9
  2426 ;;      Params:         0       0       0       0       0       0       0       0       0       0       0
  2427 ;;      Locals:         0       0       0       0       0       0       0       0       0       0       0
  2428 ;;      Temps:          0       0       0       0       0       0       0       0       0       0       0
  2429 ;;      Totals:         0       0       0       0       0       0       0       0       0       0       0
  2430 ;;Total ram usage:        0 bytes
  2431 ;; Hardware stack levels used:    1
  2432 ;; Hardware stack levels required when called:    2
  2433 ;; This function calls:
  2434 ;;		_CCP1_Initialize
  2435 ;;		_CCP3_Initialize
  2436 ;;		_CCP9_Initialize
  2437 ;;		_EUSART_Initialize
  2438 ;;		_TMR1_Initialize
  2439 ;;		_TMR2_Initialize
  2440 ;;		_TMR3_Initialize
  2441 ;;		_TMR4_Initialize
  2442 ;;		_TMR5_Initialize
  2443 ;;		_TMR6_Initialize
  2444 ;; This function is called by:
  2445 ;;		_main
  2446 ;; This function uses a non-reentrant model
  2447 ;;
  2448                           
  2449                           
  2450                           ;psect for function _periperal_init
  2451  0A42                     _periperal_init:	
  2452                           
  2453                           ;2_3DIM.c: 1094: EUSART_Initialize();
  2454                           
  2455                           ;incstack = 0
  2456                           ; Regs used in _periperal_init: [wreg+status,2+status,0+pclath+cstack]
  2457  0A42  3189  21F8  318A   	fcall	_EUSART_Initialize
  2458                           
  2459                           ;2_3DIM.c: 1095: CCP1_Initialize();
  2460  0A45  3197  27F4  318A   	fcall	_CCP1_Initialize
  2461                           
  2462                           ;2_3DIM.c: 1096: CCP3_Initialize();
  2463  0A48  3197  27B7  318A   	fcall	_CCP3_Initialize
  2464                           
  2465                           ;2_3DIM.c: 1098: CCP9_Initialize();
  2466  0A4B  3197  27C1  318A   	fcall	_CCP9_Initialize
  2467                           
  2468                           ;2_3DIM.c: 1100: TMR1_Initialize();
  2469  0A4E  3197  27E9  318A   	fcall	_TMR1_Initialize
  2470                           
  2471                           ;2_3DIM.c: 1101: TMR3_Initialize();
  2472  0A51  3197  27D5  318A   	fcall	_TMR3_Initialize
  2473                           
  2474                           ;2_3DIM.c: 1102: TMR2_Initialize();
  2475  0A54  3197  27CB  318A   	fcall	_TMR2_Initialize
  2476                           
  2477                           ;2_3DIM.c: 1103: TMR4_Initialize();
  2478  0A57  3197  27A5  318A   	fcall	_TMR4_Initialize
  2479                           
  2480                           ;2_3DIM.c: 1104: TMR5_Initialize();
  2481  0A5A  3197  27DF  318A   	fcall	_TMR5_Initialize
  2482                           
  2483                           ;2_3DIM.c: 1105: TMR6_Initialize();
  2484  0A5D  3197  27AE         	fcall	_TMR6_Initialize
  2485  0A5F  0008               	return
  2486  0A60                     __end_of_periperal_init:	
  2487                           
  2488                           	psect	text3
  2489  17AE                     __ptext3:	
  2490 ;; *************** function _TMR6_Initialize *****************
  2491 ;; Defined at:
  2492 ;;		line 1608 in file "2_3DIM.c"
  2493 ;; Parameters:    Size  Location     Type
  2494 ;;		None
  2495 ;; Auto vars:     Size  Location     Type
  2496 ;;		None
  2497 ;; Return value:  Size  Location     Type
  2498 ;;                  1    wreg      void 
  2499 ;; Registers used:
  2500 ;;		wreg, status,2
  2501 ;; Tracked objects:
  2502 ;;		On entry : 0/0
  2503 ;;		On exit  : 0/0
  2504 ;;		Unchanged: 0/0
  2505 ;; Data sizes:     COMMON   BANK0   BANK1   BANK2   BANK3   BANK4   BANK5   BANK6   BANK7   BANK8   BANK9
  2506 ;;      Params:         0       0       0       0       0       0       0       0       0       0       0
  2507 ;;      Locals:         0       0       0       0       0       0       0       0       0       0       0
  2508 ;;      Temps:          0       0       0       0       0       0       0       0       0       0       0
  2509 ;;      Totals:         0       0       0       0       0       0       0       0       0       0       0
  2510 ;;Total ram usage:        0 bytes
  2511 ;; Hardware stack levels used:    1
  2512 ;; Hardware stack levels required when called:    1
  2513 ;; This function calls:
  2514 ;;		Nothing
  2515 ;; This function is called by:
  2516 ;;		_periperal_init
  2517 ;; This function uses a non-reentrant model
  2518 ;;
  2519                           
  2520                           
  2521                           ;psect for function _TMR6_Initialize
  2522  17AE                     _TMR6_Initialize:	
  2523                           
  2524                           ;2_3DIM.c: 1613: T6CON = 0x08;
  2525                           
  2526                           ;incstack = 0
  2527                           ; Regs used in _TMR6_Initialize: [wreg+status,2]
  2528  17AE  3008               	movlw	8
  2529  17AF  0028               	movlb	8	; select bank8
  2530  17B0  009E               	movwf	30	;volatile
  2531                           
  2532                           ;2_3DIM.c: 1619: TMR6 = 0x00;
  2533  17B1  019C               	clrf	28	;volatile
  2534                           
  2535                           ;2_3DIM.c: 1622: PIR3bits.TMR6IF = 0;
  2536  17B2  0020               	movlb	0	; select bank0
  2537  17B3  1193               	bcf	19,3	;volatile
  2538                           
  2539                           ;2_3DIM.c: 1625: PIE3bits.TMR6IE = 1;
  2540  17B4  0021               	movlb	1	; select bank1
  2541  17B5  1593               	bsf	19,3	;volatile
  2542  17B6  0008               	return
  2543  17B7                     __end_of_TMR6_Initialize:	
  2544                           
  2545                           	psect	text4
  2546  17DF                     __ptext4:	
  2547 ;; *************** function _TMR5_Initialize *****************
  2548 ;; Defined at:
  2549 ;;		line 1517 in file "2_3DIM.c"
  2550 ;; Parameters:    Size  Location     Type
  2551 ;;		None
  2552 ;; Auto vars:     Size  Location     Type
  2553 ;;		None
  2554 ;; Return value:  Size  Location     Type
  2555 ;;                  1    wreg      void 
  2556 ;; Registers used:
  2557 ;;		status,2
  2558 ;; Tracked objects:
  2559 ;;		On entry : 0/0
  2560 ;;		On exit  : 0/0
  2561 ;;		Unchanged: 0/0
  2562 ;; Data sizes:     COMMON   BANK0   BANK1   BANK2   BANK3   BANK4   BANK5   BANK6   BANK7   BANK8   BANK9
  2563 ;;      Params:         0       0       0       0       0       0       0       0       0       0       0
  2564 ;;      Locals:         0       0       0       0       0       0       0       0       0       0       0
  2565 ;;      Temps:          0       0       0       0       0       0       0       0       0       0       0
  2566 ;;      Totals:         0       0       0       0       0       0       0       0       0       0       0
  2567 ;;Total ram usage:        0 bytes
  2568 ;; Hardware stack levels used:    1
  2569 ;; Hardware stack levels required when called:    1
  2570 ;; This function calls:
  2571 ;;		Nothing
  2572 ;; This function is called by:
  2573 ;;		_periperal_init
  2574 ;; This function uses a non-reentrant model
  2575 ;;
  2576                           
  2577                           
  2578                           ;psect for function _TMR5_Initialize
  2579  17DF                     _TMR5_Initialize:	
  2580                           
  2581                           ;2_3DIM.c: 1522: T5CON = 0x00;
  2582                           
  2583                           ;incstack = 0
  2584                           ; Regs used in _TMR5_Initialize: [status,2]
  2585  17DF  0028               	movlb	8	; select bank8
  2586  17E0  019A               	clrf	26	;volatile
  2587                           
  2588                           ;2_3DIM.c: 1525: T5GCON = 0x00;
  2589  17E1  019B               	clrf	27	;volatile
  2590                           
  2591                           ;2_3DIM.c: 1528: TMR5H = 0x00;
  2592  17E2  0199               	clrf	25	;volatile
  2593                           
  2594                           ;2_3DIM.c: 1531: TMR5L = 0x00;
  2595  17E3  0198               	clrf	24	;volatile
  2596                           
  2597                           ;2_3DIM.c: 1534: PIR3bits.TMR5IF = 0;
  2598  17E4  0020               	movlb	0	; select bank0
  2599  17E5  1113               	bcf	19,2	;volatile
  2600                           
  2601                           ;2_3DIM.c: 1537: PIE3bits.TMR5IE = 1;
  2602  17E6  0021               	movlb	1	; select bank1
  2603  17E7  1513               	bsf	19,2	;volatile
  2604  17E8  0008               	return
  2605  17E9                     __end_of_TMR5_Initialize:	
  2606                           
  2607                           	psect	text5
  2608  17A5                     __ptext5:	
  2609 ;; *************** function _TMR4_Initialize *****************
  2610 ;; Defined at:
  2611 ;;		line 1588 in file "2_3DIM.c"
  2612 ;; Parameters:    Size  Location     Type
  2613 ;;		None
  2614 ;; Auto vars:     Size  Location     Type
  2615 ;;		None
  2616 ;; Return value:  Size  Location     Type
  2617 ;;                  1    wreg      void 
  2618 ;; Registers used:
  2619 ;;		wreg, status,2
  2620 ;; Tracked objects:
  2621 ;;		On entry : 0/0
  2622 ;;		On exit  : 0/0
  2623 ;;		Unchanged: 0/0
  2624 ;; Data sizes:     COMMON   BANK0   BANK1   BANK2   BANK3   BANK4   BANK5   BANK6   BANK7   BANK8   BANK9
  2625 ;;      Params:         0       0       0       0       0       0       0       0       0       0       0
  2626 ;;      Locals:         0       0       0       0       0       0       0       0       0       0       0
  2627 ;;      Temps:          0       0       0       0       0       0       0       0       0       0       0
  2628 ;;      Totals:         0       0       0       0       0       0       0       0       0       0       0
  2629 ;;Total ram usage:        0 bytes
  2630 ;; Hardware stack levels used:    1
  2631 ;; Hardware stack levels required when called:    1
  2632 ;; This function calls:
  2633 ;;		Nothing
  2634 ;; This function is called by:
  2635 ;;		_periperal_init
  2636 ;; This function uses a non-reentrant model
  2637 ;;
  2638                           
  2639                           
  2640                           ;psect for function _TMR4_Initialize
  2641  17A5                     _TMR4_Initialize:	
  2642                           
  2643                           ;2_3DIM.c: 1593: T4CON = 0x08;
  2644                           
  2645                           ;incstack = 0
  2646                           ; Regs used in _TMR4_Initialize: [wreg+status,2]
  2647  17A5  3008               	movlw	8
  2648  17A6  0028               	movlb	8	; select bank8
  2649  17A7  0097               	movwf	23	;volatile
  2650                           
  2651                           ;2_3DIM.c: 1599: TMR4 = 0x00;
  2652  17A8  0195               	clrf	21	;volatile
  2653                           
  2654                           ;2_3DIM.c: 1602: PIR3bits.TMR4IF = 0;
  2655  17A9  0020               	movlb	0	; select bank0
  2656  17AA  1093               	bcf	19,1	;volatile
  2657                           
  2658                           ;2_3DIM.c: 1605: PIE3bits.TMR4IE = 1;
  2659  17AB  0021               	movlb	1	; select bank1
  2660  17AC  1493               	bsf	19,1	;volatile
  2661  17AD  0008               	return
  2662  17AE                     __end_of_TMR4_Initialize:	
  2663                           
  2664                           	psect	text6
  2665  17D5                     __ptext6:	
  2666 ;; *************** function _TMR3_Initialize *****************
  2667 ;; Defined at:
  2668 ;;		line 1485 in file "2_3DIM.c"
  2669 ;; Parameters:    Size  Location     Type
  2670 ;;		None
  2671 ;; Auto vars:     Size  Location     Type
  2672 ;;		None
  2673 ;; Return value:  Size  Location     Type
  2674 ;;                  1    wreg      void 
  2675 ;; Registers used:
  2676 ;;		status,2
  2677 ;; Tracked objects:
  2678 ;;		On entry : 0/0
  2679 ;;		On exit  : 0/0
  2680 ;;		Unchanged: 0/0
  2681 ;; Data sizes:     COMMON   BANK0   BANK1   BANK2   BANK3   BANK4   BANK5   BANK6   BANK7   BANK8   BANK9
  2682 ;;      Params:         0       0       0       0       0       0       0       0       0       0       0
  2683 ;;      Locals:         0       0       0       0       0       0       0       0       0       0       0
  2684 ;;      Temps:          0       0       0       0       0       0       0       0       0       0       0
  2685 ;;      Totals:         0       0       0       0       0       0       0       0       0       0       0
  2686 ;;Total ram usage:        0 bytes
  2687 ;; Hardware stack levels used:    1
  2688 ;; Hardware stack levels required when called:    1
  2689 ;; This function calls:
  2690 ;;		Nothing
  2691 ;; This function is called by:
  2692 ;;		_periperal_init
  2693 ;; This function uses a non-reentrant model
  2694 ;;
  2695                           
  2696                           
  2697                           ;psect for function _TMR3_Initialize
  2698  17D5                     _TMR3_Initialize:	
  2699                           
  2700                           ;2_3DIM.c: 1490: T3CON = 0x00;
  2701                           
  2702                           ;incstack = 0
  2703                           ; Regs used in _TMR3_Initialize: [status,2]
  2704  17D5  0028               	movlb	8	; select bank8
  2705  17D6  0193               	clrf	19	;volatile
  2706                           
  2707                           ;2_3DIM.c: 1493: T3GCON = 0x00;
  2708  17D7  0194               	clrf	20	;volatile
  2709                           
  2710                           ;2_3DIM.c: 1496: TMR3H = 0x00;
  2711  17D8  0192               	clrf	18	;volatile
  2712                           
  2713                           ;2_3DIM.c: 1499: TMR3L = 0x00;
  2714  17D9  0191               	clrf	17	;volatile
  2715                           
  2716                           ;2_3DIM.c: 1502: PIR3bits.TMR3IF = 0;
  2717  17DA  0020               	movlb	0	; select bank0
  2718  17DB  1013               	bcf	19,0	;volatile
  2719                           
  2720                           ;2_3DIM.c: 1505: PIE3bits.TMR3IE = 1;
  2721  17DC  0021               	movlb	1	; select bank1
  2722  17DD  1413               	bsf	19,0	;volatile
  2723  17DE  0008               	return
  2724  17DF                     __end_of_TMR3_Initialize:	
  2725                           
  2726                           	psect	text7
  2727  17CB                     __ptext7:	
  2728 ;; *************** function _TMR2_Initialize *****************
  2729 ;; Defined at:
  2730 ;;		line 1540 in file "2_3DIM.c"
  2731 ;; Parameters:    Size  Location     Type
  2732 ;;		None
  2733 ;; Auto vars:     Size  Location     Type
  2734 ;;		None
  2735 ;; Return value:  Size  Location     Type
  2736 ;;                  1    wreg      void 
  2737 ;; Registers used:
  2738 ;;		wreg, status,2
  2739 ;; Tracked objects:
  2740 ;;		On entry : 0/0
  2741 ;;		On exit  : 0/0
  2742 ;;		Unchanged: 0/0
  2743 ;; Data sizes:     COMMON   BANK0   BANK1   BANK2   BANK3   BANK4   BANK5   BANK6   BANK7   BANK8   BANK9
  2744 ;;      Params:         0       0       0       0       0       0       0       0       0       0       0
  2745 ;;      Locals:         0       0       0       0       0       0       0       0       0       0       0
  2746 ;;      Temps:          0       0       0       0       0       0       0       0       0       0       0
  2747 ;;      Totals:         0       0       0       0       0       0       0       0       0       0       0
  2748 ;;Total ram usage:        0 bytes
  2749 ;; Hardware stack levels used:    1
  2750 ;; Hardware stack levels required when called:    1
  2751 ;; This function calls:
  2752 ;;		Nothing
  2753 ;; This function is called by:
  2754 ;;		_periperal_init
  2755 ;; This function uses a non-reentrant model
  2756 ;;
  2757                           
  2758                           
  2759                           ;psect for function _TMR2_Initialize
  2760  17CB                     _TMR2_Initialize:	
  2761                           
  2762                           ;2_3DIM.c: 1545: T2CON = 0x08;
  2763                           
  2764                           ;incstack = 0
  2765                           ; Regs used in _TMR2_Initialize: [wreg+status,2]
  2766  17CB  3008               	movlw	8
  2767  17CC  0020               	movlb	0	; select bank0
  2768  17CD  009C               	movwf	28	;volatile
  2769                           
  2770                           ;2_3DIM.c: 1551: TMR2 = 0x00;
  2771  17CE  019A               	clrf	26	;volatile
  2772                           
  2773                           ;2_3DIM.c: 1554: PIR1bits.TMR2IF = 0;
  2774  17CF  1091               	bcf	17,1	;volatile
  2775                           
  2776                           ;2_3DIM.c: 1557: PIE1bits.TMR2IE = 1;
  2777  17D0  0021               	movlb	1	; select bank1
  2778  17D1  1491               	bsf	17,1	;volatile
  2779                           
  2780                           ;2_3DIM.c: 1558: GIE = 1;
  2781  17D2  178B               	bsf	11,7	;volatile
  2782                           
  2783                           ;2_3DIM.c: 1561: PEIE = 1;
  2784  17D3  170B               	bsf	11,6	;volatile
  2785  17D4  0008               	return
  2786  17D5                     __end_of_TMR2_Initialize:	
  2787                           
  2788                           	psect	text8
  2789  17E9                     __ptext8:	
  2790 ;; *************** function _TMR1_Initialize *****************
  2791 ;; Defined at:
  2792 ;;		line 1453 in file "2_3DIM.c"
  2793 ;; Parameters:    Size  Location     Type
  2794 ;;		None
  2795 ;; Auto vars:     Size  Location     Type
  2796 ;;		None
  2797 ;; Return value:  Size  Location     Type
  2798 ;;                  1    wreg      void 
  2799 ;; Registers used:
  2800 ;;		status,2
  2801 ;; Tracked objects:
  2802 ;;		On entry : 0/0
  2803 ;;		On exit  : 0/0
  2804 ;;		Unchanged: 0/0
  2805 ;; Data sizes:     COMMON   BANK0   BANK1   BANK2   BANK3   BANK4   BANK5   BANK6   BANK7   BANK8   BANK9
  2806 ;;      Params:         0       0       0       0       0       0       0       0       0       0       0
  2807 ;;      Locals:         0       0       0       0       0       0       0       0       0       0       0
  2808 ;;      Temps:          0       0       0       0       0       0       0       0       0       0       0
  2809 ;;      Totals:         0       0       0       0       0       0       0       0       0       0       0
  2810 ;;Total ram usage:        0 bytes
  2811 ;; Hardware stack levels used:    1
  2812 ;; Hardware stack levels required when called:    1
  2813 ;; This function calls:
  2814 ;;		Nothing
  2815 ;; This function is called by:
  2816 ;;		_periperal_init
  2817 ;; This function uses a non-reentrant model
  2818 ;;
  2819                           
  2820                           
  2821                           ;psect for function _TMR1_Initialize
  2822  17E9                     _TMR1_Initialize:	
  2823                           
  2824                           ;2_3DIM.c: 1458: T1CON = 0x00;
  2825                           
  2826                           ;incstack = 0
  2827                           ; Regs used in _TMR1_Initialize: [status,2]
  2828  17E9  0020               	movlb	0	; select bank0
  2829  17EA  0198               	clrf	24	;volatile
  2830                           
  2831                           ;2_3DIM.c: 1461: T1GCON = 0x00;
  2832  17EB  0199               	clrf	25	;volatile
  2833                           
  2834                           ;2_3DIM.c: 1464: TMR1H = 0x00;
  2835  17EC  0197               	clrf	23	;volatile
  2836                           
  2837                           ;2_3DIM.c: 1467: TMR1L = 0x00;
  2838  17ED  0196               	clrf	22	;volatile
  2839                           
  2840                           ;2_3DIM.c: 1470: PIR1bits.TMR1IF = 0;
  2841  17EE  1011               	bcf	17,0	;volatile
  2842                           
  2843                           ;2_3DIM.c: 1473: PIE1bits.TMR1IE = 1;
  2844  17EF  0021               	movlb	1	; select bank1
  2845  17F0  1411               	bsf	17,0	;volatile
  2846                           
  2847                           ;2_3DIM.c: 1479: GIE = 1;
  2848  17F1  178B               	bsf	11,7	;volatile
  2849                           
  2850                           ;2_3DIM.c: 1482: PEIE = 1;
  2851  17F2  170B               	bsf	11,6	;volatile
  2852  17F3  0008               	return
  2853  17F4                     __end_of_TMR1_Initialize:	
  2854                           
  2855                           	psect	text9
  2856  09F8                     __ptext9:	
  2857 ;; *************** function _EUSART_Initialize *****************
  2858 ;; Defined at:
  2859 ;;		line 1719 in file "2_3DIM.c"
  2860 ;; Parameters:    Size  Location     Type
  2861 ;;		None
  2862 ;; Auto vars:     Size  Location     Type
  2863 ;;		None
  2864 ;; Return value:  Size  Location     Type
  2865 ;;                  1    wreg      void 
  2866 ;; Registers used:
  2867 ;;		wreg
  2868 ;; Tracked objects:
  2869 ;;		On entry : 0/0
  2870 ;;		On exit  : 0/0
  2871 ;;		Unchanged: 0/0
  2872 ;; Data sizes:     COMMON   BANK0   BANK1   BANK2   BANK3   BANK4   BANK5   BANK6   BANK7   BANK8   BANK9
  2873 ;;      Params:         0       0       0       0       0       0       0       0       0       0       0
  2874 ;;      Locals:         0       0       0       0       0       0       0       0       0       0       0
  2875 ;;      Temps:          0       0       0       0       0       0       0       0       0       0       0
  2876 ;;      Totals:         0       0       0       0       0       0       0       0       0       0       0
  2877 ;;Total ram usage:        0 bytes
  2878 ;; Hardware stack levels used:    1
  2879 ;; Hardware stack levels required when called:    1
  2880 ;; This function calls:
  2881 ;;		Nothing
  2882 ;; This function is called by:
  2883 ;;		_periperal_init
  2884 ;; This function uses a non-reentrant model
  2885 ;;
  2886                           
  2887                           
  2888                           ;psect for function _EUSART_Initialize
  2889  09F8                     _EUSART_Initialize:	
  2890                           
  2891                           ;2_3DIM.c: 1722: PIE1bits.RC1IE = 0;
  2892                           
  2893                           ;incstack = 0
  2894                           ; Regs used in _EUSART_Initialize: [wreg]
  2895  09F8  0021               	movlb	1	; select bank1
  2896  09F9  1291               	bcf	17,5	;volatile
  2897                           
  2898                           ;2_3DIM.c: 1723: PIE1bits.TX1IE = 0;
  2899  09FA  1211               	bcf	17,4	;volatile
  2900                           
  2901                           ;2_3DIM.c: 1728: BAUD1CON = 0x0A;
  2902  09FB  300A               	movlw	10
  2903  09FC  0023               	movlb	3	; select bank3
  2904  09FD  009F               	movwf	31	;volatile
  2905                           
  2906                           ;2_3DIM.c: 1731: RC1STA = 0x90;
  2907  09FE  3090               	movlw	144
  2908  09FF  009D               	movwf	29	;volatile
  2909                           
  2910                           ;2_3DIM.c: 1734: TX1STA = 0x24;
  2911  0A00  3024               	movlw	36
  2912  0A01  009E               	movwf	30	;volatile
  2913                           
  2914                           ;2_3DIM.c: 1739: SP1BRGL = 0xA0;
  2915  0A02  30A0               	movlw	160
  2916  0A03  009B               	movwf	27	;volatile
  2917                           
  2918                           ;2_3DIM.c: 1741: SP1BRGH = 0x01;
  2919  0A04  3001               	movlw	1
  2920  0A05  009C               	movwf	28	;volatile
  2921                           
  2922                           ;2_3DIM.c: 1744: GIE = 1;
  2923  0A06  178B               	bsf	11,7	;volatile
  2924                           
  2925                           ;2_3DIM.c: 1747: PEIE = 1;
  2926  0A07  170B               	bsf	11,6	;volatile
  2927                           
  2928                           ;2_3DIM.c: 1750: PIE1bits.RC1IE = 1;
  2929  0A08  0021               	movlb	1	; select bank1
  2930  0A09  1691               	bsf	17,5	;volatile
  2931                           
  2932                           ;2_3DIM.c: 1753: TX1STAbits.TXEN = 1;
  2933  0A0A  0023               	movlb	3	; select bank3
  2934  0A0B  169E               	bsf	30,5	;volatile
  2935                           
  2936                           ;2_3DIM.c: 1756: RC1STAbits.SPEN = 1;
  2937  0A0C  179D               	bsf	29,7	;volatile
  2938  0A0D  0008               	return
  2939  0A0E                     __end_of_EUSART_Initialize:	
  2940                           
  2941                           	psect	text10
  2942  17C1                     __ptext10:	
  2943 ;; *************** function _CCP9_Initialize *****************
  2944 ;; Defined at:
  2945 ;;		line 1699 in file "2_3DIM.c"
  2946 ;; Parameters:    Size  Location     Type
  2947 ;;		None
  2948 ;; Auto vars:     Size  Location     Type
  2949 ;;		None
  2950 ;; Return value:  Size  Location     Type
  2951 ;;                  1    wreg      void 
  2952 ;; Registers used:
  2953 ;;		wreg, status,2
  2954 ;; Tracked objects:
  2955 ;;		On entry : 0/0
  2956 ;;		On exit  : 0/0
  2957 ;;		Unchanged: 0/0
  2958 ;; Data sizes:     COMMON   BANK0   BANK1   BANK2   BANK3   BANK4   BANK5   BANK6   BANK7   BANK8   BANK9
  2959 ;;      Params:         0       0       0       0       0       0       0       0       0       0       0
  2960 ;;      Locals:         0       0       0       0       0       0       0       0       0       0       0
  2961 ;;      Temps:          0       0       0       0       0       0       0       0       0       0       0
  2962 ;;      Totals:         0       0       0       0       0       0       0       0       0       0       0
  2963 ;;Total ram usage:        0 bytes
  2964 ;; Hardware stack levels used:    1
  2965 ;; Hardware stack levels required when called:    1
  2966 ;; This function calls:
  2967 ;;		Nothing
  2968 ;; This function is called by:
  2969 ;;		_periperal_init
  2970 ;; This function uses a non-reentrant model
  2971 ;;
  2972                           
  2973                           
  2974                           ;psect for function _CCP9_Initialize
  2975  17C1                     _CCP9_Initialize:	
  2976                           
  2977                           ;2_3DIM.c: 1704: CCP9CON = 0x84;
  2978                           
  2979                           ;incstack = 0
  2980                           ; Regs used in _CCP9_Initialize: [wreg+status,2]
  2981  17C1  3084               	movlw	132
  2982  17C2  002C               	movlb	12	; select bank12
  2983  17C3  009C               	movwf	28	;volatile
  2984                           
  2985                           ;2_3DIM.c: 1707: CCPR9H = 0x00;
  2986  17C4  019B               	clrf	27	;volatile
  2987                           
  2988                           ;2_3DIM.c: 1710: CCPR9L = 0x00;
  2989  17C5  019A               	clrf	26	;volatile
  2990                           
  2991                           ;2_3DIM.c: 1713: PIR4bits.CCP9IF = 0;
  2992  17C6  0020               	movlb	0	; select bank0
  2993  17C7  1314               	bcf	20,6	;volatile
  2994                           
  2995                           ;2_3DIM.c: 1716: PIE4bits.CCP9IE = 0;
  2996  17C8  0021               	movlb	1	; select bank1
  2997  17C9  1314               	bcf	20,6	;volatile
  2998  17CA  0008               	return
  2999  17CB                     __end_of_CCP9_Initialize:	
  3000                           
  3001                           	psect	text11
  3002  17B7                     __ptext11:	
  3003 ;; *************** function _CCP3_Initialize *****************
  3004 ;; Defined at:
  3005 ;;		line 1653 in file "2_3DIM.c"
  3006 ;; Parameters:    Size  Location     Type
  3007 ;;		None
  3008 ;; Auto vars:     Size  Location     Type
  3009 ;;		None
  3010 ;; Return value:  Size  Location     Type
  3011 ;;                  1    wreg      void 
  3012 ;; Registers used:
  3013 ;;		wreg, status,2
  3014 ;; Tracked objects:
  3015 ;;		On entry : 0/0
  3016 ;;		On exit  : 0/0
  3017 ;;		Unchanged: 0/0
  3018 ;; Data sizes:     COMMON   BANK0   BANK1   BANK2   BANK3   BANK4   BANK5   BANK6   BANK7   BANK8   BANK9
  3019 ;;      Params:         0       0       0       0       0       0       0       0       0       0       0
  3020 ;;      Locals:         0       0       0       0       0       0       0       0       0       0       0
  3021 ;;      Temps:          0       0       0       0       0       0       0       0       0       0       0
  3022 ;;      Totals:         0       0       0       0       0       0       0       0       0       0       0
  3023 ;;Total ram usage:        0 bytes
  3024 ;; Hardware stack levels used:    1
  3025 ;; Hardware stack levels required when called:    1
  3026 ;; This function calls:
  3027 ;;		Nothing
  3028 ;; This function is called by:
  3029 ;;		_periperal_init
  3030 ;; This function uses a non-reentrant model
  3031 ;;
  3032                           
  3033                           
  3034                           ;psect for function _CCP3_Initialize
  3035  17B7                     _CCP3_Initialize:	
  3036                           
  3037                           ;2_3DIM.c: 1658: CCP3CON = 0x84;
  3038                           
  3039                           ;incstack = 0
  3040                           ; Regs used in _CCP3_Initialize: [wreg+status,2]
  3041  17B7  3084               	movlw	132
  3042  17B8  0026               	movlb	6	; select bank6
  3043  17B9  0093               	movwf	19	;volatile
  3044                           
  3045                           ;2_3DIM.c: 1661: CCPR3L = 0x00;
  3046  17BA  0191               	clrf	17	;volatile
  3047                           
  3048                           ;2_3DIM.c: 1664: CCPR3H = 0x00;
  3049  17BB  0192               	clrf	18	;volatile
  3050                           
  3051                           ;2_3DIM.c: 1670: PIR3bits.CCP3IF = 0;
  3052  17BC  0020               	movlb	0	; select bank0
  3053  17BD  1213               	bcf	19,4	;volatile
  3054                           
  3055                           ;2_3DIM.c: 1673: PIE3bits.CCP3IE = 0;
  3056  17BE  0021               	movlb	1	; select bank1
  3057  17BF  1213               	bcf	19,4	;volatile
  3058  17C0  0008               	return
  3059  17C1                     __end_of_CCP3_Initialize:	
  3060                           
  3061                           	psect	text12
  3062  17F4                     __ptext12:	
  3063 ;; *************** function _CCP1_Initialize *****************
  3064 ;; Defined at:
  3065 ;;		line 1628 in file "2_3DIM.c"
  3066 ;; Parameters:    Size  Location     Type
  3067 ;;		None
  3068 ;; Auto vars:     Size  Location     Type
  3069 ;;		None
  3070 ;; Return value:  Size  Location     Type
  3071 ;;                  1    wreg      void 
  3072 ;; Registers used:
  3073 ;;		wreg, status,2
  3074 ;; Tracked objects:
  3075 ;;		On entry : 0/0
  3076 ;;		On exit  : 0/0
  3077 ;;		Unchanged: 0/0
  3078 ;; Data sizes:     COMMON   BANK0   BANK1   BANK2   BANK3   BANK4   BANK5   BANK6   BANK7   BANK8   BANK9
  3079 ;;      Params:         0       0       0       0       0       0       0       0       0       0       0
  3080 ;;      Locals:         0       0       0       0       0       0       0       0       0       0       0
  3081 ;;      Temps:          0       0       0       0       0       0       0       0       0       0       0
  3082 ;;      Totals:         0       0       0       0       0       0       0       0       0       0       0
  3083 ;;Total ram usage:        0 bytes
  3084 ;; Hardware stack levels used:    1
  3085 ;; Hardware stack levels required when called:    1
  3086 ;; This function calls:
  3087 ;;		Nothing
  3088 ;; This function is called by:
  3089 ;;		_periperal_init
  3090 ;; This function uses a non-reentrant model
  3091 ;;
  3092                           
  3093                           
  3094                           ;psect for function _CCP1_Initialize
  3095  17F4                     _CCP1_Initialize:	
  3096                           
  3097                           ;2_3DIM.c: 1633: CCP1CON = 0x04;
  3098                           
  3099                           ;incstack = 0
  3100                           ; Regs used in _CCP1_Initialize: [wreg+status,2]
  3101  17F4  3004               	movlw	4
  3102  17F5  0025               	movlb	5	; select bank5
  3103  17F6  0093               	movwf	19	;volatile
  3104                           
  3105                           ;2_3DIM.c: 1637: CCPR1H = 0x00;
  3106  17F7  0192               	clrf	18	;volatile
  3107                           
  3108                           ;2_3DIM.c: 1640: CCPR1L = 0x00;
  3109  17F8  0191               	clrf	17	;volatile
  3110                           
  3111                           ;2_3DIM.c: 1643: PIR1bits.CCP1IF = 0;
  3112  17F9  0020               	movlb	0	; select bank0
  3113  17FA  1111               	bcf	17,2	;volatile
  3114                           
  3115                           ;2_3DIM.c: 1646: PIE1bits.CCP1IE = 1;
  3116  17FB  0021               	movlb	1	; select bank1
  3117  17FC  1511               	bsf	17,2	;volatile
  3118                           
  3119                           ;2_3DIM.c: 1647: GIE = 1;
  3120  17FD  178B               	bsf	11,7	;volatile
  3121                           
  3122                           ;2_3DIM.c: 1650: PEIE = 1;
  3123  17FE  170B               	bsf	11,6	;volatile
  3124  17FF  0008               	return
  3125  1800                     __end_of_CCP1_Initialize:	
  3126                           
  3127                           	psect	text13
  3128  07B2                     __ptext13:	
  3129 ;; *************** function _copy_frame *****************
  3130 ;; Defined at:
  3131 ;;		line 1308 in file "2_3DIM.c"
  3132 ;; Parameters:    Size  Location     Type
  3133 ;;  start           2    2[COMMON] int 
  3134 ;;  end             2    4[COMMON] int 
  3135 ;; Auto vars:     Size  Location     Type
  3136 ;;  k               2    2[BANK0 ] int 
  3137 ;;  sw              2    0[BANK0 ] int 
  3138 ;; Return value:  Size  Location     Type
  3139 ;;                  1    wreg      void 
  3140 ;; Registers used:
  3141 ;;		wreg, fsr1l, fsr1h, status,2, status,0
  3142 ;; Tracked objects:
  3143 ;;		On entry : 0/0
  3144 ;;		On exit  : 0/0
  3145 ;;		Unchanged: 0/0
  3146 ;; Data sizes:     COMMON   BANK0   BANK1   BANK2   BANK3   BANK4   BANK5   BANK6   BANK7   BANK8   BANK9
  3147 ;;      Params:         4       0       0       0       0       0       0       0       0       0       0
  3148 ;;      Locals:         0       4       0       0       0       0       0       0       0       0       0
  3149 ;;      Temps:          1       0       0       0       0       0       0       0       0       0       0
  3150 ;;      Totals:         5       4       0       0       0       0       0       0       0       0       0
  3151 ;;Total ram usage:        9 bytes
  3152 ;; Hardware stack levels used:    1
  3153 ;; Hardware stack levels required when called:    1
  3154 ;; This function calls:
  3155 ;;		Nothing
  3156 ;; This function is called by:
  3157 ;;		_main
  3158 ;; This function uses a non-reentrant model
  3159 ;;
  3160                           
  3161                           
  3162                           ;psect for function _copy_frame
  3163  07B2                     _copy_frame:	
  3164                           
  3165                           ;2_3DIM.c: 1309: int k=0,sw=0;
  3166                           
  3167                           ;incstack = 0
  3168                           ; Regs used in _copy_frame: [wreg+fsr1l+fsr1h+status,2+status,0]
  3169  07B2  0020               	movlb	0	; select bank0
  3170  07B3  01A2               	clrf	copy_frame@k
  3171  07B4  01A3               	clrf	copy_frame@k+1
  3172  07B5  01A0               	clrf	copy_frame@sw
  3173  07B6  01A1               	clrf	copy_frame@sw+1
  3174                           
  3175                           ;2_3DIM.c: 1310: for(k = start; k< end; k++)
  3176  07B7  0873               	movf	copy_frame@start+1,w
  3177  07B8  00A3               	movwf	copy_frame@k+1
  3178  07B9  0872               	movf	copy_frame@start,w
  3179  07BA  00A2               	movwf	copy_frame@k
  3180  07BB                     l761:	
  3181  07BB  0823               	movf	copy_frame@k+1,w
  3182  07BC  3A80               	xorlw	128
  3183  07BD  00F6               	movwf	??_copy_frame
  3184  07BE  0875               	movf	copy_frame@end+1,w
  3185  07BF  3A80               	xorlw	128
  3186  07C0  0276               	subwf	??_copy_frame,w
  3187  07C1  1D03               	skipz
  3188  07C2  2FC5               	goto	u2755
  3189  07C3  0874               	movf	copy_frame@end,w
  3190  07C4  0222               	subwf	copy_frame@k,w
  3191  07C5                     u2755:	
  3192  07C5  1803               	btfsc	3,0
  3193  07C6  2FE8               	goto	l8888
  3194                           
  3195                           ;2_3DIM.c: 1311: {
  3196                           ;2_3DIM.c: 1312: copy[sw]=name[k];
  3197  07C7  0020               	movlb	0	; select bank0
  3198  07C8  0822               	movf	copy_frame@k,w
  3199  07C9  3E44               	addlw	(low (_name| (0+256)))& (0+255)
  3200  07CA  0086               	movwf	6
  3201  07CB  3001               	movlw	1	; select bank2/3
  3202  07CC  0087               	movwf	7
  3203  07CD  0801               	movf	1,w
  3204  07CE  00F6               	movwf	??_copy_frame
  3205  07CF  0820               	movf	copy_frame@sw,w
  3206  07D0  3E20               	addlw	(low (_copy| (0+256)))& (0+255)
  3207  07D1  0086               	movwf	6
  3208  07D2  3001               	movlw	1	; select bank2/3
  3209  07D3  0087               	movwf	7
  3210  07D4  0876               	movf	??_copy_frame,w
  3211  07D5  0081               	movwf	1
  3212                           
  3213                           ;2_3DIM.c: 1313: sw++;
  3214  07D6  3001               	movlw	1
  3215  07D7  07A0               	addwf	copy_frame@sw,f
  3216  07D8  3000               	movlw	0
  3217  07D9  3DA1               	addwfc	copy_frame@sw+1,f
  3218                           
  3219                           ;2_3DIM.c: 1314: name[k] = '#';
  3220  07DA  3023               	movlw	35
  3221  07DB  00F6               	movwf	??_copy_frame
  3222  07DC  0822               	movf	copy_frame@k,w
  3223  07DD  3E44               	addlw	(low (_name| (0+256)))& (0+255)
  3224  07DE  0086               	movwf	6
  3225  07DF  3001               	movlw	1	; select bank2/3
  3226  07E0  0087               	movwf	7
  3227  07E1  0876               	movf	??_copy_frame,w
  3228  07E2  0081               	movwf	1
  3229  07E3  3001               	movlw	1
  3230  07E4  07A2               	addwf	copy_frame@k,f
  3231  07E5  3000               	movlw	0
  3232  07E6  3DA3               	addwfc	copy_frame@k+1,f
  3233  07E7  2FBB               	goto	l761
  3234  07E8                     l8888:	
  3235                           
  3236                           ;2_3DIM.c: 1315: }
  3237                           ;2_3DIM.c: 1317: COPY_FLAG=0;
  3238  07E8  0020               	movlb	0	; select bank0
  3239  07E9  01CF               	clrf	_COPY_FLAG
  3240  07EA  01D0               	clrf	_COPY_FLAG+1
  3241  07EB  0008               	return
  3242  07EC                     __end_of_copy_frame:	
  3243                           
  3244                           	psect	text14
  3245  0AAE                     __ptext14:	
  3246 ;; *************** function _ACTION *****************
  3247 ;; Defined at:
  3248 ;;		line 1320 in file "2_3DIM.c"
  3249 ;; Parameters:    Size  Location     Type
  3250 ;;  Switch_Num_1    1    wreg     unsigned char 
  3251 ;;  Switch_Num_1    1    6[BANK0 ] unsigned char 
  3252 ;;  sw_status       1    7[BANK0 ] unsigned char 
  3253 ;;  speed_bitHig    1    8[BANK0 ] unsigned char 
  3254 ;;  speed_bitLow    1    9[BANK0 ] unsigned char 
  3255 ;;  parent          1   10[BANK0 ] unsigned char 
  3256 ;;  finalFrameSt    1   11[BANK0 ] unsigned char 
  3257 ;; Auto vars:     Size  Location     Type
  3258 ;;  Switch_Num_1    1   20[BANK0 ] unsigned char 
  3259 ;;  SwNumString     2   23[BANK0 ] unsigned char [2]
  3260 ;;  FanSpeedStri    2   21[BANK0 ] unsigned char [2]
  3261 ;;  child_lock_n    2   18[BANK0 ] int 
  3262 ;;  children        2   16[BANK0 ] int 
  3263 ;;  FanSpeed        2   14[BANK0 ] int 
  3264 ;;  switch_statu    2   29[BANK0 ] int 
  3265 ;;  response_sta    2   27[BANK0 ] int 
  3266 ;;  SwNum           2   25[BANK0 ] int 
  3267 ;; Return value:  Size  Location     Type
  3268 ;;                  1    wreg      void 
  3269 ;; Registers used:
  3270 ;;		wreg, fsr0l, fsr0h, fsr1l, fsr1h, status,2, status,0, pclath, cstack
  3271 ;; Tracked objects:
  3272 ;;		On entry : 0/0
  3273 ;;		On exit  : 0/0
  3274 ;;		Unchanged: 0/0
  3275 ;; Data sizes:     COMMON   BANK0   BANK1   BANK2   BANK3   BANK4   BANK5   BANK6   BANK7   BANK8   BANK9
  3276 ;;      Params:         0       6       0       0       0       0       0       0       0       0       0
  3277 ;;      Locals:         0      17       0       0       0       0       0       0       0       0       0
  3278 ;;      Temps:          0       2       0       0       0       0       0       0       0       0       0
  3279 ;;      Totals:         0      25       0       0       0       0       0       0       0       0       0
  3280 ;;Total ram usage:       25 bytes
  3281 ;; Hardware stack levels used:    1
  3282 ;; Hardware stack levels required when called:    3
  3283 ;; This function calls:
  3284 ;;		_atoi
  3285 ;;		_writeUART
  3286 ;; This function is called by:
  3287 ;;		_main
  3288 ;; This function uses a non-reentrant model
  3289 ;;
  3290                           
  3291                           
  3292                           ;psect for function _ACTION
  3293  0AAE                     _ACTION:	
  3294                           
  3295                           ;incstack = 0
  3296                           ; Regs used in _ACTION: [wreg-fsr1h+status,2+status,0+pclath+cstack]
  3297                           ;ACTION@Switch_Num_10s stored from wreg
  3298  0AAE  0020               	movlb	0	; select bank0
  3299  0AAF  00B4               	movwf	ACTION@Switch_Num_10s
  3300                           
  3301                           ;2_3DIM.c: 1322: int response_starts=0;
  3302  0AB0  01BB               	clrf	ACTION@response_starts
  3303  0AB1  01BC               	clrf	ACTION@response_starts+1
  3304                           
  3305                           ;2_3DIM.c: 1323: int switch_status=0;
  3306  0AB2  01BD               	clrf	ACTION@switch_status
  3307  0AB3  01BE               	clrf	ACTION@switch_status+1
  3308                           
  3309                           ;2_3DIM.c: 1324: int SwNum=0;
  3310  0AB4  01B9               	clrf	ACTION@SwNum
  3311  0AB5  01BA               	clrf	ACTION@SwNum+1
  3312                           
  3313                           ;2_3DIM.c: 1326: if(Switch_Num_1s != 'T')
  3314  0AB6  3054               	movlw	84
  3315  0AB7  0626               	xorwf	ACTION@Switch_Num_1s,w
  3316  0AB8  1903               	btfsc	3,2
  3317  0AB9  2C2A               	goto	l8992
  3318                           
  3319                           ;2_3DIM.c: 1327: {
  3320                           ;2_3DIM.c: 1328: unsigned char FanSpeedString[2], SwNumString[2];
  3321                           ;2_3DIM.c: 1329: int FanSpeed=0;
  3322  0ABA  01AE               	clrf	ACTION@FanSpeed
  3323  0ABB  01AF               	clrf	ACTION@FanSpeed+1
  3324                           
  3325                           ;2_3DIM.c: 1331: switch_status=sw_status - '0';
  3326  0ABC  0827               	movf	ACTION@sw_status,w
  3327  0ABD  3ED0               	addlw	208
  3328  0ABE  00BD               	movwf	ACTION@switch_status
  3329  0ABF  30FF               	movlw	255
  3330  0AC0  1803               	skipnc
  3331  0AC1  3000               	movlw	0
  3332  0AC2  00BE               	movwf	ACTION@switch_status+1
  3333                           
  3334                           ;2_3DIM.c: 1333: SwNumString[0]=Switch_Num_10s;
  3335  0AC3  0834               	movf	ACTION@Switch_Num_10s,w
  3336  0AC4  00AC               	movwf	??_ACTION
  3337  0AC5  082C               	movf	??_ACTION,w
  3338  0AC6  00B7               	movwf	ACTION@SwNumString
  3339                           
  3340                           ;2_3DIM.c: 1334: SwNumString[1]=Switch_Num_1s;
  3341  0AC7  0826               	movf	ACTION@Switch_Num_1s,w
  3342  0AC8  00AC               	movwf	??_ACTION
  3343  0AC9  082C               	movf	??_ACTION,w
  3344  0ACA  00B8               	movwf	ACTION@SwNumString+1
  3345                           
  3346                           ;2_3DIM.c: 1335: SwNum=atoi(SwNumString);
  3347  0ACB  3037               	movlw	(low (ACTION@SwNumString| 0))& (0+255)
  3348  0ACC  3186  26FF  318A   	fcall	_atoi
  3349  0ACF  0879               	movf	?_atoi+1,w
  3350  0AD0  0020               	movlb	0	; select bank0
  3351  0AD1  00BA               	movwf	ACTION@SwNum+1
  3352  0AD2  0878               	movf	?_atoi,w
  3353  0AD3  00B9               	movwf	ACTION@SwNum
  3354                           
  3355                           ;2_3DIM.c: 1337: FanSpeedString[0] = speed_bitHigh;
  3356  0AD4  0828               	movf	ACTION@speed_bitHigh,w
  3357  0AD5  00AC               	movwf	??_ACTION
  3358  0AD6  082C               	movf	??_ACTION,w
  3359  0AD7  00B5               	movwf	ACTION@FanSpeedString
  3360                           
  3361                           ;2_3DIM.c: 1338: FanSpeedString[1] = speed_bitLow;
  3362  0AD8  0829               	movf	ACTION@speed_bitLow,w
  3363  0AD9  00AC               	movwf	??_ACTION
  3364  0ADA  082C               	movf	??_ACTION,w
  3365  0ADB  00B6               	movwf	ACTION@FanSpeedString+1
  3366                           
  3367                           ;2_3DIM.c: 1339: FanSpeed = atoi(FanSpeedString);
  3368  0ADC  3035               	movlw	(low (ACTION@FanSpeedString| 0))& (0+255)
  3369  0ADD  3186  26FF  318A   	fcall	_atoi
  3370  0AE0  0879               	movf	?_atoi+1,w
  3371  0AE1  0020               	movlb	0	; select bank0
  3372  0AE2  00AF               	movwf	ACTION@FanSpeed+1
  3373  0AE3  0878               	movf	?_atoi,w
  3374  0AE4  00AE               	movwf	ACTION@FanSpeed
  3375                           
  3376                           ;2_3DIM.c: 1341: int children=parent - '0';
  3377  0AE5  082A               	movf	ACTION@parent,w
  3378  0AE6  3ED0               	addlw	208
  3379  0AE7  00B0               	movwf	ACTION@children
  3380  0AE8  30FF               	movlw	255
  3381  0AE9  1803               	skipnc
  3382  0AEA  3000               	movlw	0
  3383  0AEB  00B1               	movwf	ACTION@children+1
  3384                           
  3385                           ;2_3DIM.c: 1342: int child_lock_num=(2*(SwNum)-1);
  3386  0AEC  083A               	movf	ACTION@SwNum+1,w
  3387  0AED  00AD               	movwf	??_ACTION+1
  3388  0AEE  0839               	movf	ACTION@SwNum,w
  3389  0AEF  00AC               	movwf	??_ACTION
  3390  0AF0  35AC               	lslf	??_ACTION,f
  3391  0AF1  0DAD               	rlf	??_ACTION+1,f
  3392  0AF2  082C               	movf	??_ACTION,w
  3393  0AF3  3EFF               	addlw	255
  3394  0AF4  00B2               	movwf	ACTION@child_lock_num
  3395  0AF5  30FF               	movlw	255
  3396  0AF6  3D2D               	addwfc	??_ACTION+1,w
  3397  0AF7  00B3               	movwf	ACTION@child_lock_num+1
  3398                           
  3399                           ;2_3DIM.c: 1343: child_LOCK[child_lock_num]=children;
  3400  0AF8  3532               	lslf	ACTION@child_lock_num,w
  3401  0AF9  3EA0               	addlw	(low (_child_LOCK| 0))& (0+255)
  3402  0AFA  0086               	movwf	6
  3403  0AFB  0187               	clrf	7
  3404  0AFC  0830               	movf	ACTION@children,w
  3405  0AFD  3FC0               	movwi [0]fsr1
  3406  0AFE  0831               	movf	ACTION@children+1,w
  3407  0AFF  3FC1               	movwi [1]fsr1
  3408                           
  3409                           ;2_3DIM.c: 1345: response_starts=((1+4*(SwNum))-4);
  3410  0B00  083A               	movf	ACTION@SwNum+1,w
  3411  0B01  00AD               	movwf	??_ACTION+1
  3412  0B02  0839               	movf	ACTION@SwNum,w
  3413  0B03  00AC               	movwf	??_ACTION
  3414  0B04  35AC               	lslf	??_ACTION,f
  3415  0B05  0DAD               	rlf	??_ACTION+1,f
  3416  0B06  35AC               	lslf	??_ACTION,f
  3417  0B07  0DAD               	rlf	??_ACTION+1,f
  3418  0B08  082C               	movf	??_ACTION,w
  3419  0B09  3EFD               	addlw	253
  3420  0B0A  00BB               	movwf	ACTION@response_starts
  3421  0B0B  30FF               	movlw	255
  3422  0B0C  3D2D               	addwfc	??_ACTION+1,w
  3423  0B0D  00BC               	movwf	ACTION@response_starts+1
  3424                           
  3425                           ;2_3DIM.c: 1346: st[response_starts++]='G';
  3426  0B0E  3047               	movlw	71
  3427  0B0F  00AC               	movwf	??_ACTION
  3428  0B10  083B               	movf	ACTION@response_starts,w
  3429  0B11  3EB4               	addlw	(low (_st| 0))& (0+255)
  3430  0B12  0086               	movwf	6
  3431  0B13  0187               	clrf	7
  3432  0B14  082C               	movf	??_ACTION,w
  3433  0B15  0081               	movwf	1
  3434  0B16  3001               	movlw	1
  3435  0B17  07BB               	addwf	ACTION@response_starts,f
  3436  0B18  3000               	movlw	0
  3437  0B19  3DBC               	addwfc	ACTION@response_starts+1,f
  3438                           
  3439                           ;2_3DIM.c: 1347: st[response_starts++]=sw_status;
  3440  0B1A  0827               	movf	ACTION@sw_status,w
  3441  0B1B  00AC               	movwf	??_ACTION
  3442  0B1C  083B               	movf	ACTION@response_starts,w
  3443  0B1D  3EB4               	addlw	(low (_st| 0))& (0+255)
  3444  0B1E  0086               	movwf	6
  3445  0B1F  0187               	clrf	7
  3446  0B20  082C               	movf	??_ACTION,w
  3447  0B21  0081               	movwf	1
  3448  0B22  3001               	movlw	1
  3449  0B23  07BB               	addwf	ACTION@response_starts,f
  3450  0B24  3000               	movlw	0
  3451  0B25  3DBC               	addwfc	ACTION@response_starts+1,f
  3452                           
  3453                           ;2_3DIM.c: 1348: st[response_starts++]=Switch_Num_10s;
  3454  0B26  0834               	movf	ACTION@Switch_Num_10s,w
  3455  0B27  00AC               	movwf	??_ACTION
  3456  0B28  083B               	movf	ACTION@response_starts,w
  3457  0B29  3EB4               	addlw	(low (_st| 0))& (0+255)
  3458  0B2A  0086               	movwf	6
  3459  0B2B  0187               	clrf	7
  3460  0B2C  082C               	movf	??_ACTION,w
  3461  0B2D  0081               	movwf	1
  3462  0B2E  3001               	movlw	1
  3463  0B2F  07BB               	addwf	ACTION@response_starts,f
  3464  0B30  3000               	movlw	0
  3465  0B31  3DBC               	addwfc	ACTION@response_starts+1,f
  3466                           
  3467                           ;2_3DIM.c: 1349: st[response_starts]=Switch_Num_1s;
  3468  0B32  0826               	movf	ACTION@Switch_Num_1s,w
  3469  0B33  00AC               	movwf	??_ACTION
  3470  0B34  083B               	movf	ACTION@response_starts,w
  3471  0B35  3EB4               	addlw	(low (_st| 0))& (0+255)
  3472  0B36  0086               	movwf	6
  3473  0B37  0187               	clrf	7
  3474  0B38  082C               	movf	??_ACTION,w
  3475  0B39  0081               	movwf	1
  3476                           
  3477                           ;2_3DIM.c: 1351: response_starts-=3;
  3478  0B3A  30FD               	movlw	253
  3479  0B3B  07BB               	addwf	ACTION@response_starts,f
  3480  0B3C  30FF               	movlw	255
  3481  0B3D  3DBC               	addwfc	ACTION@response_starts+1,f
  3482                           
  3483                           ;2_3DIM.c: 1352: if(finalFrameStat=='1')
  3484  0B3E  3031               	movlw	49
  3485  0B3F  062B               	xorwf	ACTION@finalFrameStat,w
  3486  0B40  1D03               	btfss	3,2
  3487  0B41  2B47               	goto	l8938
  3488                           
  3489                           ;2_3DIM.c: 1353: {
  3490                           ;2_3DIM.c: 1354: writeUART(st+response_starts);
  3491  0B42  083B               	movf	ACTION@response_starts,w
  3492  0B43  3EB4               	addlw	(low (_st| 0))& (0+255)
  3493  0B44  318A  220E  318A   	fcall	_writeUART
  3494  0B47                     l8938:	
  3495                           
  3496                           ;2_3DIM.c: 1355: }
  3497                           ;2_3DIM.c: 1356: man=0;
  3498  0B47  0020               	movlb	0	; select bank0
  3499  0B48  01E0               	clrf	_man
  3500  0B49  01E1               	clrf	_man+1
  3501                           
  3502                           ;2_3DIM.c: 1357: }
  3503                           ;2_3DIM.c: 1360: switch(SwNum)
  3504  0B4A  2C2A               	goto	l8992
  3505  0B4B                     l770:	
  3506                           ;2_3DIM.c: 1361: {
  3507                           ;2_3DIM.c: 1363: case 1:
  3508                           
  3509                           
  3510                           ;2_3DIM.c: 1364: RF0=switch_status;
  3511  0B4B  1C3D               	btfss	ACTION@switch_status,0
  3512  0B4C  2B50               	goto	u2780
  3513  0B4D  0025               	movlb	5	; select bank5
  3514  0B4E  140C               	bsf	12,0	;volatile
  3515  0B4F  2B52               	goto	l8940
  3516  0B50                     u2780:	
  3517  0B50  0025               	movlb	5	; select bank5
  3518  0B51  100C               	bcf	12,0	;volatile
  3519  0B52                     l8940:	
  3520                           
  3521                           ;2_3DIM.c: 1365: M1=switch_status;
  3522  0B52  0020               	movlb	0	; select bank0
  3523  0B53  083E               	movf	ACTION@switch_status+1,w
  3524  0B54  00CE               	movwf	_M1+1
  3525  0B55  083D               	movf	ACTION@switch_status,w
  3526  0B56  00CD               	movwf	_M1
  3527                           
  3528                           ;2_3DIM.c: 1366: break;
  3529  0B57  0008               	return
  3530  0B58                     l772:	
  3531                           ;2_3DIM.c: 1367: case 2:
  3532                           
  3533                           
  3534                           ;2_3DIM.c: 1368: RF1=switch_status;
  3535  0B58  1C3D               	btfss	ACTION@switch_status,0
  3536  0B59  2B5D               	goto	u2800
  3537  0B5A  0025               	movlb	5	; select bank5
  3538  0B5B  148C               	bsf	12,1	;volatile
  3539  0B5C  2B5F               	goto	l8942
  3540  0B5D                     u2800:	
  3541  0B5D  0025               	movlb	5	; select bank5
  3542  0B5E  108C               	bcf	12,1	;volatile
  3543  0B5F                     l8942:	
  3544                           
  3545                           ;2_3DIM.c: 1369: M2=switch_status;
  3546  0B5F  0020               	movlb	0	; select bank0
  3547  0B60  083E               	movf	ACTION@switch_status+1,w
  3548  0B61  00CC               	movwf	_M2+1
  3549  0B62  083D               	movf	ACTION@switch_status,w
  3550  0B63  00CB               	movwf	_M2
  3551                           
  3552                           ;2_3DIM.c: 1370: break;
  3553  0B64  0008               	return
  3554  0B65                     l8944:	
  3555                           ;2_3DIM.c: 1371: case 3:
  3556                           
  3557                           
  3558                           ;2_3DIM.c: 1372: FAN_FLAG1 = switch_status;
  3559  0B65  083E               	movf	ACTION@switch_status+1,w
  3560  0B66  0021               	movlb	1	; select bank1
  3561  0B67  00E3               	movwf	(_FAN_FLAG1+1)^(0+128)
  3562  0B68  0020               	movlb	0	; select bank0
  3563  0B69  083D               	movf	ACTION@switch_status,w
  3564  0B6A  0021               	movlb	1	; select bank1
  3565  0B6B  00E2               	movwf	_FAN_FLAG1^(0+128)
  3566                           
  3567                           ;2_3DIM.c: 1373: if(switch_status==0)
  3568  0B6C  0020               	movlb	0	; select bank0
  3569  0B6D  083D               	movf	ACTION@switch_status,w
  3570  0B6E  043E               	iorwf	ACTION@switch_status+1,w
  3571  0B6F  1D03               	btfss	3,2
  3572  0B70  2B80               	goto	l8952
  3573                           
  3574                           ;2_3DIM.c: 1374: {
  3575                           ;2_3DIM.c: 1375: T2CONbits.TMR2ON=0;
  3576  0B71  111C               	bcf	28,2	;volatile
  3577                           
  3578                           ;2_3DIM.c: 1376: T1CONbits.TMR1ON = 0;
  3579  0B72  1018               	bcf	24,0	;volatile
  3580                           
  3581                           ;2_3DIM.c: 1377: PIE1bits.CCP1IE = 0;
  3582  0B73  0021               	movlb	1	; select bank1
  3583  0B74  1111               	bcf	17,2	;volatile
  3584                           
  3585                           ;2_3DIM.c: 1378: RA2 =(switch_status^1);
  3586  0B75  0020               	movlb	0	; select bank0
  3587  0B76  183D               	btfsc	ACTION@switch_status,0
  3588  0B77  2B7B               	goto	u2830
  3589  0B78  0020               	movlb	0	; select bank0
  3590  0B79  150C               	bsf	12,2	;volatile
  3591  0B7A  2B7D               	goto	l8950
  3592  0B7B                     u2830:	
  3593  0B7B  0020               	movlb	0	; select bank0
  3594  0B7C  110C               	bcf	12,2	;volatile
  3595  0B7D                     l8950:	
  3596                           
  3597                           ;2_3DIM.c: 1379: pk=0;
  3598  0B7D  01D9               	clrf	_pk
  3599  0B7E  01DA               	clrf	_pk+1
  3600                           
  3601                           ;2_3DIM.c: 1380: }
  3602  0B7F  2BA1               	goto	l775
  3603  0B80                     l8952:	
  3604                           
  3605                           ;2_3DIM.c: 1381: else if(switch_status==1)
  3606  0B80  033D               	decf	ACTION@switch_status,w
  3607  0B81  043E               	iorwf	ACTION@switch_status+1,w
  3608  0B82  1D03               	btfss	3,2
  3609  0B83  2BA1               	goto	l775
  3610                           
  3611                           ;2_3DIM.c: 1382: {
  3612                           ;2_3DIM.c: 1383: PIE1bits.CCP1IE = 1;
  3613  0B84  0021               	movlb	1	; select bank1
  3614  0B85  1511               	bsf	17,2	;volatile
  3615                           
  3616                           ;2_3DIM.c: 1384: dimmer1=speed_bitHigh;
  3617  0B86  0020               	movlb	0	; select bank0
  3618  0B87  0828               	movf	ACTION@speed_bitHigh,w
  3619  0B88  00AC               	movwf	??_ACTION
  3620  0B89  082C               	movf	??_ACTION,w
  3621  0B8A  00DF               	movwf	_dimmer1
  3622                           
  3623                           ;2_3DIM.c: 1385: pk=1;
  3624  0B8B  3001               	movlw	1
  3625  0B8C  00D9               	movwf	_pk
  3626  0B8D  3000               	movlw	0
  3627  0B8E  00DA               	movwf	_pk+1
  3628                           
  3629                           ;2_3DIM.c: 1386: FAN_SPEED1_10s = speed_bitHigh;
  3630  0B8F  0828               	movf	ACTION@speed_bitHigh,w
  3631  0B90  00AC               	movwf	??_ACTION
  3632  0B91  01AD               	clrf	??_ACTION+1
  3633  0B92  082C               	movf	??_ACTION,w
  3634  0B93  0021               	movlb	1	; select bank1
  3635  0B94  00EA               	movwf	_FAN_SPEED1_10s^(0+128)
  3636  0B95  0020               	movlb	0	; select bank0
  3637  0B96  082D               	movf	??_ACTION+1,w
  3638  0B97  0021               	movlb	1	; select bank1
  3639  0B98  00EB               	movwf	(_FAN_SPEED1_10s+1)^(0+128)
  3640                           
  3641                           ;2_3DIM.c: 1387: FAN_SPEED1_1s= speed_bitLow;
  3642  0B99  0020               	movlb	0	; select bank0
  3643  0B9A  0829               	movf	ACTION@speed_bitLow,w
  3644  0B9B  00AC               	movwf	??_ACTION
  3645  0B9C  01AD               	clrf	??_ACTION+1
  3646  0B9D  082C               	movf	??_ACTION,w
  3647  0B9E  00D5               	movwf	_FAN_SPEED1_1s
  3648  0B9F  082D               	movf	??_ACTION+1,w
  3649  0BA0  00D6               	movwf	_FAN_SPEED1_1s+1
  3650  0BA1                     l775:	
  3651                           
  3652                           ;2_3DIM.c: 1389: }
  3653                           ;2_3DIM.c: 1390: M3=switch_status;
  3654  0BA1  083E               	movf	ACTION@switch_status+1,w
  3655  0BA2  00CA               	movwf	_M3+1
  3656  0BA3  083D               	movf	ACTION@switch_status,w
  3657  0BA4  00C9               	movwf	_M3
  3658                           
  3659                           ;2_3DIM.c: 1391: break;
  3660  0BA5  0008               	return
  3661  0BA6                     l8958:	
  3662                           ;2_3DIM.c: 1392: case 4:
  3663                           
  3664                           
  3665                           ;2_3DIM.c: 1393: FAN_FLAG2 = switch_status;
  3666  0BA6  083E               	movf	ACTION@switch_status+1,w
  3667  0BA7  0021               	movlb	1	; select bank1
  3668  0BA8  00E1               	movwf	(_FAN_FLAG2+1)^(0+128)
  3669  0BA9  0020               	movlb	0	; select bank0
  3670  0BAA  083D               	movf	ACTION@switch_status,w
  3671  0BAB  0021               	movlb	1	; select bank1
  3672  0BAC  00E0               	movwf	_FAN_FLAG2^(0+128)
  3673                           
  3674                           ;2_3DIM.c: 1394: if(switch_status==0)
  3675  0BAD  0020               	movlb	0	; select bank0
  3676  0BAE  083D               	movf	ACTION@switch_status,w
  3677  0BAF  043E               	iorwf	ACTION@switch_status+1,w
  3678  0BB0  1D03               	btfss	3,2
  3679  0BB1  2BC2               	goto	l8966
  3680                           
  3681                           ;2_3DIM.c: 1395: {
  3682                           ;2_3DIM.c: 1396: T3CONbits.TMR3ON=0;
  3683  0BB2  0028               	movlb	8	; select bank8
  3684  0BB3  1013               	bcf	19,0	;volatile
  3685                           
  3686                           ;2_3DIM.c: 1397: T4CONbits.TMR4ON = 0;
  3687  0BB4  1117               	bcf	23,2	;volatile
  3688                           
  3689                           ;2_3DIM.c: 1398: PIE3bits.CCP3IE = 0;
  3690  0BB5  0021               	movlb	1	; select bank1
  3691  0BB6  1213               	bcf	19,4	;volatile
  3692                           
  3693                           ;2_3DIM.c: 1399: RA3 =(switch_status^1);
  3694  0BB7  0020               	movlb	0	; select bank0
  3695  0BB8  183D               	btfsc	ACTION@switch_status,0
  3696  0BB9  2BBD               	goto	u2870
  3697  0BBA  0020               	movlb	0	; select bank0
  3698  0BBB  158C               	bsf	12,3	;volatile
  3699  0BBC  2BBF               	goto	l8964
  3700  0BBD                     u2870:	
  3701  0BBD  0020               	movlb	0	; select bank0
  3702  0BBE  118C               	bcf	12,3	;volatile
  3703  0BBF                     l8964:	
  3704                           
  3705                           ;2_3DIM.c: 1400: ak=0;
  3706  0BBF  01D7               	clrf	_ak
  3707  0BC0  01D8               	clrf	_ak+1
  3708                           
  3709                           ;2_3DIM.c: 1401: }
  3710  0BC1  2BE3               	goto	l779
  3711  0BC2                     l8966:	
  3712                           
  3713                           ;2_3DIM.c: 1402: else if(switch_status==1)
  3714  0BC2  033D               	decf	ACTION@switch_status,w
  3715  0BC3  043E               	iorwf	ACTION@switch_status+1,w
  3716  0BC4  1D03               	btfss	3,2
  3717  0BC5  2BE3               	goto	l779
  3718                           
  3719                           ;2_3DIM.c: 1403: {
  3720                           ;2_3DIM.c: 1404: PIE3bits.CCP3IE = 1;
  3721  0BC6  0021               	movlb	1	; select bank1
  3722  0BC7  1613               	bsf	19,4	;volatile
  3723                           
  3724                           ;2_3DIM.c: 1405: dimmer2=speed_bitHigh;
  3725  0BC8  0020               	movlb	0	; select bank0
  3726  0BC9  0828               	movf	ACTION@speed_bitHigh,w
  3727  0BCA  00AC               	movwf	??_ACTION
  3728  0BCB  082C               	movf	??_ACTION,w
  3729  0BCC  00DE               	movwf	_dimmer2
  3730                           
  3731                           ;2_3DIM.c: 1406: ak=1;
  3732  0BCD  3001               	movlw	1
  3733  0BCE  00D7               	movwf	_ak
  3734  0BCF  3000               	movlw	0
  3735  0BD0  00D8               	movwf	_ak+1
  3736                           
  3737                           ;2_3DIM.c: 1407: FAN_SPEED2_10s = speed_bitHigh;
  3738  0BD1  0828               	movf	ACTION@speed_bitHigh,w
  3739  0BD2  00AC               	movwf	??_ACTION
  3740  0BD3  01AD               	clrf	??_ACTION+1
  3741  0BD4  082C               	movf	??_ACTION,w
  3742  0BD5  0021               	movlb	1	; select bank1
  3743  0BD6  00E8               	movwf	_FAN_SPEED2_10s^(0+128)
  3744  0BD7  0020               	movlb	0	; select bank0
  3745  0BD8  082D               	movf	??_ACTION+1,w
  3746  0BD9  0021               	movlb	1	; select bank1
  3747  0BDA  00E9               	movwf	(_FAN_SPEED2_10s+1)^(0+128)
  3748                           
  3749                           ;2_3DIM.c: 1408: FAN_SPEED2_1s= speed_bitLow;
  3750  0BDB  0020               	movlb	0	; select bank0
  3751  0BDC  0829               	movf	ACTION@speed_bitLow,w
  3752  0BDD  00AC               	movwf	??_ACTION
  3753  0BDE  01AD               	clrf	??_ACTION+1
  3754  0BDF  082C               	movf	??_ACTION,w
  3755  0BE0  00D3               	movwf	_FAN_SPEED2_1s
  3756  0BE1  082D               	movf	??_ACTION+1,w
  3757  0BE2  00D4               	movwf	_FAN_SPEED2_1s+1
  3758  0BE3                     l779:	
  3759                           
  3760                           ;2_3DIM.c: 1410: }
  3761                           ;2_3DIM.c: 1411: M4=switch_status;
  3762  0BE3  083E               	movf	ACTION@switch_status+1,w
  3763  0BE4  00C8               	movwf	_M4+1
  3764  0BE5  083D               	movf	ACTION@switch_status,w
  3765  0BE6  00C7               	movwf	_M4
  3766                           
  3767                           ;2_3DIM.c: 1412: break;
  3768  0BE7  0008               	return
  3769  0BE8                     l8972:	
  3770                           ;2_3DIM.c: 1413: case 5:
  3771                           
  3772                           
  3773                           ;2_3DIM.c: 1414: FAN_FLAG3 = switch_status;
  3774  0BE8  083E               	movf	ACTION@switch_status+1,w
  3775  0BE9  0021               	movlb	1	; select bank1
  3776  0BEA  00DF               	movwf	(_FAN_FLAG3+1)^(0+128)
  3777  0BEB  0020               	movlb	0	; select bank0
  3778  0BEC  083D               	movf	ACTION@switch_status,w
  3779  0BED  0021               	movlb	1	; select bank1
  3780  0BEE  00DE               	movwf	_FAN_FLAG3^(0+128)
  3781                           
  3782                           ;2_3DIM.c: 1415: if(switch_status==0)
  3783  0BEF  0020               	movlb	0	; select bank0
  3784  0BF0  083D               	movf	ACTION@switch_status,w
  3785  0BF1  043E               	iorwf	ACTION@switch_status+1,w
  3786  0BF2  1D03               	btfss	3,2
  3787  0BF3  2C04               	goto	l8984
  3788                           
  3789                           ;2_3DIM.c: 1416: {
  3790                           ;2_3DIM.c: 1417: T5CONbits.TMR5ON=0;
  3791  0BF4  0028               	movlb	8	; select bank8
  3792  0BF5  101A               	bcf	26,0	;volatile
  3793                           
  3794                           ;2_3DIM.c: 1418: T6CONbits.TMR6ON = 0;
  3795  0BF6  111E               	bcf	30,2	;volatile
  3796                           
  3797                           ;2_3DIM.c: 1419: tk=0;
  3798  0BF7  01FA               	clrf	_tk
  3799  0BF8  01FB               	clrf	_tk+1
  3800                           
  3801                           ;2_3DIM.c: 1420: PIE4bits.CCP9IE = 0;
  3802  0BF9  0021               	movlb	1	; select bank1
  3803  0BFA  1314               	bcf	20,6	;volatile
  3804                           
  3805                           ;2_3DIM.c: 1421: RE5 =(switch_status^1);
  3806  0BFB  0020               	movlb	0	; select bank0
  3807  0BFC  183D               	btfsc	ACTION@switch_status,0
  3808  0BFD  2C01               	goto	u2910
  3809  0BFE  0020               	movlb	0	; select bank0
  3810  0BFF  1690               	bsf	16,5	;volatile
  3811  0C00  2C25               	goto	l783
  3812  0C01                     u2910:	
  3813  0C01  0020               	movlb	0	; select bank0
  3814  0C02  1290               	bcf	16,5	;volatile
  3815                           
  3816                           ;2_3DIM.c: 1422: }
  3817  0C03  2C25               	goto	l783
  3818  0C04                     l8984:	
  3819                           
  3820                           ;2_3DIM.c: 1423: else if(switch_status==1)
  3821  0C04  033D               	decf	ACTION@switch_status,w
  3822  0C05  043E               	iorwf	ACTION@switch_status+1,w
  3823  0C06  1D03               	btfss	3,2
  3824  0C07  2C25               	goto	l783
  3825                           
  3826                           ;2_3DIM.c: 1424: {
  3827                           ;2_3DIM.c: 1425: PIE4bits.CCP9IE = 1;
  3828  0C08  0021               	movlb	1	; select bank1
  3829  0C09  1714               	bsf	20,6	;volatile
  3830                           
  3831                           ;2_3DIM.c: 1426: dimmer3=speed_bitHigh;
  3832  0C0A  0020               	movlb	0	; select bank0
  3833  0C0B  0828               	movf	ACTION@speed_bitHigh,w
  3834  0C0C  00AC               	movwf	??_ACTION
  3835  0C0D  082C               	movf	??_ACTION,w
  3836  0C0E  00DD               	movwf	_dimmer3
  3837                           
  3838                           ;2_3DIM.c: 1427: tk=1;
  3839  0C0F  3001               	movlw	1
  3840  0C10  00FA               	movwf	_tk
  3841  0C11  3000               	movlw	0
  3842  0C12  00FB               	movwf	_tk+1
  3843                           
  3844                           ;2_3DIM.c: 1428: FAN_SPEED3_10s = speed_bitHigh;
  3845  0C13  0828               	movf	ACTION@speed_bitHigh,w
  3846  0C14  00AC               	movwf	??_ACTION
  3847  0C15  01AD               	clrf	??_ACTION+1
  3848  0C16  082C               	movf	??_ACTION,w
  3849  0C17  0021               	movlb	1	; select bank1
  3850  0C18  00E6               	movwf	_FAN_SPEED3_10s^(0+128)
  3851  0C19  0020               	movlb	0	; select bank0
  3852  0C1A  082D               	movf	??_ACTION+1,w
  3853  0C1B  0021               	movlb	1	; select bank1
  3854  0C1C  00E7               	movwf	(_FAN_SPEED3_10s+1)^(0+128)
  3855                           
  3856                           ;2_3DIM.c: 1429: FAN_SPEED3_1s= speed_bitLow;
  3857  0C1D  0020               	movlb	0	; select bank0
  3858  0C1E  0829               	movf	ACTION@speed_bitLow,w
  3859  0C1F  00AC               	movwf	??_ACTION
  3860  0C20  01AD               	clrf	??_ACTION+1
  3861  0C21  082C               	movf	??_ACTION,w
  3862  0C22  00D1               	movwf	_FAN_SPEED3_1s
  3863  0C23  082D               	movf	??_ACTION+1,w
  3864  0C24  00D2               	movwf	_FAN_SPEED3_1s+1
  3865  0C25                     l783:	
  3866                           
  3867                           ;2_3DIM.c: 1430: }
  3868                           ;2_3DIM.c: 1431: M5=switch_status;
  3869  0C25  083E               	movf	ACTION@switch_status+1,w
  3870  0C26  00C6               	movwf	_M5+1
  3871  0C27  083D               	movf	ACTION@switch_status,w
  3872  0C28  00C5               	movwf	_M5
  3873                           
  3874                           ;2_3DIM.c: 1435: }
  3875                           
  3876                           ;2_3DIM.c: 1434: break;
  3877                           
  3878                           ;2_3DIM.c: 1433: default:
  3879                           
  3880                           ;2_3DIM.c: 1432: break;
  3881  0C29  0008               	return
  3882  0C2A                     l8992:	
  3883                           
  3884                           ; Switch on 2 bytes has been partitioned into a top level switch of size 1, and 1 sub-sw
      +                          itches
  3885                           ; Switch size 1, requested type "space"
  3886                           ; Number of cases is 1, Range of values is 0 to 0
  3887                           ; switch strategies available:
  3888                           ; Name         Instructions Cycles
  3889                           ; simple_byte            4     3 (average)
  3890                           ; direct_byte            8     6 (fixed)
  3891                           ; jumptable            260     6 (fixed)
  3892                           ;	Chosen strategy is simple_byte
  3893  0C2A  083A               	movf	ACTION@SwNum+1,w
  3894  0C2B  3A00               	xorlw	0	; case 0
  3895  0C2C  1903               	skipnz
  3896  0C2D  2C2F               	goto	l10656
  3897  0C2E  2C40               	goto	l786
  3898  0C2F                     l10656:	
  3899                           
  3900                           ; Switch size 1, requested type "space"
  3901                           ; Number of cases is 5, Range of values is 1 to 5
  3902                           ; switch strategies available:
  3903                           ; Name         Instructions Cycles
  3904                           ; simple_byte           16     9 (average)
  3905                           ; direct_byte           19     9 (fixed)
  3906                           ; jumptable            263     9 (fixed)
  3907                           ;	Chosen strategy is simple_byte
  3908  0C2F  0839               	movf	ACTION@SwNum,w
  3909  0C30  3A01               	xorlw	1	; case 1
  3910  0C31  1903               	skipnz
  3911  0C32  2B4B               	goto	l770
  3912  0C33  3A03               	xorlw	3	; case 2
  3913  0C34  1903               	skipnz
  3914  0C35  2B58               	goto	l772
  3915  0C36  3A01               	xorlw	1	; case 3
  3916  0C37  1903               	skipnz
  3917  0C38  2B65               	goto	l8944
  3918  0C39  3A07               	xorlw	7	; case 4
  3919  0C3A  1903               	skipnz
  3920  0C3B  2BA6               	goto	l8958
  3921  0C3C  3A01               	xorlw	1	; case 5
  3922  0C3D  1903               	skipnz
  3923  0C3E  2BE8               	goto	l8972
  3924  0C3F  2C40               	goto	l786
  3925  0C40                     l786:	
  3926  0C40  0008               	return
  3927  0C41                     __end_of_ACTION:	
  3928                           
  3929                           	psect	text15
  3930  0A0E                     __ptext15:	
  3931 ;; *************** function _writeUART *****************
  3932 ;; Defined at:
  3933 ;;		line 1439 in file "2_3DIM.c"
  3934 ;; Parameters:    Size  Location     Type
  3935 ;;  str2Write       1    wreg     PTR unsigned char 
  3936 ;;		 -> st(26), 
  3937 ;; Auto vars:     Size  Location     Type
  3938 ;;  str2Write       1    5[COMMON] PTR unsigned char 
  3939 ;;		 -> st(26), 
  3940 ;;  Tx_count        2    3[COMMON] int 
  3941 ;; Return value:  Size  Location     Type
  3942 ;;                  1    wreg      void 
  3943 ;; Registers used:
  3944 ;;		wreg, fsr1l, fsr1h, status,2, status,0
  3945 ;; Tracked objects:
  3946 ;;		On entry : 0/0
  3947 ;;		On exit  : 0/0
  3948 ;;		Unchanged: 0/0
  3949 ;; Data sizes:     COMMON   BANK0   BANK1   BANK2   BANK3   BANK4   BANK5   BANK6   BANK7   BANK8   BANK9
  3950 ;;      Params:         0       0       0       0       0       0       0       0       0       0       0
  3951 ;;      Locals:         3       0       0       0       0       0       0       0       0       0       0
  3952 ;;      Temps:          1       0       0       0       0       0       0       0       0       0       0
  3953 ;;      Totals:         4       0       0       0       0       0       0       0       0       0       0
  3954 ;;Total ram usage:        4 bytes
  3955 ;; Hardware stack levels used:    1
  3956 ;; Hardware stack levels required when called:    1
  3957 ;; This function calls:
  3958 ;;		Nothing
  3959 ;; This function is called by:
  3960 ;;		_main
  3961 ;;		_ACTION
  3962 ;; This function uses a non-reentrant model
  3963 ;;
  3964                           
  3965                           
  3966                           ;psect for function _writeUART
  3967  0A0E                     _writeUART:	
  3968                           
  3969                           ;incstack = 0
  3970                           ; Regs used in _writeUART: [wreg+fsr1l+fsr1h+status,2+status,0]
  3971                           ;writeUART@str2Write stored from wreg
  3972  0A0E  00F5               	movwf	writeUART@str2Write
  3973                           
  3974                           ;2_3DIM.c: 1441: int Tx_count=0;
  3975  0A0F  01F3               	clrf	writeUART@Tx_count
  3976  0A10  01F4               	clrf	writeUART@Tx_count+1
  3977  0A11                     l8800:	
  3978                           ;2_3DIM.c: 1443: while(Tx_count!=4)
  3979                           
  3980  0A11  3004               	movlw	4
  3981  0A12  0673               	xorwf	writeUART@Tx_count,w
  3982  0A13  0474               	iorwf	writeUART@Tx_count+1,w
  3983  0A14  1903               	btfsc	3,2
  3984  0A15  0008               	return
  3985  0A16                     l791:	
  3986                           ;2_3DIM.c: 1444: {
  3987                           ;2_3DIM.c: 1446: while (!TX1STAbits.TRMT);
  3988                           
  3989  0A16  0023               	movlb	3	; select bank3
  3990  0A17  1C9E               	btfss	30,1	;volatile
  3991  0A18  2A16               	goto	l791
  3992                           
  3993                           ;2_3DIM.c: 1447: TX1REG = *str2Write;
  3994  0A19  0875               	movf	writeUART@str2Write,w
  3995  0A1A  0086               	movwf	6
  3996  0A1B  0187               	clrf	7
  3997  0A1C  0801               	movf	1,w
  3998  0A1D  009A               	movwf	26	;volatile
  3999                           
  4000                           ;2_3DIM.c: 1448: *str2Write++;
  4001  0A1E  3001               	movlw	1
  4002  0A1F  00F2               	movwf	??_writeUART
  4003  0A20  0872               	movf	??_writeUART,w
  4004  0A21  07F5               	addwf	writeUART@str2Write,f
  4005                           
  4006                           ;2_3DIM.c: 1449: Tx_count++;
  4007  0A22  3001               	movlw	1
  4008  0A23  07F3               	addwf	writeUART@Tx_count,f
  4009  0A24  3000               	movlw	0
  4010  0A25  3DF4               	addwfc	writeUART@Tx_count+1,f
  4011  0A26  2A11               	goto	l8800
  4012  0A27                     __end_of_writeUART:	
  4013                           
  4014                           	psect	text16
  4015  06FF                     __ptext16:	
  4016 ;; *************** function _atoi *****************
  4017 ;; Defined at:
  4018 ;;		line 5 in file "C:\Program Files (x86)\Microchip\xc8\v1.45\sources\common\atoi.c"
  4019 ;; Parameters:    Size  Location     Type
  4020 ;;  s               1    wreg     PTR const unsigned char 
  4021 ;;		 -> ACTION@FanSpeedString(2), ACTION@SwNumString(2), 
  4022 ;; Auto vars:     Size  Location     Type
  4023 ;;  s               1    5[BANK0 ] PTR const unsigned char 
  4024 ;;		 -> ACTION@FanSpeedString(2), ACTION@SwNumString(2), 
  4025 ;;  a               2    3[BANK0 ] int 
  4026 ;;  sign            1    2[BANK0 ] unsigned char 
  4027 ;; Return value:  Size  Location     Type
  4028 ;;                  2    8[COMMON] int 
  4029 ;; Registers used:
  4030 ;;		wreg, fsr1l, fsr1h, status,2, status,0, pclath, cstack
  4031 ;; Tracked objects:
  4032 ;;		On entry : 0/0
  4033 ;;		On exit  : 0/0
  4034 ;;		Unchanged: 0/0
  4035 ;; Data sizes:     COMMON   BANK0   BANK1   BANK2   BANK3   BANK4   BANK5   BANK6   BANK7   BANK8   BANK9
  4036 ;;      Params:         2       0       0       0       0       0       0       0       0       0       0
  4037 ;;      Locals:         0       4       0       0       0       0       0       0       0       0       0
  4038 ;;      Temps:          0       2       0       0       0       0       0       0       0       0       0
  4039 ;;      Totals:         2       6       0       0       0       0       0       0       0       0       0
  4040 ;;Total ram usage:        8 bytes
  4041 ;; Hardware stack levels used:    1
  4042 ;; Hardware stack levels required when called:    2
  4043 ;; This function calls:
  4044 ;;		___wmul
  4045 ;;		_isdigit
  4046 ;; This function is called by:
  4047 ;;		_ACTION
  4048 ;; This function uses a non-reentrant model
  4049 ;;
  4050                           
  4051                           
  4052                           ;psect for function _atoi
  4053  06FF                     _atoi:	
  4054                           
  4055                           ;incstack = 0
  4056                           ; Regs used in _atoi: [wreg+fsr1l+fsr1h+status,2+status,0+pclath+cstack]
  4057                           ;atoi@s stored from wreg
  4058  06FF  0020               	movlb	0	; select bank0
  4059  0700  00A5               	movwf	atoi@s
  4060  0701                     l8806:	
  4061  0701  0825               	movf	atoi@s,w
  4062  0702  0086               	movwf	6
  4063  0703  0187               	clrf	7
  4064  0704  3020               	movlw	32
  4065  0705  0601               	xorwf	1,w
  4066  0706  1D03               	btfss	3,2
  4067  0707  2F0D               	goto	l8808
  4068  0708                     l8804:	
  4069  0708  3001               	movlw	1
  4070  0709  00A0               	movwf	??_atoi
  4071  070A  0820               	movf	??_atoi,w
  4072  070B  07A5               	addwf	atoi@s,f
  4073  070C  2F01               	goto	l8806
  4074  070D                     l8808:	
  4075  070D  0825               	movf	atoi@s,w
  4076  070E  0086               	movwf	6
  4077  070F  0187               	clrf	7
  4078  0710  3009               	movlw	9
  4079  0711  0601               	xorwf	1,w
  4080  0712  1903               	btfsc	3,2
  4081  0713  2F08               	goto	l8804
  4082  0714  01A3               	clrf	atoi@a
  4083  0715  01A4               	clrf	atoi@a+1
  4084  0716  01A2               	clrf	atoi@sign
  4085  0717  0825               	movf	atoi@s,w
  4086  0718  0086               	movwf	6
  4087  0719  0187               	clrf	7
  4088  071A  302D               	movlw	45
  4089  071B  0601               	xorwf	1,w
  4090  071C  1D03               	btfss	3,2
  4091  071D  2F23               	goto	l8816
  4092  071E  3001               	movlw	1
  4093  071F  00A0               	movwf	??_atoi
  4094  0720  0820               	movf	??_atoi,w
  4095  0721  07A2               	addwf	atoi@sign,f
  4096  0722  2F2A               	goto	l8822
  4097  0723                     l8816:	
  4098  0723  0825               	movf	atoi@s,w
  4099  0724  0086               	movwf	6
  4100  0725  0187               	clrf	7
  4101  0726  302B               	movlw	43
  4102  0727  0601               	xorwf	1,w
  4103  0728  1D03               	btfss	3,2
  4104  0729  2F2E               	goto	l8824
  4105  072A                     l8822:	
  4106  072A  3001               	movlw	1
  4107  072B  00A0               	movwf	??_atoi
  4108  072C  0820               	movf	??_atoi,w
  4109  072D  07A5               	addwf	atoi@s,f
  4110  072E                     l8824:	
  4111  072E  0825               	movf	atoi@s,w
  4112  072F  0086               	movwf	6
  4113  0730  0187               	clrf	7
  4114  0731  0801               	movf	1,w
  4115  0732  3188  20F2  3186   	fcall	_isdigit
  4116  0735  1C03               	btfss	3,0
  4117  0736  2F55               	goto	l8826
  4118  0737  0020               	movlb	0	; select bank0
  4119  0738  0824               	movf	atoi@a+1,w
  4120  0739  00F3               	movwf	___wmul@multiplier+1
  4121  073A  0823               	movf	atoi@a,w
  4122  073B  00F2               	movwf	___wmul@multiplier
  4123  073C  300A               	movlw	10
  4124  073D  00F4               	movwf	___wmul@multiplicand
  4125  073E  3000               	movlw	0
  4126  073F  00F5               	movwf	___wmul@multiplicand+1
  4127  0740  318A  2227  3186   	fcall	___wmul
  4128  0743  0020               	movlb	0	; select bank0
  4129  0744  0825               	movf	atoi@s,w
  4130  0745  0086               	movwf	6
  4131  0746  0187               	clrf	7
  4132  0747  0801               	movf	1,w
  4133  0748  0772               	addwf	?___wmul,w
  4134  0749  00A0               	movwf	??_atoi
  4135  074A  0873               	movf	?___wmul+1,w
  4136  074B  1803               	skipnc
  4137  074C  0A73               	incf	?___wmul+1,w
  4138  074D  00A1               	movwf	??_atoi+1
  4139  074E  0820               	movf	??_atoi,w
  4140  074F  3ED0               	addlw	208
  4141  0750  00A3               	movwf	atoi@a
  4142  0751  30FF               	movlw	255
  4143  0752  3D21               	addwfc	??_atoi+1,w
  4144  0753  00A4               	movwf	atoi@a+1
  4145  0754  2F2A               	goto	l8822
  4146  0755                     l8826:	
  4147  0755  0020               	movlb	0	; select bank0
  4148  0756  0822               	movf	atoi@sign,w
  4149  0757  1903               	btfsc	3,2
  4150  0758  2F65               	goto	l8832
  4151  0759  0923               	comf	atoi@a,w
  4152  075A  00A0               	movwf	??_atoi
  4153  075B  0924               	comf	atoi@a+1,w
  4154  075C  00A1               	movwf	??_atoi+1
  4155  075D  0AA0               	incf	??_atoi,f
  4156  075E  1903               	skipnz
  4157  075F  0AA1               	incf	??_atoi+1,f
  4158  0760  0820               	movf	??_atoi,w
  4159  0761  00F8               	movwf	?_atoi
  4160  0762  0821               	movf	??_atoi+1,w
  4161  0763  00F9               	movwf	?_atoi+1
  4162  0764  0008               	return
  4163  0765                     l8832:	
  4164  0765  0824               	movf	atoi@a+1,w
  4165  0766  00F9               	movwf	?_atoi+1
  4166  0767  0823               	movf	atoi@a,w
  4167  0768  00F8               	movwf	?_atoi
  4168  0769  0008               	return
  4169  076A                     __end_of_atoi:	
  4170                           
  4171                           	psect	text17
  4172  08F2                     __ptext17:	
  4173 ;; *************** function _isdigit *****************
  4174 ;; Defined at:
  4175 ;;		line 8 in file "C:\Program Files (x86)\Microchip\xc8\v1.45\sources\common\isdigit.c"
  4176 ;; Parameters:    Size  Location     Type
  4177 ;;  c               1    wreg     unsigned char 
  4178 ;; Auto vars:     Size  Location     Type
  4179 ;;  c               1    3[COMMON] unsigned char 
  4180 ;; Return value:  Size  Location     Type
  4181 ;;		None               void
  4182 ;; Registers used:
  4183 ;;		wreg, status,2, status,0
  4184 ;; Tracked objects:
  4185 ;;		On entry : 0/0
  4186 ;;		On exit  : 0/0
  4187 ;;		Unchanged: 0/0
  4188 ;; Data sizes:     COMMON   BANK0   BANK1   BANK2   BANK3   BANK4   BANK5   BANK6   BANK7   BANK8   BANK9
  4189 ;;      Params:         0       0       0       0       0       0       0       0       0       0       0
  4190 ;;      Locals:         2       0       0       0       0       0       0       0       0       0       0
  4191 ;;      Temps:          0       0       0       0       0       0       0       0       0       0       0
  4192 ;;      Totals:         2       0       0       0       0       0       0       0       0       0       0
  4193 ;;Total ram usage:        2 bytes
  4194 ;; Hardware stack levels used:    1
  4195 ;; Hardware stack levels required when called:    1
  4196 ;; This function calls:
  4197 ;;		Nothing
  4198 ;; This function is called by:
  4199 ;;		_atoi
  4200 ;; This function uses a non-reentrant model
  4201 ;;
  4202                           
  4203                           
  4204                           ;psect for function _isdigit
  4205  08F2                     _isdigit:	
  4206                           
  4207                           ;incstack = 0
  4208                           ; Regs used in _isdigit: [wreg+status,2+status,0]
  4209                           ;isdigit@c stored from wreg
  4210  08F2  00F3               	movwf	isdigit@c
  4211  08F3  01F2               	clrf	_isdigit$975
  4212  08F4  303A               	movlw	58
  4213  08F5  0273               	subwf	isdigit@c,w
  4214  08F6  1803               	skipnc
  4215  08F7  28FE               	goto	l8690
  4216  08F8  3030               	movlw	48
  4217  08F9  0273               	subwf	isdigit@c,w
  4218  08FA  1C03               	skipc
  4219  08FB  28FE               	goto	l8690
  4220  08FC  01F2               	clrf	_isdigit$975
  4221  08FD  0AF2               	incf	_isdigit$975,f
  4222  08FE                     l8690:	
  4223  08FE  0C72               	rrf	_isdigit$975,w
  4224  08FF  0008               	return
  4225  0900                     __end_of_isdigit:	
  4226                           
  4227                           	psect	text18
  4228  0A27                     __ptext18:	
  4229 ;; *************** function ___wmul *****************
  4230 ;; Defined at:
  4231 ;;		line 15 in file "C:\Program Files (x86)\Microchip\xc8\v1.45\sources\common\Umul16.c"
  4232 ;; Parameters:    Size  Location     Type
  4233 ;;  multiplier      2    2[COMMON] unsigned int 
  4234 ;;  multiplicand    2    4[COMMON] unsigned int 
  4235 ;; Auto vars:     Size  Location     Type
  4236 ;;  product         2    6[COMMON] unsigned int 
  4237 ;; Return value:  Size  Location     Type
  4238 ;;                  2    2[COMMON] unsigned int 
  4239 ;; Registers used:
  4240 ;;		wreg, status,2, status,0
  4241 ;; Tracked objects:
  4242 ;;		On entry : 0/0
  4243 ;;		On exit  : 0/0
  4244 ;;		Unchanged: 0/0
  4245 ;; Data sizes:     COMMON   BANK0   BANK1   BANK2   BANK3   BANK4   BANK5   BANK6   BANK7   BANK8   BANK9
  4246 ;;      Params:         4       0       0       0       0       0       0       0       0       0       0
  4247 ;;      Locals:         2       0       0       0       0       0       0       0       0       0       0
  4248 ;;      Temps:          0       0       0       0       0       0       0       0       0       0       0
  4249 ;;      Totals:         6       0       0       0       0       0       0       0       0       0       0
  4250 ;;Total ram usage:        6 bytes
  4251 ;; Hardware stack levels used:    1
  4252 ;; Hardware stack levels required when called:    1
  4253 ;; This function calls:
  4254 ;;		Nothing
  4255 ;; This function is called by:
  4256 ;;		_atoi
  4257 ;; This function uses a non-reentrant model
  4258 ;;
  4259                           
  4260                           
  4261                           ;psect for function ___wmul
  4262  0A27                     ___wmul:	
  4263                           
  4264                           ;incstack = 0
  4265                           ; Regs used in ___wmul: [wreg+status,2+status,0]
  4266  0A27  01F6               	clrf	___wmul@product
  4267  0A28  01F7               	clrf	___wmul@product+1
  4268  0A29                     l8670:	
  4269  0A29  1C72               	btfss	___wmul@multiplier,0
  4270  0A2A  2A2F               	goto	l832
  4271  0A2B  0874               	movf	___wmul@multiplicand,w
  4272  0A2C  07F6               	addwf	___wmul@product,f
  4273  0A2D  0875               	movf	___wmul@multiplicand+1,w
  4274  0A2E  3DF7               	addwfc	___wmul@product+1,f
  4275  0A2F                     l832:	
  4276  0A2F  3001               	movlw	1
  4277  0A30                     u2625:	
  4278  0A30  35F4               	lslf	___wmul@multiplicand,f
  4279  0A31  0DF5               	rlf	___wmul@multiplicand+1,f
  4280  0A32  0B89               	decfsz	9,f
  4281  0A33  2A30               	goto	u2625
  4282  0A34  3001               	movlw	1
  4283  0A35                     u2635:	
  4284  0A35  36F3               	lsrf	___wmul@multiplier+1,f
  4285  0A36  0CF2               	rrf	___wmul@multiplier,f
  4286  0A37  0B89               	decfsz	9,f
  4287  0A38  2A35               	goto	u2635
  4288  0A39  0872               	movf	___wmul@multiplier,w
  4289  0A3A  0473               	iorwf	___wmul@multiplier+1,w
  4290  0A3B  1D03               	btfss	3,2
  4291  0A3C  2A29               	goto	l8670
  4292  0A3D  0877               	movf	___wmul@product+1,w
  4293  0A3E  00F3               	movwf	?___wmul+1
  4294  0A3F  0876               	movf	___wmul@product,w
  4295  0A40  00F2               	movwf	?___wmul
  4296  0A41  0008               	return
  4297  0A42                     __end_of___wmul:	
  4298                           
  4299                           	psect	intentry
  4300  0004                     __pintentry:	
  4301 ;; *************** function _isr *****************
  4302 ;; Defined at:
  4303 ;;		line 77 in file "2_3DIM.c"
  4304 ;; Parameters:    Size  Location     Type
  4305 ;;		None
  4306 ;; Auto vars:     Size  Location     Type
  4307 ;;		None
  4308 ;; Return value:  Size  Location     Type
  4309 ;;                  1    wreg      void 
  4310 ;; Registers used:
  4311 ;;		wreg, fsr0l, fsr0h, fsr1l, fsr1h, status,2, status,0
  4312 ;; Tracked objects:
  4313 ;;		On entry : 0/0
  4314 ;;		On exit  : 0/0
  4315 ;;		Unchanged: 0/0
  4316 ;; Data sizes:     COMMON   BANK0   BANK1   BANK2   BANK3   BANK4   BANK5   BANK6   BANK7   BANK8   BANK9
  4317 ;;      Params:         0       0       0       0       0       0       0       0       0       0       0
  4318 ;;      Locals:         0       0       0       0       0       0       0       0       0       0       0
  4319 ;;      Temps:          2       0       0       0       0       0       0       0       0       0       0
  4320 ;;      Totals:         2       0       0       0       0       0       0       0       0       0       0
  4321 ;;Total ram usage:        2 bytes
  4322 ;; Hardware stack levels used:    1
  4323 ;; This function calls:
  4324 ;;		Nothing
  4325 ;; This function is called by:
  4326 ;;		Interrupt level 1
  4327 ;; This function uses a non-reentrant model
  4328 ;;
  4329                           
  4330  0004                     _isr:	
  4331                           
  4332                           ;incstack = 0
  4333  0004  147E               	bsf	126,0	;set compiler interrupt flag (level 1)
  4334                           
  4335                           ; Regs used in _isr: [wreg-fsr1h+status,2+status,0]
  4336  0005  3180               	pagesel	$
  4337  0006  0020               	movlb	0	; select bank0
  4338  0007  087F               	movf	127,w
  4339  0008  00F1               	movwf	??_isr+1
  4340                           
  4341                           ;2_3DIM.c: 81: if(RCIF == 1)
  4342  0009  1E91               	btfss	17,5	;volatile
  4343  000A  285B               	goto	i1l5306
  4344                           
  4345                           ;2_3DIM.c: 82: {
  4346                           ;2_3DIM.c: 83: if(RC1STAbits.OERR)
  4347  000B  0023               	movlb	3	; select bank3
  4348  000C  1C9D               	btfss	29,1	;volatile
  4349  000D  2819               	goto	i1l5286
  4350                           
  4351                           ;2_3DIM.c: 84: {
  4352                           ;2_3DIM.c: 85: RC1STAbits.CREN = 0;
  4353  000E  121D               	bcf	29,4	;volatile
  4354                           
  4355                           ;2_3DIM.c: 86: RC1STAbits.CREN = 1;
  4356  000F  161D               	bsf	29,4	;volatile
  4357  0010                     i1l245:	
  4358                           ;2_3DIM.c: 88: while(PIR1bits.TXIF==0);
  4359                           
  4360  0010  0020               	movlb	0	; select bank0
  4361  0011  1E11               	btfss	17,4	;volatile
  4362  0012  2810               	goto	i1l245
  4363                           
  4364                           ;2_3DIM.c: 89: TX1REG='F';
  4365  0013  3046               	movlw	70
  4366  0014  0023               	movlb	3	; select bank3
  4367  0015  009A               	movwf	26	;volatile
  4368  0016                     i1l248:	
  4369                           ;2_3DIM.c: 90: while(PIR1bits.TXIF==0);
  4370                           
  4371  0016  0020               	movlb	0	; select bank0
  4372  0017  1E11               	btfss	17,4	;volatile
  4373  0018  2816               	goto	i1l248
  4374  0019                     i1l5286:	
  4375                           
  4376                           ;2_3DIM.c: 92: }
  4377                           ;2_3DIM.c: 93: name[i]=RC1REG;
  4378  0019  0023               	movlb	3	; select bank3
  4379  001A  0819               	movf	25,w	;volatile
  4380  001B  00F0               	movwf	??_isr
  4381  001C  0020               	movlb	0	; select bank0
  4382  001D  085B               	movf	_i,w
  4383  001E  3E44               	addlw	(low (_name| (0+256)))& (0+255)
  4384  001F  0086               	movwf	6
  4385  0020  3001               	movlw	1	; select bank2/3
  4386  0021  0087               	movwf	7
  4387  0022  0870               	movf	??_isr,w
  4388  0023  0081               	movwf	1
  4389                           
  4390                           ;2_3DIM.c: 94: if(name[0]=='%')
  4391  0024  3025               	movlw	37
  4392  0025  0022               	movlb	2	; select bank2
  4393  0026  0644               	xorwf	_name^(0+256),w
  4394  0027  1D03               	btfss	3,2
  4395  0028  2844               	goto	i1l251
  4396                           
  4397                           ;2_3DIM.c: 95: {
  4398                           ;2_3DIM.c: 96: i++;
  4399  0029  3001               	movlw	1
  4400  002A  0020               	movlb	0	; select bank0
  4401  002B  07DB               	addwf	_i,f
  4402  002C  3000               	movlw	0
  4403  002D  3DDC               	addwfc	_i+1,f
  4404                           
  4405                           ;2_3DIM.c: 97: if(i>15)
  4406  002E  085C               	movf	_i+1,w
  4407  002F  3A80               	xorlw	128
  4408  0030  00F0               	movwf	??_isr
  4409  0031  3080               	movlw	128
  4410  0032  0270               	subwf	??_isr,w
  4411  0033  1D03               	skipz
  4412  0034  2837               	goto	u169_25
  4413  0035  3010               	movlw	16
  4414  0036  025B               	subwf	_i,w
  4415  0037                     u169_25:	
  4416  0037  1C03               	skipc
  4417  0038  285B               	goto	i1l5306
  4418                           
  4419                           ;2_3DIM.c: 98: {
  4420                           ;2_3DIM.c: 99: i=0;
  4421  0039  0020               	movlb	0	; select bank0
  4422  003A  01DB               	clrf	_i
  4423  003B  01DC               	clrf	_i+1
  4424                           
  4425                           ;2_3DIM.c: 100: TX_FLAG = 1;
  4426  003C  3001               	movlw	1
  4427  003D  0021               	movlb	1	; select bank1
  4428  003E  00E4               	movwf	_TX_FLAG^(0+128)
  4429  003F  3000               	movlw	0
  4430  0040  00E5               	movwf	(_TX_FLAG^(0+128)+1)
  4431                           
  4432                           ;2_3DIM.c: 101: RCIF=0;
  4433  0041  0020               	movlb	0	; select bank0
  4434  0042  1291               	bcf	17,5	;volatile
  4435                           
  4436                           ;2_3DIM.c: 102: }
  4437                           ;2_3DIM.c: 103: }
  4438  0043  285B               	goto	i1l5306
  4439  0044                     i1l251:	
  4440                           
  4441                           ;2_3DIM.c: 104: else
  4442                           ;2_3DIM.c: 105: {
  4443                           ;2_3DIM.c: 106: RC1STAbits.CREN = 0;
  4444  0044  0023               	movlb	3	; select bank3
  4445  0045  121D               	bcf	29,4	;volatile
  4446                           
  4447                           ;2_3DIM.c: 107: RC1STAbits.CREN = 1;
  4448  0046  161D               	bsf	29,4	;volatile
  4449                           
  4450                           ;2_3DIM.c: 109: i=0;
  4451  0047  0020               	movlb	0	; select bank0
  4452  0048  01DB               	clrf	_i
  4453  0049  01DC               	clrf	_i+1
  4454  004A                     i1l254:	
  4455                           ;2_3DIM.c: 110: while(PIR1bits.TXIF==0);
  4456                           
  4457  004A  1E11               	btfss	17,4	;volatile
  4458  004B  284A               	goto	i1l254
  4459                           
  4460                           ;2_3DIM.c: 111: TX1REG='F';
  4461  004C  3046               	movlw	70
  4462  004D  0023               	movlb	3	; select bank3
  4463  004E  009A               	movwf	26	;volatile
  4464  004F                     i1l257:	
  4465                           ;2_3DIM.c: 112: while(PIR1bits.TXIF==0);
  4466                           
  4467  004F  0020               	movlb	0	; select bank0
  4468  0050  1E11               	btfss	17,4	;volatile
  4469  0051  284F               	goto	i1l257
  4470                           
  4471                           ;2_3DIM.c: 113: TX1REG='R';
  4472  0052  3052               	movlw	82
  4473  0053  0023               	movlb	3	; select bank3
  4474  0054  009A               	movwf	26	;volatile
  4475  0055                     i1l260:	
  4476                           ;2_3DIM.c: 114: while(PIR1bits.TXIF==0);
  4477                           
  4478  0055  0020               	movlb	0	; select bank0
  4479  0056  1E11               	btfss	17,4	;volatile
  4480  0057  2855               	goto	i1l260
  4481                           
  4482                           ;2_3DIM.c: 115: TX1REG='R';
  4483  0058  3052               	movlw	82
  4484  0059  0023               	movlb	3	; select bank3
  4485  005A  009A               	movwf	26	;volatile
  4486  005B                     i1l5306:	
  4487                           
  4488                           ;2_3DIM.c: 116: }
  4489                           ;2_3DIM.c: 117: }
  4490                           ;2_3DIM.c: 120: if(PIE1bits.TMR2IE==1 && PIR1bits.TMR2IF==1)
  4491  005B  0021               	movlb	1	; select bank1
  4492  005C  1C91               	btfss	17,1	;volatile
  4493  005D  2869               	goto	i1l263
  4494  005E  0020               	movlb	0	; select bank0
  4495  005F  1C91               	btfss	17,1	;volatile
  4496  0060  2869               	goto	i1l263
  4497  0061                     i1l5312:	
  4498                           ;2_3DIM.c: 121: {
  4499                           ;2_3DIM.c: 123: while(TX1REG==0);
  4500                           
  4501  0061  0023               	movlb	3	; select bank3
  4502  0062  081A               	movf	26,w	;volatile
  4503  0063  1903               	btfsc	3,2
  4504  0064  2861               	goto	i1l5312
  4505                           
  4506                           ;2_3DIM.c: 124: PIR1bits.TMR2IF=0;
  4507  0065  0020               	movlb	0	; select bank0
  4508  0066  1091               	bcf	17,1	;volatile
  4509                           
  4510                           ;2_3DIM.c: 125: RA2=1;
  4511  0067  150C               	bsf	12,2	;volatile
  4512                           
  4513                           ;2_3DIM.c: 126: T2CONbits.TMR2ON=0;
  4514  0068  111C               	bcf	28,2	;volatile
  4515  0069                     i1l263:	
  4516                           
  4517                           ;2_3DIM.c: 127: }
  4518                           ;2_3DIM.c: 129: if(PIE1bits.TMR1IE == 1 && PIR1bits.TMR1IF==1)
  4519  0069  0021               	movlb	1	; select bank1
  4520  006A  1C11               	btfss	17,0	;volatile
  4521  006B  2875               	goto	i1l5322
  4522  006C  0020               	movlb	0	; select bank0
  4523  006D  1C11               	btfss	17,0	;volatile
  4524  006E  2875               	goto	i1l5322
  4525                           
  4526                           ;2_3DIM.c: 130: {
  4527                           ;2_3DIM.c: 132: PIR1bits.TMR1IF=0;
  4528  006F  1011               	bcf	17,0	;volatile
  4529                           
  4530                           ;2_3DIM.c: 133: T1CONbits.TMR1ON = 0;
  4531  0070  1018               	bcf	24,0	;volatile
  4532                           
  4533                           ;2_3DIM.c: 134: RA2=0;
  4534  0071  110C               	bcf	12,2	;volatile
  4535                           
  4536                           ;2_3DIM.c: 135: PR2=0x9F;
  4537  0072  309F               	movlw	159
  4538  0073  009B               	movwf	27	;volatile
  4539                           
  4540                           ;2_3DIM.c: 136: T2CONbits.TMR2ON=1;
  4541  0074  151C               	bsf	28,2	;volatile
  4542  0075                     i1l5322:	
  4543                           
  4544                           ;2_3DIM.c: 138: }
  4545                           ;2_3DIM.c: 142: if(PIE3bits.TMR4IE==1 && PIR3bits.TMR4IF==1)
  4546  0075  0021               	movlb	1	; select bank1
  4547  0076  1C93               	btfss	19,1	;volatile
  4548  0077  287F               	goto	i1l268
  4549  0078  0020               	movlb	0	; select bank0
  4550  0079  1C93               	btfss	19,1	;volatile
  4551  007A  287F               	goto	i1l268
  4552                           
  4553                           ;2_3DIM.c: 143: {
  4554                           ;2_3DIM.c: 145: PIR3bits.TMR4IF=0;
  4555  007B  1093               	bcf	19,1	;volatile
  4556                           
  4557                           ;2_3DIM.c: 146: RA3=1;
  4558  007C  158C               	bsf	12,3	;volatile
  4559                           
  4560                           ;2_3DIM.c: 147: T4CONbits.TMR4ON=0;
  4561  007D  0028               	movlb	8	; select bank8
  4562  007E  1117               	bcf	23,2	;volatile
  4563  007F                     i1l268:	
  4564                           
  4565                           ;2_3DIM.c: 149: }
  4566                           ;2_3DIM.c: 151: if(PIE3bits.TMR3IE == 1 && PIR3bits.TMR3IF==1)
  4567  007F  0021               	movlb	1	; select bank1
  4568  0080  1C13               	btfss	19,0	;volatile
  4569  0081  288C               	goto	i1l5338
  4570  0082  0020               	movlb	0	; select bank0
  4571  0083  1C13               	btfss	19,0	;volatile
  4572  0084  288C               	goto	i1l5338
  4573                           
  4574                           ;2_3DIM.c: 152: {
  4575                           ;2_3DIM.c: 154: PIR3bits.TMR3IF=0;
  4576  0085  1013               	bcf	19,0	;volatile
  4577                           
  4578                           ;2_3DIM.c: 156: RA3=0;
  4579  0086  118C               	bcf	12,3	;volatile
  4580                           
  4581                           ;2_3DIM.c: 157: PR4=0x9F;
  4582  0087  309F               	movlw	159
  4583  0088  0028               	movlb	8	; select bank8
  4584  0089  0096               	movwf	22	;volatile
  4585                           
  4586                           ;2_3DIM.c: 159: T4CONbits.TMR4ON=1;
  4587  008A  1517               	bsf	23,2	;volatile
  4588                           
  4589                           ;2_3DIM.c: 160: T3CONbits.TMR3ON = 0;
  4590  008B  1013               	bcf	19,0	;volatile
  4591  008C                     i1l5338:	
  4592                           
  4593                           ;2_3DIM.c: 161: }
  4594                           ;2_3DIM.c: 165: if(PIE3bits.TMR6IE == 1 && PIR3bits.TMR6IF == 1)
  4595  008C  0021               	movlb	1	; select bank1
  4596  008D  1D93               	btfss	19,3	;volatile
  4597  008E  2896               	goto	i1l270
  4598  008F  0020               	movlb	0	; select bank0
  4599  0090  1D93               	btfss	19,3	;volatile
  4600  0091  2896               	goto	i1l270
  4601                           
  4602                           ;2_3DIM.c: 166: {
  4603                           ;2_3DIM.c: 167: PIR3bits.TMR6IF=0;
  4604  0092  1193               	bcf	19,3	;volatile
  4605                           
  4606                           ;2_3DIM.c: 168: RE5=1;
  4607  0093  1690               	bsf	16,5	;volatile
  4608                           
  4609                           ;2_3DIM.c: 169: T6CONbits.TMR6ON=0;
  4610  0094  0028               	movlb	8	; select bank8
  4611  0095  111E               	bcf	30,2	;volatile
  4612  0096                     i1l270:	
  4613                           
  4614                           ;2_3DIM.c: 170: }
  4615                           ;2_3DIM.c: 172: if(PIE3bits.TMR5IE == 1 && PIR3bits.TMR5IF==1)
  4616  0096  0021               	movlb	1	; select bank1
  4617  0097  1D13               	btfss	19,2	;volatile
  4618  0098  28A3               	goto	i1l5354
  4619  0099  0020               	movlb	0	; select bank0
  4620  009A  1D13               	btfss	19,2	;volatile
  4621  009B  28A3               	goto	i1l5354
  4622                           
  4623                           ;2_3DIM.c: 173: {
  4624                           ;2_3DIM.c: 174: PIR3bits.TMR5IF=0;
  4625  009C  1113               	bcf	19,2	;volatile
  4626                           
  4627                           ;2_3DIM.c: 175: RE5=0;
  4628  009D  1290               	bcf	16,5	;volatile
  4629                           
  4630                           ;2_3DIM.c: 176: PR6=0x9F;
  4631  009E  309F               	movlw	159
  4632  009F  0028               	movlb	8	; select bank8
  4633  00A0  009D               	movwf	29	;volatile
  4634                           
  4635                           ;2_3DIM.c: 177: T6CONbits.TMR6ON=1;
  4636  00A1  151E               	bsf	30,2	;volatile
  4637                           
  4638                           ;2_3DIM.c: 178: T5CONbits.TMR5ON=0;
  4639  00A2  101A               	bcf	26,0	;volatile
  4640  00A3                     i1l5354:	
  4641                           
  4642                           ;2_3DIM.c: 179: }
  4643                           ;2_3DIM.c: 182: if(PIR1bits.CCP1IF==1 || PIR3bits.CCP3IF == 1 || PIR4bits.CCP9IF==1)
  4644  00A3  0020               	movlb	0	; select bank0
  4645  00A4  1D11               	btfss	17,2	;volatile
  4646  00A5  1A13               	btfsc	19,4	;volatile
  4647  00A6  28A9               	goto	i1l274
  4648  00A7  1F14               	btfss	20,6	;volatile
  4649  00A8  2EC4               	goto	i1l710
  4650  00A9                     i1l274:	
  4651                           
  4652                           ;2_3DIM.c: 183: {
  4653                           ;2_3DIM.c: 184: if(PIR1bits.CCP1IF == 1)
  4654  00A9  1D11               	btfss	17,2	;volatile
  4655  00AA  2A9D               	goto	i1l275
  4656                           
  4657                           ;2_3DIM.c: 185: {
  4658                           ;2_3DIM.c: 186: PIR1bits.CCP1IF = 0;
  4659  00AB  1111               	bcf	17,2	;volatile
  4660                           
  4661                           ;2_3DIM.c: 188: if(FAN_FLAG1==1 && pk==1)
  4662  00AC  0021               	movlb	1	; select bank1
  4663  00AD  0362               	decf	_FAN_FLAG1^(0+128),w
  4664  00AE  0463               	iorwf	(_FAN_FLAG1+1)^(0+128),w
  4665  00AF  1D03               	btfss	3,2
  4666  00B0  2A9B               	goto	i1l276
  4667  00B1  0020               	movlb	0	; select bank0
  4668  00B2  0359               	decf	_pk,w
  4669  00B3  045A               	iorwf	_pk+1,w
  4670  00B4  1903               	btfsc	3,2
  4671  00B5  2A88               	goto	i1l5820
  4672  00B6  2A9B               	goto	i1l276
  4673  00B7                     i1l5368:	
  4674                           ;2_3DIM.c: 194: {
  4675                           ;2_3DIM.c: 195: case '0':
  4676                           
  4677                           ;2_3DIM.c: 193: switch(FAN_SPEED1_1s)
  4678                           
  4679                           ;2_3DIM.c: 191: {
  4680                           ;2_3DIM.c: 192: case '0':
  4681                           
  4682                           ;2_3DIM.c: 189: {
  4683                           ;2_3DIM.c: 190: switch(FAN_SPEED1_10s)
  4684                           
  4685                           
  4686                           ;2_3DIM.c: 196: TMR1H=0x7B; TMR1L=0x30; T1CONbits.TMR1ON = 1; break;
  4687  00B7  307B               	movlw	123
  4688  00B8  2A63               	goto	L50
  4689  00B9                     i1l5372:	
  4690                           ;2_3DIM.c: 197: case '1':
  4691                           
  4692                           
  4693                           ;2_3DIM.c: 198: TMR1H=0x7C; TMR1L=0xC0; T1CONbits.TMR1ON = 1; break;
  4694  00B9  307C               	movlw	124
  4695  00BA  2A67               	goto	L51
  4696  00BB                     i1l5376:	
  4697                           ;2_3DIM.c: 199: case '2':
  4698                           
  4699                           
  4700                           ;2_3DIM.c: 200: TMR1H=0x7D; TMR1L=0x88; T1CONbits.TMR1ON = 1; break;
  4701  00BB  307D               	movlw	125
  4702  00BC  0097               	movwf	23	;volatile
  4703  00BD  3088               	movlw	136
  4704  00BE  2A71               	goto	L4
  4705  00BF                     i1l5380:	
  4706                           ;2_3DIM.c: 201: case '3':
  4707                           
  4708                           
  4709                           ;2_3DIM.c: 202: TMR1H=0x7F; TMR1L=0x18; T1CONbits.TMR1ON = 1; break;
  4710  00BF  307F               	movlw	127
  4711  00C0  0097               	movwf	23	;volatile
  4712  00C1  3018               	movlw	24
  4713  00C2  2A71               	goto	L4
  4714  00C3                     i1l5384:	
  4715                           ;2_3DIM.c: 203: case '4':
  4716                           
  4717                           
  4718                           ;2_3DIM.c: 204: TMR1H=0x80; TMR1L=0xA8; T1CONbits.TMR1ON = 1; break;
  4719  00C3  3080               	movlw	128
  4720  00C4  2A13               	goto	L147
  4721  00C5                     i1l5388:	
  4722                           ;2_3DIM.c: 205: case '5':
  4723                           
  4724                           
  4725                           ;2_3DIM.c: 206: TMR1H=0x81; TMR1L=0x70; T1CONbits.TMR1ON = 1; break;
  4726  00C5  3081               	movlw	129
  4727  00C6  2A17               	goto	L38
  4728  00C7                     i1l5392:	
  4729                           ;2_3DIM.c: 207: case '6':
  4730                           
  4731                           
  4732                           ;2_3DIM.c: 208: TMR1H=0x83; TMR1L=0x00; T1CONbits.TMR1ON = 1; break;
  4733  00C7  3083               	movlw	131
  4734  00C8  2A1F               	goto	L39
  4735  00C9                     i1l5398:	
  4736                           ;2_3DIM.c: 209: case '7':
  4737                           
  4738                           
  4739                           ;2_3DIM.c: 210: TMR1H=0x83; TMR1L=0xC8; T1CONbits.TMR1ON = 1; break;
  4740  00C9  3083               	movlw	131
  4741  00CA  0097               	movwf	23	;volatile
  4742  00CB  30C8               	movlw	200
  4743  00CC  2A71               	goto	L4
  4744  00CD                     i1l5402:	
  4745                           ;2_3DIM.c: 211: case '8':
  4746                           
  4747  00CD  28EC               	goto	i1l5422
  4748  00CE                     i1l5406:	
  4749                           ;2_3DIM.c: 213: case '9':
  4750                           
  4751                           ;2_3DIM.c: 212: TMR1H=0x87; TMR1L=0xB0; T1CONbits.TMR1ON = 1; break;
  4752                           
  4753                           
  4754                           ;2_3DIM.c: 214: TMR1H=0x85; TMR1L=0x58; T1CONbits.TMR1ON = 1; break;
  4755  00CE  3085               	movlw	133
  4756  00CF  0097               	movwf	23	;volatile
  4757  00D0  3058               	movlw	88
  4758  00D1  2A71               	goto	L4
  4759  00D2                     i1l5412:	
  4760                           ;2_3DIM.c: 217: }
  4761                           
  4762                           ;2_3DIM.c: 216: break;
  4763                           
  4764                           ;2_3DIM.c: 215: default:
  4765                           
  4766                           
  4767                           ; Switch on 2 bytes has been partitioned into a top level switch of size 1, and 1 sub-sw
      +                          itches
  4768                           ; Switch size 1, requested type "space"
  4769                           ; Number of cases is 1, Range of values is 0 to 0
  4770                           ; switch strategies available:
  4771                           ; Name         Instructions Cycles
  4772                           ; simple_byte            4     3 (average)
  4773                           ; direct_byte            8     6 (fixed)
  4774                           ; jumptable            260     6 (fixed)
  4775                           ;	Chosen strategy is simple_byte
  4776  00D2  0020               	movlb	0	; select bank0
  4777  00D3  0856               	movf	_FAN_SPEED1_1s+1,w
  4778  00D4  3A00               	xorlw	0	; case 0
  4779  00D5  1903               	skipnz
  4780  00D6  28D8               	goto	i1l10658
  4781  00D7  2A9B               	goto	i1l276
  4782  00D8                     i1l10658:	
  4783                           
  4784                           ; Switch size 1, requested type "space"
  4785                           ; Number of cases is 10, Range of values is 48 to 57
  4786                           ; switch strategies available:
  4787                           ; Name         Instructions Cycles
  4788                           ; direct_byte           29     9 (fixed)
  4789                           ; simple_byte           31    16 (average)
  4790                           ; jumptable            263     9 (fixed)
  4791                           ;	Chosen strategy is direct_byte
  4792  00D8  0855               	movf	_FAN_SPEED1_1s,w
  4793  00D9  3ED0               	addlw	-48
  4794  00DA  1C03               	skipc
  4795  00DB  2A9B               	goto	i1l276
  4796  00DC  0084               	movwf	4
  4797  00DD  300A               	movlw	10
  4798  00DE  0204               	subwf	4,w
  4799  00DF  1803               	skipnc
  4800  00E0  2A9B               	goto	i1l276
  4801  00E1  3187               	movlp	high i1S10660
  4802  00E2  3504               	lslf	4,w
  4803  00E3  3EEC               	addlw	low i1S10660
  4804  00E4  0082               	movwf	2
  4805                           
  4806                           ;2_3DIM.c: 218: break;
  4807  00E5  2A9B               	goto	i1l276
  4808  00E6                     i1l5414:	
  4809                           ;2_3DIM.c: 222: {
  4810                           ;2_3DIM.c: 223: case '0':
  4811                           
  4812                           ;2_3DIM.c: 221: switch(FAN_SPEED1_1s)
  4813                           
  4814                           ;2_3DIM.c: 219: case '1':
  4815                           
  4816                           
  4817                           ;2_3DIM.c: 224: TMR1H=0x86; TMR1L=0x20; T1CONbits.TMR1ON = 1; break;
  4818  00E6  3086               	movlw	134
  4819  00E7  2A27               	goto	L41
  4820  00E8                     i1l5418:	
  4821                           ;2_3DIM.c: 225: case '1':
  4822                           
  4823                           
  4824                           ;2_3DIM.c: 226: TMR1H=0x86; TMR1L=0xE8; T1CONbits.TMR1ON = 1; break;
  4825  00E8  3086               	movlw	134
  4826  00E9  0097               	movwf	23	;volatile
  4827  00EA  30E8               	movlw	232
  4828  00EB  2A71               	goto	L4
  4829  00EC                     i1l5422:	
  4830                           ;2_3DIM.c: 227: case '2':
  4831                           
  4832                           
  4833                           ;2_3DIM.c: 228: TMR1H=0x87; TMR1L=0xB0; T1CONbits.TMR1ON = 1; break;
  4834  00EC  3087               	movlw	135
  4835  00ED  2A2B               	goto	L42
  4836  00EE                     i1l5426:	
  4837                           ;2_3DIM.c: 229: case '3':
  4838                           
  4839                           
  4840                           ;2_3DIM.c: 230: TMR1H=0x88; TMR1L=0x78; T1CONbits.TMR1ON = 1; break;
  4841  00EE  3088               	movlw	136
  4842  00EF  2A2F               	goto	L149
  4843  00F0                     i1l5430:	
  4844                           ;2_3DIM.c: 231: case '4':
  4845                           
  4846                           
  4847                           ;2_3DIM.c: 232: TMR1H=0x89; TMR1L=0x40; T1CONbits.TMR1ON = 1; break;
  4848  00F0  3089               	movlw	137
  4849  00F1  2A33               	goto	L43
  4850  00F2                     i1l5434:	
  4851                           ;2_3DIM.c: 233: case '5':
  4852                           
  4853                           
  4854                           ;2_3DIM.c: 234: TMR1H=0x8A; TMR1L=0x08; T1CONbits.TMR1ON = 1; break;
  4855  00F2  308A               	movlw	138
  4856  00F3  0097               	movwf	23	;volatile
  4857  00F4  3008               	movlw	8
  4858  00F5  2A71               	goto	L4
  4859  00F6                     i1l5438:	
  4860                           ;2_3DIM.c: 235: case '6':
  4861                           
  4862                           
  4863                           ;2_3DIM.c: 236: TMR1H=0x8A; TMR1L=0xD0; T1CONbits.TMR1ON = 1; break;
  4864  00F6  308A               	movlw	138
  4865  00F7  2A4B               	goto	L44
  4866  00F8                     i1l5442:	
  4867                           ;2_3DIM.c: 237: case '7':
  4868                           
  4869                           
  4870                           ;2_3DIM.c: 238: TMR1H=0x8B; TMR1L=0x98; T1CONbits.TMR1ON = 1; break;
  4871  00F8  308B               	movlw	139
  4872  00F9  0097               	movwf	23	;volatile
  4873  00FA  3098               	movlw	152
  4874  00FB  2A71               	goto	L4
  4875  00FC                     i1l5446:	
  4876                           ;2_3DIM.c: 239: case '8':
  4877                           
  4878                           
  4879                           ;2_3DIM.c: 240: TMR1H=0x8C; TMR1L=0x60; T1CONbits.TMR1ON = 1; break;
  4880  00FC  308C               	movlw	140
  4881  00FD  2A4F               	goto	L45
  4882  00FE                     i1l5450:	
  4883                           ;2_3DIM.c: 241: case '9':
  4884                           
  4885                           
  4886                           ;2_3DIM.c: 242: TMR1H=0x8D; TMR1L=0x28; T1CONbits.TMR1ON = 1; break;
  4887  00FE  308D               	movlw	141
  4888  00FF  0097               	movwf	23	;volatile
  4889  0100  3028               	movlw	40
  4890  0101  2A71               	goto	L4
  4891  0102                     i1l5456:	
  4892                           ;2_3DIM.c: 245: }
  4893                           
  4894                           ;2_3DIM.c: 244: break;
  4895                           
  4896                           ;2_3DIM.c: 243: default:
  4897                           
  4898                           
  4899                           ; Switch on 2 bytes has been partitioned into a top level switch of size 1, and 1 sub-sw
      +                          itches
  4900                           ; Switch size 1, requested type "space"
  4901                           ; Number of cases is 1, Range of values is 0 to 0
  4902                           ; switch strategies available:
  4903                           ; Name         Instructions Cycles
  4904                           ; simple_byte            4     3 (average)
  4905                           ; direct_byte            8     6 (fixed)
  4906                           ; jumptable            260     6 (fixed)
  4907                           ;	Chosen strategy is simple_byte
  4908  0102  0020               	movlb	0	; select bank0
  4909  0103  0856               	movf	_FAN_SPEED1_1s+1,w
  4910  0104  3A00               	xorlw	0	; case 0
  4911  0105  1903               	skipnz
  4912  0106  2908               	goto	i1l10662
  4913  0107  2A9B               	goto	i1l276
  4914  0108                     i1l10662:	
  4915                           
  4916                           ; Switch size 1, requested type "space"
  4917                           ; Number of cases is 10, Range of values is 48 to 57
  4918                           ; switch strategies available:
  4919                           ; Name         Instructions Cycles
  4920                           ; direct_byte           29     9 (fixed)
  4921                           ; simple_byte           31    16 (average)
  4922                           ; jumptable            263     9 (fixed)
  4923                           ;	Chosen strategy is direct_byte
  4924  0108  0855               	movf	_FAN_SPEED1_1s,w
  4925  0109  3ED0               	addlw	-48
  4926  010A  1C03               	skipc
  4927  010B  2A9B               	goto	i1l276
  4928  010C  0084               	movwf	4
  4929  010D  300A               	movlw	10
  4930  010E  0204               	subwf	4,w
  4931  010F  1803               	skipnc
  4932  0110  2A9B               	goto	i1l276
  4933  0111  3188               	movlp	high i1S10664
  4934  0112  3504               	lslf	4,w
  4935  0113  3E00               	addlw	low i1S10664
  4936  0114  0082               	movwf	2
  4937                           
  4938                           ;2_3DIM.c: 246: break;
  4939  0115  2A9B               	goto	i1l276
  4940  0116                     i1l5458:	
  4941                           ;2_3DIM.c: 250: {
  4942                           ;2_3DIM.c: 251: case '0':
  4943                           
  4944                           ;2_3DIM.c: 249: switch(FAN_SPEED1_1s)
  4945                           
  4946                           ;2_3DIM.c: 247: case '2':
  4947                           
  4948                           
  4949                           ;2_3DIM.c: 252: TMR1H=0x8D; TMR1L=0xF0; T1CONbits.TMR1ON = 1; break;
  4950  0116  308D               	movlw	141
  4951  0117  2A53               	goto	L46
  4952  0118                     i1l5462:	
  4953                           ;2_3DIM.c: 253: case '1':
  4954                           
  4955                           
  4956                           ;2_3DIM.c: 254: TMR1H=0x8E; TMR1L=0xB8; T1CONbits.TMR1ON = 1; break;
  4957  0118  308E               	movlw	142
  4958  0119  0097               	movwf	23	;volatile
  4959  011A  30B8               	movlw	184
  4960  011B  2A71               	goto	L4
  4961  011C                     i1l5466:	
  4962                           ;2_3DIM.c: 255: case '2':
  4963                           
  4964                           
  4965                           ;2_3DIM.c: 256: TMR1H=0x8F; TMR1L=0x80; T1CONbits.TMR1ON = 1; break;
  4966  011C  308F               	movlw	143
  4967  011D  2A57               	goto	L47
  4968  011E                     i1l5470:	
  4969                           ;2_3DIM.c: 257: case '3':
  4970                           
  4971                           
  4972                           ;2_3DIM.c: 258: TMR1H=0x90; TMR1L=0x48; T1CONbits.TMR1ON = 1; break;
  4973  011E  3090               	movlw	144
  4974  011F  0097               	movwf	23	;volatile
  4975  0120  3048               	movlw	72
  4976  0121  2A71               	goto	L4
  4977  0122                     i1l5474:	
  4978                           ;2_3DIM.c: 259: case '4':
  4979                           
  4980                           
  4981                           ;2_3DIM.c: 260: TMR1H=0x91; TMR1L=0x10; T1CONbits.TMR1ON = 1; break;
  4982  0122  3091               	movlw	145
  4983  0123  2A5B               	goto	L48
  4984  0124                     i1l5478:	
  4985                           ;2_3DIM.c: 261: case '5':
  4986                           
  4987                           
  4988                           ;2_3DIM.c: 262: TMR1H=0x91; TMR1L=0xD8; T1CONbits.TMR1ON = 1; break;
  4989  0124  3091               	movlw	145
  4990  0125  0097               	movwf	23	;volatile
  4991  0126  30D8               	movlw	216
  4992  0127  2A71               	goto	L4
  4993  0128                     i1l5482:	
  4994                           ;2_3DIM.c: 263: case '6':
  4995                           
  4996                           
  4997                           ;2_3DIM.c: 264: TMR1H=0x92; TMR1L=0xA0; T1CONbits.TMR1ON = 1; break;
  4998  0128  3092               	movlw	146
  4999  0129  2A5F               	goto	L49
  5000  012A                     i1l5486:	
  5001                           ;2_3DIM.c: 265: case '7':
  5002                           
  5003                           
  5004                           ;2_3DIM.c: 266: TMR1H=0x93; TMR1L=0x68; T1CONbits.TMR1ON = 1; break;
  5005  012A  3093               	movlw	147
  5006  012B  0097               	movwf	23	;volatile
  5007  012C  3068               	movlw	104
  5008  012D  2A71               	goto	L4
  5009  012E                     i1l5490:	
  5010                           ;2_3DIM.c: 267: case '8':
  5011                           
  5012                           
  5013                           ;2_3DIM.c: 268: TMR1H=0x94; TMR1L=0x30; T1CONbits.TMR1ON = 1; break;
  5014  012E  3094               	movlw	148
  5015  012F  2A63               	goto	L50
  5016  0130                     i1l5494:	
  5017                           ;2_3DIM.c: 269: case '9':
  5018                           
  5019                           
  5020                           ;2_3DIM.c: 270: TMR1H=0x94; TMR1L=0xF8; T1CONbits.TMR1ON = 1; break;
  5021  0130  3094               	movlw	148
  5022  0131  0097               	movwf	23	;volatile
  5023  0132  30F8               	movlw	248
  5024  0133  2A71               	goto	L4
  5025  0134                     i1l5500:	
  5026                           ;2_3DIM.c: 273: }
  5027                           
  5028                           ;2_3DIM.c: 272: break;
  5029                           
  5030                           ;2_3DIM.c: 271: default:
  5031                           
  5032                           
  5033                           ; Switch on 2 bytes has been partitioned into a top level switch of size 1, and 1 sub-sw
      +                          itches
  5034                           ; Switch size 1, requested type "space"
  5035                           ; Number of cases is 1, Range of values is 0 to 0
  5036                           ; switch strategies available:
  5037                           ; Name         Instructions Cycles
  5038                           ; simple_byte            4     3 (average)
  5039                           ; direct_byte            8     6 (fixed)
  5040                           ; jumptable            260     6 (fixed)
  5041                           ;	Chosen strategy is simple_byte
  5042  0134  0020               	movlb	0	; select bank0
  5043  0135  0856               	movf	_FAN_SPEED1_1s+1,w
  5044  0136  3A00               	xorlw	0	; case 0
  5045  0137  1903               	skipnz
  5046  0138  293A               	goto	i1l10666
  5047  0139  2A9B               	goto	i1l276
  5048  013A                     i1l10666:	
  5049                           
  5050                           ; Switch size 1, requested type "space"
  5051                           ; Number of cases is 10, Range of values is 48 to 57
  5052                           ; switch strategies available:
  5053                           ; Name         Instructions Cycles
  5054                           ; direct_byte           29     9 (fixed)
  5055                           ; simple_byte           31    16 (average)
  5056                           ; jumptable            263     9 (fixed)
  5057                           ;	Chosen strategy is direct_byte
  5058  013A  0855               	movf	_FAN_SPEED1_1s,w
  5059  013B  3ED0               	addlw	-48
  5060  013C  1C03               	skipc
  5061  013D  2A9B               	goto	i1l276
  5062  013E  0084               	movwf	4
  5063  013F  300A               	movlw	10
  5064  0140  0204               	subwf	4,w
  5065  0141  1803               	skipnc
  5066  0142  2A9B               	goto	i1l276
  5067  0143  3188               	movlp	high i1S10668
  5068  0144  3504               	lslf	4,w
  5069  0145  3E14               	addlw	low i1S10668
  5070  0146  0082               	movwf	2
  5071                           
  5072                           ;2_3DIM.c: 274: break;
  5073  0147  2A9B               	goto	i1l276
  5074  0148                     i1l5502:	
  5075                           ;2_3DIM.c: 278: {
  5076                           ;2_3DIM.c: 279: case '0':
  5077                           
  5078                           ;2_3DIM.c: 277: switch(FAN_SPEED1_1s)
  5079                           
  5080                           ;2_3DIM.c: 275: case '3':
  5081                           
  5082                           
  5083                           ;2_3DIM.c: 280: TMR1H=0x95; TMR1L=0xC0; T1CONbits.TMR1ON = 1; break;
  5084  0148  3095               	movlw	149
  5085  0149  2A67               	goto	L51
  5086  014A                     i1l5506:	
  5087                           ;2_3DIM.c: 281: case '1':
  5088                           
  5089                           
  5090                           ;2_3DIM.c: 282: TMR1H=0x97; TMR1L=0x50; T1CONbits.TMR1ON = 1; break;
  5091  014A  3097               	movlw	151
  5092  014B  2A6B               	goto	L52
  5093  014C                     i1l5510:	
  5094                           ;2_3DIM.c: 283: case '2':
  5095                           
  5096                           
  5097                           ;2_3DIM.c: 284: TMR1H=0x98; TMR1L=0xE0; T1CONbits.TMR1ON = 1; break;
  5098  014C  3098               	movlw	152
  5099  014D  2A6F               	goto	L22
  5100  014E                     i1l5514:	
  5101                           ;2_3DIM.c: 285: case '3':
  5102                           
  5103                           
  5104                           ;2_3DIM.c: 286: TMR1H=0x9A; TMR1L=0x70; T1CONbits.TMR1ON = 1; break;
  5105  014E  309A               	movlw	154
  5106  014F  2A17               	goto	L38
  5107  0150                     i1l5518:	
  5108                           ;2_3DIM.c: 287: case '4':
  5109                           
  5110                           
  5111                           ;2_3DIM.c: 288: TMR1H=0x9C; TMR1L=0x00; T1CONbits.TMR1ON = 1; break;
  5112  0150  309C               	movlw	156
  5113  0151  2A1F               	goto	L39
  5114  0152                     i1l5524:	
  5115                           ;2_3DIM.c: 289: case '5':
  5116                           
  5117                           
  5118                           ;2_3DIM.c: 290: TMR1H=0x9D; TMR1L=0x90; T1CONbits.TMR1ON = 1; break;
  5119  0152  309D               	movlw	157
  5120  0153  2A23               	goto	L40
  5121  0154                     i1l5528:	
  5122                           ;2_3DIM.c: 291: case '6':
  5123                           
  5124                           
  5125                           ;2_3DIM.c: 292: TMR1H=0x9F; TMR1L=0x20; T1CONbits.TMR1ON = 1; break;
  5126  0154  309F               	movlw	159
  5127  0155  2A27               	goto	L41
  5128  0156                     i1l5532:	
  5129                           ;2_3DIM.c: 293: case '7':
  5130                           
  5131                           
  5132                           ;2_3DIM.c: 294: TMR1H=0xA0; TMR1L=0xB0; T1CONbits.TMR1ON = 1; break;
  5133  0156  30A0               	movlw	160
  5134  0157  2A2B               	goto	L42
  5135  0158                     i1l5536:	
  5136                           ;2_3DIM.c: 295: case '8':
  5137                           
  5138                           
  5139                           ;2_3DIM.c: 296: TMR1H=0xA2; TMR1L=0x40; T1CONbits.TMR1ON = 1; break;
  5140  0158  30A2               	movlw	162
  5141  0159  2A33               	goto	L43
  5142  015A                     i1l5540:	
  5143                           ;2_3DIM.c: 297: case '9':
  5144                           
  5145                           
  5146                           ;2_3DIM.c: 298: TMR1H=0xA3; TMR1L=0xD0; T1CONbits.TMR1ON = 1; break;
  5147  015A  30A3               	movlw	163
  5148  015B  2A4B               	goto	L44
  5149  015C                     i1l5546:	
  5150                           ;2_3DIM.c: 301: }
  5151                           
  5152                           ;2_3DIM.c: 300: break;
  5153                           
  5154                           ;2_3DIM.c: 299: default:
  5155                           
  5156                           
  5157                           ; Switch on 2 bytes has been partitioned into a top level switch of size 1, and 1 sub-sw
      +                          itches
  5158                           ; Switch size 1, requested type "space"
  5159                           ; Number of cases is 1, Range of values is 0 to 0
  5160                           ; switch strategies available:
  5161                           ; Name         Instructions Cycles
  5162                           ; simple_byte            4     3 (average)
  5163                           ; direct_byte            8     6 (fixed)
  5164                           ; jumptable            260     6 (fixed)
  5165                           ;	Chosen strategy is simple_byte
  5166  015C  0020               	movlb	0	; select bank0
  5167  015D  0856               	movf	_FAN_SPEED1_1s+1,w
  5168  015E  3A00               	xorlw	0	; case 0
  5169  015F  1903               	skipnz
  5170  0160  2962               	goto	i1l10670
  5171  0161  2A9B               	goto	i1l276
  5172  0162                     i1l10670:	
  5173                           
  5174                           ; Switch size 1, requested type "space"
  5175                           ; Number of cases is 10, Range of values is 48 to 57
  5176                           ; switch strategies available:
  5177                           ; Name         Instructions Cycles
  5178                           ; direct_byte           29     9 (fixed)
  5179                           ; simple_byte           31    16 (average)
  5180                           ; jumptable            263     9 (fixed)
  5181                           ;	Chosen strategy is direct_byte
  5182  0162  0855               	movf	_FAN_SPEED1_1s,w
  5183  0163  3ED0               	addlw	-48
  5184  0164  1C03               	skipc
  5185  0165  2A9B               	goto	i1l276
  5186  0166  0084               	movwf	4
  5187  0167  300A               	movlw	10
  5188  0168  0204               	subwf	4,w
  5189  0169  1803               	skipnc
  5190  016A  2A9B               	goto	i1l276
  5191  016B  3188               	movlp	high i1S10672
  5192  016C  3504               	lslf	4,w
  5193  016D  3E28               	addlw	low i1S10672
  5194  016E  0082               	movwf	2
  5195                           
  5196                           ;2_3DIM.c: 302: break;
  5197  016F  2A9B               	goto	i1l276
  5198  0170                     i1l5548:	
  5199                           ;2_3DIM.c: 306: {
  5200                           ;2_3DIM.c: 307: case '0':
  5201                           
  5202                           ;2_3DIM.c: 305: switch(FAN_SPEED1_1s)
  5203                           
  5204                           ;2_3DIM.c: 303: case '4':
  5205                           
  5206                           
  5207                           ;2_3DIM.c: 308: TMR1H=0xA5; TMR1L=0x60; T1CONbits.TMR1ON = 1; break;
  5208  0170  30A5               	movlw	165
  5209  0171  2A4F               	goto	L45
  5210  0172                     i1l5552:	
  5211                           ;2_3DIM.c: 309: case '1':
  5212                           
  5213                           
  5214                           ;2_3DIM.c: 310: TMR1H=0xA6; TMR1L=0xF0; T1CONbits.TMR1ON = 1; break;
  5215  0172  30A6               	movlw	166
  5216  0173  2A53               	goto	L46
  5217  0174                     i1l5556:	
  5218                           ;2_3DIM.c: 311: case '2':
  5219                           
  5220                           
  5221                           ;2_3DIM.c: 312: TMR1H=0xA8; TMR1L=0x80; T1CONbits.TMR1ON = 1; break;
  5222  0174  30A8               	movlw	168
  5223  0175  2A57               	goto	L47
  5224  0176                     i1l5560:	
  5225                           ;2_3DIM.c: 313: case '3':
  5226                           
  5227                           
  5228                           ;2_3DIM.c: 314: TMR1H=0xAA; TMR1L=0x10; T1CONbits.TMR1ON = 1; break;
  5229  0176  30AA               	movlw	170
  5230  0177  2A5B               	goto	L48
  5231  0178                     i1l5564:	
  5232                           ;2_3DIM.c: 315: case '4':
  5233                           
  5234                           
  5235                           ;2_3DIM.c: 316: TMR1H=0xAB; TMR1L=0xA0; T1CONbits.TMR1ON = 1; break;
  5236  0178  30AB               	movlw	171
  5237  0179  2A5F               	goto	L49
  5238  017A                     i1l5568:	
  5239                           ;2_3DIM.c: 317: case '5':
  5240                           
  5241                           
  5242                           ;2_3DIM.c: 318: TMR1H=0xAD; TMR1L=0x30; T1CONbits.TMR1ON = 1; break;
  5243  017A  30AD               	movlw	173
  5244  017B  2A63               	goto	L50
  5245  017C                     i1l5572:	
  5246                           ;2_3DIM.c: 319: case '6':
  5247                           
  5248                           
  5249                           ;2_3DIM.c: 320: TMR1H=0xAE; TMR1L=0xC0; T1CONbits.TMR1ON = 1; break;
  5250  017C  30AE               	movlw	174
  5251  017D  2A67               	goto	L51
  5252  017E                     i1l5576:	
  5253                           ;2_3DIM.c: 321: case '7':
  5254                           
  5255                           
  5256                           ;2_3DIM.c: 322: TMR1H=0xB0; TMR1L=0x50; T1CONbits.TMR1ON = 1; break;
  5257  017E  30B0               	movlw	176
  5258  017F  2A6B               	goto	L52
  5259  0180                     i1l5580:	
  5260                           ;2_3DIM.c: 323: case '8':
  5261                           
  5262                           
  5263                           ;2_3DIM.c: 324: TMR1H=0xB1; TMR1L=0xE0; T1CONbits.TMR1ON = 1; break;
  5264  0180  30B1               	movlw	177
  5265  0181  2A6F               	goto	L22
  5266  0182                     i1l5584:	
  5267                           ;2_3DIM.c: 325: case '9':
  5268                           
  5269                           
  5270                           ;2_3DIM.c: 326: TMR1H=0xB3; TMR1L=0x70; T1CONbits.TMR1ON = 1; break;
  5271  0182  30B3               	movlw	179
  5272  0183  2A17               	goto	L38
  5273  0184                     i1l5590:	
  5274                           ;2_3DIM.c: 329: }
  5275                           
  5276                           ;2_3DIM.c: 328: break;
  5277                           
  5278                           ;2_3DIM.c: 327: default:
  5279                           
  5280                           
  5281                           ; Switch on 2 bytes has been partitioned into a top level switch of size 1, and 1 sub-sw
      +                          itches
  5282                           ; Switch size 1, requested type "space"
  5283                           ; Number of cases is 1, Range of values is 0 to 0
  5284                           ; switch strategies available:
  5285                           ; Name         Instructions Cycles
  5286                           ; simple_byte            4     3 (average)
  5287                           ; direct_byte            8     6 (fixed)
  5288                           ; jumptable            260     6 (fixed)
  5289                           ;	Chosen strategy is simple_byte
  5290  0184  0020               	movlb	0	; select bank0
  5291  0185  0856               	movf	_FAN_SPEED1_1s+1,w
  5292  0186  3A00               	xorlw	0	; case 0
  5293  0187  1903               	skipnz
  5294  0188  298A               	goto	i1l10674
  5295  0189  2A9B               	goto	i1l276
  5296  018A                     i1l10674:	
  5297                           
  5298                           ; Switch size 1, requested type "space"
  5299                           ; Number of cases is 10, Range of values is 48 to 57
  5300                           ; switch strategies available:
  5301                           ; Name         Instructions Cycles
  5302                           ; direct_byte           29     9 (fixed)
  5303                           ; simple_byte           31    16 (average)
  5304                           ; jumptable            263     9 (fixed)
  5305                           ;	Chosen strategy is direct_byte
  5306  018A  0855               	movf	_FAN_SPEED1_1s,w
  5307  018B  3ED0               	addlw	-48
  5308  018C  1C03               	skipc
  5309  018D  2A9B               	goto	i1l276
  5310  018E  0084               	movwf	4
  5311  018F  300A               	movlw	10
  5312  0190  0204               	subwf	4,w
  5313  0191  1803               	skipnc
  5314  0192  2A9B               	goto	i1l276
  5315  0193  3188               	movlp	high i1S10676
  5316  0194  3504               	lslf	4,w
  5317  0195  3E3C               	addlw	low i1S10676
  5318  0196  0082               	movwf	2
  5319                           
  5320                           ;2_3DIM.c: 330: break;
  5321  0197  2A9B               	goto	i1l276
  5322  0198                     i1l5592:	
  5323                           ;2_3DIM.c: 334: {
  5324                           ;2_3DIM.c: 335: case '0':
  5325                           
  5326                           ;2_3DIM.c: 333: switch(FAN_SPEED1_1s)
  5327                           
  5328                           ;2_3DIM.c: 331: case '5':
  5329                           
  5330                           
  5331                           ;2_3DIM.c: 336: TMR1H=0xB5; TMR1L=0x00; T1CONbits.TMR1ON = 1; break;
  5332  0198  30B5               	movlw	181
  5333  0199  2A1F               	goto	L39
  5334  019A                     i1l5598:	
  5335                           ;2_3DIM.c: 337: case '1':
  5336                           
  5337                           
  5338                           ;2_3DIM.c: 338: TMR1H=0xB6; TMR1L=0x90; T1CONbits.TMR1ON = 1; break;
  5339  019A  30B6               	movlw	182
  5340  019B  2A23               	goto	L40
  5341  019C                     i1l5602:	
  5342                           ;2_3DIM.c: 339: case '2':
  5343                           
  5344                           
  5345                           ;2_3DIM.c: 340: TMR1H=0xB8; TMR1L=0x20; T1CONbits.TMR1ON = 1; break;
  5346  019C  30B8               	movlw	184
  5347  019D  2A27               	goto	L41
  5348  019E                     i1l5606:	
  5349                           ;2_3DIM.c: 341: case '3':
  5350                           
  5351                           
  5352                           ;2_3DIM.c: 342: TMR1H=0xB9; TMR1L=0xB0; T1CONbits.TMR1ON = 1; break;
  5353  019E  30B9               	movlw	185
  5354  019F  2A2B               	goto	L42
  5355  01A0                     i1l5610:	
  5356                           ;2_3DIM.c: 343: case '4':
  5357                           
  5358                           
  5359                           ;2_3DIM.c: 344: TMR1H=0xBB; TMR1L=0x40; T1CONbits.TMR1ON = 1; break;
  5360  01A0  30BB               	movlw	187
  5361  01A1  2A33               	goto	L43
  5362  01A2                     i1l5614:	
  5363                           ;2_3DIM.c: 345: case '5':
  5364                           
  5365                           
  5366                           ;2_3DIM.c: 346: TMR1H=0xBC; TMR1L=0xD0; T1CONbits.TMR1ON = 1; break;
  5367  01A2  30BC               	movlw	188
  5368  01A3  2A4B               	goto	L44
  5369  01A4                     i1l5618:	
  5370                           ;2_3DIM.c: 347: case '6':
  5371                           
  5372                           
  5373                           ;2_3DIM.c: 348: TMR1H=0xBE; TMR1L=0x60; T1CONbits.TMR1ON = 1; break;
  5374  01A4  30BE               	movlw	190
  5375  01A5  2A4F               	goto	L45
  5376  01A6                     i1l5622:	
  5377                           ;2_3DIM.c: 349: case '7':
  5378                           
  5379                           
  5380                           ;2_3DIM.c: 350: TMR1H=0xBF; TMR1L=0xF0; T1CONbits.TMR1ON = 1; break;
  5381  01A6  30BF               	movlw	191
  5382  01A7  2A53               	goto	L46
  5383  01A8                     i1l5626:	
  5384                           ;2_3DIM.c: 351: case '8':
  5385                           
  5386                           
  5387                           ;2_3DIM.c: 352: TMR1H=0xC1; TMR1L=0x80; T1CONbits.TMR1ON = 1; break;
  5388  01A8  30C1               	movlw	193
  5389  01A9  2A57               	goto	L47
  5390  01AA                     i1l5630:	
  5391                           ;2_3DIM.c: 353: case '9':
  5392                           
  5393                           
  5394                           ;2_3DIM.c: 354: TMR1H=0xC3; TMR1L=0x10; T1CONbits.TMR1ON = 1; break;
  5395  01AA  30C3               	movlw	195
  5396  01AB  2A5B               	goto	L48
  5397  01AC                     i1l5636:	
  5398                           ;2_3DIM.c: 357: }
  5399                           
  5400                           ;2_3DIM.c: 356: break;
  5401                           
  5402                           ;2_3DIM.c: 355: default:
  5403                           
  5404                           
  5405                           ; Switch on 2 bytes has been partitioned into a top level switch of size 1, and 1 sub-sw
      +                          itches
  5406                           ; Switch size 1, requested type "space"
  5407                           ; Number of cases is 1, Range of values is 0 to 0
  5408                           ; switch strategies available:
  5409                           ; Name         Instructions Cycles
  5410                           ; simple_byte            4     3 (average)
  5411                           ; direct_byte            8     6 (fixed)
  5412                           ; jumptable            260     6 (fixed)
  5413                           ;	Chosen strategy is simple_byte
  5414  01AC  0020               	movlb	0	; select bank0
  5415  01AD  0856               	movf	_FAN_SPEED1_1s+1,w
  5416  01AE  3A00               	xorlw	0	; case 0
  5417  01AF  1903               	skipnz
  5418  01B0  29B2               	goto	i1l10678
  5419  01B1  2A9B               	goto	i1l276
  5420  01B2                     i1l10678:	
  5421                           
  5422                           ; Switch size 1, requested type "space"
  5423                           ; Number of cases is 10, Range of values is 48 to 57
  5424                           ; switch strategies available:
  5425                           ; Name         Instructions Cycles
  5426                           ; direct_byte           29     9 (fixed)
  5427                           ; simple_byte           31    16 (average)
  5428                           ; jumptable            263     9 (fixed)
  5429                           ;	Chosen strategy is direct_byte
  5430  01B2  0855               	movf	_FAN_SPEED1_1s,w
  5431  01B3  3ED0               	addlw	-48
  5432  01B4  1C03               	skipc
  5433  01B5  2A9B               	goto	i1l276
  5434  01B6  0084               	movwf	4
  5435  01B7  300A               	movlw	10
  5436  01B8  0204               	subwf	4,w
  5437  01B9  1803               	skipnc
  5438  01BA  2A9B               	goto	i1l276
  5439  01BB  3188               	movlp	high i1S10680
  5440  01BC  3504               	lslf	4,w
  5441  01BD  3E50               	addlw	low i1S10680
  5442  01BE  0082               	movwf	2
  5443                           
  5444                           ;2_3DIM.c: 358: break;
  5445  01BF  2A9B               	goto	i1l276
  5446  01C0                     i1l5638:	
  5447                           ;2_3DIM.c: 362: {
  5448                           ;2_3DIM.c: 363: case '0':
  5449                           
  5450                           ;2_3DIM.c: 361: switch(FAN_SPEED1_1s)
  5451                           
  5452                           ;2_3DIM.c: 359: case '6':
  5453                           
  5454                           
  5455                           ;2_3DIM.c: 364: TMR1H=0xC4; TMR1L=0xA0; T1CONbits.TMR1ON = 1; break;
  5456  01C0  30C4               	movlw	196
  5457  01C1  2A5F               	goto	L49
  5458  01C2                     i1l5642:	
  5459                           ;2_3DIM.c: 365: case '1':
  5460                           
  5461                           
  5462                           ;2_3DIM.c: 366: TMR1H=0xC6; TMR1L=0x30; T1CONbits.TMR1ON = 1; break;
  5463  01C2  30C6               	movlw	198
  5464  01C3  2A63               	goto	L50
  5465  01C4                     i1l5646:	
  5466                           ;2_3DIM.c: 367: case '2':
  5467                           
  5468                           
  5469                           ;2_3DIM.c: 368: TMR1H=0xC7; TMR1L=0xC0; T1CONbits.TMR1ON = 1; break;
  5470  01C4  30C7               	movlw	199
  5471  01C5  2A67               	goto	L51
  5472  01C6                     i1l5650:	
  5473                           ;2_3DIM.c: 369: case '3':
  5474                           
  5475                           
  5476                           ;2_3DIM.c: 370: TMR1H=0xC9; TMR1L=0x50; T1CONbits.TMR1ON = 1; break;
  5477  01C6  30C9               	movlw	201
  5478  01C7  2A6B               	goto	L52
  5479  01C8                     i1l5654:	
  5480                           ;2_3DIM.c: 371: case '4':
  5481                           
  5482                           
  5483                           ;2_3DIM.c: 372: TMR1H=0xCA; TMR1L=0xE0; T1CONbits.TMR1ON = 1; break;
  5484  01C8  30CA               	movlw	202
  5485  01C9  2A6F               	goto	L22
  5486  01CA                     i1l5658:	
  5487                           ;2_3DIM.c: 373: case '5':
  5488                           
  5489                           
  5490                           ;2_3DIM.c: 374: TMR1H=0xCC; TMR1L=0x70; T1CONbits.TMR1ON = 1; break;
  5491  01CA  30CC               	movlw	204
  5492  01CB  2A17               	goto	L38
  5493  01CC                     i1l5662:	
  5494                           ;2_3DIM.c: 375: case '6':
  5495                           
  5496                           
  5497                           ;2_3DIM.c: 376: TMR1H=0xCE; TMR1L=0x00; T1CONbits.TMR1ON = 1; break;
  5498  01CC  30CE               	movlw	206
  5499  01CD  2A1F               	goto	L39
  5500  01CE                     i1l5668:	
  5501                           ;2_3DIM.c: 377: case '7':
  5502                           
  5503                           
  5504                           ;2_3DIM.c: 378: TMR1H=0xCF; TMR1L=0x90; T1CONbits.TMR1ON = 1; break;
  5505  01CE  30CF               	movlw	207
  5506  01CF  2A23               	goto	L40
  5507  01D0                     i1l5672:	
  5508                           ;2_3DIM.c: 379: case '8':
  5509                           
  5510                           
  5511                           ;2_3DIM.c: 380: TMR1H=0xD1; TMR1L=0x20; T1CONbits.TMR1ON = 1; break;
  5512  01D0  30D1               	movlw	209
  5513  01D1  2A27               	goto	L41
  5514  01D2                     i1l5676:	
  5515                           ;2_3DIM.c: 381: case '9':
  5516                           
  5517                           
  5518                           ;2_3DIM.c: 382: TMR1H=0xD2; TMR1L=0xB0; T1CONbits.TMR1ON = 1; break;
  5519  01D2  30D2               	movlw	210
  5520  01D3  2A2B               	goto	L42
  5521  01D4                     i1l5682:	
  5522                           ;2_3DIM.c: 385: }
  5523                           
  5524                           ;2_3DIM.c: 384: break;
  5525                           
  5526                           ;2_3DIM.c: 383: default:
  5527                           
  5528                           
  5529                           ; Switch on 2 bytes has been partitioned into a top level switch of size 1, and 1 sub-sw
      +                          itches
  5530                           ; Switch size 1, requested type "space"
  5531                           ; Number of cases is 1, Range of values is 0 to 0
  5532                           ; switch strategies available:
  5533                           ; Name         Instructions Cycles
  5534                           ; simple_byte            4     3 (average)
  5535                           ; direct_byte            8     6 (fixed)
  5536                           ; jumptable            260     6 (fixed)
  5537                           ;	Chosen strategy is simple_byte
  5538  01D4  0020               	movlb	0	; select bank0
  5539  01D5  0856               	movf	_FAN_SPEED1_1s+1,w
  5540  01D6  3A00               	xorlw	0	; case 0
  5541  01D7  1903               	skipnz
  5542  01D8  29DA               	goto	i1l10682
  5543  01D9  2A9B               	goto	i1l276
  5544  01DA                     i1l10682:	
  5545                           
  5546                           ; Switch size 1, requested type "space"
  5547                           ; Number of cases is 10, Range of values is 48 to 57
  5548                           ; switch strategies available:
  5549                           ; Name         Instructions Cycles
  5550                           ; direct_byte           29     9 (fixed)
  5551                           ; simple_byte           31    16 (average)
  5552                           ; jumptable            263     9 (fixed)
  5553                           ;	Chosen strategy is direct_byte
  5554  01DA  0855               	movf	_FAN_SPEED1_1s,w
  5555  01DB  3ED0               	addlw	-48
  5556  01DC  1C03               	skipc
  5557  01DD  2A9B               	goto	i1l276
  5558  01DE  0084               	movwf	4
  5559  01DF  300A               	movlw	10
  5560  01E0  0204               	subwf	4,w
  5561  01E1  1803               	skipnc
  5562  01E2  2A9B               	goto	i1l276
  5563  01E3  3188               	movlp	high i1S10684
  5564  01E4  3504               	lslf	4,w
  5565  01E5  3E64               	addlw	low i1S10684
  5566  01E6  0082               	movwf	2
  5567                           
  5568                           ;2_3DIM.c: 386: break;
  5569  01E7  2A9B               	goto	i1l276
  5570  01E8                     i1l5684:	
  5571                           ;2_3DIM.c: 390: {
  5572                           ;2_3DIM.c: 391: case '0':
  5573                           
  5574                           ;2_3DIM.c: 389: switch(FAN_SPEED1_1s)
  5575                           
  5576                           ;2_3DIM.c: 387: case '7':
  5577                           
  5578                           
  5579                           ;2_3DIM.c: 392: TMR1H=0xD4; TMR1L=0x40; T1CONbits.TMR1ON = 1; break;
  5580  01E8  30D4               	movlw	212
  5581  01E9  2A33               	goto	L43
  5582  01EA                     i1l5688:	
  5583                           ;2_3DIM.c: 393: case '1':
  5584                           
  5585                           
  5586                           ;2_3DIM.c: 394: TMR1H=0xD5; TMR1L=0xD0; T1CONbits.TMR1ON = 1; break;
  5587  01EA  30D5               	movlw	213
  5588  01EB  2A4B               	goto	L44
  5589  01EC                     i1l5692:	
  5590                           ;2_3DIM.c: 395: case '2':
  5591                           
  5592                           
  5593                           ;2_3DIM.c: 396: TMR1H=0xD7; TMR1L=0x60; T1CONbits.TMR1ON = 1; break;
  5594  01EC  30D7               	movlw	215
  5595  01ED  2A4F               	goto	L45
  5596  01EE                     i1l5696:	
  5597                           ;2_3DIM.c: 397: case '3':
  5598                           
  5599                           
  5600                           ;2_3DIM.c: 398: TMR1H=0xD8; TMR1L=0xF0; T1CONbits.TMR1ON = 1; break;
  5601  01EE  30D8               	movlw	216
  5602  01EF  2A53               	goto	L46
  5603  01F0                     i1l5700:	
  5604                           ;2_3DIM.c: 399: case '4':
  5605                           
  5606                           
  5607                           ;2_3DIM.c: 400: TMR1H=0xDA; TMR1L=0x80; T1CONbits.TMR1ON = 1; break;
  5608  01F0  30DA               	movlw	218
  5609  01F1  2A57               	goto	L47
  5610  01F2                     i1l5704:	
  5611                           ;2_3DIM.c: 401: case '5':
  5612                           
  5613                           
  5614                           ;2_3DIM.c: 402: TMR1H=0xDC; TMR1L=0x10; T1CONbits.TMR1ON = 1; break;
  5615  01F2  30DC               	movlw	220
  5616  01F3  2A5B               	goto	L48
  5617  01F4                     i1l5708:	
  5618                           ;2_3DIM.c: 403: case '6':
  5619                           
  5620                           
  5621                           ;2_3DIM.c: 404: TMR1H=0xDD; TMR1L=0xA0; T1CONbits.TMR1ON = 1; break;
  5622  01F4  30DD               	movlw	221
  5623  01F5  2A5F               	goto	L49
  5624  01F6                     i1l5712:	
  5625                           ;2_3DIM.c: 405: case '7':
  5626                           
  5627                           
  5628                           ;2_3DIM.c: 406: TMR1H=0xDF; TMR1L=0x30; T1CONbits.TMR1ON = 1; break;
  5629  01F6  30DF               	movlw	223
  5630  01F7  2A63               	goto	L50
  5631  01F8                     i1l5716:	
  5632                           ;2_3DIM.c: 407: case '8':
  5633                           
  5634                           
  5635                           ;2_3DIM.c: 408: TMR1H=0xE0; TMR1L=0xC0; T1CONbits.TMR1ON = 1; break;
  5636  01F8  30E0               	movlw	224
  5637  01F9  2A67               	goto	L51
  5638  01FA                     i1l5720:	
  5639                           ;2_3DIM.c: 409: case '9':
  5640                           
  5641                           
  5642                           ;2_3DIM.c: 410: TMR1H=0xE2; TMR1L=0x50; T1CONbits.TMR1ON = 1; break;
  5643  01FA  30E2               	movlw	226
  5644  01FB  2A6B               	goto	L52
  5645  01FC                     i1l5726:	
  5646                           ;2_3DIM.c: 413: }
  5647                           
  5648                           ;2_3DIM.c: 412: break;
  5649                           
  5650                           ;2_3DIM.c: 411: default:
  5651                           
  5652                           
  5653                           ; Switch on 2 bytes has been partitioned into a top level switch of size 1, and 1 sub-sw
      +                          itches
  5654                           ; Switch size 1, requested type "space"
  5655                           ; Number of cases is 1, Range of values is 0 to 0
  5656                           ; switch strategies available:
  5657                           ; Name         Instructions Cycles
  5658                           ; simple_byte            4     3 (average)
  5659                           ; direct_byte            8     6 (fixed)
  5660                           ; jumptable            260     6 (fixed)
  5661                           ;	Chosen strategy is simple_byte
  5662  01FC  0020               	movlb	0	; select bank0
  5663  01FD  0856               	movf	_FAN_SPEED1_1s+1,w
  5664  01FE  3A00               	xorlw	0	; case 0
  5665  01FF  1903               	skipnz
  5666  0200  2A02               	goto	i1l10686
  5667  0201  2A9B               	goto	i1l276
  5668  0202                     i1l10686:	
  5669                           
  5670                           ; Switch size 1, requested type "space"
  5671                           ; Number of cases is 10, Range of values is 48 to 57
  5672                           ; switch strategies available:
  5673                           ; Name         Instructions Cycles
  5674                           ; direct_byte           29     9 (fixed)
  5675                           ; simple_byte           31    16 (average)
  5676                           ; jumptable            263     9 (fixed)
  5677                           ;	Chosen strategy is direct_byte
  5678  0202  0855               	movf	_FAN_SPEED1_1s,w
  5679  0203  3ED0               	addlw	-48
  5680  0204  1C03               	skipc
  5681  0205  2A9B               	goto	i1l276
  5682  0206  0084               	movwf	4
  5683  0207  300A               	movlw	10
  5684  0208  0204               	subwf	4,w
  5685  0209  1803               	skipnc
  5686  020A  2A9B               	goto	i1l276
  5687  020B  3188               	movlp	high i1S10688
  5688  020C  3504               	lslf	4,w
  5689  020D  3E78               	addlw	low i1S10688
  5690  020E  0082               	movwf	2
  5691                           
  5692                           ;2_3DIM.c: 414: break;
  5693  020F  2A9B               	goto	i1l276
  5694  0210                     i1l5728:	
  5695                           ;2_3DIM.c: 418: {
  5696                           ;2_3DIM.c: 419: case '0':
  5697                           
  5698                           ;2_3DIM.c: 417: switch(FAN_SPEED1_1s)
  5699                           
  5700                           ;2_3DIM.c: 415: case '8':
  5701                           
  5702                           
  5703                           ;2_3DIM.c: 420: TMR1H=0xE3; TMR1L=0xE0; T1CONbits.TMR1ON = 1; break;
  5704  0210  30E3               	movlw	227
  5705  0211  2A6F               	goto	L22
  5706  0212                     i1l5732:	
  5707                           ;2_3DIM.c: 421: case '1':
  5708                           
  5709                           
  5710                           ;2_3DIM.c: 422: TMR1H=0xE4; TMR1L=0xA8; T1CONbits.TMR1ON = 1; break;
  5711  0212  30E4               	movlw	228
  5712  0213                     L147:	
  5713  0213  0097               	movwf	23	;volatile
  5714  0214  30A8               	movlw	168
  5715  0215  2A71               	goto	L4
  5716  0216                     i1l5736:	
  5717                           ;2_3DIM.c: 423: case '2':
  5718                           
  5719                           
  5720                           ;2_3DIM.c: 424: TMR1H=0xE5; TMR1L=0x70; T1CONbits.TMR1ON = 1; break;
  5721  0216  30E5               	movlw	229
  5722  0217                     L38:	
  5723  0217  0097               	movwf	23	;volatile
  5724  0218  3070               	movlw	112
  5725  0219  2A71               	goto	L4
  5726  021A                     i1l5740:	
  5727                           ;2_3DIM.c: 425: case '3':
  5728                           
  5729                           
  5730                           ;2_3DIM.c: 426: TMR1H=0xE6; TMR1L=0x38; T1CONbits.TMR1ON = 1; break;
  5731  021A  30E6               	movlw	230
  5732  021B  0097               	movwf	23	;volatile
  5733  021C  3038               	movlw	56
  5734  021D  2A71               	goto	L4
  5735  021E                     i1l5744:	
  5736                           ;2_3DIM.c: 427: case '4':
  5737                           
  5738                           
  5739                           ;2_3DIM.c: 428: TMR1H=0xE7; TMR1L=0x00; T1CONbits.TMR1ON = 1; break;
  5740  021E  30E7               	movlw	231
  5741  021F                     L39:	
  5742  021F  0097               	movwf	23	;volatile
  5743  0220  0196               	clrf	22	;volatile
  5744  0221  2A72               	goto	i1l5812
  5745  0222                     i1l5750:	
  5746                           ;2_3DIM.c: 429: case '5':
  5747                           
  5748                           
  5749                           ;2_3DIM.c: 430: TMR1H=0xE8; TMR1L=0x90; T1CONbits.TMR1ON = 1; break;
  5750  0222  30E8               	movlw	232
  5751  0223                     L40:	
  5752  0223  0097               	movwf	23	;volatile
  5753  0224  3090               	movlw	144
  5754  0225  2A71               	goto	L4
  5755  0226                     i1l5754:	
  5756                           ;2_3DIM.c: 431: case '6':
  5757                           
  5758                           
  5759                           ;2_3DIM.c: 432: TMR1H=0xEA; TMR1L=0x20; T1CONbits.TMR1ON = 1; break;
  5760  0226  30EA               	movlw	234
  5761  0227                     L41:	
  5762  0227  0097               	movwf	23	;volatile
  5763  0228  3020               	movlw	32
  5764  0229  2A71               	goto	L4
  5765  022A                     i1l5758:	
  5766                           ;2_3DIM.c: 433: case '7':
  5767                           
  5768                           
  5769                           ;2_3DIM.c: 434: TMR1H=0xEB; TMR1L=0xB0; T1CONbits.TMR1ON = 1; break;
  5770  022A  30EB               	movlw	235
  5771  022B                     L42:	
  5772  022B  0097               	movwf	23	;volatile
  5773  022C  30B0               	movlw	176
  5774  022D  2A71               	goto	L4
  5775  022E                     i1l5762:	
  5776                           ;2_3DIM.c: 435: case '8':
  5777                           
  5778                           
  5779                           ;2_3DIM.c: 436: TMR1H=0xEC; TMR1L=0x78; T1CONbits.TMR1ON = 1; break;
  5780  022E  30EC               	movlw	236
  5781  022F                     L149:	
  5782  022F  0097               	movwf	23	;volatile
  5783  0230  3078               	movlw	120
  5784  0231  2A71               	goto	L4
  5785  0232                     i1l5766:	
  5786                           ;2_3DIM.c: 437: case '9':
  5787                           
  5788                           
  5789                           ;2_3DIM.c: 438: TMR1H=0xED; TMR1L=0x40; T1CONbits.TMR1ON = 1; break;
  5790  0232  30ED               	movlw	237
  5791  0233                     L43:	
  5792  0233  0097               	movwf	23	;volatile
  5793  0234  3040               	movlw	64
  5794  0235  2A71               	goto	L4
  5795  0236                     i1l5772:	
  5796                           ;2_3DIM.c: 441: }
  5797                           
  5798                           ;2_3DIM.c: 440: break;
  5799                           
  5800                           ;2_3DIM.c: 439: default:
  5801                           
  5802                           
  5803                           ; Switch on 2 bytes has been partitioned into a top level switch of size 1, and 1 sub-sw
      +                          itches
  5804                           ; Switch size 1, requested type "space"
  5805                           ; Number of cases is 1, Range of values is 0 to 0
  5806                           ; switch strategies available:
  5807                           ; Name         Instructions Cycles
  5808                           ; simple_byte            4     3 (average)
  5809                           ; direct_byte            8     6 (fixed)
  5810                           ; jumptable            260     6 (fixed)
  5811                           ;	Chosen strategy is simple_byte
  5812  0236  0020               	movlb	0	; select bank0
  5813  0237  0856               	movf	_FAN_SPEED1_1s+1,w
  5814  0238  3A00               	xorlw	0	; case 0
  5815  0239  1903               	skipnz
  5816  023A  2A3C               	goto	i1l10690
  5817  023B  2A9B               	goto	i1l276
  5818  023C                     i1l10690:	
  5819                           
  5820                           ; Switch size 1, requested type "space"
  5821                           ; Number of cases is 10, Range of values is 48 to 57
  5822                           ; switch strategies available:
  5823                           ; Name         Instructions Cycles
  5824                           ; direct_byte           29     9 (fixed)
  5825                           ; simple_byte           31    16 (average)
  5826                           ; jumptable            263     9 (fixed)
  5827                           ;	Chosen strategy is direct_byte
  5828  023C  0855               	movf	_FAN_SPEED1_1s,w
  5829  023D  3ED0               	addlw	-48
  5830  023E  1C03               	skipc
  5831  023F  2A9B               	goto	i1l276
  5832  0240  0084               	movwf	4
  5833  0241  300A               	movlw	10
  5834  0242  0204               	subwf	4,w
  5835  0243  1803               	skipnc
  5836  0244  2A9B               	goto	i1l276
  5837  0245  3188               	movlp	high i1S10692
  5838  0246  3504               	lslf	4,w
  5839  0247  3E8C               	addlw	low i1S10692
  5840  0248  0082               	movwf	2
  5841                           
  5842                           ;2_3DIM.c: 442: break;
  5843  0249  2A9B               	goto	i1l276
  5844  024A                     i1l5774:	
  5845                           ;2_3DIM.c: 446: {
  5846                           ;2_3DIM.c: 447: case '0':
  5847                           
  5848                           ;2_3DIM.c: 445: switch(FAN_SPEED1_1s)
  5849                           
  5850                           ;2_3DIM.c: 443: case '9':
  5851                           
  5852                           
  5853                           ;2_3DIM.c: 448: TMR1H=0xEE; TMR1L=0xD0; T1CONbits.TMR1ON = 1; break;
  5854  024A  30EE               	movlw	238
  5855  024B                     L44:	
  5856  024B  0097               	movwf	23	;volatile
  5857  024C  30D0               	movlw	208
  5858  024D  2A71               	goto	L4
  5859  024E                     i1l5778:	
  5860                           ;2_3DIM.c: 449: case '1':
  5861                           
  5862                           
  5863                           ;2_3DIM.c: 450: TMR1H=0xF0; TMR1L=0x60; T1CONbits.TMR1ON = 1; break;
  5864  024E  30F0               	movlw	240
  5865  024F                     L45:	
  5866  024F  0097               	movwf	23	;volatile
  5867  0250  3060               	movlw	96
  5868  0251  2A71               	goto	L4
  5869  0252                     i1l5782:	
  5870                           ;2_3DIM.c: 451: case '2':
  5871                           
  5872                           
  5873                           ;2_3DIM.c: 452: TMR1H=0xF1; TMR1L=0xF0; T1CONbits.TMR1ON = 1; break;
  5874  0252  30F1               	movlw	241
  5875  0253                     L46:	
  5876  0253  0097               	movwf	23	;volatile
  5877  0254  30F0               	movlw	240
  5878  0255  2A71               	goto	L4
  5879  0256                     i1l5786:	
  5880                           ;2_3DIM.c: 453: case '3':
  5881                           
  5882                           
  5883                           ;2_3DIM.c: 454: TMR1H=0xF3; TMR1L=0x80; T1CONbits.TMR1ON = 1; break;
  5884  0256  30F3               	movlw	243
  5885  0257                     L47:	
  5886  0257  0097               	movwf	23	;volatile
  5887  0258  3080               	movlw	128
  5888  0259  2A71               	goto	L4
  5889  025A                     i1l5790:	
  5890                           ;2_3DIM.c: 455: case '4':
  5891                           
  5892                           
  5893                           ;2_3DIM.c: 456: TMR1H=0xF5; TMR1L=0x10; T1CONbits.TMR1ON = 1; break;
  5894  025A  30F5               	movlw	245
  5895  025B                     L48:	
  5896  025B  0097               	movwf	23	;volatile
  5897  025C  3010               	movlw	16
  5898  025D  2A71               	goto	L4
  5899  025E                     i1l5794:	
  5900                           ;2_3DIM.c: 457: case '5':
  5901                           
  5902                           
  5903                           ;2_3DIM.c: 458: TMR1H=0xF6; TMR1L=0xA0; T1CONbits.TMR1ON = 1; break;
  5904  025E  30F6               	movlw	246
  5905  025F                     L49:	
  5906  025F  0097               	movwf	23	;volatile
  5907  0260  30A0               	movlw	160
  5908  0261  2A71               	goto	L4
  5909  0262                     i1l5798:	
  5910                           ;2_3DIM.c: 459: case '6':
  5911                           
  5912                           
  5913                           ;2_3DIM.c: 460: TMR1H=0xF8; TMR1L=0x30; T1CONbits.TMR1ON = 1; break;
  5914  0262  30F8               	movlw	248
  5915  0263                     L50:	
  5916  0263  0097               	movwf	23	;volatile
  5917  0264  3030               	movlw	48
  5918  0265  2A71               	goto	L4
  5919  0266                     i1l5802:	
  5920                           ;2_3DIM.c: 461: case '7':
  5921                           
  5922                           
  5923                           ;2_3DIM.c: 462: TMR1H=0xF9; TMR1L=0xC0; T1CONbits.TMR1ON = 1; break;
  5924  0266  30F9               	movlw	249
  5925  0267                     L51:	
  5926  0267  0097               	movwf	23	;volatile
  5927  0268  30C0               	movlw	192
  5928  0269  2A71               	goto	L4
  5929  026A                     i1l5806:	
  5930                           ;2_3DIM.c: 463: case '8':
  5931                           
  5932                           
  5933                           ;2_3DIM.c: 464: TMR1H=0xFB; TMR1L=0x50; T1CONbits.TMR1ON = 1; break;
  5934  026A  30FB               	movlw	251
  5935  026B                     L52:	
  5936  026B  0097               	movwf	23	;volatile
  5937  026C  3050               	movlw	80
  5938  026D  2A71               	goto	L4
  5939  026E                     i1l5810:	
  5940                           ;2_3DIM.c: 465: case '9':
  5941                           
  5942                           
  5943                           ;2_3DIM.c: 466: TMR1H=0xFC; TMR1L=0xE0; T1CONbits.TMR1ON = 1; break;
  5944  026E  30FC               	movlw	252
  5945  026F                     L22:	
  5946  026F  0097               	movwf	23	;volatile
  5947  0270  30E0               	movlw	224
  5948  0271                     L4:	
  5949  0271  0096               	movwf	22	;volatile
  5950  0272                     i1l5812:	
  5951  0272  1418               	bsf	24,0	;volatile
  5952                           
  5953                           ;2_3DIM.c: 469: }
  5954                           
  5955                           ;2_3DIM.c: 468: break;
  5956                           
  5957                           ;2_3DIM.c: 467: default:
  5958  0273  2A9B               	goto	i1l276
  5959  0274                     i1l5816:	
  5960                           
  5961                           ; Switch on 2 bytes has been partitioned into a top level switch of size 1, and 1 sub-sw
      +                          itches
  5962                           ; Switch size 1, requested type "space"
  5963                           ; Number of cases is 1, Range of values is 0 to 0
  5964                           ; switch strategies available:
  5965                           ; Name         Instructions Cycles
  5966                           ; simple_byte            4     3 (average)
  5967                           ; direct_byte            8     6 (fixed)
  5968                           ; jumptable            260     6 (fixed)
  5969                           ;	Chosen strategy is simple_byte
  5970  0274  0020               	movlb	0	; select bank0
  5971  0275  0856               	movf	_FAN_SPEED1_1s+1,w
  5972  0276  3A00               	xorlw	0	; case 0
  5973  0277  1903               	skipnz
  5974  0278  2A7A               	goto	i1l10694
  5975  0279  2A9B               	goto	i1l276
  5976  027A                     i1l10694:	
  5977                           
  5978                           ; Switch size 1, requested type "space"
  5979                           ; Number of cases is 10, Range of values is 48 to 57
  5980                           ; switch strategies available:
  5981                           ; Name         Instructions Cycles
  5982                           ; direct_byte           29     9 (fixed)
  5983                           ; simple_byte           31    16 (average)
  5984                           ; jumptable            263     9 (fixed)
  5985                           ;	Chosen strategy is direct_byte
  5986  027A  0855               	movf	_FAN_SPEED1_1s,w
  5987  027B  3ED0               	addlw	-48
  5988  027C  1C03               	skipc
  5989  027D  2A9B               	goto	i1l276
  5990  027E  0084               	movwf	4
  5991  027F  300A               	movlw	10
  5992  0280  0204               	subwf	4,w
  5993  0281  1803               	skipnc
  5994  0282  2A9B               	goto	i1l276
  5995  0283  3188               	movlp	high i1S10696
  5996  0284  3504               	lslf	4,w
  5997  0285  3EA0               	addlw	low i1S10696
  5998  0286  0082               	movwf	2
  5999                           
  6000                           ;2_3DIM.c: 473: }
  6001                           
  6002                           ;2_3DIM.c: 472: break;
  6003                           
  6004                           ;2_3DIM.c: 471: default:
  6005                           
  6006                           ;2_3DIM.c: 470: break;
  6007  0287  2A9B               	goto	i1l276
  6008  0288                     i1l5820:	
  6009                           
  6010                           ; Switch on 2 bytes has been partitioned into a top level switch of size 1, and 1 sub-sw
      +                          itches
  6011                           ; Switch size 1, requested type "space"
  6012                           ; Number of cases is 1, Range of values is 0 to 0
  6013                           ; switch strategies available:
  6014                           ; Name         Instructions Cycles
  6015                           ; simple_byte            4     3 (average)
  6016                           ; direct_byte            8     6 (fixed)
  6017                           ; jumptable            260     6 (fixed)
  6018                           ;	Chosen strategy is simple_byte
  6019  0288  0021               	movlb	1	; select bank1
  6020  0289  086B               	movf	(_FAN_SPEED1_10s+1)^(0+128),w
  6021  028A  3A00               	xorlw	0	; case 0
  6022  028B  1903               	skipnz
  6023  028C  2A8E               	goto	i1l10698
  6024  028D  2A9B               	goto	i1l276
  6025  028E                     i1l10698:	
  6026                           
  6027                           ; Switch size 1, requested type "space"
  6028                           ; Number of cases is 10, Range of values is 48 to 57
  6029                           ; switch strategies available:
  6030                           ; Name         Instructions Cycles
  6031                           ; direct_byte           29     9 (fixed)
  6032                           ; simple_byte           31    16 (average)
  6033                           ; jumptable            263     9 (fixed)
  6034                           ;	Chosen strategy is direct_byte
  6035  028E  086A               	movf	_FAN_SPEED1_10s^(0+128),w
  6036  028F  3ED0               	addlw	-48
  6037  0290  1C03               	skipc
  6038  0291  2A9B               	goto	i1l276
  6039  0292  0084               	movwf	4
  6040  0293  300A               	movlw	10
  6041  0294  0204               	subwf	4,w
  6042  0295  1803               	skipnc
  6043  0296  2A9B               	goto	i1l276
  6044  0297  3188               	movlp	high i1S10700
  6045  0298  3504               	lslf	4,w
  6046  0299  3EB4               	addlw	low i1S10700
  6047  029A  0082               	movwf	2
  6048  029B                     i1l276:	
  6049                           
  6050                           ;2_3DIM.c: 474: }
  6051                           ;2_3DIM.c: 475: PIR1bits.CCP1IF = 0;
  6052  029B  0020               	movlb	0	; select bank0
  6053  029C  1111               	bcf	17,2	;volatile
  6054  029D                     i1l275:	
  6055                           
  6056                           ;2_3DIM.c: 476: }
  6057                           ;2_3DIM.c: 477: if(PIR3bits.CCP3IF == 1)
  6058  029D  1E13               	btfss	19,4	;volatile
  6059  029E  2CB1               	goto	i1l420
  6060                           
  6061                           ;2_3DIM.c: 478: {
  6062                           ;2_3DIM.c: 479: PIR3bits.CCP3IF=0;
  6063  029F  1213               	bcf	19,4	;volatile
  6064                           
  6065                           ;2_3DIM.c: 481: if(FAN_FLAG2==1 && ak==1)
  6066  02A0  0021               	movlb	1	; select bank1
  6067  02A1  0360               	decf	_FAN_FLAG2^(0+128),w
  6068  02A2  0461               	iorwf	(_FAN_FLAG2+1)^(0+128),w
  6069  02A3  1D03               	btfss	3,2
  6070  02A4  2CAF               	goto	i1l421
  6071  02A5  0020               	movlb	0	; select bank0
  6072  02A6  0357               	decf	_ak,w
  6073  02A7  0458               	iorwf	_ak+1,w
  6074  02A8  1903               	btfsc	3,2
  6075  02A9  2C9C               	goto	i1l6282
  6076  02AA  2CAF               	goto	i1l421
  6077  02AB                     i1l5830:	
  6078                           ;2_3DIM.c: 488: {
  6079                           ;2_3DIM.c: 489: case '0':
  6080                           
  6081                           ;2_3DIM.c: 487: switch(FAN_SPEED2_1s)
  6082                           
  6083                           ;2_3DIM.c: 484: {
  6084                           ;2_3DIM.c: 485: case '0':
  6085                           
  6086                           ;2_3DIM.c: 482: {
  6087                           ;2_3DIM.c: 483: switch(FAN_SPEED2_10s)
  6088                           
  6089                           
  6090                           ;2_3DIM.c: 490: TMR3H=0x7B; TMR3L=0x30; T3CONbits.TMR3ON = 1; break;
  6091  02AB  307B               	movlw	123
  6092  02AC  2C73               	goto	L96
  6093  02AD                     i1l5834:	
  6094                           ;2_3DIM.c: 491: case '1':
  6095                           
  6096                           
  6097                           ;2_3DIM.c: 492: TMR3H=0x7C; TMR3L=0xC0; T3CONbits.TMR3ON = 1; break;
  6098  02AD  307C               	movlw	124
  6099  02AE  2C78               	goto	L97
  6100  02AF                     i1l5838:	
  6101                           ;2_3DIM.c: 493: case '2':
  6102                           
  6103                           
  6104                           ;2_3DIM.c: 494: TMR3H=0x7D; TMR3L=0x88; T3CONbits.TMR3ON = 1; break;
  6105  02AF  307D               	movlw	125
  6106  02B0  0028               	movlb	8	; select bank8
  6107  02B1  0092               	movwf	18	;volatile
  6108  02B2  3088               	movlw	136
  6109  02B3  2C85               	goto	L5
  6110  02B4                     i1l5842:	
  6111                           ;2_3DIM.c: 495: case '3':
  6112                           
  6113                           
  6114                           ;2_3DIM.c: 496: TMR3H=0x7F; TMR3L=0x18; T3CONbits.TMR3ON = 1; break;
  6115  02B4  307F               	movlw	127
  6116  02B5  0028               	movlb	8	; select bank8
  6117  02B6  0092               	movwf	18	;volatile
  6118  02B7  3018               	movlw	24
  6119  02B8  2C85               	goto	L5
  6120  02B9                     i1l5846:	
  6121                           ;2_3DIM.c: 497: case '4':
  6122                           
  6123                           
  6124                           ;2_3DIM.c: 498: TMR3H=0x80; TMR3L=0xA8; T3CONbits.TMR3ON = 1; break;
  6125  02B9  3080               	movlw	128
  6126  02BA  2C14               	goto	L152
  6127  02BB                     i1l5850:	
  6128                           ;2_3DIM.c: 499: case '5':
  6129                           
  6130                           
  6131                           ;2_3DIM.c: 500: TMR3H=0x81; TMR3L=0x70; T3CONbits.TMR3ON = 1; break;
  6132  02BB  3081               	movlw	129
  6133  02BC  2C19               	goto	L84
  6134  02BD                     i1l5854:	
  6135                           ;2_3DIM.c: 501: case '6':
  6136                           
  6137                           
  6138                           ;2_3DIM.c: 502: TMR3H=0x83; TMR3L=0x00; T3CONbits.TMR3ON = 1; break;
  6139  02BD  3083               	movlw	131
  6140  02BE  2C23               	goto	L85
  6141  02BF                     i1l5860:	
  6142                           ;2_3DIM.c: 503: case '7':
  6143                           
  6144                           
  6145                           ;2_3DIM.c: 504: TMR3H=0x83; TMR3L=0xC8; T3CONbits.TMR3ON = 1; break;
  6146  02BF  3083               	movlw	131
  6147  02C0  0028               	movlb	8	; select bank8
  6148  02C1  0092               	movwf	18	;volatile
  6149  02C2  30C8               	movlw	200
  6150  02C3  2C85               	goto	L5
  6151  02C4                     i1l5864:	
  6152                           ;2_3DIM.c: 505: case '8':
  6153                           
  6154  02C4  2AE5               	goto	i1l5884
  6155  02C5                     i1l5868:	
  6156                           ;2_3DIM.c: 507: case '9':
  6157                           
  6158                           ;2_3DIM.c: 506: TMR3H=0x87; TMR3L=0xB0; T3CONbits.TMR3ON = 1; break;
  6159                           
  6160                           
  6161                           ;2_3DIM.c: 508: TMR3H=0x85; TMR3L=0x58; T3CONbits.TMR3ON = 1; break;
  6162  02C5  3085               	movlw	133
  6163  02C6  0028               	movlb	8	; select bank8
  6164  02C7  0092               	movwf	18	;volatile
  6165  02C8  3058               	movlw	88
  6166  02C9  2C85               	goto	L5
  6167  02CA                     i1l5874:	
  6168                           ;2_3DIM.c: 511: }
  6169                           
  6170                           ;2_3DIM.c: 510: break;
  6171                           
  6172                           ;2_3DIM.c: 509: default:
  6173                           
  6174                           
  6175                           ; Switch on 2 bytes has been partitioned into a top level switch of size 1, and 1 sub-sw
      +                          itches
  6176                           ; Switch size 1, requested type "space"
  6177                           ; Number of cases is 1, Range of values is 0 to 0
  6178                           ; switch strategies available:
  6179                           ; Name         Instructions Cycles
  6180                           ; simple_byte            4     3 (average)
  6181                           ; direct_byte            8     6 (fixed)
  6182                           ; jumptable            260     6 (fixed)
  6183                           ;	Chosen strategy is simple_byte
  6184  02CA  0020               	movlb	0	; select bank0
  6185  02CB  0854               	movf	_FAN_SPEED2_1s+1,w
  6186  02CC  3A00               	xorlw	0	; case 0
  6187  02CD  1903               	skipnz
  6188  02CE  2AD0               	goto	i1l10702
  6189  02CF  2CAF               	goto	i1l421
  6190  02D0                     i1l10702:	
  6191                           
  6192                           ; Switch size 1, requested type "space"
  6193                           ; Number of cases is 10, Range of values is 48 to 57
  6194                           ; switch strategies available:
  6195                           ; Name         Instructions Cycles
  6196                           ; direct_byte           29     9 (fixed)
  6197                           ; simple_byte           31    16 (average)
  6198                           ; jumptable            263     9 (fixed)
  6199                           ;	Chosen strategy is direct_byte
  6200  02D0  0853               	movf	_FAN_SPEED2_1s,w
  6201  02D1  3ED0               	addlw	-48
  6202  02D2  1C03               	skipc
  6203  02D3  2CAF               	goto	i1l421
  6204  02D4  0084               	movwf	4
  6205  02D5  300A               	movlw	10
  6206  02D6  0204               	subwf	4,w
  6207  02D7  1803               	skipnc
  6208  02D8  2CAF               	goto	i1l421
  6209  02D9  3188               	movlp	high i1S10704
  6210  02DA  3504               	lslf	4,w
  6211  02DB  3EC8               	addlw	low i1S10704
  6212  02DC  0082               	movwf	2
  6213                           
  6214                           ;2_3DIM.c: 512: break;
  6215  02DD  2CAF               	goto	i1l421
  6216  02DE                     i1l5876:	
  6217                           ;2_3DIM.c: 516: {
  6218                           ;2_3DIM.c: 517: case '0':
  6219                           
  6220                           ;2_3DIM.c: 515: switch(FAN_SPEED2_1s)
  6221                           
  6222                           ;2_3DIM.c: 513: case '1':
  6223                           
  6224                           
  6225                           ;2_3DIM.c: 518: TMR3H=0x86; TMR3L=0x20; T3CONbits.TMR3ON = 1; break;
  6226  02DE  3086               	movlw	134
  6227  02DF  2C2D               	goto	L87
  6228  02E0                     i1l5880:	
  6229                           ;2_3DIM.c: 519: case '1':
  6230                           
  6231                           
  6232                           ;2_3DIM.c: 520: TMR3H=0x86; TMR3L=0xE8; T3CONbits.TMR3ON = 1; break;
  6233  02E0  3086               	movlw	134
  6234  02E1  0028               	movlb	8	; select bank8
  6235  02E2  0092               	movwf	18	;volatile
  6236  02E3  30E8               	movlw	232
  6237  02E4  2C85               	goto	L5
  6238  02E5                     i1l5884:	
  6239                           ;2_3DIM.c: 521: case '2':
  6240                           
  6241                           
  6242                           ;2_3DIM.c: 522: TMR3H=0x87; TMR3L=0xB0; T3CONbits.TMR3ON = 1; break;
  6243  02E5  3087               	movlw	135
  6244  02E6  2C32               	goto	L88
  6245  02E7                     i1l5888:	
  6246                           ;2_3DIM.c: 523: case '3':
  6247                           
  6248                           
  6249                           ;2_3DIM.c: 524: TMR3H=0x88; TMR3L=0x78; T3CONbits.TMR3ON = 1; break;
  6250  02E7  3088               	movlw	136
  6251  02E8  2C37               	goto	L154
  6252  02E9                     i1l5892:	
  6253                           ;2_3DIM.c: 525: case '4':
  6254                           
  6255                           
  6256                           ;2_3DIM.c: 526: TMR3H=0x89; TMR3L=0x40; T3CONbits.TMR3ON = 1; break;
  6257  02E9  3089               	movlw	137
  6258  02EA  2C3C               	goto	L89
  6259  02EB                     i1l5896:	
  6260                           ;2_3DIM.c: 527: case '5':
  6261                           
  6262                           
  6263                           ;2_3DIM.c: 528: TMR3H=0x8A; TMR3L=0x08; T3CONbits.TMR3ON = 1; break;
  6264  02EB  308A               	movlw	138
  6265  02EC  0028               	movlb	8	; select bank8
  6266  02ED  0092               	movwf	18	;volatile
  6267  02EE  3008               	movlw	8
  6268  02EF  2C85               	goto	L5
  6269  02F0                     i1l5900:	
  6270                           ;2_3DIM.c: 529: case '6':
  6271                           
  6272                           
  6273                           ;2_3DIM.c: 530: TMR3H=0x8A; TMR3L=0xD0; T3CONbits.TMR3ON = 1; break;
  6274  02F0  308A               	movlw	138
  6275  02F1  2C55               	goto	L90
  6276  02F2                     i1l5904:	
  6277                           ;2_3DIM.c: 531: case '7':
  6278                           
  6279                           
  6280                           ;2_3DIM.c: 532: TMR3H=0x8B; TMR3L=0x98; T3CONbits.TMR3ON = 1; break;
  6281  02F2  308B               	movlw	139
  6282  02F3  0028               	movlb	8	; select bank8
  6283  02F4  0092               	movwf	18	;volatile
  6284  02F5  3098               	movlw	152
  6285  02F6  2C85               	goto	L5
  6286  02F7                     i1l5908:	
  6287                           ;2_3DIM.c: 533: case '8':
  6288                           
  6289                           
  6290                           ;2_3DIM.c: 534: TMR3H=0x8C; TMR3L=0x60; T3CONbits.TMR3ON = 1; break;
  6291  02F7  308C               	movlw	140
  6292  02F8  2C5A               	goto	L91
  6293  02F9                     i1l5912:	
  6294                           ;2_3DIM.c: 535: case '9':
  6295                           
  6296                           
  6297                           ;2_3DIM.c: 536: TMR3H=0x8D; TMR3L=0x28; T3CONbits.TMR3ON = 1; break;
  6298  02F9  308D               	movlw	141
  6299  02FA  0028               	movlb	8	; select bank8
  6300  02FB  0092               	movwf	18	;volatile
  6301  02FC  3028               	movlw	40
  6302  02FD  2C85               	goto	L5
  6303  02FE                     i1l5918:	
  6304                           ;2_3DIM.c: 539: }
  6305                           
  6306                           ;2_3DIM.c: 538: break;
  6307                           
  6308                           ;2_3DIM.c: 537: default:
  6309                           
  6310                           
  6311                           ; Switch on 2 bytes has been partitioned into a top level switch of size 1, and 1 sub-sw
      +                          itches
  6312                           ; Switch size 1, requested type "space"
  6313                           ; Number of cases is 1, Range of values is 0 to 0
  6314                           ; switch strategies available:
  6315                           ; Name         Instructions Cycles
  6316                           ; simple_byte            4     3 (average)
  6317                           ; direct_byte            8     6 (fixed)
  6318                           ; jumptable            260     6 (fixed)
  6319                           ;	Chosen strategy is simple_byte
  6320  02FE  0020               	movlb	0	; select bank0
  6321  02FF  0854               	movf	_FAN_SPEED2_1s+1,w
  6322  0300  3A00               	xorlw	0	; case 0
  6323  0301  1903               	skipnz
  6324  0302  2B04               	goto	i1l10706
  6325  0303  2CAF               	goto	i1l421
  6326  0304                     i1l10706:	
  6327                           
  6328                           ; Switch size 1, requested type "space"
  6329                           ; Number of cases is 10, Range of values is 48 to 57
  6330                           ; switch strategies available:
  6331                           ; Name         Instructions Cycles
  6332                           ; direct_byte           29     9 (fixed)
  6333                           ; simple_byte           31    16 (average)
  6334                           ; jumptable            263     9 (fixed)
  6335                           ;	Chosen strategy is direct_byte
  6336  0304  0853               	movf	_FAN_SPEED2_1s,w
  6337  0305  3ED0               	addlw	-48
  6338  0306  1C03               	skipc
  6339  0307  2CAF               	goto	i1l421
  6340  0308  0084               	movwf	4
  6341  0309  300A               	movlw	10
  6342  030A  0204               	subwf	4,w
  6343  030B  1803               	skipnc
  6344  030C  2CAF               	goto	i1l421
  6345  030D  3188               	movlp	high i1S10708
  6346  030E  3504               	lslf	4,w
  6347  030F  3EDC               	addlw	low i1S10708
  6348  0310  0082               	movwf	2
  6349                           
  6350                           ;2_3DIM.c: 540: break;
  6351  0311  2CAF               	goto	i1l421
  6352  0312                     i1l5920:	
  6353                           ;2_3DIM.c: 544: {
  6354                           ;2_3DIM.c: 545: case '0':
  6355                           
  6356                           ;2_3DIM.c: 543: switch(FAN_SPEED2_1s)
  6357                           
  6358                           ;2_3DIM.c: 541: case '2':
  6359                           
  6360                           
  6361                           ;2_3DIM.c: 546: TMR3H=0x8D; TMR3L=0xF0; T3CONbits.TMR3ON = 1; break;
  6362  0312  308D               	movlw	141
  6363  0313  2C5F               	goto	L92
  6364  0314                     i1l5924:	
  6365                           ;2_3DIM.c: 547: case '1':
  6366                           
  6367                           
  6368                           ;2_3DIM.c: 548: TMR3H=0x8E; TMR3L=0xB8; T3CONbits.TMR3ON = 1; break;
  6369  0314  308E               	movlw	142
  6370  0315  0028               	movlb	8	; select bank8
  6371  0316  0092               	movwf	18	;volatile
  6372  0317  30B8               	movlw	184
  6373  0318  2C85               	goto	L5
  6374  0319                     i1l5928:	
  6375                           ;2_3DIM.c: 549: case '2':
  6376                           
  6377                           
  6378                           ;2_3DIM.c: 550: TMR3H=0x8F; TMR3L=0x80; T3CONbits.TMR3ON = 1; break;
  6379  0319  308F               	movlw	143
  6380  031A  2C64               	goto	L93
  6381  031B                     i1l5932:	
  6382                           ;2_3DIM.c: 551: case '3':
  6383                           
  6384                           
  6385                           ;2_3DIM.c: 552: TMR3H=0x90; TMR3L=0x48; T3CONbits.TMR3ON = 1; break;
  6386  031B  3090               	movlw	144
  6387  031C  0028               	movlb	8	; select bank8
  6388  031D  0092               	movwf	18	;volatile
  6389  031E  3048               	movlw	72
  6390  031F  2C85               	goto	L5
  6391  0320                     i1l5936:	
  6392                           ;2_3DIM.c: 553: case '4':
  6393                           
  6394                           
  6395                           ;2_3DIM.c: 554: TMR3H=0x91; TMR3L=0x10; T3CONbits.TMR3ON = 1; break;
  6396  0320  3091               	movlw	145
  6397  0321  2C69               	goto	L94
  6398  0322                     i1l5940:	
  6399                           ;2_3DIM.c: 555: case '5':
  6400                           
  6401                           
  6402                           ;2_3DIM.c: 556: TMR3H=0x91; TMR3L=0xD8; T3CONbits.TMR3ON = 1; break;
  6403  0322  3091               	movlw	145
  6404  0323  0028               	movlb	8	; select bank8
  6405  0324  0092               	movwf	18	;volatile
  6406  0325  30D8               	movlw	216
  6407  0326  2C85               	goto	L5
  6408  0327                     i1l5944:	
  6409                           ;2_3DIM.c: 557: case '6':
  6410                           
  6411                           
  6412                           ;2_3DIM.c: 558: TMR3H=0x92; TMR3L=0xA0; T3CONbits.TMR3ON = 1; break;
  6413  0327  3092               	movlw	146
  6414  0328  2C6E               	goto	L95
  6415  0329                     i1l5948:	
  6416                           ;2_3DIM.c: 559: case '7':
  6417                           
  6418                           
  6419                           ;2_3DIM.c: 560: TMR3H=0x93; TMR3L=0x68; T3CONbits.TMR3ON = 1; break;
  6420  0329  3093               	movlw	147
  6421  032A  0028               	movlb	8	; select bank8
  6422  032B  0092               	movwf	18	;volatile
  6423  032C  3068               	movlw	104
  6424  032D  2C85               	goto	L5
  6425  032E                     i1l5952:	
  6426                           ;2_3DIM.c: 561: case '8':
  6427                           
  6428                           
  6429                           ;2_3DIM.c: 562: TMR3H=0x94; TMR3L=0x30; T3CONbits.TMR3ON = 1; break;
  6430  032E  3094               	movlw	148
  6431  032F  2C73               	goto	L96
  6432  0330                     i1l5956:	
  6433                           ;2_3DIM.c: 563: case '9':
  6434                           
  6435                           
  6436                           ;2_3DIM.c: 564: TMR3H=0x94; TMR3L=0xF8; T3CONbits.TMR3ON = 1; break;
  6437  0330  3094               	movlw	148
  6438  0331  0028               	movlb	8	; select bank8
  6439  0332  0092               	movwf	18	;volatile
  6440  0333  30F8               	movlw	248
  6441  0334  2C85               	goto	L5
  6442  0335                     i1l5962:	
  6443                           ;2_3DIM.c: 567: }
  6444                           
  6445                           ;2_3DIM.c: 566: break;
  6446                           
  6447                           ;2_3DIM.c: 565: default:
  6448                           
  6449                           
  6450                           ; Switch on 2 bytes has been partitioned into a top level switch of size 1, and 1 sub-sw
      +                          itches
  6451                           ; Switch size 1, requested type "space"
  6452                           ; Number of cases is 1, Range of values is 0 to 0
  6453                           ; switch strategies available:
  6454                           ; Name         Instructions Cycles
  6455                           ; simple_byte            4     3 (average)
  6456                           ; direct_byte            8     6 (fixed)
  6457                           ; jumptable            260     6 (fixed)
  6458                           ;	Chosen strategy is simple_byte
  6459  0335  0020               	movlb	0	; select bank0
  6460  0336  0854               	movf	_FAN_SPEED2_1s+1,w
  6461  0337  3A00               	xorlw	0	; case 0
  6462  0338  1903               	skipnz
  6463  0339  2B3B               	goto	i1l10710
  6464  033A  2CAF               	goto	i1l421
  6465  033B                     i1l10710:	
  6466                           
  6467                           ; Switch size 1, requested type "space"
  6468                           ; Number of cases is 10, Range of values is 48 to 57
  6469                           ; switch strategies available:
  6470                           ; Name         Instructions Cycles
  6471                           ; direct_byte           29     9 (fixed)
  6472                           ; simple_byte           31    16 (average)
  6473                           ; jumptable            263     9 (fixed)
  6474                           ;	Chosen strategy is direct_byte
  6475  033B  0853               	movf	_FAN_SPEED2_1s,w
  6476  033C  3ED0               	addlw	-48
  6477  033D  1C03               	skipc
  6478  033E  2CAF               	goto	i1l421
  6479  033F  0084               	movwf	4
  6480  0340  300A               	movlw	10
  6481  0341  0204               	subwf	4,w
  6482  0342  1803               	skipnc
  6483  0343  2CAF               	goto	i1l421
  6484  0344  3189               	movlp	high i1S10712
  6485  0345  3504               	lslf	4,w
  6486  0346  3E00               	addlw	low i1S10712
  6487  0347  0082               	movwf	2
  6488                           
  6489                           ;2_3DIM.c: 568: break;
  6490  0348  2CAF               	goto	i1l421
  6491  0349                     i1l5964:	
  6492                           ;2_3DIM.c: 572: {
  6493                           ;2_3DIM.c: 573: case '0':
  6494                           
  6495                           ;2_3DIM.c: 571: switch(FAN_SPEED2_1s)
  6496                           
  6497                           ;2_3DIM.c: 569: case '3':
  6498                           
  6499                           
  6500                           ;2_3DIM.c: 574: TMR3H=0x95; TMR3L=0xC0; T3CONbits.TMR3ON = 1; break;
  6501  0349  3095               	movlw	149
  6502  034A  2C78               	goto	L97
  6503  034B                     i1l5968:	
  6504                           ;2_3DIM.c: 575: case '1':
  6505                           
  6506                           
  6507                           ;2_3DIM.c: 576: TMR3H=0x97; TMR3L=0x50; T3CONbits.TMR3ON = 1; break;
  6508  034B  3097               	movlw	151
  6509  034C  2C7D               	goto	L98
  6510  034D                     i1l5972:	
  6511                           ;2_3DIM.c: 577: case '2':
  6512                           
  6513                           
  6514                           ;2_3DIM.c: 578: TMR3H=0x98; TMR3L=0xE0; T3CONbits.TMR3ON = 1; break;
  6515  034D  3098               	movlw	152
  6516  034E  2C82               	goto	L68
  6517  034F                     i1l5976:	
  6518                           ;2_3DIM.c: 579: case '3':
  6519                           
  6520                           
  6521                           ;2_3DIM.c: 580: TMR3H=0x9A; TMR3L=0x70; T3CONbits.TMR3ON = 1; break;
  6522  034F  309A               	movlw	154
  6523  0350  2C19               	goto	L84
  6524  0351                     i1l5980:	
  6525                           ;2_3DIM.c: 581: case '4':
  6526                           
  6527                           
  6528                           ;2_3DIM.c: 582: TMR3H=0x9C; TMR3L=0x00; T3CONbits.TMR3ON = 1; break;
  6529  0351  309C               	movlw	156
  6530  0352  2C23               	goto	L85
  6531  0353                     i1l5986:	
  6532                           ;2_3DIM.c: 583: case '5':
  6533                           
  6534                           
  6535                           ;2_3DIM.c: 584: TMR3H=0x9D; TMR3L=0x90; T3CONbits.TMR3ON = 1; break;
  6536  0353  309D               	movlw	157
  6537  0354  2C28               	goto	L86
  6538  0355                     i1l5990:	
  6539                           ;2_3DIM.c: 585: case '6':
  6540                           
  6541                           
  6542                           ;2_3DIM.c: 586: TMR3H=0x9F; TMR3L=0x20; T3CONbits.TMR3ON = 1; break;
  6543  0355  309F               	movlw	159
  6544  0356  2C2D               	goto	L87
  6545  0357                     i1l5994:	
  6546                           ;2_3DIM.c: 587: case '7':
  6547                           
  6548                           
  6549                           ;2_3DIM.c: 588: TMR3H=0xA0; TMR3L=0xB0; T3CONbits.TMR3ON = 1; break;
  6550  0357  30A0               	movlw	160
  6551  0358  2C32               	goto	L88
  6552  0359                     i1l5998:	
  6553                           ;2_3DIM.c: 589: case '8':
  6554                           
  6555                           
  6556                           ;2_3DIM.c: 590: TMR3H=0xA2; TMR3L=0x40; T3CONbits.TMR3ON = 1; break;
  6557  0359  30A2               	movlw	162
  6558  035A  2C3C               	goto	L89
  6559  035B                     i1l6002:	
  6560                           ;2_3DIM.c: 591: case '9':
  6561                           
  6562                           
  6563                           ;2_3DIM.c: 592: TMR3H=0xA3; TMR3L=0xD0; T3CONbits.TMR3ON = 1; break;
  6564  035B  30A3               	movlw	163
  6565  035C  2C55               	goto	L90
  6566  035D                     i1l6008:	
  6567                           ;2_3DIM.c: 595: }
  6568                           
  6569                           ;2_3DIM.c: 594: break;
  6570                           
  6571                           ;2_3DIM.c: 593: default:
  6572                           
  6573                           
  6574                           ; Switch on 2 bytes has been partitioned into a top level switch of size 1, and 1 sub-sw
      +                          itches
  6575                           ; Switch size 1, requested type "space"
  6576                           ; Number of cases is 1, Range of values is 0 to 0
  6577                           ; switch strategies available:
  6578                           ; Name         Instructions Cycles
  6579                           ; simple_byte            4     3 (average)
  6580                           ; direct_byte            8     6 (fixed)
  6581                           ; jumptable            260     6 (fixed)
  6582                           ;	Chosen strategy is simple_byte
  6583  035D  0020               	movlb	0	; select bank0
  6584  035E  0854               	movf	_FAN_SPEED2_1s+1,w
  6585  035F  3A00               	xorlw	0	; case 0
  6586  0360  1903               	skipnz
  6587  0361  2B63               	goto	i1l10714
  6588  0362  2CAF               	goto	i1l421
  6589  0363                     i1l10714:	
  6590                           
  6591                           ; Switch size 1, requested type "space"
  6592                           ; Number of cases is 10, Range of values is 48 to 57
  6593                           ; switch strategies available:
  6594                           ; Name         Instructions Cycles
  6595                           ; direct_byte           29     9 (fixed)
  6596                           ; simple_byte           31    16 (average)
  6597                           ; jumptable            263     9 (fixed)
  6598                           ;	Chosen strategy is direct_byte
  6599  0363  0853               	movf	_FAN_SPEED2_1s,w
  6600  0364  3ED0               	addlw	-48
  6601  0365  1C03               	skipc
  6602  0366  2CAF               	goto	i1l421
  6603  0367  0084               	movwf	4
  6604  0368  300A               	movlw	10
  6605  0369  0204               	subwf	4,w
  6606  036A  1803               	skipnc
  6607  036B  2CAF               	goto	i1l421
  6608  036C  3189               	movlp	high i1S10716
  6609  036D  3504               	lslf	4,w
  6610  036E  3E14               	addlw	low i1S10716
  6611  036F  0082               	movwf	2
  6612                           
  6613                           ;2_3DIM.c: 596: break;
  6614  0370  2CAF               	goto	i1l421
  6615  0371                     i1l6010:	
  6616                           ;2_3DIM.c: 600: {
  6617                           ;2_3DIM.c: 601: case '0':
  6618                           
  6619                           ;2_3DIM.c: 599: switch(FAN_SPEED2_1s)
  6620                           
  6621                           ;2_3DIM.c: 597: case '4':
  6622                           
  6623                           
  6624                           ;2_3DIM.c: 602: TMR3H=0xA5; TMR3L=0x60; T3CONbits.TMR3ON = 1; break;
  6625  0371  30A5               	movlw	165
  6626  0372  2C5A               	goto	L91
  6627  0373                     i1l6014:	
  6628                           ;2_3DIM.c: 603: case '1':
  6629                           
  6630                           
  6631                           ;2_3DIM.c: 604: TMR3H=0xA6; TMR3L=0xF0; T3CONbits.TMR3ON = 1; break;
  6632  0373  30A6               	movlw	166
  6633  0374  2C5F               	goto	L92
  6634  0375                     i1l6018:	
  6635                           ;2_3DIM.c: 605: case '2':
  6636                           
  6637                           
  6638                           ;2_3DIM.c: 606: TMR3H=0xA8; TMR3L=0x80; T3CONbits.TMR3ON = 1; break;
  6639  0375  30A8               	movlw	168
  6640  0376  2C64               	goto	L93
  6641  0377                     i1l6022:	
  6642                           ;2_3DIM.c: 607: case '3':
  6643                           
  6644                           
  6645                           ;2_3DIM.c: 608: TMR3H=0xAA; TMR3L=0x10; T3CONbits.TMR3ON = 1; break;
  6646  0377  30AA               	movlw	170
  6647  0378  2C69               	goto	L94
  6648  0379                     i1l6026:	
  6649                           ;2_3DIM.c: 609: case '4':
  6650                           
  6651                           
  6652                           ;2_3DIM.c: 610: TMR3H=0xAB; TMR3L=0xA0; T3CONbits.TMR3ON = 1; break;
  6653  0379  30AB               	movlw	171
  6654  037A  2C6E               	goto	L95
  6655  037B                     i1l6030:	
  6656                           ;2_3DIM.c: 611: case '5':
  6657                           
  6658                           
  6659                           ;2_3DIM.c: 612: TMR3H=0xAD; TMR3L=0x30; T3CONbits.TMR3ON = 1; break;
  6660  037B  30AD               	movlw	173
  6661  037C  2C73               	goto	L96
  6662  037D                     i1l6034:	
  6663                           ;2_3DIM.c: 613: case '6':
  6664                           
  6665                           
  6666                           ;2_3DIM.c: 614: TMR3H=0xAE; TMR3L=0xC0; T3CONbits.TMR3ON = 1; break;
  6667  037D  30AE               	movlw	174
  6668  037E  2C78               	goto	L97
  6669  037F                     i1l6038:	
  6670                           ;2_3DIM.c: 615: case '7':
  6671                           
  6672                           
  6673                           ;2_3DIM.c: 616: TMR3H=0xB0; TMR3L=0x50; T3CONbits.TMR3ON = 1; break;
  6674  037F  30B0               	movlw	176
  6675  0380  2C7D               	goto	L98
  6676  0381                     i1l6042:	
  6677                           ;2_3DIM.c: 617: case '8':
  6678                           
  6679                           
  6680                           ;2_3DIM.c: 618: TMR3H=0xB1; TMR3L=0xE0; T3CONbits.TMR3ON = 1; break;
  6681  0381  30B1               	movlw	177
  6682  0382  2C82               	goto	L68
  6683  0383                     i1l6046:	
  6684                           ;2_3DIM.c: 619: case '9':
  6685                           
  6686                           
  6687                           ;2_3DIM.c: 620: TMR3H=0xB3; TMR3L=0x70; T3CONbits.TMR3ON = 1; break;
  6688  0383  30B3               	movlw	179
  6689  0384  2C19               	goto	L84
  6690  0385                     i1l6052:	
  6691                           ;2_3DIM.c: 623: }
  6692                           
  6693                           ;2_3DIM.c: 622: break;
  6694                           
  6695                           ;2_3DIM.c: 621: default:
  6696                           
  6697                           
  6698                           ; Switch on 2 bytes has been partitioned into a top level switch of size 1, and 1 sub-sw
      +                          itches
  6699                           ; Switch size 1, requested type "space"
  6700                           ; Number of cases is 1, Range of values is 0 to 0
  6701                           ; switch strategies available:
  6702                           ; Name         Instructions Cycles
  6703                           ; simple_byte            4     3 (average)
  6704                           ; direct_byte            8     6 (fixed)
  6705                           ; jumptable            260     6 (fixed)
  6706                           ;	Chosen strategy is simple_byte
  6707  0385  0020               	movlb	0	; select bank0
  6708  0386  0854               	movf	_FAN_SPEED2_1s+1,w
  6709  0387  3A00               	xorlw	0	; case 0
  6710  0388  1903               	skipnz
  6711  0389  2B8B               	goto	i1l10718
  6712  038A  2CAF               	goto	i1l421
  6713  038B                     i1l10718:	
  6714                           
  6715                           ; Switch size 1, requested type "space"
  6716                           ; Number of cases is 10, Range of values is 48 to 57
  6717                           ; switch strategies available:
  6718                           ; Name         Instructions Cycles
  6719                           ; direct_byte           29     9 (fixed)
  6720                           ; simple_byte           31    16 (average)
  6721                           ; jumptable            263     9 (fixed)
  6722                           ;	Chosen strategy is direct_byte
  6723  038B  0853               	movf	_FAN_SPEED2_1s,w
  6724  038C  3ED0               	addlw	-48
  6725  038D  1C03               	skipc
  6726  038E  2CAF               	goto	i1l421
  6727  038F  0084               	movwf	4
  6728  0390  300A               	movlw	10
  6729  0391  0204               	subwf	4,w
  6730  0392  1803               	skipnc
  6731  0393  2CAF               	goto	i1l421
  6732  0394  3189               	movlp	high i1S10720
  6733  0395  3504               	lslf	4,w
  6734  0396  3E28               	addlw	low i1S10720
  6735  0397  0082               	movwf	2
  6736                           
  6737                           ;2_3DIM.c: 624: break;
  6738  0398  2CAF               	goto	i1l421
  6739  0399                     i1l6054:	
  6740                           ;2_3DIM.c: 628: {
  6741                           ;2_3DIM.c: 629: case '0':
  6742                           
  6743                           ;2_3DIM.c: 627: switch(FAN_SPEED2_1s)
  6744                           
  6745                           ;2_3DIM.c: 625: case '5':
  6746                           
  6747                           
  6748                           ;2_3DIM.c: 630: TMR3H=0xB5; TMR3L=0x00; T3CONbits.TMR3ON = 1; break;
  6749  0399  30B5               	movlw	181
  6750  039A  2C23               	goto	L85
  6751  039B                     i1l6060:	
  6752                           ;2_3DIM.c: 631: case '1':
  6753                           
  6754                           
  6755                           ;2_3DIM.c: 632: TMR3H=0xB6; TMR3L=0x90; T3CONbits.TMR3ON = 1; break;
  6756  039B  30B6               	movlw	182
  6757  039C  2C28               	goto	L86
  6758  039D                     i1l6064:	
  6759                           ;2_3DIM.c: 633: case '2':
  6760                           
  6761                           
  6762                           ;2_3DIM.c: 634: TMR3H=0xB8; TMR3L=0x20; T3CONbits.TMR3ON = 1; break;
  6763  039D  30B8               	movlw	184
  6764  039E  2C2D               	goto	L87
  6765  039F                     i1l6068:	
  6766                           ;2_3DIM.c: 635: case '3':
  6767                           
  6768                           
  6769                           ;2_3DIM.c: 636: TMR3H=0xB9; TMR3L=0xB0; T3CONbits.TMR3ON = 1; break;
  6770  039F  30B9               	movlw	185
  6771  03A0  2C32               	goto	L88
  6772  03A1                     i1l6072:	
  6773                           ;2_3DIM.c: 637: case '4':
  6774                           
  6775                           
  6776                           ;2_3DIM.c: 638: TMR3H=0xBB; TMR3L=0x40; T3CONbits.TMR3ON = 1; break;
  6777  03A1  30BB               	movlw	187
  6778  03A2  2C3C               	goto	L89
  6779  03A3                     i1l6076:	
  6780                           ;2_3DIM.c: 639: case '5':
  6781                           
  6782                           
  6783                           ;2_3DIM.c: 640: TMR3H=0xBC; TMR3L=0xD0; T3CONbits.TMR3ON = 1; break;
  6784  03A3  30BC               	movlw	188
  6785  03A4  2C55               	goto	L90
  6786  03A5                     i1l6080:	
  6787                           ;2_3DIM.c: 641: case '6':
  6788                           
  6789                           
  6790                           ;2_3DIM.c: 642: TMR3H=0xBE; TMR3L=0x60; T3CONbits.TMR3ON = 1; break;
  6791  03A5  30BE               	movlw	190
  6792  03A6  2C5A               	goto	L91
  6793  03A7                     i1l6084:	
  6794                           ;2_3DIM.c: 643: case '7':
  6795                           
  6796                           
  6797                           ;2_3DIM.c: 644: TMR3H=0xBF; TMR3L=0xF0; T3CONbits.TMR3ON = 1; break;
  6798  03A7  30BF               	movlw	191
  6799  03A8  2C5F               	goto	L92
  6800  03A9                     i1l6088:	
  6801                           ;2_3DIM.c: 645: case '8':
  6802                           
  6803                           
  6804                           ;2_3DIM.c: 646: TMR3H=0xC1; TMR3L=0x80; T3CONbits.TMR3ON = 1; break;
  6805  03A9  30C1               	movlw	193
  6806  03AA  2C64               	goto	L93
  6807  03AB                     i1l6092:	
  6808                           ;2_3DIM.c: 647: case '9':
  6809                           
  6810                           
  6811                           ;2_3DIM.c: 648: TMR3H=0xC3; TMR3L=0x10; T3CONbits.TMR3ON = 1; break;
  6812  03AB  30C3               	movlw	195
  6813  03AC  2C69               	goto	L94
  6814  03AD                     i1l6098:	
  6815                           ;2_3DIM.c: 651: }
  6816                           
  6817                           ;2_3DIM.c: 650: break;
  6818                           
  6819                           ;2_3DIM.c: 649: default:
  6820                           
  6821                           
  6822                           ; Switch on 2 bytes has been partitioned into a top level switch of size 1, and 1 sub-sw
      +                          itches
  6823                           ; Switch size 1, requested type "space"
  6824                           ; Number of cases is 1, Range of values is 0 to 0
  6825                           ; switch strategies available:
  6826                           ; Name         Instructions Cycles
  6827                           ; simple_byte            4     3 (average)
  6828                           ; direct_byte            8     6 (fixed)
  6829                           ; jumptable            260     6 (fixed)
  6830                           ;	Chosen strategy is simple_byte
  6831  03AD  0020               	movlb	0	; select bank0
  6832  03AE  0854               	movf	_FAN_SPEED2_1s+1,w
  6833  03AF  3A00               	xorlw	0	; case 0
  6834  03B0  1903               	skipnz
  6835  03B1  2BB3               	goto	i1l10722
  6836  03B2  2CAF               	goto	i1l421
  6837  03B3                     i1l10722:	
  6838                           
  6839                           ; Switch size 1, requested type "space"
  6840                           ; Number of cases is 10, Range of values is 48 to 57
  6841                           ; switch strategies available:
  6842                           ; Name         Instructions Cycles
  6843                           ; direct_byte           29     9 (fixed)
  6844                           ; simple_byte           31    16 (average)
  6845                           ; jumptable            263     9 (fixed)
  6846                           ;	Chosen strategy is direct_byte
  6847  03B3  0853               	movf	_FAN_SPEED2_1s,w
  6848  03B4  3ED0               	addlw	-48
  6849  03B5  1C03               	skipc
  6850  03B6  2CAF               	goto	i1l421
  6851  03B7  0084               	movwf	4
  6852  03B8  300A               	movlw	10
  6853  03B9  0204               	subwf	4,w
  6854  03BA  1803               	skipnc
  6855  03BB  2CAF               	goto	i1l421
  6856  03BC  3189               	movlp	high i1S10724
  6857  03BD  3504               	lslf	4,w
  6858  03BE  3E3C               	addlw	low i1S10724
  6859  03BF  0082               	movwf	2
  6860                           
  6861                           ;2_3DIM.c: 652: break;
  6862  03C0  2CAF               	goto	i1l421
  6863  03C1                     i1l6100:	
  6864                           ;2_3DIM.c: 656: {
  6865                           ;2_3DIM.c: 657: case '0':
  6866                           
  6867                           ;2_3DIM.c: 655: switch(FAN_SPEED2_1s)
  6868                           
  6869                           ;2_3DIM.c: 653: case '6':
  6870                           
  6871                           
  6872                           ;2_3DIM.c: 658: TMR3H=0xC4; TMR3L=0xA0; T3CONbits.TMR3ON = 1; break;
  6873  03C1  30C4               	movlw	196
  6874  03C2  2C6E               	goto	L95
  6875  03C3                     i1l6104:	
  6876                           ;2_3DIM.c: 659: case '1':
  6877                           
  6878                           
  6879                           ;2_3DIM.c: 660: TMR3H=0xC6; TMR3L=0x30; T3CONbits.TMR3ON = 1; break;
  6880  03C3  30C6               	movlw	198
  6881  03C4  2C73               	goto	L96
  6882  03C5                     i1l6108:	
  6883                           ;2_3DIM.c: 661: case '2':
  6884                           
  6885                           
  6886                           ;2_3DIM.c: 662: TMR3H=0xC7; TMR3L=0xC0; T3CONbits.TMR3ON = 1; break;
  6887  03C5  30C7               	movlw	199
  6888  03C6  2C78               	goto	L97
  6889  03C7                     i1l6112:	
  6890                           ;2_3DIM.c: 663: case '3':
  6891                           
  6892                           
  6893                           ;2_3DIM.c: 664: TMR3H=0xC9; TMR3L=0x50; T3CONbits.TMR3ON = 1; break;
  6894  03C7  30C9               	movlw	201
  6895  03C8  2C7D               	goto	L98
  6896  03C9                     i1l6116:	
  6897                           ;2_3DIM.c: 665: case '4':
  6898                           
  6899                           
  6900                           ;2_3DIM.c: 666: TMR3H=0xCA; TMR3L=0xE0; T3CONbits.TMR3ON = 1; break;
  6901  03C9  30CA               	movlw	202
  6902  03CA  2C82               	goto	L68
  6903  03CB                     i1l6120:	
  6904                           ;2_3DIM.c: 667: case '5':
  6905                           
  6906                           
  6907                           ;2_3DIM.c: 668: TMR3H=0xCC; TMR3L=0x70; T3CONbits.TMR3ON = 1; break;
  6908  03CB  30CC               	movlw	204
  6909  03CC  2C19               	goto	L84
  6910  03CD                     i1l6124:	
  6911                           ;2_3DIM.c: 669: case '6':
  6912                           
  6913                           
  6914                           ;2_3DIM.c: 670: TMR3H=0xCE; TMR3L=0x00; T3CONbits.TMR3ON = 1; break;
  6915  03CD  30CE               	movlw	206
  6916  03CE  2C23               	goto	L85
  6917  03CF                     i1l6130:	
  6918                           ;2_3DIM.c: 671: case '7':
  6919                           
  6920                           
  6921                           ;2_3DIM.c: 672: TMR3H=0xCF; TMR3L=0x90; T3CONbits.TMR3ON = 1; break;
  6922  03CF  30CF               	movlw	207
  6923  03D0  2C28               	goto	L86
  6924  03D1                     i1l6134:	
  6925                           ;2_3DIM.c: 673: case '8':
  6926                           
  6927                           
  6928                           ;2_3DIM.c: 674: TMR3H=0xD1; TMR3L=0x20; T3CONbits.TMR3ON = 1; break;
  6929  03D1  30D1               	movlw	209
  6930  03D2  2C2D               	goto	L87
  6931  03D3                     i1l6138:	
  6932                           ;2_3DIM.c: 675: case '9':
  6933                           
  6934                           
  6935                           ;2_3DIM.c: 676: TMR3H=0xD2; TMR3L=0xB0; T3CONbits.TMR3ON = 1; break;
  6936  03D3  30D2               	movlw	210
  6937  03D4  2C32               	goto	L88
  6938  03D5                     i1l6144:	
  6939                           ;2_3DIM.c: 679: }
  6940                           
  6941                           ;2_3DIM.c: 678: break;
  6942                           
  6943                           ;2_3DIM.c: 677: default:
  6944                           
  6945                           
  6946                           ; Switch on 2 bytes has been partitioned into a top level switch of size 1, and 1 sub-sw
      +                          itches
  6947                           ; Switch size 1, requested type "space"
  6948                           ; Number of cases is 1, Range of values is 0 to 0
  6949                           ; switch strategies available:
  6950                           ; Name         Instructions Cycles
  6951                           ; simple_byte            4     3 (average)
  6952                           ; direct_byte            8     6 (fixed)
  6953                           ; jumptable            260     6 (fixed)
  6954                           ;	Chosen strategy is simple_byte
  6955  03D5  0020               	movlb	0	; select bank0
  6956  03D6  0854               	movf	_FAN_SPEED2_1s+1,w
  6957  03D7  3A00               	xorlw	0	; case 0
  6958  03D8  1903               	skipnz
  6959  03D9  2BDB               	goto	i1l10726
  6960  03DA  2CAF               	goto	i1l421
  6961  03DB                     i1l10726:	
  6962                           
  6963                           ; Switch size 1, requested type "space"
  6964                           ; Number of cases is 10, Range of values is 48 to 57
  6965                           ; switch strategies available:
  6966                           ; Name         Instructions Cycles
  6967                           ; direct_byte           29     9 (fixed)
  6968                           ; simple_byte           31    16 (average)
  6969                           ; jumptable            263     9 (fixed)
  6970                           ;	Chosen strategy is direct_byte
  6971  03DB  0853               	movf	_FAN_SPEED2_1s,w
  6972  03DC  3ED0               	addlw	-48
  6973  03DD  1C03               	skipc
  6974  03DE  2CAF               	goto	i1l421
  6975  03DF  0084               	movwf	4
  6976  03E0  300A               	movlw	10
  6977  03E1  0204               	subwf	4,w
  6978  03E2  1803               	skipnc
  6979  03E3  2CAF               	goto	i1l421
  6980  03E4  3189               	movlp	high i1S10728
  6981  03E5  3504               	lslf	4,w
  6982  03E6  3E50               	addlw	low i1S10728
  6983  03E7  0082               	movwf	2
  6984                           
  6985                           ;2_3DIM.c: 680: break;
  6986  03E8  2CAF               	goto	i1l421
  6987  03E9                     i1l6146:	
  6988                           ;2_3DIM.c: 684: {
  6989                           ;2_3DIM.c: 685: case '0':
  6990                           
  6991                           ;2_3DIM.c: 683: switch(FAN_SPEED2_1s)
  6992                           
  6993                           ;2_3DIM.c: 681: case '7':
  6994                           
  6995                           
  6996                           ;2_3DIM.c: 686: TMR3H=0xD4; TMR3L=0x40; T3CONbits.TMR3ON = 1; break;
  6997  03E9  30D4               	movlw	212
  6998  03EA  2C3C               	goto	L89
  6999  03EB                     i1l6150:	
  7000                           ;2_3DIM.c: 687: case '1':
  7001                           
  7002                           
  7003                           ;2_3DIM.c: 688: TMR3H=0xD5; TMR3L=0xD0; T3CONbits.TMR3ON = 1; break;
  7004  03EB  30D5               	movlw	213
  7005  03EC  2C55               	goto	L90
  7006  03ED                     i1l6154:	
  7007                           ;2_3DIM.c: 689: case '2':
  7008                           
  7009                           
  7010                           ;2_3DIM.c: 690: TMR3H=0xD7; TMR3L=0x60; T3CONbits.TMR3ON = 1; break;
  7011  03ED  30D7               	movlw	215
  7012  03EE  2C5A               	goto	L91
  7013  03EF                     i1l6158:	
  7014                           ;2_3DIM.c: 691: case '3':
  7015                           
  7016                           
  7017                           ;2_3DIM.c: 692: TMR3H=0xD8; TMR3L=0xF0; T3CONbits.TMR3ON = 1; break;
  7018  03EF  30D8               	movlw	216
  7019  03F0  2C5F               	goto	L92
  7020  03F1                     i1l6162:	
  7021                           ;2_3DIM.c: 693: case '4':
  7022                           
  7023                           
  7024                           ;2_3DIM.c: 694: TMR3H=0xDA; TMR3L=0x80; T3CONbits.TMR3ON = 1; break;
  7025  03F1  30DA               	movlw	218
  7026  03F2  2C64               	goto	L93
  7027  03F3                     i1l6166:	
  7028                           ;2_3DIM.c: 695: case '5':
  7029                           
  7030                           
  7031                           ;2_3DIM.c: 696: TMR3H=0xDC; TMR3L=0x10; T3CONbits.TMR3ON = 1; break;
  7032  03F3  30DC               	movlw	220
  7033  03F4  2C69               	goto	L94
  7034  03F5                     i1l6170:	
  7035                           ;2_3DIM.c: 697: case '6':
  7036                           
  7037                           
  7038                           ;2_3DIM.c: 698: TMR3H=0xDD; TMR3L=0xA0; T3CONbits.TMR3ON = 1; break;
  7039  03F5  30DD               	movlw	221
  7040  03F6  2C6E               	goto	L95
  7041  03F7                     i1l6174:	
  7042                           ;2_3DIM.c: 699: case '7':
  7043                           
  7044                           
  7045                           ;2_3DIM.c: 700: TMR3H=0xDF; TMR3L=0x30; T3CONbits.TMR3ON = 1; break;
  7046  03F7  30DF               	movlw	223
  7047  03F8  2C73               	goto	L96
  7048  03F9                     i1l6178:	
  7049                           ;2_3DIM.c: 701: case '8':
  7050                           
  7051                           
  7052                           ;2_3DIM.c: 702: TMR3H=0xE0; TMR3L=0xC0; T3CONbits.TMR3ON = 1; break;
  7053  03F9  30E0               	movlw	224
  7054  03FA  2C78               	goto	L97
  7055  03FB                     i1l6182:	
  7056                           ;2_3DIM.c: 703: case '9':
  7057                           
  7058                           
  7059                           ;2_3DIM.c: 704: TMR3H=0xE2; TMR3L=0x50; T3CONbits.TMR3ON = 1; break;
  7060  03FB  30E2               	movlw	226
  7061  03FC  2C7D               	goto	L98
  7062  03FD                     i1l6188:	
  7063                           ;2_3DIM.c: 707: }
  7064                           
  7065                           ;2_3DIM.c: 706: break;
  7066                           
  7067                           ;2_3DIM.c: 705: default:
  7068                           
  7069                           
  7070                           ; Switch on 2 bytes has been partitioned into a top level switch of size 1, and 1 sub-sw
      +                          itches
  7071                           ; Switch size 1, requested type "space"
  7072                           ; Number of cases is 1, Range of values is 0 to 0
  7073                           ; switch strategies available:
  7074                           ; Name         Instructions Cycles
  7075                           ; simple_byte            4     3 (average)
  7076                           ; direct_byte            8     6 (fixed)
  7077                           ; jumptable            260     6 (fixed)
  7078                           ;	Chosen strategy is simple_byte
  7079  03FD  0020               	movlb	0	; select bank0
  7080  03FE  0854               	movf	_FAN_SPEED2_1s+1,w
  7081  03FF  3A00               	xorlw	0	; case 0
  7082  0400  1903               	skipnz
  7083  0401  2C03               	goto	i1l10730
  7084  0402  2CAF               	goto	i1l421
  7085  0403                     i1l10730:	
  7086                           
  7087                           ; Switch size 1, requested type "space"
  7088                           ; Number of cases is 10, Range of values is 48 to 57
  7089                           ; switch strategies available:
  7090                           ; Name         Instructions Cycles
  7091                           ; direct_byte           29     9 (fixed)
  7092                           ; simple_byte           31    16 (average)
  7093                           ; jumptable            263     9 (fixed)
  7094                           ;	Chosen strategy is direct_byte
  7095  0403  0853               	movf	_FAN_SPEED2_1s,w
  7096  0404  3ED0               	addlw	-48
  7097  0405  1C03               	skipc
  7098  0406  2CAF               	goto	i1l421
  7099  0407  0084               	movwf	4
  7100  0408  300A               	movlw	10
  7101  0409  0204               	subwf	4,w
  7102  040A  1803               	skipnc
  7103  040B  2CAF               	goto	i1l421
  7104  040C  3189               	movlp	high i1S10732
  7105  040D  3504               	lslf	4,w
  7106  040E  3E64               	addlw	low i1S10732
  7107  040F  0082               	movwf	2
  7108                           
  7109                           ;2_3DIM.c: 708: break;
  7110  0410  2CAF               	goto	i1l421
  7111  0411                     i1l6190:	
  7112                           ;2_3DIM.c: 712: {
  7113                           ;2_3DIM.c: 713: case '0':
  7114                           
  7115                           ;2_3DIM.c: 711: switch(FAN_SPEED2_1s)
  7116                           
  7117                           ;2_3DIM.c: 709: case '8':
  7118                           
  7119                           
  7120                           ;2_3DIM.c: 714: TMR3H=0xE3; TMR3L=0xE0; T3CONbits.TMR3ON = 1; break;
  7121  0411  30E3               	movlw	227
  7122  0412  2C82               	goto	L68
  7123  0413                     i1l6194:	
  7124                           ;2_3DIM.c: 715: case '1':
  7125                           
  7126                           
  7127                           ;2_3DIM.c: 716: TMR3H=0xE4; TMR3L=0xA8; T3CONbits.TMR3ON = 1; break;
  7128  0413  30E4               	movlw	228
  7129  0414                     L152:	
  7130  0414  0028               	movlb	8	; select bank8
  7131  0415  0092               	movwf	18	;volatile
  7132  0416  30A8               	movlw	168
  7133  0417  2C85               	goto	L5
  7134  0418                     i1l6198:	
  7135                           ;2_3DIM.c: 717: case '2':
  7136                           
  7137                           
  7138                           ;2_3DIM.c: 718: TMR3H=0xE5; TMR3L=0x70; T3CONbits.TMR3ON = 1; break;
  7139  0418  30E5               	movlw	229
  7140  0419                     L84:	
  7141  0419  0028               	movlb	8	; select bank8
  7142  041A  0092               	movwf	18	;volatile
  7143  041B  3070               	movlw	112
  7144  041C  2C85               	goto	L5
  7145  041D                     i1l6202:	
  7146                           ;2_3DIM.c: 719: case '3':
  7147                           
  7148                           
  7149                           ;2_3DIM.c: 720: TMR3H=0xE6; TMR3L=0x38; T3CONbits.TMR3ON = 1; break;
  7150  041D  30E6               	movlw	230
  7151  041E  0028               	movlb	8	; select bank8
  7152  041F  0092               	movwf	18	;volatile
  7153  0420  3038               	movlw	56
  7154  0421  2C85               	goto	L5
  7155  0422                     i1l6206:	
  7156                           ;2_3DIM.c: 721: case '4':
  7157                           
  7158                           
  7159                           ;2_3DIM.c: 722: TMR3H=0xE7; TMR3L=0x00; T3CONbits.TMR3ON = 1; break;
  7160  0422  30E7               	movlw	231
  7161  0423                     L85:	
  7162  0423  0028               	movlb	8	; select bank8
  7163  0424  0092               	movwf	18	;volatile
  7164  0425  0191               	clrf	17	;volatile
  7165  0426  2C86               	goto	i1l6274
  7166  0427                     i1l6212:	
  7167                           ;2_3DIM.c: 723: case '5':
  7168                           
  7169                           
  7170                           ;2_3DIM.c: 724: TMR3H=0xE8; TMR3L=0x90; T3CONbits.TMR3ON = 1; break;
  7171  0427  30E8               	movlw	232
  7172  0428                     L86:	
  7173  0428  0028               	movlb	8	; select bank8
  7174  0429  0092               	movwf	18	;volatile
  7175  042A  3090               	movlw	144
  7176  042B  2C85               	goto	L5
  7177  042C                     i1l6216:	
  7178                           ;2_3DIM.c: 725: case '6':
  7179                           
  7180                           
  7181                           ;2_3DIM.c: 726: TMR3H=0xEA; TMR3L=0x20; T3CONbits.TMR3ON = 1; break;
  7182  042C  30EA               	movlw	234
  7183  042D                     L87:	
  7184  042D  0028               	movlb	8	; select bank8
  7185  042E  0092               	movwf	18	;volatile
  7186  042F  3020               	movlw	32
  7187  0430  2C85               	goto	L5
  7188  0431                     i1l6220:	
  7189                           ;2_3DIM.c: 727: case '7':
  7190                           
  7191                           
  7192                           ;2_3DIM.c: 728: TMR3H=0xEB; TMR3L=0xB0; T3CONbits.TMR3ON = 1; break;
  7193  0431  30EB               	movlw	235
  7194  0432                     L88:	
  7195  0432  0028               	movlb	8	; select bank8
  7196  0433  0092               	movwf	18	;volatile
  7197  0434  30B0               	movlw	176
  7198  0435  2C85               	goto	L5
  7199  0436                     i1l6224:	
  7200                           ;2_3DIM.c: 729: case '8':
  7201                           
  7202                           
  7203                           ;2_3DIM.c: 730: TMR3H=0xEC; TMR3L=0x78; T3CONbits.TMR3ON = 1; break;
  7204  0436  30EC               	movlw	236
  7205  0437                     L154:	
  7206  0437  0028               	movlb	8	; select bank8
  7207  0438  0092               	movwf	18	;volatile
  7208  0439  3078               	movlw	120
  7209  043A  2C85               	goto	L5
  7210  043B                     i1l6228:	
  7211                           ;2_3DIM.c: 731: case '9':
  7212                           
  7213                           
  7214                           ;2_3DIM.c: 732: TMR3H=0xED; TMR3L=0x40; T3CONbits.TMR3ON = 1; break;
  7215  043B  30ED               	movlw	237
  7216  043C                     L89:	
  7217  043C  0028               	movlb	8	; select bank8
  7218  043D  0092               	movwf	18	;volatile
  7219  043E  3040               	movlw	64
  7220  043F  2C85               	goto	L5
  7221  0440                     i1l6234:	
  7222                           ;2_3DIM.c: 735: }
  7223                           
  7224                           ;2_3DIM.c: 734: break;
  7225                           
  7226                           ;2_3DIM.c: 733: default:
  7227                           
  7228                           
  7229                           ; Switch on 2 bytes has been partitioned into a top level switch of size 1, and 1 sub-sw
      +                          itches
  7230                           ; Switch size 1, requested type "space"
  7231                           ; Number of cases is 1, Range of values is 0 to 0
  7232                           ; switch strategies available:
  7233                           ; Name         Instructions Cycles
  7234                           ; simple_byte            4     3 (average)
  7235                           ; direct_byte            8     6 (fixed)
  7236                           ; jumptable            260     6 (fixed)
  7237                           ;	Chosen strategy is simple_byte
  7238  0440  0020               	movlb	0	; select bank0
  7239  0441  0854               	movf	_FAN_SPEED2_1s+1,w
  7240  0442  3A00               	xorlw	0	; case 0
  7241  0443  1903               	skipnz
  7242  0444  2C46               	goto	i1l10734
  7243  0445  2CAF               	goto	i1l421
  7244  0446                     i1l10734:	
  7245                           
  7246                           ; Switch size 1, requested type "space"
  7247                           ; Number of cases is 10, Range of values is 48 to 57
  7248                           ; switch strategies available:
  7249                           ; Name         Instructions Cycles
  7250                           ; direct_byte           29     9 (fixed)
  7251                           ; simple_byte           31    16 (average)
  7252                           ; jumptable            263     9 (fixed)
  7253                           ;	Chosen strategy is direct_byte
  7254  0446  0853               	movf	_FAN_SPEED2_1s,w
  7255  0447  3ED0               	addlw	-48
  7256  0448  1C03               	skipc
  7257  0449  2CAF               	goto	i1l421
  7258  044A  0084               	movwf	4
  7259  044B  300A               	movlw	10
  7260  044C  0204               	subwf	4,w
  7261  044D  1803               	skipnc
  7262  044E  2CAF               	goto	i1l421
  7263  044F  3189               	movlp	high i1S10736
  7264  0450  3504               	lslf	4,w
  7265  0451  3E78               	addlw	low i1S10736
  7266  0452  0082               	movwf	2
  7267                           
  7268                           ;2_3DIM.c: 736: break;
  7269  0453  2CAF               	goto	i1l421
  7270  0454                     i1l6236:	
  7271                           ;2_3DIM.c: 740: {
  7272                           ;2_3DIM.c: 741: case '0':
  7273                           
  7274                           ;2_3DIM.c: 739: switch(FAN_SPEED2_1s)
  7275                           
  7276                           ;2_3DIM.c: 737: case '9':
  7277                           
  7278                           
  7279                           ;2_3DIM.c: 742: TMR3H=0xEE; TMR3L=0xD0; T3CONbits.TMR3ON = 1; break;
  7280  0454  30EE               	movlw	238
  7281  0455                     L90:	
  7282  0455  0028               	movlb	8	; select bank8
  7283  0456  0092               	movwf	18	;volatile
  7284  0457  30D0               	movlw	208
  7285  0458  2C85               	goto	L5
  7286  0459                     i1l6240:	
  7287                           ;2_3DIM.c: 743: case '1':
  7288                           
  7289                           
  7290                           ;2_3DIM.c: 744: TMR3H=0xF0; TMR3L=0x60; T3CONbits.TMR3ON = 1; break;
  7291  0459  30F0               	movlw	240
  7292  045A                     L91:	
  7293  045A  0028               	movlb	8	; select bank8
  7294  045B  0092               	movwf	18	;volatile
  7295  045C  3060               	movlw	96
  7296  045D  2C85               	goto	L5
  7297  045E                     i1l6244:	
  7298                           ;2_3DIM.c: 745: case '2':
  7299                           
  7300                           
  7301                           ;2_3DIM.c: 746: TMR3H=0xF1; TMR3L=0xF0; T3CONbits.TMR3ON = 1; break;
  7302  045E  30F1               	movlw	241
  7303  045F                     L92:	
  7304  045F  0028               	movlb	8	; select bank8
  7305  0460  0092               	movwf	18	;volatile
  7306  0461  30F0               	movlw	240
  7307  0462  2C85               	goto	L5
  7308  0463                     i1l6248:	
  7309                           ;2_3DIM.c: 747: case '3':
  7310                           
  7311                           
  7312                           ;2_3DIM.c: 748: TMR3H=0xF3; TMR3L=0x80; T3CONbits.TMR3ON = 1; break;
  7313  0463  30F3               	movlw	243
  7314  0464                     L93:	
  7315  0464  0028               	movlb	8	; select bank8
  7316  0465  0092               	movwf	18	;volatile
  7317  0466  3080               	movlw	128
  7318  0467  2C85               	goto	L5
  7319  0468                     i1l6252:	
  7320                           ;2_3DIM.c: 749: case '4':
  7321                           
  7322                           
  7323                           ;2_3DIM.c: 750: TMR3H=0xF5; TMR3L=0x10; T3CONbits.TMR3ON = 1; break;
  7324  0468  30F5               	movlw	245
  7325  0469                     L94:	
  7326  0469  0028               	movlb	8	; select bank8
  7327  046A  0092               	movwf	18	;volatile
  7328  046B  3010               	movlw	16
  7329  046C  2C85               	goto	L5
  7330  046D                     i1l6256:	
  7331                           ;2_3DIM.c: 751: case '5':
  7332                           
  7333                           
  7334                           ;2_3DIM.c: 752: TMR3H=0xF6; TMR3L=0xA0; T3CONbits.TMR3ON = 1; break;
  7335  046D  30F6               	movlw	246
  7336  046E                     L95:	
  7337  046E  0028               	movlb	8	; select bank8
  7338  046F  0092               	movwf	18	;volatile
  7339  0470  30A0               	movlw	160
  7340  0471  2C85               	goto	L5
  7341  0472                     i1l6260:	
  7342                           ;2_3DIM.c: 753: case '6':
  7343                           
  7344                           
  7345                           ;2_3DIM.c: 754: TMR3H=0xF8; TMR3L=0x30; T3CONbits.TMR3ON = 1; break;
  7346  0472  30F8               	movlw	248
  7347  0473                     L96:	
  7348  0473  0028               	movlb	8	; select bank8
  7349  0474  0092               	movwf	18	;volatile
  7350  0475  3030               	movlw	48
  7351  0476  2C85               	goto	L5
  7352  0477                     i1l6264:	
  7353                           ;2_3DIM.c: 755: case '7':
  7354                           
  7355                           
  7356                           ;2_3DIM.c: 756: TMR3H=0xF9; TMR3L=0xC0; T3CONbits.TMR3ON = 1; break;
  7357  0477  30F9               	movlw	249
  7358  0478                     L97:	
  7359  0478  0028               	movlb	8	; select bank8
  7360  0479  0092               	movwf	18	;volatile
  7361  047A  30C0               	movlw	192
  7362  047B  2C85               	goto	L5
  7363  047C                     i1l6268:	
  7364                           ;2_3DIM.c: 757: case '8':
  7365                           
  7366                           
  7367                           ;2_3DIM.c: 758: TMR3H=0xFB; TMR3L=0x50; T3CONbits.TMR3ON = 1; break;
  7368  047C  30FB               	movlw	251
  7369  047D                     L98:	
  7370  047D  0028               	movlb	8	; select bank8
  7371  047E  0092               	movwf	18	;volatile
  7372  047F  3050               	movlw	80
  7373  0480  2C85               	goto	L5
  7374  0481                     i1l6272:	
  7375                           ;2_3DIM.c: 759: case '9':
  7376                           
  7377                           
  7378                           ;2_3DIM.c: 760: TMR3H=0xFC; TMR3L=0xE0; T3CONbits.TMR3ON = 1; break;
  7379  0481  30FC               	movlw	252
  7380  0482                     L68:	
  7381  0482  0028               	movlb	8	; select bank8
  7382  0483  0092               	movwf	18	;volatile
  7383  0484  30E0               	movlw	224
  7384  0485                     L5:	
  7385  0485  0091               	movwf	17	;volatile
  7386  0486                     i1l6274:	
  7387  0486  1413               	bsf	19,0	;volatile
  7388                           
  7389                           ;2_3DIM.c: 763: }
  7390                           
  7391                           ;2_3DIM.c: 762: break;
  7392                           
  7393                           ;2_3DIM.c: 761: default:
  7394  0487  2CAF               	goto	i1l421
  7395  0488                     i1l6278:	
  7396                           
  7397                           ; Switch on 2 bytes has been partitioned into a top level switch of size 1, and 1 sub-sw
      +                          itches
  7398                           ; Switch size 1, requested type "space"
  7399                           ; Number of cases is 1, Range of values is 0 to 0
  7400                           ; switch strategies available:
  7401                           ; Name         Instructions Cycles
  7402                           ; simple_byte            4     3 (average)
  7403                           ; direct_byte            8     6 (fixed)
  7404                           ; jumptable            260     6 (fixed)
  7405                           ;	Chosen strategy is simple_byte
  7406  0488  0020               	movlb	0	; select bank0
  7407  0489  0854               	movf	_FAN_SPEED2_1s+1,w
  7408  048A  3A00               	xorlw	0	; case 0
  7409  048B  1903               	skipnz
  7410  048C  2C8E               	goto	i1l10738
  7411  048D  2CAF               	goto	i1l421
  7412  048E                     i1l10738:	
  7413                           
  7414                           ; Switch size 1, requested type "space"
  7415                           ; Number of cases is 10, Range of values is 48 to 57
  7416                           ; switch strategies available:
  7417                           ; Name         Instructions Cycles
  7418                           ; direct_byte           29     9 (fixed)
  7419                           ; simple_byte           31    16 (average)
  7420                           ; jumptable            263     9 (fixed)
  7421                           ;	Chosen strategy is direct_byte
  7422  048E  0853               	movf	_FAN_SPEED2_1s,w
  7423  048F  3ED0               	addlw	-48
  7424  0490  1C03               	skipc
  7425  0491  2CAF               	goto	i1l421
  7426  0492  0084               	movwf	4
  7427  0493  300A               	movlw	10
  7428  0494  0204               	subwf	4,w
  7429  0495  1803               	skipnc
  7430  0496  2CAF               	goto	i1l421
  7431  0497  3189               	movlp	high i1S10740
  7432  0498  3504               	lslf	4,w
  7433  0499  3E8C               	addlw	low i1S10740
  7434  049A  0082               	movwf	2
  7435                           
  7436                           ;2_3DIM.c: 767: }
  7437                           
  7438                           ;2_3DIM.c: 766: break;
  7439                           
  7440                           ;2_3DIM.c: 765: default:
  7441                           
  7442                           ;2_3DIM.c: 764: break;
  7443  049B  2CAF               	goto	i1l421
  7444  049C                     i1l6282:	
  7445                           
  7446                           ; Switch on 2 bytes has been partitioned into a top level switch of size 1, and 1 sub-sw
      +                          itches
  7447                           ; Switch size 1, requested type "space"
  7448                           ; Number of cases is 1, Range of values is 0 to 0
  7449                           ; switch strategies available:
  7450                           ; Name         Instructions Cycles
  7451                           ; simple_byte            4     3 (average)
  7452                           ; direct_byte            8     6 (fixed)
  7453                           ; jumptable            260     6 (fixed)
  7454                           ;	Chosen strategy is simple_byte
  7455  049C  0021               	movlb	1	; select bank1
  7456  049D  0869               	movf	(_FAN_SPEED2_10s+1)^(0+128),w
  7457  049E  3A00               	xorlw	0	; case 0
  7458  049F  1903               	skipnz
  7459  04A0  2CA2               	goto	i1l10742
  7460  04A1  2CAF               	goto	i1l421
  7461  04A2                     i1l10742:	
  7462                           
  7463                           ; Switch size 1, requested type "space"
  7464                           ; Number of cases is 10, Range of values is 48 to 57
  7465                           ; switch strategies available:
  7466                           ; Name         Instructions Cycles
  7467                           ; direct_byte           29     9 (fixed)
  7468                           ; simple_byte           31    16 (average)
  7469                           ; jumptable            263     9 (fixed)
  7470                           ;	Chosen strategy is direct_byte
  7471  04A2  0868               	movf	_FAN_SPEED2_10s^(0+128),w
  7472  04A3  3ED0               	addlw	-48
  7473  04A4  1C03               	skipc
  7474  04A5  2CAF               	goto	i1l421
  7475  04A6  0084               	movwf	4
  7476  04A7  300A               	movlw	10
  7477  04A8  0204               	subwf	4,w
  7478  04A9  1803               	skipnc
  7479  04AA  2CAF               	goto	i1l421
  7480  04AB  3189               	movlp	high i1S10744
  7481  04AC  3504               	lslf	4,w
  7482  04AD  3EA0               	addlw	low i1S10744
  7483  04AE  0082               	movwf	2
  7484  04AF                     i1l421:	
  7485                           
  7486                           ;2_3DIM.c: 768: }
  7487                           ;2_3DIM.c: 769: PIR3bits.CCP3IF = 0;
  7488  04AF  0020               	movlb	0	; select bank0
  7489  04B0  1213               	bcf	19,4	;volatile
  7490  04B1                     i1l420:	
  7491                           
  7492                           ;2_3DIM.c: 770: }
  7493                           ;2_3DIM.c: 772: if(PIR4bits.CCP9IF == 1)
  7494  04B1  1F14               	btfss	20,6	;volatile
  7495  04B2  2EC4               	goto	i1l710
  7496                           
  7497                           ;2_3DIM.c: 773: {
  7498                           ;2_3DIM.c: 774: PIR4bits.CCP9IF=0;
  7499  04B3  1314               	bcf	20,6	;volatile
  7500                           
  7501                           ;2_3DIM.c: 776: if(FAN_FLAG3==1 && tk==1)
  7502  04B4  0021               	movlb	1	; select bank1
  7503  04B5  035E               	decf	_FAN_FLAG3^(0+128),w
  7504  04B6  045F               	iorwf	(_FAN_FLAG3+1)^(0+128),w
  7505  04B7  1D03               	btfss	3,2
  7506  04B8  2EC2               	goto	i1l566
  7507  04B9  037A               	decf	_tk,w
  7508  04BA  047B               	iorwf	_tk+1,w
  7509  04BB  1903               	btfsc	3,2
  7510  04BC  2EAF               	goto	i1l6744
  7511  04BD  2EC2               	goto	i1l566
  7512  04BE                     i1l6292:	
  7513                           ;2_3DIM.c: 783: {
  7514                           ;2_3DIM.c: 784: case '0':
  7515                           
  7516                           ;2_3DIM.c: 782: switch(FAN_SPEED3_1s)
  7517                           
  7518                           ;2_3DIM.c: 779: {
  7519                           ;2_3DIM.c: 780: case '0':
  7520                           
  7521                           ;2_3DIM.c: 777: {
  7522                           ;2_3DIM.c: 778: switch(FAN_SPEED3_10s)
  7523                           
  7524                           
  7525                           ;2_3DIM.c: 785: TMR5H=0x7B; TMR5L=0x30; T5CONbits.TMR5ON = 1; break;
  7526  04BE  307B               	movlw	123
  7527  04BF  2E86               	goto	L142
  7528  04C0                     i1l6296:	
  7529                           ;2_3DIM.c: 786: case '1':
  7530                           
  7531                           
  7532                           ;2_3DIM.c: 787: TMR5H=0x7C; TMR5L=0xC0; T5CONbits.TMR5ON = 1; break;
  7533  04C0  307C               	movlw	124
  7534  04C1  2E8B               	goto	L143
  7535  04C2                     i1l6300:	
  7536                           ;2_3DIM.c: 788: case '2':
  7537                           
  7538                           
  7539                           ;2_3DIM.c: 789: TMR5H=0x7D; TMR5L=0x88; T5CONbits.TMR5ON = 1; break;
  7540  04C2  307D               	movlw	125
  7541  04C3  0028               	movlb	8	; select bank8
  7542  04C4  0099               	movwf	25	;volatile
  7543  04C5  3088               	movlw	136
  7544  04C6  2E98               	goto	L6
  7545  04C7                     i1l6304:	
  7546                           ;2_3DIM.c: 790: case '3':
  7547                           
  7548                           
  7549                           ;2_3DIM.c: 791: TMR5H=0x7F; TMR5L=0x18; T5CONbits.TMR5ON = 1; break;
  7550  04C7  307F               	movlw	127
  7551  04C8  0028               	movlb	8	; select bank8
  7552  04C9  0099               	movwf	25	;volatile
  7553  04CA  3018               	movlw	24
  7554  04CB  2E98               	goto	L6
  7555  04CC                     i1l6308:	
  7556                           ;2_3DIM.c: 792: case '4':
  7557                           
  7558                           
  7559                           ;2_3DIM.c: 793: TMR5H=0x80; TMR5L=0xA8; T5CONbits.TMR5ON = 1; break;
  7560  04CC  3080               	movlw	128
  7561  04CD  2E27               	goto	L157
  7562  04CE                     i1l6312:	
  7563                           ;2_3DIM.c: 794: case '5':
  7564                           
  7565                           
  7566                           ;2_3DIM.c: 795: TMR5H=0x81; TMR5L=0x70; T5CONbits.TMR5ON = 1; break;
  7567  04CE  3081               	movlw	129
  7568  04CF  2E2C               	goto	L130
  7569  04D0                     i1l6316:	
  7570                           ;2_3DIM.c: 796: case '6':
  7571                           
  7572                           
  7573                           ;2_3DIM.c: 797: TMR5H=0x83; TMR5L=0x00; T5CONbits.TMR5ON = 1; break;
  7574  04D0  3083               	movlw	131
  7575  04D1  2E36               	goto	L131
  7576  04D2                     i1l6322:	
  7577                           ;2_3DIM.c: 798: case '7':
  7578                           
  7579                           
  7580                           ;2_3DIM.c: 799: TMR5H=0x83; TMR5L=0xC8; T5CONbits.TMR5ON = 1; break;
  7581  04D2  3083               	movlw	131
  7582  04D3  0028               	movlb	8	; select bank8
  7583  04D4  0099               	movwf	25	;volatile
  7584  04D5  30C8               	movlw	200
  7585  04D6  2E98               	goto	L6
  7586  04D7                     i1l6326:	
  7587                           ;2_3DIM.c: 800: case '8':
  7588                           
  7589  04D7  2CF8               	goto	i1l6346
  7590  04D8                     i1l6330:	
  7591                           ;2_3DIM.c: 802: case '9':
  7592                           
  7593                           ;2_3DIM.c: 801: TMR5H=0x87; TMR5L=0xB0; T5CONbits.TMR5ON = 1; break;
  7594                           
  7595                           
  7596                           ;2_3DIM.c: 803: TMR5H=0x85; TMR5L=0x58; T5CONbits.TMR5ON = 1; break;
  7597  04D8  3085               	movlw	133
  7598  04D9  0028               	movlb	8	; select bank8
  7599  04DA  0099               	movwf	25	;volatile
  7600  04DB  3058               	movlw	88
  7601  04DC  2E98               	goto	L6
  7602  04DD                     i1l6336:	
  7603                           ;2_3DIM.c: 806: }
  7604                           
  7605                           ;2_3DIM.c: 805: break;
  7606                           
  7607                           ;2_3DIM.c: 804: default:
  7608                           
  7609                           
  7610                           ; Switch on 2 bytes has been partitioned into a top level switch of size 1, and 1 sub-sw
      +                          itches
  7611                           ; Switch size 1, requested type "space"
  7612                           ; Number of cases is 1, Range of values is 0 to 0
  7613                           ; switch strategies available:
  7614                           ; Name         Instructions Cycles
  7615                           ; simple_byte            4     3 (average)
  7616                           ; direct_byte            8     6 (fixed)
  7617                           ; jumptable            260     6 (fixed)
  7618                           ;	Chosen strategy is simple_byte
  7619  04DD  0020               	movlb	0	; select bank0
  7620  04DE  0852               	movf	_FAN_SPEED3_1s+1,w
  7621  04DF  3A00               	xorlw	0	; case 0
  7622  04E0  1903               	skipnz
  7623  04E1  2CE3               	goto	i1l10746
  7624  04E2  2EC2               	goto	i1l566
  7625  04E3                     i1l10746:	
  7626                           
  7627                           ; Switch size 1, requested type "space"
  7628                           ; Number of cases is 10, Range of values is 48 to 57
  7629                           ; switch strategies available:
  7630                           ; Name         Instructions Cycles
  7631                           ; direct_byte           29     9 (fixed)
  7632                           ; simple_byte           31    16 (average)
  7633                           ; jumptable            263     9 (fixed)
  7634                           ;	Chosen strategy is direct_byte
  7635  04E3  0851               	movf	_FAN_SPEED3_1s,w
  7636  04E4  3ED0               	addlw	-48
  7637  04E5  1C03               	skipc
  7638  04E6  2EC2               	goto	i1l566
  7639  04E7  0084               	movwf	4
  7640  04E8  300A               	movlw	10
  7641  04E9  0204               	subwf	4,w
  7642  04EA  1803               	skipnc
  7643  04EB  2EC2               	goto	i1l566
  7644  04EC  3189               	movlp	high i1S10748
  7645  04ED  3504               	lslf	4,w
  7646  04EE  3EB4               	addlw	low i1S10748
  7647  04EF  0082               	movwf	2
  7648                           
  7649                           ;2_3DIM.c: 807: break;
  7650  04F0  2EC2               	goto	i1l566
  7651  04F1                     i1l6338:	
  7652                           ;2_3DIM.c: 811: {
  7653                           ;2_3DIM.c: 812: case '0':
  7654                           
  7655                           ;2_3DIM.c: 810: switch(FAN_SPEED3_1s)
  7656                           
  7657                           ;2_3DIM.c: 808: case '1':
  7658                           
  7659                           
  7660                           ;2_3DIM.c: 813: TMR5H=0x86; TMR5L=0x20; T5CONbits.TMR5ON = 1; break;
  7661  04F1  3086               	movlw	134
  7662  04F2  2E40               	goto	L133
  7663  04F3                     i1l6342:	
  7664                           ;2_3DIM.c: 814: case '1':
  7665                           
  7666                           
  7667                           ;2_3DIM.c: 815: TMR5H=0x86; TMR5L=0xE8; T5CONbits.TMR5ON = 1; break;
  7668  04F3  3086               	movlw	134
  7669  04F4  0028               	movlb	8	; select bank8
  7670  04F5  0099               	movwf	25	;volatile
  7671  04F6  30E8               	movlw	232
  7672  04F7  2E98               	goto	L6
  7673  04F8                     i1l6346:	
  7674                           ;2_3DIM.c: 816: case '2':
  7675                           
  7676                           
  7677                           ;2_3DIM.c: 817: TMR5H=0x87; TMR5L=0xB0; T5CONbits.TMR5ON = 1; break;
  7678  04F8  3087               	movlw	135
  7679  04F9  2E45               	goto	L134
  7680  04FA                     i1l6350:	
  7681                           ;2_3DIM.c: 818: case '3':
  7682                           
  7683                           
  7684                           ;2_3DIM.c: 819: TMR5H=0x88; TMR5L=0x78; T5CONbits.TMR5ON = 1; break;
  7685  04FA  3088               	movlw	136
  7686  04FB  2E4A               	goto	L159
  7687  04FC                     i1l6354:	
  7688                           ;2_3DIM.c: 820: case '4':
  7689                           
  7690                           
  7691                           ;2_3DIM.c: 821: TMR5H=0x89; TMR5L=0x40; T5CONbits.TMR5ON = 1; break;
  7692  04FC  3089               	movlw	137
  7693  04FD  2E4F               	goto	L135
  7694  04FE                     i1l6358:	
  7695                           ;2_3DIM.c: 822: case '5':
  7696                           
  7697                           
  7698                           ;2_3DIM.c: 823: TMR5H=0x8A; TMR5L=0x08; T5CONbits.TMR5ON = 1; break;
  7699  04FE  308A               	movlw	138
  7700  04FF  0028               	movlb	8	; select bank8
  7701  0500  0099               	movwf	25	;volatile
  7702  0501  3008               	movlw	8
  7703  0502  2E98               	goto	L6
  7704  0503                     i1l6362:	
  7705                           ;2_3DIM.c: 824: case '6':
  7706                           
  7707                           
  7708                           ;2_3DIM.c: 825: TMR5H=0x8A; TMR5L=0xD0; T5CONbits.TMR5ON = 1; break;
  7709  0503  308A               	movlw	138
  7710  0504  2E68               	goto	L136
  7711  0505                     i1l6366:	
  7712                           ;2_3DIM.c: 826: case '7':
  7713                           
  7714                           
  7715                           ;2_3DIM.c: 827: TMR5H=0x8B; TMR5L=0x98; T5CONbits.TMR5ON = 1; break;
  7716  0505  308B               	movlw	139
  7717  0506  0028               	movlb	8	; select bank8
  7718  0507  0099               	movwf	25	;volatile
  7719  0508  3098               	movlw	152
  7720  0509  2E98               	goto	L6
  7721  050A                     i1l6370:	
  7722                           ;2_3DIM.c: 828: case '8':
  7723                           
  7724                           
  7725                           ;2_3DIM.c: 829: TMR5H=0x8C; TMR5L=0x60; T5CONbits.TMR5ON = 1; break;
  7726  050A  308C               	movlw	140
  7727  050B  2E6D               	goto	L137
  7728  050C                     i1l6374:	
  7729                           ;2_3DIM.c: 830: case '9':
  7730                           
  7731                           
  7732                           ;2_3DIM.c: 831: TMR5H=0x8D; TMR5L=0x28; T5CONbits.TMR5ON = 1; break;
  7733  050C  308D               	movlw	141
  7734  050D  0028               	movlb	8	; select bank8
  7735  050E  0099               	movwf	25	;volatile
  7736  050F  3028               	movlw	40
  7737  0510  2E98               	goto	L6
  7738  0511                     i1l6380:	
  7739                           ;2_3DIM.c: 834: }
  7740                           
  7741                           ;2_3DIM.c: 833: break;
  7742                           
  7743                           ;2_3DIM.c: 832: default:
  7744                           
  7745                           
  7746                           ; Switch on 2 bytes has been partitioned into a top level switch of size 1, and 1 sub-sw
      +                          itches
  7747                           ; Switch size 1, requested type "space"
  7748                           ; Number of cases is 1, Range of values is 0 to 0
  7749                           ; switch strategies available:
  7750                           ; Name         Instructions Cycles
  7751                           ; simple_byte            4     3 (average)
  7752                           ; direct_byte            8     6 (fixed)
  7753                           ; jumptable            260     6 (fixed)
  7754                           ;	Chosen strategy is simple_byte
  7755  0511  0020               	movlb	0	; select bank0
  7756  0512  0852               	movf	_FAN_SPEED3_1s+1,w
  7757  0513  3A00               	xorlw	0	; case 0
  7758  0514  1903               	skipnz
  7759  0515  2D17               	goto	i1l10750
  7760  0516  2EC2               	goto	i1l566
  7761  0517                     i1l10750:	
  7762                           
  7763                           ; Switch size 1, requested type "space"
  7764                           ; Number of cases is 10, Range of values is 48 to 57
  7765                           ; switch strategies available:
  7766                           ; Name         Instructions Cycles
  7767                           ; direct_byte           29     9 (fixed)
  7768                           ; simple_byte           31    16 (average)
  7769                           ; jumptable            263     9 (fixed)
  7770                           ;	Chosen strategy is direct_byte
  7771  0517  0851               	movf	_FAN_SPEED3_1s,w
  7772  0518  3ED0               	addlw	-48
  7773  0519  1C03               	skipc
  7774  051A  2EC2               	goto	i1l566
  7775  051B  0084               	movwf	4
  7776  051C  300A               	movlw	10
  7777  051D  0204               	subwf	4,w
  7778  051E  1803               	skipnc
  7779  051F  2EC2               	goto	i1l566
  7780  0520  3189               	movlp	high i1S10752
  7781  0521  3504               	lslf	4,w
  7782  0522  3EC8               	addlw	low i1S10752
  7783  0523  0082               	movwf	2
  7784                           
  7785                           ;2_3DIM.c: 835: break;
  7786  0524  2EC2               	goto	i1l566
  7787  0525                     i1l6382:	
  7788                           ;2_3DIM.c: 839: {
  7789                           ;2_3DIM.c: 840: case '0':
  7790                           
  7791                           ;2_3DIM.c: 838: switch(FAN_SPEED3_1s)
  7792                           
  7793                           ;2_3DIM.c: 836: case '2':
  7794                           
  7795                           
  7796                           ;2_3DIM.c: 841: TMR5H=0x8D; TMR5L=0xF0; T5CONbits.TMR5ON = 1; break;
  7797  0525  308D               	movlw	141
  7798  0526  2E72               	goto	L138
  7799  0527                     i1l6386:	
  7800                           ;2_3DIM.c: 842: case '1':
  7801                           
  7802                           
  7803                           ;2_3DIM.c: 843: TMR5H=0x8E; TMR5L=0xB8; T5CONbits.TMR5ON = 1; break;
  7804  0527  308E               	movlw	142
  7805  0528  0028               	movlb	8	; select bank8
  7806  0529  0099               	movwf	25	;volatile
  7807  052A  30B8               	movlw	184
  7808  052B  2E98               	goto	L6
  7809  052C                     i1l6390:	
  7810                           ;2_3DIM.c: 844: case '2':
  7811                           
  7812                           
  7813                           ;2_3DIM.c: 845: TMR5H=0x8F; TMR5L=0x80; T5CONbits.TMR5ON = 1; break;
  7814  052C  308F               	movlw	143
  7815  052D  2E77               	goto	L139
  7816  052E                     i1l6394:	
  7817                           ;2_3DIM.c: 846: case '3':
  7818                           
  7819                           
  7820                           ;2_3DIM.c: 847: TMR5H=0x90; TMR5L=0x48; T5CONbits.TMR5ON = 1; break;
  7821  052E  3090               	movlw	144
  7822  052F  0028               	movlb	8	; select bank8
  7823  0530  0099               	movwf	25	;volatile
  7824  0531  3048               	movlw	72
  7825  0532  2E98               	goto	L6
  7826  0533                     i1l6398:	
  7827                           ;2_3DIM.c: 848: case '4':
  7828                           
  7829                           
  7830                           ;2_3DIM.c: 849: TMR5H=0x91; TMR5L=0x10; T5CONbits.TMR5ON = 1; break;
  7831  0533  3091               	movlw	145
  7832  0534  2E7C               	goto	L140
  7833  0535                     i1l6402:	
  7834                           ;2_3DIM.c: 850: case '5':
  7835                           
  7836                           
  7837                           ;2_3DIM.c: 851: TMR5H=0x91; TMR5L=0xD8; T5CONbits.TMR5ON = 1; break;
  7838  0535  3091               	movlw	145
  7839  0536  0028               	movlb	8	; select bank8
  7840  0537  0099               	movwf	25	;volatile
  7841  0538  30D8               	movlw	216
  7842  0539  2E98               	goto	L6
  7843  053A                     i1l6406:	
  7844                           ;2_3DIM.c: 852: case '6':
  7845                           
  7846                           
  7847                           ;2_3DIM.c: 853: TMR5H=0x92; TMR5L=0xA0; T5CONbits.TMR5ON = 1; break;
  7848  053A  3092               	movlw	146
  7849  053B  2E81               	goto	L141
  7850  053C                     i1l6410:	
  7851                           ;2_3DIM.c: 854: case '7':
  7852                           
  7853                           
  7854                           ;2_3DIM.c: 855: TMR5H=0x93; TMR5L=0x68; T5CONbits.TMR5ON = 1; break;
  7855  053C  3093               	movlw	147
  7856  053D  0028               	movlb	8	; select bank8
  7857  053E  0099               	movwf	25	;volatile
  7858  053F  3068               	movlw	104
  7859  0540  2E98               	goto	L6
  7860  0541                     i1l6414:	
  7861                           ;2_3DIM.c: 856: case '8':
  7862                           
  7863                           
  7864                           ;2_3DIM.c: 857: TMR5H=0x94; TMR5L=0x30; T5CONbits.TMR5ON = 1; break;
  7865  0541  3094               	movlw	148
  7866  0542  2E86               	goto	L142
  7867  0543                     i1l6418:	
  7868                           ;2_3DIM.c: 858: case '9':
  7869                           
  7870                           
  7871                           ;2_3DIM.c: 859: TMR5H=0x94; TMR5L=0xF8; T5CONbits.TMR5ON = 1; break;
  7872  0543  3094               	movlw	148
  7873  0544  0028               	movlb	8	; select bank8
  7874  0545  0099               	movwf	25	;volatile
  7875  0546  30F8               	movlw	248
  7876  0547  2E98               	goto	L6
  7877  0548                     i1l6424:	
  7878                           ;2_3DIM.c: 862: }
  7879                           
  7880                           ;2_3DIM.c: 861: break;
  7881                           
  7882                           ;2_3DIM.c: 860: default:
  7883                           
  7884                           
  7885                           ; Switch on 2 bytes has been partitioned into a top level switch of size 1, and 1 sub-sw
      +                          itches
  7886                           ; Switch size 1, requested type "space"
  7887                           ; Number of cases is 1, Range of values is 0 to 0
  7888                           ; switch strategies available:
  7889                           ; Name         Instructions Cycles
  7890                           ; simple_byte            4     3 (average)
  7891                           ; direct_byte            8     6 (fixed)
  7892                           ; jumptable            260     6 (fixed)
  7893                           ;	Chosen strategy is simple_byte
  7894  0548  0020               	movlb	0	; select bank0
  7895  0549  0852               	movf	_FAN_SPEED3_1s+1,w
  7896  054A  3A00               	xorlw	0	; case 0
  7897  054B  1903               	skipnz
  7898  054C  2D4E               	goto	i1l10754
  7899  054D  2EC2               	goto	i1l566
  7900  054E                     i1l10754:	
  7901                           
  7902                           ; Switch size 1, requested type "space"
  7903                           ; Number of cases is 10, Range of values is 48 to 57
  7904                           ; switch strategies available:
  7905                           ; Name         Instructions Cycles
  7906                           ; direct_byte           29     9 (fixed)
  7907                           ; simple_byte           31    16 (average)
  7908                           ; jumptable            263     9 (fixed)
  7909                           ;	Chosen strategy is direct_byte
  7910  054E  0851               	movf	_FAN_SPEED3_1s,w
  7911  054F  3ED0               	addlw	-48
  7912  0550  1C03               	skipc
  7913  0551  2EC2               	goto	i1l566
  7914  0552  0084               	movwf	4
  7915  0553  300A               	movlw	10
  7916  0554  0204               	subwf	4,w
  7917  0555  1803               	skipnc
  7918  0556  2EC2               	goto	i1l566
  7919  0557  3189               	movlp	high i1S10756
  7920  0558  3504               	lslf	4,w
  7921  0559  3EDC               	addlw	low i1S10756
  7922  055A  0082               	movwf	2
  7923                           
  7924                           ;2_3DIM.c: 863: break;
  7925  055B  2EC2               	goto	i1l566
  7926  055C                     i1l6426:	
  7927                           ;2_3DIM.c: 867: {
  7928                           ;2_3DIM.c: 868: case '0':
  7929                           
  7930                           ;2_3DIM.c: 866: switch(FAN_SPEED3_1s)
  7931                           
  7932                           ;2_3DIM.c: 864: case '3':
  7933                           
  7934                           
  7935                           ;2_3DIM.c: 869: TMR5H=0x95; TMR5L=0xC0; T5CONbits.TMR5ON = 1; break;
  7936  055C  3095               	movlw	149
  7937  055D  2E8B               	goto	L143
  7938  055E                     i1l6430:	
  7939                           ;2_3DIM.c: 870: case '1':
  7940                           
  7941                           
  7942                           ;2_3DIM.c: 871: TMR5H=0x97; TMR5L=0x50; T5CONbits.TMR5ON = 1; break;
  7943  055E  3097               	movlw	151
  7944  055F  2E90               	goto	L144
  7945  0560                     i1l6434:	
  7946                           ;2_3DIM.c: 872: case '2':
  7947                           
  7948                           
  7949                           ;2_3DIM.c: 873: TMR5H=0x98; TMR5L=0xE0; T5CONbits.TMR5ON = 1; break;
  7950  0560  3098               	movlw	152
  7951  0561  2E95               	goto	L114
  7952  0562                     i1l6438:	
  7953                           ;2_3DIM.c: 874: case '3':
  7954                           
  7955                           
  7956                           ;2_3DIM.c: 875: TMR5H=0x9A; TMR5L=0x70; T5CONbits.TMR5ON = 1; break;
  7957  0562  309A               	movlw	154
  7958  0563  2E2C               	goto	L130
  7959  0564                     i1l6442:	
  7960                           ;2_3DIM.c: 876: case '4':
  7961                           
  7962                           
  7963                           ;2_3DIM.c: 877: TMR5H=0x9C; TMR5L=0x00; T5CONbits.TMR5ON = 1; break;
  7964  0564  309C               	movlw	156
  7965  0565  2E36               	goto	L131
  7966  0566                     i1l6448:	
  7967                           ;2_3DIM.c: 878: case '5':
  7968                           
  7969                           
  7970                           ;2_3DIM.c: 879: TMR5H=0x9D; TMR5L=0x90; T5CONbits.TMR5ON = 1; break;
  7971  0566  309D               	movlw	157
  7972  0567  2E3B               	goto	L132
  7973  0568                     i1l6452:	
  7974                           ;2_3DIM.c: 880: case '6':
  7975                           
  7976                           
  7977                           ;2_3DIM.c: 881: TMR5H=0x9F; TMR5L=0x20; T5CONbits.TMR5ON = 1; break;
  7978  0568  309F               	movlw	159
  7979  0569  2E40               	goto	L133
  7980  056A                     i1l6456:	
  7981                           ;2_3DIM.c: 882: case '7':
  7982                           
  7983                           
  7984                           ;2_3DIM.c: 883: TMR5H=0xA0; TMR5L=0xB0; T5CONbits.TMR5ON = 1; break;
  7985  056A  30A0               	movlw	160
  7986  056B  2E45               	goto	L134
  7987  056C                     i1l6460:	
  7988                           ;2_3DIM.c: 884: case '8':
  7989                           
  7990                           
  7991                           ;2_3DIM.c: 885: TMR5H=0xA2; TMR5L=0x40; T5CONbits.TMR5ON = 1; break;
  7992  056C  30A2               	movlw	162
  7993  056D  2E4F               	goto	L135
  7994  056E                     i1l6464:	
  7995                           ;2_3DIM.c: 886: case '9':
  7996                           
  7997                           
  7998                           ;2_3DIM.c: 887: TMR5H=0xA3; TMR5L=0xD0; T5CONbits.TMR5ON = 1; break;
  7999  056E  30A3               	movlw	163
  8000  056F  2E68               	goto	L136
  8001  0570                     i1l6470:	
  8002                           ;2_3DIM.c: 890: }
  8003                           
  8004                           ;2_3DIM.c: 889: break;
  8005                           
  8006                           ;2_3DIM.c: 888: default:
  8007                           
  8008                           
  8009                           ; Switch on 2 bytes has been partitioned into a top level switch of size 1, and 1 sub-sw
      +                          itches
  8010                           ; Switch size 1, requested type "space"
  8011                           ; Number of cases is 1, Range of values is 0 to 0
  8012                           ; switch strategies available:
  8013                           ; Name         Instructions Cycles
  8014                           ; simple_byte            4     3 (average)
  8015                           ; direct_byte            8     6 (fixed)
  8016                           ; jumptable            260     6 (fixed)
  8017                           ;	Chosen strategy is simple_byte
  8018  0570  0020               	movlb	0	; select bank0
  8019  0571  0852               	movf	_FAN_SPEED3_1s+1,w
  8020  0572  3A00               	xorlw	0	; case 0
  8021  0573  1903               	skipnz
  8022  0574  2D76               	goto	i1l10758
  8023  0575  2EC2               	goto	i1l566
  8024  0576                     i1l10758:	
  8025                           
  8026                           ; Switch size 1, requested type "space"
  8027                           ; Number of cases is 10, Range of values is 48 to 57
  8028                           ; switch strategies available:
  8029                           ; Name         Instructions Cycles
  8030                           ; direct_byte           29     9 (fixed)
  8031                           ; simple_byte           31    16 (average)
  8032                           ; jumptable            263     9 (fixed)
  8033                           ;	Chosen strategy is direct_byte
  8034  0576  0851               	movf	_FAN_SPEED3_1s,w
  8035  0577  3ED0               	addlw	-48
  8036  0578  1C03               	skipc
  8037  0579  2EC2               	goto	i1l566
  8038  057A  0084               	movwf	4
  8039  057B  300A               	movlw	10
  8040  057C  0204               	subwf	4,w
  8041  057D  1803               	skipnc
  8042  057E  2EC2               	goto	i1l566
  8043  057F  3190               	movlp	high i1S10760
  8044  0580  3504               	lslf	4,w
  8045  0581  3E00               	addlw	low i1S10760
  8046  0582  0082               	movwf	2
  8047                           
  8048                           ;2_3DIM.c: 891: break;
  8049  0583  2EC2               	goto	i1l566
  8050  0584                     i1l6472:	
  8051                           ;2_3DIM.c: 895: {
  8052                           ;2_3DIM.c: 896: case '0':
  8053                           
  8054                           ;2_3DIM.c: 894: switch(FAN_SPEED3_1s)
  8055                           
  8056                           ;2_3DIM.c: 892: case '4':
  8057                           
  8058                           
  8059                           ;2_3DIM.c: 897: TMR5H=0xA5; TMR5L=0x60; T5CONbits.TMR5ON = 1; break;
  8060  0584  30A5               	movlw	165
  8061  0585  2E6D               	goto	L137
  8062  0586                     i1l6476:	
  8063                           ;2_3DIM.c: 898: case '1':
  8064                           
  8065                           
  8066                           ;2_3DIM.c: 899: TMR5H=0xA6; TMR5L=0xF0; T5CONbits.TMR5ON = 1; break;
  8067  0586  30A6               	movlw	166
  8068  0587  2E72               	goto	L138
  8069  0588                     i1l6480:	
  8070                           ;2_3DIM.c: 900: case '2':
  8071                           
  8072                           
  8073                           ;2_3DIM.c: 901: TMR5H=0xA8; TMR5L=0x80; T5CONbits.TMR5ON = 1; break;
  8074  0588  30A8               	movlw	168
  8075  0589  2E77               	goto	L139
  8076  058A                     i1l6484:	
  8077                           ;2_3DIM.c: 902: case '3':
  8078                           
  8079                           
  8080                           ;2_3DIM.c: 903: TMR5H=0xAA; TMR5L=0x10; T5CONbits.TMR5ON = 1; break;
  8081  058A  30AA               	movlw	170
  8082  058B  2E7C               	goto	L140
  8083  058C                     i1l6488:	
  8084                           ;2_3DIM.c: 904: case '4':
  8085                           
  8086                           
  8087                           ;2_3DIM.c: 905: TMR5H=0xAB; TMR5L=0xA0; T5CONbits.TMR5ON = 1; break;
  8088  058C  30AB               	movlw	171
  8089  058D  2E81               	goto	L141
  8090  058E                     i1l6492:	
  8091                           ;2_3DIM.c: 906: case '5':
  8092                           
  8093                           
  8094                           ;2_3DIM.c: 907: TMR5H=0xAD; TMR5L=0x30; T5CONbits.TMR5ON = 1; break;
  8095  058E  30AD               	movlw	173
  8096  058F  2E86               	goto	L142
  8097  0590                     i1l6496:	
  8098                           ;2_3DIM.c: 908: case '6':
  8099                           
  8100                           
  8101                           ;2_3DIM.c: 909: TMR5H=0xAE; TMR5L=0xC0; T5CONbits.TMR5ON = 1; break;
  8102  0590  30AE               	movlw	174
  8103  0591  2E8B               	goto	L143
  8104  0592                     i1l6500:	
  8105                           ;2_3DIM.c: 910: case '7':
  8106                           
  8107                           
  8108                           ;2_3DIM.c: 911: TMR5H=0xB0; TMR5L=0x50; T5CONbits.TMR5ON = 1; break;
  8109  0592  30B0               	movlw	176
  8110  0593  2E90               	goto	L144
  8111  0594                     i1l6504:	
  8112                           ;2_3DIM.c: 912: case '8':
  8113                           
  8114                           
  8115                           ;2_3DIM.c: 913: TMR5H=0xB1; TMR5L=0xE0; T5CONbits.TMR5ON = 1; break;
  8116  0594  30B1               	movlw	177
  8117  0595  2E95               	goto	L114
  8118  0596                     i1l6508:	
  8119                           ;2_3DIM.c: 914: case '9':
  8120                           
  8121                           
  8122                           ;2_3DIM.c: 915: TMR5H=0xB3; TMR5L=0x70; T5CONbits.TMR5ON = 1; break;
  8123  0596  30B3               	movlw	179
  8124  0597  2E2C               	goto	L130
  8125  0598                     i1l6514:	
  8126                           ;2_3DIM.c: 918: }
  8127                           
  8128                           ;2_3DIM.c: 917: break;
  8129                           
  8130                           ;2_3DIM.c: 916: default:
  8131                           
  8132                           
  8133                           ; Switch on 2 bytes has been partitioned into a top level switch of size 1, and 1 sub-sw
      +                          itches
  8134                           ; Switch size 1, requested type "space"
  8135                           ; Number of cases is 1, Range of values is 0 to 0
  8136                           ; switch strategies available:
  8137                           ; Name         Instructions Cycles
  8138                           ; simple_byte            4     3 (average)
  8139                           ; direct_byte            8     6 (fixed)
  8140                           ; jumptable            260     6 (fixed)
  8141                           ;	Chosen strategy is simple_byte
  8142  0598  0020               	movlb	0	; select bank0
  8143  0599  0852               	movf	_FAN_SPEED3_1s+1,w
  8144  059A  3A00               	xorlw	0	; case 0
  8145  059B  1903               	skipnz
  8146  059C  2D9E               	goto	i1l10762
  8147  059D  2EC2               	goto	i1l566
  8148  059E                     i1l10762:	
  8149                           
  8150                           ; Switch size 1, requested type "space"
  8151                           ; Number of cases is 10, Range of values is 48 to 57
  8152                           ; switch strategies available:
  8153                           ; Name         Instructions Cycles
  8154                           ; direct_byte           29     9 (fixed)
  8155                           ; simple_byte           31    16 (average)
  8156                           ; jumptable            263     9 (fixed)
  8157                           ;	Chosen strategy is direct_byte
  8158  059E  0851               	movf	_FAN_SPEED3_1s,w
  8159  059F  3ED0               	addlw	-48
  8160  05A0  1C03               	skipc
  8161  05A1  2EC2               	goto	i1l566
  8162  05A2  0084               	movwf	4
  8163  05A3  300A               	movlw	10
  8164  05A4  0204               	subwf	4,w
  8165  05A5  1803               	skipnc
  8166  05A6  2EC2               	goto	i1l566
  8167  05A7  3190               	movlp	high i1S10764
  8168  05A8  3504               	lslf	4,w
  8169  05A9  3E14               	addlw	low i1S10764
  8170  05AA  0082               	movwf	2
  8171                           
  8172                           ;2_3DIM.c: 919: break;
  8173  05AB  2EC2               	goto	i1l566
  8174  05AC                     i1l6516:	
  8175                           ;2_3DIM.c: 923: {
  8176                           ;2_3DIM.c: 924: case '0':
  8177                           
  8178                           ;2_3DIM.c: 922: switch(FAN_SPEED3_1s)
  8179                           
  8180                           ;2_3DIM.c: 920: case '5':
  8181                           
  8182                           
  8183                           ;2_3DIM.c: 925: TMR5H=0xB5; TMR5L=0x00; T5CONbits.TMR5ON = 1; break;
  8184  05AC  30B5               	movlw	181
  8185  05AD  2E36               	goto	L131
  8186  05AE                     i1l6522:	
  8187                           ;2_3DIM.c: 926: case '1':
  8188                           
  8189                           
  8190                           ;2_3DIM.c: 927: TMR5H=0xB6; TMR5L=0x90; T5CONbits.TMR5ON = 1; break;
  8191  05AE  30B6               	movlw	182
  8192  05AF  2E3B               	goto	L132
  8193  05B0                     i1l6526:	
  8194                           ;2_3DIM.c: 928: case '2':
  8195                           
  8196                           
  8197                           ;2_3DIM.c: 929: TMR5H=0xB8; TMR5L=0x20; T5CONbits.TMR5ON = 1; break;
  8198  05B0  30B8               	movlw	184
  8199  05B1  2E40               	goto	L133
  8200  05B2                     i1l6530:	
  8201                           ;2_3DIM.c: 930: case '3':
  8202                           
  8203                           
  8204                           ;2_3DIM.c: 931: TMR5H=0xB9; TMR5L=0xB0; T5CONbits.TMR5ON = 1; break;
  8205  05B2  30B9               	movlw	185
  8206  05B3  2E45               	goto	L134
  8207  05B4                     i1l6534:	
  8208                           ;2_3DIM.c: 932: case '4':
  8209                           
  8210                           
  8211                           ;2_3DIM.c: 933: TMR5H=0xBB; TMR5L=0x40; T5CONbits.TMR5ON = 1; break;
  8212  05B4  30BB               	movlw	187
  8213  05B5  2E4F               	goto	L135
  8214  05B6                     i1l6538:	
  8215                           ;2_3DIM.c: 934: case '5':
  8216                           
  8217                           
  8218                           ;2_3DIM.c: 935: TMR5H=0xBC; TMR5L=0xD0; T5CONbits.TMR5ON = 1; break;
  8219  05B6  30BC               	movlw	188
  8220  05B7  2E68               	goto	L136
  8221  05B8                     i1l6542:	
  8222                           ;2_3DIM.c: 936: case '6':
  8223                           
  8224                           
  8225                           ;2_3DIM.c: 937: TMR5H=0xBE; TMR5L=0x60; T5CONbits.TMR5ON = 1; break;
  8226  05B8  30BE               	movlw	190
  8227  05B9  2E6D               	goto	L137
  8228  05BA                     i1l6546:	
  8229                           ;2_3DIM.c: 938: case '7':
  8230                           
  8231                           
  8232                           ;2_3DIM.c: 939: TMR5H=0xBF; TMR5L=0xF0; T5CONbits.TMR5ON = 1; break;
  8233  05BA  30BF               	movlw	191
  8234  05BB  2E72               	goto	L138
  8235  05BC                     i1l6550:	
  8236                           ;2_3DIM.c: 940: case '8':
  8237                           
  8238                           
  8239                           ;2_3DIM.c: 941: TMR5H=0xC1; TMR5L=0x80; T5CONbits.TMR5ON = 1; break;
  8240  05BC  30C1               	movlw	193
  8241  05BD  2E77               	goto	L139
  8242  05BE                     i1l6554:	
  8243                           ;2_3DIM.c: 942: case '9':
  8244                           
  8245                           
  8246                           ;2_3DIM.c: 943: TMR5H=0xC3; TMR5L=0x10; T5CONbits.TMR5ON = 1; break;
  8247  05BE  30C3               	movlw	195
  8248  05BF  2E7C               	goto	L140
  8249  05C0                     i1l6560:	
  8250                           ;2_3DIM.c: 946: }
  8251                           
  8252                           ;2_3DIM.c: 945: break;
  8253                           
  8254                           ;2_3DIM.c: 944: default:
  8255                           
  8256                           
  8257                           ; Switch on 2 bytes has been partitioned into a top level switch of size 1, and 1 sub-sw
      +                          itches
  8258                           ; Switch size 1, requested type "space"
  8259                           ; Number of cases is 1, Range of values is 0 to 0
  8260                           ; switch strategies available:
  8261                           ; Name         Instructions Cycles
  8262                           ; simple_byte            4     3 (average)
  8263                           ; direct_byte            8     6 (fixed)
  8264                           ; jumptable            260     6 (fixed)
  8265                           ;	Chosen strategy is simple_byte
  8266  05C0  0020               	movlb	0	; select bank0
  8267  05C1  0852               	movf	_FAN_SPEED3_1s+1,w
  8268  05C2  3A00               	xorlw	0	; case 0
  8269  05C3  1903               	skipnz
  8270  05C4  2DC6               	goto	i1l10766
  8271  05C5  2EC2               	goto	i1l566
  8272  05C6                     i1l10766:	
  8273                           
  8274                           ; Switch size 1, requested type "space"
  8275                           ; Number of cases is 10, Range of values is 48 to 57
  8276                           ; switch strategies available:
  8277                           ; Name         Instructions Cycles
  8278                           ; direct_byte           29     9 (fixed)
  8279                           ; simple_byte           31    16 (average)
  8280                           ; jumptable            263     9 (fixed)
  8281                           ;	Chosen strategy is direct_byte
  8282  05C6  0851               	movf	_FAN_SPEED3_1s,w
  8283  05C7  3ED0               	addlw	-48
  8284  05C8  1C03               	skipc
  8285  05C9  2EC2               	goto	i1l566
  8286  05CA  0084               	movwf	4
  8287  05CB  300A               	movlw	10
  8288  05CC  0204               	subwf	4,w
  8289  05CD  1803               	skipnc
  8290  05CE  2EC2               	goto	i1l566
  8291  05CF  3190               	movlp	high i1S10768
  8292  05D0  3504               	lslf	4,w
  8293  05D1  3E28               	addlw	low i1S10768
  8294  05D2  0082               	movwf	2
  8295                           
  8296                           ;2_3DIM.c: 947: break;
  8297  05D3  2EC2               	goto	i1l566
  8298  05D4                     i1l6562:	
  8299                           ;2_3DIM.c: 951: {
  8300                           ;2_3DIM.c: 952: case '0':
  8301                           
  8302                           ;2_3DIM.c: 950: switch(FAN_SPEED3_1s)
  8303                           
  8304                           ;2_3DIM.c: 948: case '6':
  8305                           
  8306                           
  8307                           ;2_3DIM.c: 953: TMR5H=0xC4; TMR5L=0xA0; T5CONbits.TMR5ON = 1; break;
  8308  05D4  30C4               	movlw	196
  8309  05D5  2E81               	goto	L141
  8310  05D6                     i1l6566:	
  8311                           ;2_3DIM.c: 954: case '1':
  8312                           
  8313                           
  8314                           ;2_3DIM.c: 955: TMR5H=0xC6; TMR5L=0x30; T5CONbits.TMR5ON = 1; break;
  8315  05D6  30C6               	movlw	198
  8316  05D7  2E86               	goto	L142
  8317  05D8                     i1l6570:	
  8318                           ;2_3DIM.c: 956: case '2':
  8319                           
  8320                           
  8321                           ;2_3DIM.c: 957: TMR5H=0xC7; TMR5L=0xC0; T5CONbits.TMR5ON = 1; break;
  8322  05D8  30C7               	movlw	199
  8323  05D9  2E8B               	goto	L143
  8324  05DA                     i1l6574:	
  8325                           ;2_3DIM.c: 958: case '3':
  8326                           
  8327                           
  8328                           ;2_3DIM.c: 959: TMR5H=0xC9; TMR5L=0x50; T5CONbits.TMR5ON = 1; break;
  8329  05DA  30C9               	movlw	201
  8330  05DB  2E90               	goto	L144
  8331  05DC                     i1l6578:	
  8332                           ;2_3DIM.c: 960: case '4':
  8333                           
  8334                           
  8335                           ;2_3DIM.c: 961: TMR5H=0xCA; TMR5L=0xE0; T5CONbits.TMR5ON = 1; break;
  8336  05DC  30CA               	movlw	202
  8337  05DD  2E95               	goto	L114
  8338  05DE                     i1l6582:	
  8339                           ;2_3DIM.c: 962: case '5':
  8340                           
  8341                           
  8342                           ;2_3DIM.c: 963: TMR5H=0xCC; TMR5L=0x70; T5CONbits.TMR5ON = 1; break;
  8343  05DE  30CC               	movlw	204
  8344  05DF  2E2C               	goto	L130
  8345  05E0                     i1l6586:	
  8346                           ;2_3DIM.c: 964: case '6':
  8347                           
  8348                           
  8349                           ;2_3DIM.c: 965: TMR5H=0xCE; TMR5L=0x00; T5CONbits.TMR5ON = 1; break;
  8350  05E0  30CE               	movlw	206
  8351  05E1  2E36               	goto	L131
  8352  05E2                     i1l6592:	
  8353                           ;2_3DIM.c: 966: case '7':
  8354                           
  8355                           
  8356                           ;2_3DIM.c: 967: TMR5H=0xCF; TMR5L=0x90; T5CONbits.TMR5ON = 1; break;
  8357  05E2  30CF               	movlw	207
  8358  05E3  2E3B               	goto	L132
  8359  05E4                     i1l6596:	
  8360                           ;2_3DIM.c: 968: case '8':
  8361                           
  8362                           
  8363                           ;2_3DIM.c: 969: TMR5H=0xD1; TMR5L=0x20; T5CONbits.TMR5ON = 1; break;
  8364  05E4  30D1               	movlw	209
  8365  05E5  2E40               	goto	L133
  8366  05E6                     i1l6600:	
  8367                           ;2_3DIM.c: 970: case '9':
  8368                           
  8369                           
  8370                           ;2_3DIM.c: 971: TMR5H=0xD2; TMR5L=0xB0; T5CONbits.TMR5ON = 1; break;
  8371  05E6  30D2               	movlw	210
  8372  05E7  2E45               	goto	L134
  8373  05E8                     i1l6606:	
  8374                           ;2_3DIM.c: 974: }
  8375                           
  8376                           ;2_3DIM.c: 973: break;
  8377                           
  8378                           ;2_3DIM.c: 972: default:
  8379                           
  8380                           
  8381                           ; Switch on 2 bytes has been partitioned into a top level switch of size 1, and 1 sub-sw
      +                          itches
  8382                           ; Switch size 1, requested type "space"
  8383                           ; Number of cases is 1, Range of values is 0 to 0
  8384                           ; switch strategies available:
  8385                           ; Name         Instructions Cycles
  8386                           ; simple_byte            4     3 (average)
  8387                           ; direct_byte            8     6 (fixed)
  8388                           ; jumptable            260     6 (fixed)
  8389                           ;	Chosen strategy is simple_byte
  8390  05E8  0020               	movlb	0	; select bank0
  8391  05E9  0852               	movf	_FAN_SPEED3_1s+1,w
  8392  05EA  3A00               	xorlw	0	; case 0
  8393  05EB  1903               	skipnz
  8394  05EC  2DEE               	goto	i1l10770
  8395  05ED  2EC2               	goto	i1l566
  8396  05EE                     i1l10770:	
  8397                           
  8398                           ; Switch size 1, requested type "space"
  8399                           ; Number of cases is 10, Range of values is 48 to 57
  8400                           ; switch strategies available:
  8401                           ; Name         Instructions Cycles
  8402                           ; direct_byte           29     9 (fixed)
  8403                           ; simple_byte           31    16 (average)
  8404                           ; jumptable            263     9 (fixed)
  8405                           ;	Chosen strategy is direct_byte
  8406  05EE  0851               	movf	_FAN_SPEED3_1s,w
  8407  05EF  3ED0               	addlw	-48
  8408  05F0  1C03               	skipc
  8409  05F1  2EC2               	goto	i1l566
  8410  05F2  0084               	movwf	4
  8411  05F3  300A               	movlw	10
  8412  05F4  0204               	subwf	4,w
  8413  05F5  1803               	skipnc
  8414  05F6  2EC2               	goto	i1l566
  8415  05F7  3190               	movlp	high i1S10772
  8416  05F8  3504               	lslf	4,w
  8417  05F9  3E3C               	addlw	low i1S10772
  8418  05FA  0082               	movwf	2
  8419                           
  8420                           ;2_3DIM.c: 975: break;
  8421  05FB  2EC2               	goto	i1l566
  8422  05FC                     i1l6608:	
  8423                           ;2_3DIM.c: 979: {
  8424                           ;2_3DIM.c: 980: case '0':
  8425                           
  8426                           ;2_3DIM.c: 978: switch(FAN_SPEED3_1s)
  8427                           
  8428                           ;2_3DIM.c: 976: case '7':
  8429                           
  8430                           
  8431                           ;2_3DIM.c: 981: TMR5H=0xD4; TMR5L=0x40; T5CONbits.TMR5ON = 1; break;
  8432  05FC  30D4               	movlw	212
  8433  05FD  2E4F               	goto	L135
  8434  05FE                     i1l6612:	
  8435                           ;2_3DIM.c: 982: case '1':
  8436                           
  8437                           
  8438                           ;2_3DIM.c: 983: TMR5H=0xD5; TMR5L=0xD0; T5CONbits.TMR5ON = 1; break;
  8439  05FE  30D5               	movlw	213
  8440  05FF  2E68               	goto	L136
  8441  0600                     i1l6616:	
  8442                           ;2_3DIM.c: 984: case '2':
  8443                           
  8444                           
  8445                           ;2_3DIM.c: 985: TMR5H=0xD7; TMR5L=0x60; T5CONbits.TMR5ON = 1; break;
  8446  0600  30D7               	movlw	215
  8447  0601  2E6D               	goto	L137
  8448  0602                     i1l6620:	
  8449                           ;2_3DIM.c: 986: case '3':
  8450                           
  8451                           
  8452                           ;2_3DIM.c: 987: TMR5H=0xD8; TMR5L=0xF0; T5CONbits.TMR5ON = 1; break;
  8453  0602  30D8               	movlw	216
  8454  0603  2E72               	goto	L138
  8455  0604                     i1l6624:	
  8456                           ;2_3DIM.c: 988: case '4':
  8457                           
  8458                           
  8459                           ;2_3DIM.c: 989: TMR5H=0xDA; TMR5L=0x80; T5CONbits.TMR5ON = 1; break;
  8460  0604  30DA               	movlw	218
  8461  0605  2E77               	goto	L139
  8462  0606                     i1l6628:	
  8463                           ;2_3DIM.c: 990: case '5':
  8464                           
  8465                           
  8466                           ;2_3DIM.c: 991: TMR5H=0xDC; TMR5L=0x10; T5CONbits.TMR5ON = 1; break;
  8467  0606  30DC               	movlw	220
  8468  0607  2E7C               	goto	L140
  8469  0608                     i1l6632:	
  8470                           ;2_3DIM.c: 992: case '6':
  8471                           
  8472                           
  8473                           ;2_3DIM.c: 993: TMR5H=0xDD; TMR5L=0xA0; T5CONbits.TMR5ON = 1; break;
  8474  0608  30DD               	movlw	221
  8475  0609  2E81               	goto	L141
  8476  060A                     i1l6636:	
  8477                           ;2_3DIM.c: 994: case '7':
  8478                           
  8479                           
  8480                           ;2_3DIM.c: 995: TMR5H=0xDF; TMR5L=0x30; T5CONbits.TMR5ON = 1; break;
  8481  060A  30DF               	movlw	223
  8482  060B  2E86               	goto	L142
  8483  060C                     i1l6640:	
  8484                           ;2_3DIM.c: 996: case '8':
  8485                           
  8486                           
  8487                           ;2_3DIM.c: 997: TMR5H=0xE0; TMR5L=0xC0; T5CONbits.TMR5ON = 1; break;
  8488  060C  30E0               	movlw	224
  8489  060D  2E8B               	goto	L143
  8490  060E                     i1l6644:	
  8491                           ;2_3DIM.c: 998: case '9':
  8492                           
  8493                           
  8494                           ;2_3DIM.c: 999: TMR5H=0xE2; TMR5L=0x50; T5CONbits.TMR5ON = 1; break;
  8495  060E  30E2               	movlw	226
  8496  060F  2E90               	goto	L144
  8497  0610                     i1l6650:	
  8498                           ;2_3DIM.c: 1002: }
  8499                           
  8500                           ;2_3DIM.c: 1001: break;
  8501                           
  8502                           ;2_3DIM.c: 1000: default:
  8503                           
  8504                           
  8505                           ; Switch on 2 bytes has been partitioned into a top level switch of size 1, and 1 sub-sw
      +                          itches
  8506                           ; Switch size 1, requested type "space"
  8507                           ; Number of cases is 1, Range of values is 0 to 0
  8508                           ; switch strategies available:
  8509                           ; Name         Instructions Cycles
  8510                           ; simple_byte            4     3 (average)
  8511                           ; direct_byte            8     6 (fixed)
  8512                           ; jumptable            260     6 (fixed)
  8513                           ;	Chosen strategy is simple_byte
  8514  0610  0020               	movlb	0	; select bank0
  8515  0611  0852               	movf	_FAN_SPEED3_1s+1,w
  8516  0612  3A00               	xorlw	0	; case 0
  8517  0613  1903               	skipnz
  8518  0614  2E16               	goto	i1l10774
  8519  0615  2EC2               	goto	i1l566
  8520  0616                     i1l10774:	
  8521                           
  8522                           ; Switch size 1, requested type "space"
  8523                           ; Number of cases is 10, Range of values is 48 to 57
  8524                           ; switch strategies available:
  8525                           ; Name         Instructions Cycles
  8526                           ; direct_byte           29     9 (fixed)
  8527                           ; simple_byte           31    16 (average)
  8528                           ; jumptable            263     9 (fixed)
  8529                           ;	Chosen strategy is direct_byte
  8530  0616  0851               	movf	_FAN_SPEED3_1s,w
  8531  0617  3ED0               	addlw	-48
  8532  0618  1C03               	skipc
  8533  0619  2EC2               	goto	i1l566
  8534  061A  0084               	movwf	4
  8535  061B  300A               	movlw	10
  8536  061C  0204               	subwf	4,w
  8537  061D  1803               	skipnc
  8538  061E  2EC2               	goto	i1l566
  8539  061F  3190               	movlp	high i1S10776
  8540  0620  3504               	lslf	4,w
  8541  0621  3E50               	addlw	low i1S10776
  8542  0622  0082               	movwf	2
  8543                           
  8544                           ;2_3DIM.c: 1003: break;
  8545  0623  2EC2               	goto	i1l566
  8546  0624                     i1l6652:	
  8547                           ;2_3DIM.c: 1007: {
  8548                           ;2_3DIM.c: 1008: case '0':
  8549                           
  8550                           ;2_3DIM.c: 1006: switch(FAN_SPEED3_1s)
  8551                           
  8552                           ;2_3DIM.c: 1004: case '8':
  8553                           
  8554                           
  8555                           ;2_3DIM.c: 1009: TMR5H=0xE3; TMR5L=0xE0; T5CONbits.TMR5ON = 1; break;
  8556  0624  30E3               	movlw	227
  8557  0625  2E95               	goto	L114
  8558  0626                     i1l6656:	
  8559                           ;2_3DIM.c: 1010: case '1':
  8560                           
  8561                           
  8562                           ;2_3DIM.c: 1011: TMR5H=0xE4; TMR5L=0xA8; T5CONbits.TMR5ON = 1; break;
  8563  0626  30E4               	movlw	228
  8564  0627                     L157:	
  8565  0627  0028               	movlb	8	; select bank8
  8566  0628  0099               	movwf	25	;volatile
  8567  0629  30A8               	movlw	168
  8568  062A  2E98               	goto	L6
  8569  062B                     i1l6660:	
  8570                           ;2_3DIM.c: 1012: case '2':
  8571                           
  8572                           
  8573                           ;2_3DIM.c: 1013: TMR5H=0xE5; TMR5L=0x70; T5CONbits.TMR5ON = 1; break;
  8574  062B  30E5               	movlw	229
  8575  062C                     L130:	
  8576  062C  0028               	movlb	8	; select bank8
  8577  062D  0099               	movwf	25	;volatile
  8578  062E  3070               	movlw	112
  8579  062F  2E98               	goto	L6
  8580  0630                     i1l6664:	
  8581                           ;2_3DIM.c: 1014: case '3':
  8582                           
  8583                           
  8584                           ;2_3DIM.c: 1015: TMR5H=0xE6; TMR5L=0x38; T5CONbits.TMR5ON = 1; break;
  8585  0630  30E6               	movlw	230
  8586  0631  0028               	movlb	8	; select bank8
  8587  0632  0099               	movwf	25	;volatile
  8588  0633  3038               	movlw	56
  8589  0634  2E98               	goto	L6
  8590  0635                     i1l6668:	
  8591                           ;2_3DIM.c: 1016: case '4':
  8592                           
  8593                           
  8594                           ;2_3DIM.c: 1017: TMR5H=0xE7; TMR5L=0x00; T5CONbits.TMR5ON = 1; break;
  8595  0635  30E7               	movlw	231
  8596  0636                     L131:	
  8597  0636  0028               	movlb	8	; select bank8
  8598  0637  0099               	movwf	25	;volatile
  8599  0638  0198               	clrf	24	;volatile
  8600  0639  2E99               	goto	i1l6736
  8601  063A                     i1l6674:	
  8602                           ;2_3DIM.c: 1018: case '5':
  8603                           
  8604                           
  8605                           ;2_3DIM.c: 1019: TMR5H=0xE8; TMR5L=0x90; T5CONbits.TMR5ON = 1; break;
  8606  063A  30E8               	movlw	232
  8607  063B                     L132:	
  8608  063B  0028               	movlb	8	; select bank8
  8609  063C  0099               	movwf	25	;volatile
  8610  063D  3090               	movlw	144
  8611  063E  2E98               	goto	L6
  8612  063F                     i1l6678:	
  8613                           ;2_3DIM.c: 1020: case '6':
  8614                           
  8615                           
  8616                           ;2_3DIM.c: 1021: TMR5H=0xEA; TMR5L=0x20; T5CONbits.TMR5ON = 1; break;
  8617  063F  30EA               	movlw	234
  8618  0640                     L133:	
  8619  0640  0028               	movlb	8	; select bank8
  8620  0641  0099               	movwf	25	;volatile
  8621  0642  3020               	movlw	32
  8622  0643  2E98               	goto	L6
  8623  0644                     i1l6682:	
  8624                           ;2_3DIM.c: 1022: case '7':
  8625                           
  8626                           
  8627                           ;2_3DIM.c: 1023: TMR5H=0xEB; TMR5L=0xB0; T5CONbits.TMR5ON = 1; break;
  8628  0644  30EB               	movlw	235
  8629  0645                     L134:	
  8630  0645  0028               	movlb	8	; select bank8
  8631  0646  0099               	movwf	25	;volatile
  8632  0647  30B0               	movlw	176
  8633  0648  2E98               	goto	L6
  8634  0649                     i1l6686:	
  8635                           ;2_3DIM.c: 1024: case '8':
  8636                           
  8637                           
  8638                           ;2_3DIM.c: 1025: TMR5H=0xEC; TMR5L=0x78; T5CONbits.TMR5ON = 1; break;
  8639  0649  30EC               	movlw	236
  8640  064A                     L159:	
  8641  064A  0028               	movlb	8	; select bank8
  8642  064B  0099               	movwf	25	;volatile
  8643  064C  3078               	movlw	120
  8644  064D  2E98               	goto	L6
  8645  064E                     i1l6690:	
  8646                           ;2_3DIM.c: 1026: case '9':
  8647                           
  8648                           
  8649                           ;2_3DIM.c: 1027: TMR5H=0xED; TMR5L=0x40; T5CONbits.TMR5ON = 1; break;
  8650  064E  30ED               	movlw	237
  8651  064F                     L135:	
  8652  064F  0028               	movlb	8	; select bank8
  8653  0650  0099               	movwf	25	;volatile
  8654  0651  3040               	movlw	64
  8655  0652  2E98               	goto	L6
  8656  0653                     i1l6696:	
  8657                           ;2_3DIM.c: 1030: }
  8658                           
  8659                           ;2_3DIM.c: 1029: break;
  8660                           
  8661                           ;2_3DIM.c: 1028: default:
  8662                           
  8663                           
  8664                           ; Switch on 2 bytes has been partitioned into a top level switch of size 1, and 1 sub-sw
      +                          itches
  8665                           ; Switch size 1, requested type "space"
  8666                           ; Number of cases is 1, Range of values is 0 to 0
  8667                           ; switch strategies available:
  8668                           ; Name         Instructions Cycles
  8669                           ; simple_byte            4     3 (average)
  8670                           ; direct_byte            8     6 (fixed)
  8671                           ; jumptable            260     6 (fixed)
  8672                           ;	Chosen strategy is simple_byte
  8673  0653  0020               	movlb	0	; select bank0
  8674  0654  0852               	movf	_FAN_SPEED3_1s+1,w
  8675  0655  3A00               	xorlw	0	; case 0
  8676  0656  1903               	skipnz
  8677  0657  2E59               	goto	i1l10778
  8678  0658  2EC2               	goto	i1l566
  8679  0659                     i1l10778:	
  8680                           
  8681                           ; Switch size 1, requested type "space"
  8682                           ; Number of cases is 10, Range of values is 48 to 57
  8683                           ; switch strategies available:
  8684                           ; Name         Instructions Cycles
  8685                           ; direct_byte           29     9 (fixed)
  8686                           ; simple_byte           31    16 (average)
  8687                           ; jumptable            263     9 (fixed)
  8688                           ;	Chosen strategy is direct_byte
  8689  0659  0851               	movf	_FAN_SPEED3_1s,w
  8690  065A  3ED0               	addlw	-48
  8691  065B  1C03               	skipc
  8692  065C  2EC2               	goto	i1l566
  8693  065D  0084               	movwf	4
  8694  065E  300A               	movlw	10
  8695  065F  0204               	subwf	4,w
  8696  0660  1803               	skipnc
  8697  0661  2EC2               	goto	i1l566
  8698  0662  3190               	movlp	high i1S10780
  8699  0663  3504               	lslf	4,w
  8700  0664  3E64               	addlw	low i1S10780
  8701  0665  0082               	movwf	2
  8702                           
  8703                           ;2_3DIM.c: 1031: break;
  8704  0666  2EC2               	goto	i1l566
  8705  0667                     i1l6698:	
  8706                           ;2_3DIM.c: 1035: {
  8707                           ;2_3DIM.c: 1036: case '0':
  8708                           
  8709                           ;2_3DIM.c: 1034: switch(FAN_SPEED3_1s)
  8710                           
  8711                           ;2_3DIM.c: 1032: case '9':
  8712                           
  8713                           
  8714                           ;2_3DIM.c: 1037: TMR5H=0xEE; TMR5L=0xD0; T5CONbits.TMR5ON = 1; break;
  8715  0667  30EE               	movlw	238
  8716  0668                     L136:	
  8717  0668  0028               	movlb	8	; select bank8
  8718  0669  0099               	movwf	25	;volatile
  8719  066A  30D0               	movlw	208
  8720  066B  2E98               	goto	L6
  8721  066C                     i1l6702:	
  8722                           ;2_3DIM.c: 1038: case '1':
  8723                           
  8724                           
  8725                           ;2_3DIM.c: 1039: TMR5H=0xF0; TMR5L=0x60; T5CONbits.TMR5ON = 1; break;
  8726  066C  30F0               	movlw	240
  8727  066D                     L137:	
  8728  066D  0028               	movlb	8	; select bank8
  8729  066E  0099               	movwf	25	;volatile
  8730  066F  3060               	movlw	96
  8731  0670  2E98               	goto	L6
  8732  0671                     i1l6706:	
  8733                           ;2_3DIM.c: 1040: case '2':
  8734                           
  8735                           
  8736                           ;2_3DIM.c: 1041: TMR5H=0xF1; TMR5L=0xF0; T5CONbits.TMR5ON = 1; break;
  8737  0671  30F1               	movlw	241
  8738  0672                     L138:	
  8739  0672  0028               	movlb	8	; select bank8
  8740  0673  0099               	movwf	25	;volatile
  8741  0674  30F0               	movlw	240
  8742  0675  2E98               	goto	L6
  8743  0676                     i1l6710:	
  8744                           ;2_3DIM.c: 1042: case '3':
  8745                           
  8746                           
  8747                           ;2_3DIM.c: 1043: TMR5H=0xF3; TMR5L=0x80; T5CONbits.TMR5ON = 1; break;
  8748  0676  30F3               	movlw	243
  8749  0677                     L139:	
  8750  0677  0028               	movlb	8	; select bank8
  8751  0678  0099               	movwf	25	;volatile
  8752  0679  3080               	movlw	128
  8753  067A  2E98               	goto	L6
  8754  067B                     i1l6714:	
  8755                           ;2_3DIM.c: 1044: case '4':
  8756                           
  8757                           
  8758                           ;2_3DIM.c: 1045: TMR5H=0xF5; TMR5L=0x10; T5CONbits.TMR5ON = 1; break;
  8759  067B  30F5               	movlw	245
  8760  067C                     L140:	
  8761  067C  0028               	movlb	8	; select bank8
  8762  067D  0099               	movwf	25	;volatile
  8763  067E  3010               	movlw	16
  8764  067F  2E98               	goto	L6
  8765  0680                     i1l6718:	
  8766                           ;2_3DIM.c: 1046: case '5':
  8767                           
  8768                           
  8769                           ;2_3DIM.c: 1047: TMR5H=0xF6; TMR5L=0xA0; T5CONbits.TMR5ON = 1; break;
  8770  0680  30F6               	movlw	246
  8771  0681                     L141:	
  8772  0681  0028               	movlb	8	; select bank8
  8773  0682  0099               	movwf	25	;volatile
  8774  0683  30A0               	movlw	160
  8775  0684  2E98               	goto	L6
  8776  0685                     i1l6722:	
  8777                           ;2_3DIM.c: 1048: case '6':
  8778                           
  8779                           
  8780                           ;2_3DIM.c: 1049: TMR5H=0xF8; TMR5L=0x30; T5CONbits.TMR5ON = 1; break;
  8781  0685  30F8               	movlw	248
  8782  0686                     L142:	
  8783  0686  0028               	movlb	8	; select bank8
  8784  0687  0099               	movwf	25	;volatile
  8785  0688  3030               	movlw	48
  8786  0689  2E98               	goto	L6
  8787  068A                     i1l6726:	
  8788                           ;2_3DIM.c: 1050: case '7':
  8789                           
  8790                           
  8791                           ;2_3DIM.c: 1051: TMR5H=0xF9; TMR5L=0xC0; T5CONbits.TMR5ON = 1; break;
  8792  068A  30F9               	movlw	249
  8793  068B                     L143:	
  8794  068B  0028               	movlb	8	; select bank8
  8795  068C  0099               	movwf	25	;volatile
  8796  068D  30C0               	movlw	192
  8797  068E  2E98               	goto	L6
  8798  068F                     i1l6730:	
  8799                           ;2_3DIM.c: 1052: case '8':
  8800                           
  8801                           
  8802                           ;2_3DIM.c: 1053: TMR5H=0xFB; TMR5L=0x50; T5CONbits.TMR5ON = 1; break;
  8803  068F  30FB               	movlw	251
  8804  0690                     L144:	
  8805  0690  0028               	movlb	8	; select bank8
  8806  0691  0099               	movwf	25	;volatile
  8807  0692  3050               	movlw	80
  8808  0693  2E98               	goto	L6
  8809  0694                     i1l6734:	
  8810                           ;2_3DIM.c: 1054: case '9':
  8811                           
  8812                           
  8813                           ;2_3DIM.c: 1055: TMR5H=0xFC; TMR5L=0xE0; T5CONbits.TMR5ON = 1; break;
  8814  0694  30FC               	movlw	252
  8815  0695                     L114:	
  8816  0695  0028               	movlb	8	; select bank8
  8817  0696  0099               	movwf	25	;volatile
  8818  0697  30E0               	movlw	224
  8819  0698                     L6:	
  8820  0698  0098               	movwf	24	;volatile
  8821  0699                     i1l6736:	
  8822  0699  141A               	bsf	26,0	;volatile
  8823                           
  8824                           ;2_3DIM.c: 1058: }
  8825                           
  8826                           ;2_3DIM.c: 1057: break;
  8827                           
  8828                           ;2_3DIM.c: 1056: default:
  8829  069A  2EC2               	goto	i1l566
  8830  069B                     i1l6740:	
  8831                           
  8832                           ; Switch on 2 bytes has been partitioned into a top level switch of size 1, and 1 sub-sw
      +                          itches
  8833                           ; Switch size 1, requested type "space"
  8834                           ; Number of cases is 1, Range of values is 0 to 0
  8835                           ; switch strategies available:
  8836                           ; Name         Instructions Cycles
  8837                           ; simple_byte            4     3 (average)
  8838                           ; direct_byte            8     6 (fixed)
  8839                           ; jumptable            260     6 (fixed)
  8840                           ;	Chosen strategy is simple_byte
  8841  069B  0020               	movlb	0	; select bank0
  8842  069C  0852               	movf	_FAN_SPEED3_1s+1,w
  8843  069D  3A00               	xorlw	0	; case 0
  8844  069E  1903               	skipnz
  8845  069F  2EA1               	goto	i1l10782
  8846  06A0  2EC2               	goto	i1l566
  8847  06A1                     i1l10782:	
  8848                           
  8849                           ; Switch size 1, requested type "space"
  8850                           ; Number of cases is 10, Range of values is 48 to 57
  8851                           ; switch strategies available:
  8852                           ; Name         Instructions Cycles
  8853                           ; direct_byte           29     9 (fixed)
  8854                           ; simple_byte           31    16 (average)
  8855                           ; jumptable            263     9 (fixed)
  8856                           ;	Chosen strategy is direct_byte
  8857  06A1  0851               	movf	_FAN_SPEED3_1s,w
  8858  06A2  3ED0               	addlw	-48
  8859  06A3  1C03               	skipc
  8860  06A4  2EC2               	goto	i1l566
  8861  06A5  0084               	movwf	4
  8862  06A6  300A               	movlw	10
  8863  06A7  0204               	subwf	4,w
  8864  06A8  1803               	skipnc
  8865  06A9  2EC2               	goto	i1l566
  8866  06AA  3190               	movlp	high i1S10784
  8867  06AB  3504               	lslf	4,w
  8868  06AC  3E78               	addlw	low i1S10784
  8869  06AD  0082               	movwf	2
  8870                           
  8871                           ;2_3DIM.c: 1062: }
  8872                           
  8873                           ;2_3DIM.c: 1061: break;
  8874                           
  8875                           ;2_3DIM.c: 1060: default:
  8876                           
  8877                           ;2_3DIM.c: 1059: break;
  8878  06AE  2EC2               	goto	i1l566
  8879  06AF                     i1l6744:	
  8880                           
  8881                           ; Switch on 2 bytes has been partitioned into a top level switch of size 1, and 1 sub-sw
      +                          itches
  8882                           ; Switch size 1, requested type "space"
  8883                           ; Number of cases is 1, Range of values is 0 to 0
  8884                           ; switch strategies available:
  8885                           ; Name         Instructions Cycles
  8886                           ; simple_byte            4     3 (average)
  8887                           ; direct_byte            8     6 (fixed)
  8888                           ; jumptable            260     6 (fixed)
  8889                           ;	Chosen strategy is simple_byte
  8890  06AF  0021               	movlb	1	; select bank1
  8891  06B0  0867               	movf	(_FAN_SPEED3_10s+1)^(0+128),w
  8892  06B1  3A00               	xorlw	0	; case 0
  8893  06B2  1903               	skipnz
  8894  06B3  2EB5               	goto	i1l10786
  8895  06B4  2EC2               	goto	i1l566
  8896  06B5                     i1l10786:	
  8897                           
  8898                           ; Switch size 1, requested type "space"
  8899                           ; Number of cases is 10, Range of values is 48 to 57
  8900                           ; switch strategies available:
  8901                           ; Name         Instructions Cycles
  8902                           ; direct_byte           29     9 (fixed)
  8903                           ; simple_byte           31    16 (average)
  8904                           ; jumptable            263     9 (fixed)
  8905                           ;	Chosen strategy is direct_byte
  8906  06B5  0866               	movf	_FAN_SPEED3_10s^(0+128),w
  8907  06B6  3ED0               	addlw	-48
  8908  06B7  1C03               	skipc
  8909  06B8  2EC2               	goto	i1l566
  8910  06B9  0084               	movwf	4
  8911  06BA  300A               	movlw	10
  8912  06BB  0204               	subwf	4,w
  8913  06BC  1803               	skipnc
  8914  06BD  2EC2               	goto	i1l566
  8915  06BE  3190               	movlp	high i1S10788
  8916  06BF  3504               	lslf	4,w
  8917  06C0  3E8C               	addlw	low i1S10788
  8918  06C1  0082               	movwf	2
  8919  06C2                     i1l566:	
  8920                           
  8921                           ;2_3DIM.c: 1063: }
  8922                           ;2_3DIM.c: 1064: PIR4bits.CCP9IF = 0;
  8923  06C2  0020               	movlb	0	; select bank0
  8924  06C3  1314               	bcf	20,6	;volatile
  8925  06C4                     i1l710:	
  8926  06C4  0871               	movf	??_isr+1,w
  8927  06C5  00FF               	movwf	127
  8928  06C6  107E               	bcf	126,0	;clear compiler interrupt flag (level 1)
  8929  06C7  0009               	retfie
  8930  06C8                     __end_of_isr:	
  8931  007E                     btemp	set	126	;btemp
  8932  007E                     int$flags	set	126
  8933  007E                     wtemp0	set	126
  8934                           
  8935                           	psect	swtext1
  8936  07EC                     __pswtext1:	
  8937  07EC                     i1S10660:	
  8938  07EC  3180  28B7         	ljmp	i1l5368
  8939  07EE  3180  28B9         	ljmp	i1l5372
  8940  07F0  3180  28BB         	ljmp	i1l5376
  8941  07F2  3180  28BF         	ljmp	i1l5380
  8942  07F4  3180  28C3         	ljmp	i1l5384
  8943  07F6  3180  28C5         	ljmp	i1l5388
  8944  07F8  3180  28C7         	ljmp	i1l5392
  8945  07FA  3180  28C9         	ljmp	i1l5398
  8946  07FC  3180  28CD         	ljmp	i1l5402
  8947  07FE  3180  28CE         	ljmp	i1l5406
  8948                           
  8949                           	psect	swtext2
  8950  0800                     __pswtext2:	
  8951  0800                     i1S10664:	
  8952  0800  3180  28E6         	ljmp	i1l5414
  8953  0802  3180  28E8         	ljmp	i1l5418
  8954  0804  3180  28EC         	ljmp	i1l5422
  8955  0806  3180  28EE         	ljmp	i1l5426
  8956  0808  3180  28F0         	ljmp	i1l5430
  8957  080A  3180  28F2         	ljmp	i1l5434
  8958  080C  3180  28F6         	ljmp	i1l5438
  8959  080E  3180  28F8         	ljmp	i1l5442
  8960  0810  3180  28FC         	ljmp	i1l5446
  8961  0812  3180  28FE         	ljmp	i1l5450
  8962                           
  8963                           	psect	swtext3
  8964  0814                     __pswtext3:	
  8965  0814                     i1S10668:	
  8966  0814  3181  2916         	ljmp	i1l5458
  8967  0816  3181  2918         	ljmp	i1l5462
  8968  0818  3181  291C         	ljmp	i1l5466
  8969  081A  3181  291E         	ljmp	i1l5470
  8970  081C  3181  2922         	ljmp	i1l5474
  8971  081E  3181  2924         	ljmp	i1l5478
  8972  0820  3181  2928         	ljmp	i1l5482
  8973  0822  3181  292A         	ljmp	i1l5486
  8974  0824  3181  292E         	ljmp	i1l5490
  8975  0826  3181  2930         	ljmp	i1l5494
  8976                           
  8977                           	psect	swtext4
  8978  0828                     __pswtext4:	
  8979  0828                     i1S10672:	
  8980  0828  3181  2948         	ljmp	i1l5502
  8981  082A  3181  294A         	ljmp	i1l5506
  8982  082C  3181  294C         	ljmp	i1l5510
  8983  082E  3181  294E         	ljmp	i1l5514
  8984  0830  3181  2950         	ljmp	i1l5518
  8985  0832  3181  2952         	ljmp	i1l5524
  8986  0834  3181  2954         	ljmp	i1l5528
  8987  0836  3181  2956         	ljmp	i1l5532
  8988  0838  3181  2958         	ljmp	i1l5536
  8989  083A  3181  295A         	ljmp	i1l5540
  8990                           
  8991                           	psect	swtext5
  8992  083C                     __pswtext5:	
  8993  083C                     i1S10676:	
  8994  083C  3181  2970         	ljmp	i1l5548
  8995  083E  3181  2972         	ljmp	i1l5552
  8996  0840  3181  2974         	ljmp	i1l5556
  8997  0842  3181  2976         	ljmp	i1l5560
  8998  0844  3181  2978         	ljmp	i1l5564
  8999  0846  3181  297A         	ljmp	i1l5568
  9000  0848  3181  297C         	ljmp	i1l5572
  9001  084A  3181  297E         	ljmp	i1l5576
  9002  084C  3181  2980         	ljmp	i1l5580
  9003  084E  3181  2982         	ljmp	i1l5584
  9004                           
  9005                           	psect	swtext6
  9006  0850                     __pswtext6:	
  9007  0850                     i1S10680:	
  9008  0850  3181  2998         	ljmp	i1l5592
  9009  0852  3181  299A         	ljmp	i1l5598
  9010  0854  3181  299C         	ljmp	i1l5602
  9011  0856  3181  299E         	ljmp	i1l5606
  9012  0858  3181  29A0         	ljmp	i1l5610
  9013  085A  3181  29A2         	ljmp	i1l5614
  9014  085C  3181  29A4         	ljmp	i1l5618
  9015  085E  3181  29A6         	ljmp	i1l5622
  9016  0860  3181  29A8         	ljmp	i1l5626
  9017  0862  3181  29AA         	ljmp	i1l5630
  9018                           
  9019                           	psect	swtext7
  9020  0864                     __pswtext7:	
  9021  0864                     i1S10684:	
  9022  0864  3181  29C0         	ljmp	i1l5638
  9023  0866  3181  29C2         	ljmp	i1l5642
  9024  0868  3181  29C4         	ljmp	i1l5646
  9025  086A  3181  29C6         	ljmp	i1l5650
  9026  086C  3181  29C8         	ljmp	i1l5654
  9027  086E  3181  29CA         	ljmp	i1l5658
  9028  0870  3181  29CC         	ljmp	i1l5662
  9029  0872  3181  29CE         	ljmp	i1l5668
  9030  0874  3181  29D0         	ljmp	i1l5672
  9031  0876  3181  29D2         	ljmp	i1l5676
  9032                           
  9033                           	psect	swtext8
  9034  0878                     __pswtext8:	
  9035  0878                     i1S10688:	
  9036  0878  3181  29E8         	ljmp	i1l5684
  9037  087A  3181  29EA         	ljmp	i1l5688
  9038  087C  3181  29EC         	ljmp	i1l5692
  9039  087E  3181  29EE         	ljmp	i1l5696
  9040  0880  3181  29F0         	ljmp	i1l5700
  9041  0882  3181  29F2         	ljmp	i1l5704
  9042  0884  3181  29F4         	ljmp	i1l5708
  9043  0886  3181  29F6         	ljmp	i1l5712
  9044  0888  3181  29F8         	ljmp	i1l5716
  9045  088A  3181  29FA         	ljmp	i1l5720
  9046                           
  9047                           	psect	swtext9
  9048  088C                     __pswtext9:	
  9049  088C                     i1S10692:	
  9050  088C  3182  2A10         	ljmp	i1l5728
  9051  088E  3182  2A12         	ljmp	i1l5732
  9052  0890  3182  2A16         	ljmp	i1l5736
  9053  0892  3182  2A1A         	ljmp	i1l5740
  9054  0894  3182  2A1E         	ljmp	i1l5744
  9055  0896  3182  2A22         	ljmp	i1l5750
  9056  0898  3182  2A26         	ljmp	i1l5754
  9057  089A  3182  2A2A         	ljmp	i1l5758
  9058  089C  3182  2A2E         	ljmp	i1l5762
  9059  089E  3182  2A32         	ljmp	i1l5766
  9060                           
  9061                           	psect	swtext10
  9062  08A0                     __pswtext10:	
  9063  08A0                     i1S10696:	
  9064  08A0  3182  2A4A         	ljmp	i1l5774
  9065  08A2  3182  2A4E         	ljmp	i1l5778
  9066  08A4  3182  2A52         	ljmp	i1l5782
  9067  08A6  3182  2A56         	ljmp	i1l5786
  9068  08A8  3182  2A5A         	ljmp	i1l5790
  9069  08AA  3182  2A5E         	ljmp	i1l5794
  9070  08AC  3182  2A62         	ljmp	i1l5798
  9071  08AE  3182  2A66         	ljmp	i1l5802
  9072  08B0  3182  2A6A         	ljmp	i1l5806
  9073  08B2  3182  2A6E         	ljmp	i1l5810
  9074                           
  9075                           	psect	swtext11
  9076  08B4                     __pswtext11:	
  9077  08B4                     i1S10700:	
  9078  08B4  3180  28D2         	ljmp	i1l5412
  9079  08B6  3181  2902         	ljmp	i1l5456
  9080  08B8  3181  2934         	ljmp	i1l5500
  9081  08BA  3181  295C         	ljmp	i1l5546
  9082  08BC  3181  2984         	ljmp	i1l5590
  9083  08BE  3181  29AC         	ljmp	i1l5636
  9084  08C0  3181  29D4         	ljmp	i1l5682
  9085  08C2  3181  29FC         	ljmp	i1l5726
  9086  08C4  3182  2A36         	ljmp	i1l5772
  9087  08C6  3182  2A74         	ljmp	i1l5816
  9088                           
  9089                           	psect	swtext12
  9090  08C8                     __pswtext12:	
  9091  08C8                     i1S10704:	
  9092  08C8  3182  2AAB         	ljmp	i1l5830
  9093  08CA  3182  2AAD         	ljmp	i1l5834
  9094  08CC  3182  2AAF         	ljmp	i1l5838
  9095  08CE  3182  2AB4         	ljmp	i1l5842
  9096  08D0  3182  2AB9         	ljmp	i1l5846
  9097  08D2  3182  2ABB         	ljmp	i1l5850
  9098  08D4  3182  2ABD         	ljmp	i1l5854
  9099  08D6  3182  2ABF         	ljmp	i1l5860
  9100  08D8  3182  2AC4         	ljmp	i1l5864
  9101  08DA  3182  2AC5         	ljmp	i1l5868
  9102                           
  9103                           	psect	swtext13
  9104  08DC                     __pswtext13:	
  9105  08DC                     i1S10708:	
  9106  08DC  3182  2ADE         	ljmp	i1l5876
  9107  08DE  3182  2AE0         	ljmp	i1l5880
  9108  08E0  3182  2AE5         	ljmp	i1l5884
  9109  08E2  3182  2AE7         	ljmp	i1l5888
  9110  08E4  3182  2AE9         	ljmp	i1l5892
  9111  08E6  3182  2AEB         	ljmp	i1l5896
  9112  08E8  3182  2AF0         	ljmp	i1l5900
  9113  08EA  3182  2AF2         	ljmp	i1l5904
  9114  08EC  3182  2AF7         	ljmp	i1l5908
  9115  08EE  3182  2AF9         	ljmp	i1l5912
  9116                           
  9117                           	psect	swtext14
  9118  0900                     __pswtext14:	
  9119  0900                     i1S10712:	
  9120  0900  3183  2B12         	ljmp	i1l5920
  9121  0902  3183  2B14         	ljmp	i1l5924
  9122  0904  3183  2B19         	ljmp	i1l5928
  9123  0906  3183  2B1B         	ljmp	i1l5932
  9124  0908  3183  2B20         	ljmp	i1l5936
  9125  090A  3183  2B22         	ljmp	i1l5940
  9126  090C  3183  2B27         	ljmp	i1l5944
  9127  090E  3183  2B29         	ljmp	i1l5948
  9128  0910  3183  2B2E         	ljmp	i1l5952
  9129  0912  3183  2B30         	ljmp	i1l5956
  9130                           
  9131                           	psect	swtext15
  9132  0914                     __pswtext15:	
  9133  0914                     i1S10716:	
  9134  0914  3183  2B49         	ljmp	i1l5964
  9135  0916  3183  2B4B         	ljmp	i1l5968
  9136  0918  3183  2B4D         	ljmp	i1l5972
  9137  091A  3183  2B4F         	ljmp	i1l5976
  9138  091C  3183  2B51         	ljmp	i1l5980
  9139  091E  3183  2B53         	ljmp	i1l5986
  9140  0920  3183  2B55         	ljmp	i1l5990
  9141  0922  3183  2B57         	ljmp	i1l5994
  9142  0924  3183  2B59         	ljmp	i1l5998
  9143  0926  3183  2B5B         	ljmp	i1l6002
  9144                           
  9145                           	psect	swtext16
  9146  0928                     __pswtext16:	
  9147  0928                     i1S10720:	
  9148  0928  3183  2B71         	ljmp	i1l6010
  9149  092A  3183  2B73         	ljmp	i1l6014
  9150  092C  3183  2B75         	ljmp	i1l6018
  9151  092E  3183  2B77         	ljmp	i1l6022
  9152  0930  3183  2B79         	ljmp	i1l6026
  9153  0932  3183  2B7B         	ljmp	i1l6030
  9154  0934  3183  2B7D         	ljmp	i1l6034
  9155  0936  3183  2B7F         	ljmp	i1l6038
  9156  0938  3183  2B81         	ljmp	i1l6042
  9157  093A  3183  2B83         	ljmp	i1l6046
  9158                           
  9159                           	psect	swtext17
  9160  093C                     __pswtext17:	
  9161  093C                     i1S10724:	
  9162  093C  3183  2B99         	ljmp	i1l6054
  9163  093E  3183  2B9B         	ljmp	i1l6060
  9164  0940  3183  2B9D         	ljmp	i1l6064
  9165  0942  3183  2B9F         	ljmp	i1l6068
  9166  0944  3183  2BA1         	ljmp	i1l6072
  9167  0946  3183  2BA3         	ljmp	i1l6076
  9168  0948  3183  2BA5         	ljmp	i1l6080
  9169  094A  3183  2BA7         	ljmp	i1l6084
  9170  094C  3183  2BA9         	ljmp	i1l6088
  9171  094E  3183  2BAB         	ljmp	i1l6092
  9172                           
  9173                           	psect	swtext18
  9174  0950                     __pswtext18:	
  9175  0950                     i1S10728:	
  9176  0950  3183  2BC1         	ljmp	i1l6100
  9177  0952  3183  2BC3         	ljmp	i1l6104
  9178  0954  3183  2BC5         	ljmp	i1l6108
  9179  0956  3183  2BC7         	ljmp	i1l6112
  9180  0958  3183  2BC9         	ljmp	i1l6116
  9181  095A  3183  2BCB         	ljmp	i1l6120
  9182  095C  3183  2BCD         	ljmp	i1l6124
  9183  095E  3183  2BCF         	ljmp	i1l6130
  9184  0960  3183  2BD1         	ljmp	i1l6134
  9185  0962  3183  2BD3         	ljmp	i1l6138
  9186                           
  9187                           	psect	swtext19
  9188  0964                     __pswtext19:	
  9189  0964                     i1S10732:	
  9190  0964  3183  2BE9         	ljmp	i1l6146
  9191  0966  3183  2BEB         	ljmp	i1l6150
  9192  0968  3183  2BED         	ljmp	i1l6154
  9193  096A  3183  2BEF         	ljmp	i1l6158
  9194  096C  3183  2BF1         	ljmp	i1l6162
  9195  096E  3183  2BF3         	ljmp	i1l6166
  9196  0970  3183  2BF5         	ljmp	i1l6170
  9197  0972  3183  2BF7         	ljmp	i1l6174
  9198  0974  3183  2BF9         	ljmp	i1l6178
  9199  0976  3183  2BFB         	ljmp	i1l6182
  9200                           
  9201                           	psect	swtext20
  9202  0978                     __pswtext20:	
  9203  0978                     i1S10736:	
  9204  0978  3184  2C11         	ljmp	i1l6190
  9205  097A  3184  2C13         	ljmp	i1l6194
  9206  097C  3184  2C18         	ljmp	i1l6198
  9207  097E  3184  2C1D         	ljmp	i1l6202
  9208  0980  3184  2C22         	ljmp	i1l6206
  9209  0982  3184  2C27         	ljmp	i1l6212
  9210  0984  3184  2C2C         	ljmp	i1l6216
  9211  0986  3184  2C31         	ljmp	i1l6220
  9212  0988  3184  2C36         	ljmp	i1l6224
  9213  098A  3184  2C3B         	ljmp	i1l6228
  9214                           
  9215                           	psect	swtext21
  9216  098C                     __pswtext21:	
  9217  098C                     i1S10740:	
  9218  098C  3184  2C54         	ljmp	i1l6236
  9219  098E  3184  2C59         	ljmp	i1l6240
  9220  0990  3184  2C5E         	ljmp	i1l6244
  9221  0992  3184  2C63         	ljmp	i1l6248
  9222  0994  3184  2C68         	ljmp	i1l6252
  9223  0996  3184  2C6D         	ljmp	i1l6256
  9224  0998  3184  2C72         	ljmp	i1l6260
  9225  099A  3184  2C77         	ljmp	i1l6264
  9226  099C  3184  2C7C         	ljmp	i1l6268
  9227  099E  3184  2C81         	ljmp	i1l6272
  9228                           
  9229                           	psect	swtext22
  9230  09A0                     __pswtext22:	
  9231  09A0                     i1S10744:	
  9232  09A0  3182  2ACA         	ljmp	i1l5874
  9233  09A2  3182  2AFE         	ljmp	i1l5918
  9234  09A4  3183  2B35         	ljmp	i1l5962
  9235  09A6  3183  2B5D         	ljmp	i1l6008
  9236  09A8  3183  2B85         	ljmp	i1l6052
  9237  09AA  3183  2BAD         	ljmp	i1l6098
  9238  09AC  3183  2BD5         	ljmp	i1l6144
  9239  09AE  3183  2BFD         	ljmp	i1l6188
  9240  09B0  3184  2C40         	ljmp	i1l6234
  9241  09B2  3184  2C88         	ljmp	i1l6278
  9242                           
  9243                           	psect	swtext23
  9244  09B4                     __pswtext23:	
  9245  09B4                     i1S10748:	
  9246  09B4  3184  2CBE         	ljmp	i1l6292
  9247  09B6  3184  2CC0         	ljmp	i1l6296
  9248  09B8  3184  2CC2         	ljmp	i1l6300
  9249  09BA  3184  2CC7         	ljmp	i1l6304
  9250  09BC  3184  2CCC         	ljmp	i1l6308
  9251  09BE  3184  2CCE         	ljmp	i1l6312
  9252  09C0  3184  2CD0         	ljmp	i1l6316
  9253  09C2  3184  2CD2         	ljmp	i1l6322
  9254  09C4  3184  2CD7         	ljmp	i1l6326
  9255  09C6  3184  2CD8         	ljmp	i1l6330
  9256                           
  9257                           	psect	swtext24
  9258  09C8                     __pswtext24:	
  9259  09C8                     i1S10752:	
  9260  09C8  3184  2CF1         	ljmp	i1l6338
  9261  09CA  3184  2CF3         	ljmp	i1l6342
  9262  09CC  3184  2CF8         	ljmp	i1l6346
  9263  09CE  3184  2CFA         	ljmp	i1l6350
  9264  09D0  3184  2CFC         	ljmp	i1l6354
  9265  09D2  3184  2CFE         	ljmp	i1l6358
  9266  09D4  3185  2D03         	ljmp	i1l6362
  9267  09D6  3185  2D05         	ljmp	i1l6366
  9268  09D8  3185  2D0A         	ljmp	i1l6370
  9269  09DA  3185  2D0C         	ljmp	i1l6374
  9270                           
  9271                           	psect	swtext25
  9272  09DC                     __pswtext25:	
  9273  09DC                     i1S10756:	
  9274  09DC  3185  2D25         	ljmp	i1l6382
  9275  09DE  3185  2D27         	ljmp	i1l6386
  9276  09E0  3185  2D2C         	ljmp	i1l6390
  9277  09E2  3185  2D2E         	ljmp	i1l6394
  9278  09E4  3185  2D33         	ljmp	i1l6398
  9279  09E6  3185  2D35         	ljmp	i1l6402
  9280  09E8  3185  2D3A         	ljmp	i1l6406
  9281  09EA  3185  2D3C         	ljmp	i1l6410
  9282  09EC  3185  2D41         	ljmp	i1l6414
  9283  09EE  3185  2D43         	ljmp	i1l6418
  9284                           
  9285                           	psect	swtext26
  9286  1000                     __pswtext26:	
  9287  1000                     i1S10760:	
  9288  1000  3185  2D5C         	ljmp	i1l6426
  9289  1002  3185  2D5E         	ljmp	i1l6430
  9290  1004  3185  2D60         	ljmp	i1l6434
  9291  1006  3185  2D62         	ljmp	i1l6438
  9292  1008  3185  2D64         	ljmp	i1l6442
  9293  100A  3185  2D66         	ljmp	i1l6448
  9294  100C  3185  2D68         	ljmp	i1l6452
  9295  100E  3185  2D6A         	ljmp	i1l6456
  9296  1010  3185  2D6C         	ljmp	i1l6460
  9297  1012  3185  2D6E         	ljmp	i1l6464
  9298                           
  9299                           	psect	swtext27
  9300  1014                     __pswtext27:	
  9301  1014                     i1S10764:	
  9302  1014  3185  2D84         	ljmp	i1l6472
  9303  1016  3185  2D86         	ljmp	i1l6476
  9304  1018  3185  2D88         	ljmp	i1l6480
  9305  101A  3185  2D8A         	ljmp	i1l6484
  9306  101C  3185  2D8C         	ljmp	i1l6488
  9307  101E  3185  2D8E         	ljmp	i1l6492
  9308  1020  3185  2D90         	ljmp	i1l6496
  9309  1022  3185  2D92         	ljmp	i1l6500
  9310  1024  3185  2D94         	ljmp	i1l6504
  9311  1026  3185  2D96         	ljmp	i1l6508
  9312                           
  9313                           	psect	swtext28
  9314  1028                     __pswtext28:	
  9315  1028                     i1S10768:	
  9316  1028  3185  2DAC         	ljmp	i1l6516
  9317  102A  3185  2DAE         	ljmp	i1l6522
  9318  102C  3185  2DB0         	ljmp	i1l6526
  9319  102E  3185  2DB2         	ljmp	i1l6530
  9320  1030  3185  2DB4         	ljmp	i1l6534
  9321  1032  3185  2DB6         	ljmp	i1l6538
  9322  1034  3185  2DB8         	ljmp	i1l6542
  9323  1036  3185  2DBA         	ljmp	i1l6546
  9324  1038  3185  2DBC         	ljmp	i1l6550
  9325  103A  3185  2DBE         	ljmp	i1l6554
  9326                           
  9327                           	psect	swtext29
  9328  103C                     __pswtext29:	
  9329  103C                     i1S10772:	
  9330  103C  3185  2DD4         	ljmp	i1l6562
  9331  103E  3185  2DD6         	ljmp	i1l6566
  9332  1040  3185  2DD8         	ljmp	i1l6570
  9333  1042  3185  2DDA         	ljmp	i1l6574
  9334  1044  3185  2DDC         	ljmp	i1l6578
  9335  1046  3185  2DDE         	ljmp	i1l6582
  9336  1048  3185  2DE0         	ljmp	i1l6586
  9337  104A  3185  2DE2         	ljmp	i1l6592
  9338  104C  3185  2DE4         	ljmp	i1l6596
  9339  104E  3185  2DE6         	ljmp	i1l6600
  9340                           
  9341                           	psect	swtext30
  9342  1050                     __pswtext30:	
  9343  1050                     i1S10776:	
  9344  1050  3185  2DFC         	ljmp	i1l6608
  9345  1052  3185  2DFE         	ljmp	i1l6612
  9346  1054  3186  2E00         	ljmp	i1l6616
  9347  1056  3186  2E02         	ljmp	i1l6620
  9348  1058  3186  2E04         	ljmp	i1l6624
  9349  105A  3186  2E06         	ljmp	i1l6628
  9350  105C  3186  2E08         	ljmp	i1l6632
  9351  105E  3186  2E0A         	ljmp	i1l6636
  9352  1060  3186  2E0C         	ljmp	i1l6640
  9353  1062  3186  2E0E         	ljmp	i1l6644
  9354                           
  9355                           	psect	swtext31
  9356  1064                     __pswtext31:	
  9357  1064                     i1S10780:	
  9358  1064  3186  2E24         	ljmp	i1l6652
  9359  1066  3186  2E26         	ljmp	i1l6656
  9360  1068  3186  2E2B         	ljmp	i1l6660
  9361  106A  3186  2E30         	ljmp	i1l6664
  9362  106C  3186  2E35         	ljmp	i1l6668
  9363  106E  3186  2E3A         	ljmp	i1l6674
  9364  1070  3186  2E3F         	ljmp	i1l6678
  9365  1072  3186  2E44         	ljmp	i1l6682
  9366  1074  3186  2E49         	ljmp	i1l6686
  9367  1076  3186  2E4E         	ljmp	i1l6690
  9368                           
  9369                           	psect	swtext32
  9370  1078                     __pswtext32:	
  9371  1078                     i1S10784:	
  9372  1078  3186  2E67         	ljmp	i1l6698
  9373  107A  3186  2E6C         	ljmp	i1l6702
  9374  107C  3186  2E71         	ljmp	i1l6706
  9375  107E  3186  2E76         	ljmp	i1l6710
  9376  1080  3186  2E7B         	ljmp	i1l6714
  9377  1082  3186  2E80         	ljmp	i1l6718
  9378  1084  3186  2E85         	ljmp	i1l6722
  9379  1086  3186  2E8A         	ljmp	i1l6726
  9380  1088  3186  2E8F         	ljmp	i1l6730
  9381  108A  3186  2E94         	ljmp	i1l6734
  9382                           
  9383                           	psect	swtext33
  9384  108C                     __pswtext33:	
  9385  108C                     i1S10788:	
  9386  108C  3184  2CDD         	ljmp	i1l6336
  9387  108E  3185  2D11         	ljmp	i1l6380
  9388  1090  3185  2D48         	ljmp	i1l6424
  9389  1092  3185  2D70         	ljmp	i1l6470
  9390  1094  3185  2D98         	ljmp	i1l6514
  9391  1096  3185  2DC0         	ljmp	i1l6560
  9392  1098  3185  2DE8         	ljmp	i1l6606
  9393  109A  3186  2E10         	ljmp	i1l6650
  9394  109C  3186  2E53         	ljmp	i1l6696
  9395  109E  3186  2E9B         	ljmp	i1l6740


Data Sizes:
    Strings     12
    Constant    0
    Data        120
    BSS         43
    Persistent  0
    Stack       0

Auto Spaces:
    Space          Size  Autos    Used
    COMMON           14     10      12
    BANK0            80     37      66
    BANK1            80     16      76
    BANK2            80      0      72
    BANK3            80      0       0
    BANK4            80      0       0
    BANK5            80      0       0
    BANK6            80      0       0
    BANK7            80      0       0
    BANK8            80      0       0
    BANK9            32      0       0

Pointer List with Targets:

    atoi@s	PTR const unsigned char  size(1) Largest target is 2
		 -> ACTION@FanSpeedString(BANK0[2]), ACTION@SwNumString(BANK0[2]), 

    writeUART@str2Write	PTR unsigned char  size(1) Largest target is 26
		 -> st(BANK1[26]), 


Critical Paths under _main in COMMON

    _ACTION->_atoi
    _atoi->___wmul

Critical Paths under _isr in COMMON

    None.

Critical Paths under _main in BANK0

    _main->_ACTION
    _ACTION->_atoi

Critical Paths under _isr in BANK0

    None.

Critical Paths under _main in BANK1

    None.

Critical Paths under _isr in BANK1

    None.

Critical Paths under _main in BANK2

    None.

Critical Paths under _isr in BANK2

    None.

Critical Paths under _main in BANK3

    None.

Critical Paths under _isr in BANK3

    None.

Critical Paths under _main in BANK4

    None.

Critical Paths under _isr in BANK4

    None.

Critical Paths under _main in BANK5

    None.

Critical Paths under _isr in BANK5

    None.

Critical Paths under _main in BANK6

    None.

Critical Paths under _isr in BANK6

    None.

Critical Paths under _main in BANK7

    None.

Critical Paths under _isr in BANK7

    None.

Critical Paths under _main in BANK8

    None.

Critical Paths under _isr in BANK8

    None.

Critical Paths under _main in BANK9

    None.

Critical Paths under _isr in BANK9

    None.

Call Graph Tables:

 ---------------------------------------------------------------------------------
 (Depth) Function   	        Calls       Base Space   Used Autos Params    Refs
 ---------------------------------------------------------------------------------
 (0) _main                                                22    22      0    5370
                                             31 BANK0      6     6      0
                                              0 BANK1     16    16      0
                             _ACTION
                         _copy_frame
                     _periperal_init
                        _pin_manager
                          _writeUART
 ---------------------------------------------------------------------------------
 (1) _pin_manager                                          0     0      0       0
 ---------------------------------------------------------------------------------
 (1) _periperal_init                                       0     0      0       0
                    _CCP1_Initialize
                    _CCP3_Initialize
                    _CCP9_Initialize
                  _EUSART_Initialize
                    _TMR1_Initialize
                    _TMR2_Initialize
                    _TMR3_Initialize
                    _TMR4_Initialize
                    _TMR5_Initialize
                    _TMR6_Initialize
 ---------------------------------------------------------------------------------
 (2) _TMR6_Initialize                                      0     0      0       0
 ---------------------------------------------------------------------------------
 (2) _TMR5_Initialize                                      0     0      0       0
 ---------------------------------------------------------------------------------
 (2) _TMR4_Initialize                                      0     0      0       0
 ---------------------------------------------------------------------------------
 (2) _TMR3_Initialize                                      0     0      0       0
 ---------------------------------------------------------------------------------
 (2) _TMR2_Initialize                                      0     0      0       0
 ---------------------------------------------------------------------------------
 (2) _TMR1_Initialize                                      0     0      0       0
 ---------------------------------------------------------------------------------
 (2) _EUSART_Initialize                                    0     0      0       0
 ---------------------------------------------------------------------------------
 (2) _CCP9_Initialize                                      0     0      0       0
 ---------------------------------------------------------------------------------
 (2) _CCP3_Initialize                                      0     0      0       0
 ---------------------------------------------------------------------------------
 (2) _CCP1_Initialize                                      0     0      0       0
 ---------------------------------------------------------------------------------
 (1) _copy_frame                                           9     5      4     461
                                              2 COMMON     5     1      4
                                              0 BANK0      4     4      0
 ---------------------------------------------------------------------------------
 (1) _ACTION                                              25    19      6    3679
                                              6 BANK0     25    19      6
                               _atoi
                          _writeUART
 ---------------------------------------------------------------------------------
 (1) _writeUART                                            4     4      0     401
                                              2 COMMON     4     4      0
 ---------------------------------------------------------------------------------
 (2) _atoi                                                 8     6      2     759
                                              8 COMMON     2     0      2
                                              0 BANK0      6     6      0
                             ___wmul
                            _isdigit
 ---------------------------------------------------------------------------------
 (3) _isdigit                                              2     2      0      99
                                              2 COMMON     2     2      0
 ---------------------------------------------------------------------------------
 (3) ___wmul                                               6     2      4     266
                                              2 COMMON     6     2      4
 ---------------------------------------------------------------------------------
 Estimated maximum stack depth 3
 ---------------------------------------------------------------------------------
 (Depth) Function   	        Calls       Base Space   Used Autos Params    Refs
 ---------------------------------------------------------------------------------
 (4) _isr                                                  2     2      0       0
                                              0 COMMON     2     2      0
 ---------------------------------------------------------------------------------
 Estimated maximum stack depth 4
 ---------------------------------------------------------------------------------

 Call Graph Graphs:

 _main (ROOT)
   _ACTION
     _atoi
       ___wmul
       _isdigit
     _writeUART
   _copy_frame
   _periperal_init
     _CCP1_Initialize
     _CCP3_Initialize
     _CCP9_Initialize
     _EUSART_Initialize
     _TMR1_Initialize
     _TMR2_Initialize
     _TMR3_Initialize
     _TMR4_Initialize
     _TMR5_Initialize
     _TMR6_Initialize
   _pin_manager
   _writeUART

 _isr (ROOT)

 Address spaces:
Name               Size   Autos  Total    Cost      Usage
BIGRAM             2F0      0       0       0        0.0%
NULL                 0      0       0       0        0.0%
CODE                 0      0       0       0        0.0%
BITCOMMON            E      0       0       1        0.0%
BITSFR0              0      0       0       1        0.0%
SFR0                 0      0       0       1        0.0%
COMMON               E      A       C       2       85.7%
BITSFR1              0      0       0       2        0.0%
SFR1                 0      0       0       2        0.0%
BITSFR2              0      0       0       3        0.0%
SFR2                 0      0       0       3        0.0%
STACK                0      0       0       3        0.0%
BITSFR3              0      0       0       4        0.0%
SFR3                 0      0       0       4        0.0%
ABS                  0      0      E2       4        0.0%
BITBANK0            50      0       0       5        0.0%
BITSFR4              0      0       0       5        0.0%
SFR4                 0      0       0       5        0.0%
BANK0               50     25      42       6       82.5%
BITSFR5              0      0       0       6        0.0%
SFR5                 0      0       0       6        0.0%
BITBANK1            50      0       0       7        0.0%
BITSFR6              0      0       0       7        0.0%
SFR6                 0      0       0       7        0.0%
BANK1               50     10      4C       8       95.0%
BITSFR7              0      0       0       8        0.0%
SFR7                 0      0       0       8        0.0%
BITBANK2            50      0       0       9        0.0%
BITSFR8              0      0       0       9        0.0%
SFR8                 0      0       0       9        0.0%
BANK2               50      0      48      10       90.0%
BITSFR9              0      0       0      10        0.0%
SFR9                 0      0       0      10        0.0%
BITBANK3            50      0       0      11        0.0%
BITSFR10             0      0       0      11        0.0%
SFR10                0      0       0      11        0.0%
BANK3               50      0       0      12        0.0%
BITSFR11             0      0       0      12        0.0%
SFR11                0      0       0      12        0.0%
BITBANK4            50      0       0      13        0.0%
BITSFR12             0      0       0      13        0.0%
SFR12                0      0       0      13        0.0%
BANK4               50      0       0      14        0.0%
BITSFR13             0      0       0      14        0.0%
SFR13                0      0       0      14        0.0%
BITBANK5            50      0       0      15        0.0%
BITSFR14             0      0       0      15        0.0%
SFR14                0      0       0      15        0.0%
BANK5               50      0       0      16        0.0%
BITSFR15             0      0       0      16        0.0%
SFR15                0      0       0      16        0.0%
BITBANK6            50      0       0      17        0.0%
BITSFR16             0      0       0      17        0.0%
SFR16                0      0       0      17        0.0%
BANK6               50      0       0      18        0.0%
BITSFR17             0      0       0      18        0.0%
SFR17                0      0       0      18        0.0%
BITBANK7            50      0       0      19        0.0%
BITSFR18             0      0       0      19        0.0%
SFR18                0      0       0      19        0.0%
BANK7               50      0       0      20        0.0%
BITSFR19             0      0       0      20        0.0%
SFR19                0      0       0      20        0.0%
BITBANK8            50      0       0      21        0.0%
BITSFR20             0      0       0      21        0.0%
SFR20                0      0       0      21        0.0%
BANK8               50      0       0      22        0.0%
BITSFR21             0      0       0      22        0.0%
SFR21                0      0       0      22        0.0%
BITBANK9            20      0       0      23        0.0%
BITSFR22             0      0       0      23        0.0%
SFR22                0      0       0      23        0.0%
BANK9               20      0       0      24        0.0%
BITSFR23             0      0       0      24        0.0%
SFR23                0      0       0      24        0.0%
BITSFR24             0      0       0      25        0.0%
SFR24                0      0       0      25        0.0%
DATA                 0      0      E2      25        0.0%
BITSFR25             0      0       0      26        0.0%
SFR25                0      0       0      26        0.0%
BITSFR26             0      0       0      27        0.0%
SFR26                0      0       0      27        0.0%
BITSFR27             0      0       0      28        0.0%
SFR27                0      0       0      28        0.0%
BITSFR28             0      0       0      29        0.0%
SFR28                0      0       0      29        0.0%
BITSFR29             0      0       0      30        0.0%
SFR29                0      0       0      30        0.0%
BITSFR30             0      0       0      31        0.0%
SFR30                0      0       0      31        0.0%
BITSFR31             0      0       0      32        0.0%
SFR31                0      0       0      32        0.0%


Microchip Technology PIC Macro Assembler V1.45 build -152302408 
Symbol Table                                                                                   Fri Oct 05 12:42:58 2018

   __size_of_periperal_init 001E                           _i 005B                           pc 0002  
               __CFG_CP$OFF 0000                          _M1 004D                          _M2 004B  
                        _M3 0049                          _M4 0047                          _M5 0045  
                        _ak 0057                          _pk 0059                          _tk 007A  
                        _st 00B4         ___wmul@multiplicand 0074     __end_of_CCP1_Initialize 1800  
                       l832 0A2F                         l761 07BB                         l770 0B4B  
                       l772 0B58                         l791 0A16                         l783 0C25  
                       l775 0BA1                         l786 0C40                         l779 0BE3  
                       _GIE 005F                         _RA2 0062                         _RA3 0063  
                       _RA5 0065                         _RF0 1460                         _RF1 1461  
                       _RF2 1462                         _RF3 1463                         _RE5 0085  
                       _RF5 1465                         _RF7 1467                         _PR2 001B  
                       _PR4 0416                         _PR6 041D                         _man 0060  
                       _isr 0004             _TMR2_Initialize 17CB                __CFG_BORV$LO 0000  
                       wreg 0009                __CFG_FOSC$HS 0000                __CFG_LVP$OFF 0000  
                      l9110 0D8D                        l9104 0D6F                        l9112 0D90  
                      l9212 0EE0                        l9124 0DD9                        ?_isr 0070  
                      l9142 0E0F                        l9118 0D9E                        l9038 0C86  
                      l9312 0FF9                        l9232 0F19                        l9216 0EE8  
                      l9160 0E43                        l9072 0CEF                        l9064 0CD3  
                      l9138 0E06                        l9082 0D10                        l9090 0D32  
                      l9252 0F50                        l9236 0F1F                        l9156 0E3C  
                      l9092 0D38                        l9174 0E71                        l8800 0A11  
                      l9272 0F89                        l9256 0F58                        l9192 0EA8  
                      l9178 0E7A                        l8804 0708                        l9292 0FC0  
                      l9276 0F8F                        l9196 0EAF                        l8670 0A29  
                      l8822 072A                        l8806 0701                        l8832 0765  
                      l8824 072E                        l8816 0723                        l8808 070D  
                      l9296 0FC8                        l8690 08FE                        l8826 0755  
                      l8940 0B52                        l8950 0B7D                        l8942 0B5F  
                      l8952 0B80                        l8944 0B65                        l8938 0B47  
                      l8972 0BE8                        l8964 0BBF                        l8966 0BC2  
                      l8958 0BA6                        STR_1 10A0                        l8984 0C04  
                      l8992 0C2A                        l8888 07E8                        u3135 0D6D  
                      u3145 0D8B                        u2800 0B5D                        u2625 0A30  
                      u2635 0A35                        u2910 0C01                        u2830 0B7B  
                      u3607 0D54                        u2755 07C5                        _PEIE 005E  
                      u2780 0B50                        u2870 0BBD                        u3577 0C47  
                      u3587 0D3C                        _RCIF 008D                        u3597 0D48  
                      u2995 0CB0                        _TMR2 001A                        _TMR4 0415  
                      _TMR6 041C                        _WPUE 0210                        _WPUG 048D  
              __CFG_WRT$OFF 0000           ACTION@SwNumString 0037                        _atoi 06FF  
         writeUART@Tx_count 0073                        _main 0C41                        _copy 0120  
                      _name 0144                        fsr0h 0005                        fsr1h 0007  
                      indf0 0000                        fsr0l 0004                        indf1 0001  
                      fsr1l 0006                        btemp 007E                        start 06C8  
             __CFG_IESO$OFF 0000             _TMR3_Initialize 17D5                       ??_isr 0070  
              main@end_flag 00D8                       l10656 0C2F                       ?_atoi 0078  
   __end_of_CCP3_Initialize 17C1                       ?_main 0070               __CFG_WDTE$OFF 0000  
                     _T1CON 0018                       _T2CON 001C                       _T3CON 0413  
                     _T4CON 0417                       _T5CON 041A                       _T6CON 041E  
                     i1l251 0044                       i1l420 04B1                       i1l260 0055  
                     i1l421 04AF                       i1l245 0010                       i1l270 0096  
                     i1l254 004A                       i1l263 0069                       i1l248 0016  
                     i1l257 004F                       i1l274 00A9                       i1l275 029D  
                     i1l276 029B                       i1l268 007F                       i1l710 06C4  
                     i1l566 06C2                       _TMR1H 0017                       _TMR3H 0412  
                     _TMR1L 0016                       _TMR3L 0411                       _TMR5H 0419  
                     _TMR5L 0418             _TMR4_Initialize 17A5              __CFG_FCMEN$OFF 0000  
           __end_of_isdigit 0900                       atoi@a 0023                       atoi@s 0025  
                     main@k 00DC                 copy_frame@k 0022     __end_of_TMR1_Initialize 17F4  
            __CFG_BOREN$OFF 0000                       status 0003                       wtemp0 007E  
           _TMR5_Initialize 17DF              __CFG_MCLRE$OFF 0000             __initialization 06CA  
              __end_of_atoi 076A                __end_of_main 1000     __end_of_TMR2_Initialize 17D5  
            __CFG_LPBOR$OFF 0000                      ??_atoi 0020                      ??_main 003F  
          ?_CCP1_Initialize 0070                ?_pin_manager 0070             _TMR6_Initialize 17AE  
           ACTION@sw_status 0027             _CCP9_Initialize 17C1                      _ACTION 0AAE  
                    _CCPR1H 0292                      _CCPR3H 0312                      _CCPR1L 0291  
                    _CCPR3L 0311                      _CCPR9H 061B                      _CCPR9L 061A  
        ACTION@speed_bitLow 0029                      _ANSELA 018C                      _ANSELE 0190  
                    _ANSELF 040C                      _ANSELG 040D                      _T1GCON 0019  
                    _T3GCON 0414                      _T5GCON 041B                      _RC1REG 0199  
                    _RC1STA 019D                      i1l6010 0371                      i1l6002 035B  
                    i1l6100 03C1     __end_of_TMR3_Initialize 17DF                      i1l6030 037B  
                    i1l6022 0377                      i1l6014 0373                      i1l6120 03CB  
                    i1l6112 03C7                      i1l6104 03C3                      i1l6008 035D  
                    i1l5312 0061                      i1l6202 041D                      i1l6130 03CF  
                    i1l6042 0381                      i1l6034 037D                      i1l6026 0379  
                    i1l6018 0375                      i1l5402 00CD                      i1l5322 0075  
                    i1l5306 005B                      i1l6300 04C2                      i1l6220 0431  
                    i1l6212 0427                      i1l6124 03CD                      i1l6116 03C9  
                    i1l6108 03C5                      i1l6060 039B                      i1l6052 0385  
                    i1l5500 0134                      i1l5412 00D2                      i1l6206 0422  
                    i1l6150 03EB                      i1l6134 03D1                      i1l6054 0399  
                    i1l6046 0383                      i1l6038 037F                      i1l5510 014C  
                    i1l5502 0148                      i1l5430 00F0                      i1l5422 00EC  
                    i1l5414 00E6                      i1l5406 00CE                      i1l6312 04CE  
                    i1l6304 04C7                      i1l6240 0459                      i1l6224 0436  
                    i1l6216 042C                      i1l6144 03D5                      i1l6080 03A5  
                    i1l6072 03A1                      i1l6064 039D                      i1l6410 053C  
                    i1l6402 0535                      i1l6330 04D8                      i1l6322 04D2  
                    i1l6234 0440                      i1l6170 03F5                      i1l6162 03F1  
                    i1l6154 03ED                      i1l6146 03E9                      i1l6138 03D3  
                    i1l5610 01A0                      i1l5602 019C                      i1l5514 014E  
                    i1l5506 014A                      i1l5450 00FE                      i1l5442 00F8  
                    i1l5434 00F2                      i1l5426 00EE                      i1l5418 00E8  
                    i1l5354 00A3                      i1l5338 008C                      i1l6500 0592  
                    i1l6316 04D0                      i1l6308 04CC                      i1l6260 0472  
                    i1l6252 0468                      i1l6244 045E                      i1l6236 0454  
                    i1l6228 043B                      i1l6092 03AB                      i1l6084 03A7  
                    i1l6076 03A3                      i1l6068 039F                      i1l5700 01F0  
                    i1l5540 015A                      i1l5532 0156                      i1l5524 0152  
                    i1l5380 00BF                      i1l5372 00B9                      i1l6430 055E  
                    i1l6414 0541                      i1l6406 053A                      i1l6350 04FA  
                    i1l6342 04F3                      i1l6326 04D7                      i1l6190 0411  
                    i1l6182 03FB                      i1l6174 03F7                      i1l6166 03F3  
                    i1l6158 03EF                      i1l5630 01AA                      i1l5622 01A6  
                    i1l5614 01A2                      i1l5606 019E                      i1l5518 0150  
                    i1l5470 011E                      i1l5462 0118                      i1l5446 00FC  
                    i1l5438 00F6                      i1l5286 0019                      i1l6600 05E6  
                    i1l6504 0594                      i1l6424 0548                      i1l6336 04DD  
                    i1l6272 0481                      i1l6264 0477                      i1l6256 046D  
                    i1l6248 0463                      i1l6088 03A9                      i1l5720 01FA  
                    i1l5712 01F6                      i1l5704 01F2                      i1l5560 0176  
                    i1l5552 0172                      i1l5536 0158                      i1l5528 0154  
                    i1l5456 0102                      i1l5392 00C7                      i1l5384 00C3  
                    i1l5376 00BB                      i1l5368 00B7                      i1l6530 05B2  
                    i1l6522 05AE                      i1l6514 0598                      i1l6442 0564  
                    i1l6434 0560                      i1l6426 055C                      i1l6418 0543  
                    i1l6370 050A                      i1l6362 0503                      i1l6354 04FC  
                    i1l6346 04F8                      i1l6338 04F1                      i1l6274 0486  
                    i1l6194 0413                      i1l6178 03F9                      i1l6098 03AD  
                    i1l6282 049C                      i1l5810 026E                      i1l5802 0266  
                    i1l5650 01C6                      i1l5642 01C2                      i1l5626 01A8  
                    i1l5618 01A4                      i1l5546 015C                      i1l5490 012E  
                    i1l5482 0128                      i1l5474 0122                      i1l5466 011C  
                    i1l5458 0116                      i1l6620 0602                      i1l6612 05FE  
                    i1l6516 05AC                      i1l6508 0596                      i1l6460 056C  
                    i1l6452 0568                      i1l6380 0511                      i1l6292 04BE  
                    i1l6268 047C                      i1l6188 03FD                      i1l5900 02F0  
                    i1l5812 0272                      i1l5740 021A                      i1l5732 0212  
                    i1l5716 01F8                      i1l5708 01F4                      i1l5636 01AC  
                    i1l5580 0180                      i1l5572 017C                      i1l5564 0178  
                    i1l5556 0174                      i1l5548 0170                      i1l5388 00C5  
                    i1l5820 0288                      i1l6710 0676                      i1l6702 066C  
                    i1l6606 05E8                      i1l6550 05BC                      i1l6542 05B8  
                    i1l6534 05B4                      i1l6526 05B0                      i1l6438 0562  
                    i1l6470 0570                      i1l6390 052C                      i1l6382 0525  
                    i1l6374 050C                      i1l6366 0505                      i1l6358 04FE  
                    i1l6278 0488                      i1l6198 0418                      i1l5830 02AB  
                    i1l5806 026A                      i1l5750 0222                      i1l5726 01FC  
                    i1l5662 01CC                      i1l5654 01C8                      i1l5646 01C4  
                    i1l5638 01C0                      i1l5590 0184                      i1l5494 0130  
                    i1l5486 012A                      i1l5478 0124                      i1l5398 00C9  
                    i1l6640 060C                      i1l6632 0608                      i1l6624 0604  
                    i1l6616 0600                      i1l6608 05FC                      i1l6560 05C0  
                    i1l6480 0588                      i1l6472 0584                      i1l6464 056E  
                    i1l6456 056A                      i1l6448 0566                      i1l6296 04C0  
                    i1l5920 0312                      i1l5912 02F9                      i1l5904 02F2  
                    i1l5816 0274                      i1l5744 021E                      i1l5736 0216  
                    i1l5728 0210                      i1l5672 01D0                      i1l5592 0198  
                    i1l5584 0182                      i1l5576 017E                      i1l5568 017A  
                    i1l6730 068F                      i1l6722 0685                      i1l6714 067B  
                    i1l6706 0671                      i1l6650 0610                      i1l6570 05D8  
                    i1l6562 05D4                      i1l6554 05BE                      i1l6546 05BA  
                    i1l6538 05B6                      i1l6394 052E                      i1l6386 0527  
                    i1l5850 02BB                      i1l5842 02B4                      i1l5834 02AD  
                    i1l5762 022E                      i1l5754 0226                      i1l5658 01CA  
                    i1l5682 01D4                      i1l6740 069B                      i1l6660 062B  
                    i1l6652 0624                      i1l6644 060E                      i1l6636 060A  
                    i1l6628 0606                      i1l6492 058E                      i1l6484 058A  
                    i1l6476 0586                      i1l5940 0322                      i1l5932 031B  
                    i1l5924 0314                      i1l5908 02F7                      i1l5860 02BF  
                    i1l5772 0236                      i1l5692 01EC                      i1l5684 01E8  
                    i1l5676 01D2                      i1l5668 01CE                      i1l6734 0694  
                    i1l6726 068A                      i1l6718 0680                      i1l6582 05DE  
                    i1l6574 05DA                      i1l6566 05D6                      i1l6398 0533  
                    i1l5918 02FE                      i1l5854 02BD                      i1l5846 02B9  
                    i1l5838 02AF                      i1l5790 025A                      i1l5782 0252  
                    i1l5774 024A                      i1l5766 0232                      i1l5758 022A  
                    i1l5598 019A                      i1l6736 0699                      i1l6664 0630  
                    i1l6656 0626                      i1l6592 05E2                      i1l6496 0590  
                    i1l6488 058C                      i1l6744 06AF                      i1l5952 032E  
                    i1l5944 0327                      i1l5936 0320                      i1l5928 0319  
                    i1l5880 02E0                      i1l5864 02C4                      i1l5696 01EE  
                    i1l5688 01EA                      i1l6690 064E                      i1l6682 0644  
                    i1l6674 063A                      i1l6586 05E0                      i1l6578 05DC  
                    i1l5962 0335                      i1l5874 02CA                      i1l5794 025E  
                    i1l5786 0256                      i1l5778 024E                      i1l6668 0635  
                    i1l6596 05E4                      i1l5980 0351                      i1l5972 034D  
                    i1l5964 0349                      i1l5956 0330                      i1l5948 0329  
                    i1l5892 02E9                      i1l5884 02E5                      i1l5876 02DE  
                    i1l5868 02C5                      i1l6686 0649                      i1l6678 063F  
                    i1l5990 0355                      i1l5798 0262                      i1l6696 0653  
                    i1l5976 034F                      i1l5968 034B                      i1l5896 02EB  
                    i1l5888 02E7                      i1l6698 0667                      i1l5994 0357  
                    i1l5986 0353                      i1l5998 0359                      u169_25 0037  
                    _TX1REG 019A                      _TX1STA 019E              _FAN_SPEED1_10s 00EA  
            _FAN_SPEED2_10s 00E8              _FAN_SPEED3_10s 00E6              __CFG_PWRTE$OFF 0000  
            _periperal_init 0A42                      ___wmul 0A27      main@RX_CHK_FLAG_start1 00CE  
    main@RX_CHK_FLAG_start2 00D0     __end_of_TMR4_Initialize 17AE          writeUART@str2Write 0075  
          ?_CCP3_Initialize 0070                copy_frame@sw 0020        ACTION@Switch_Num_10s 0034  
                 ??_isdigit 0072            ?_TMR1_Initialize 0070     __end_of_TMR5_Initialize 17E9  
   __end_of__initialization 06FB      __end_of_periperal_init 0A60              __pcstackCOMMON 0070  
      ACTION@child_lock_num 0032                __pidataBANK0 0002                __pidataBANK1 0A80  
              __pidataBANK2 076A            ?_TMR2_Initialize 0070     __end_of_TMR6_Initialize 17B7  
   __end_of_CCP9_Initialize 17CB                     ?_ACTION 0026                  __pbssBANK0 0045  
                __pbssBANK1 00DE            ?_TMR3_Initialize 0070             __CFG_VCAPEN$OFF 0000  
                _child_LOCK 00A0             ?_periperal_init 0070                  __pmaintext 0C41  
     ACTION@response_starts 003B                     ?___wmul 0072                  __pintentry 0004  
                   i1S10700 08B4                     i1S10720 0928                     i1S10712 0900  
                   i1S10704 08C8                     _CCP1CON 0293                     i1S10740 098C  
                   i1S10732 0964                     i1S10724 093C                     i1S10716 0914  
                   i1S10708 08DC                     i1S10660 07EC                     i1S10760 1000  
                   i1S10752 09C8                     i1S10744 09A0                     i1S10736 0978  
                   i1S10728 0950                     i1S10680 0850                     i1S10672 0828  
                   i1S10664 0800                     i1S10780 1064                     i1S10772 103C  
                   i1S10764 1014                     i1S10756 09DC                     i1S10748 09B4  
                   i1S10692 088C                     i1S10684 0864                     i1S10676 083C  
                   i1S10668 0814                     i1S10784 1078                     i1S10776 1050  
                   i1S10768 1028                     i1S10696 08A0                     i1S10688 0878  
                   _CCP3CON 0313                     i1S10788 108C                     _CCP9CON 061C  
       ACTION@speed_bitHigh 0028            ?_TMR4_Initialize 0070                     i1l10710 033B  
                   i1l10702 02D0                     i1l10730 0403                     i1l10722 03B3  
                   i1l10714 0363                     i1l10706 0304                     i1l10750 0517  
                   i1l10742 04A2                     i1l10734 0446                     i1l10726 03DB  
                   i1l10718 038B                     i1l10670 0162                     i1l10662 0108  
                   i1l10770 05EE                     i1l10762 059E                     i1l10754 054E  
                   i1l10746 04E3                     i1l10738 048E                     i1l10690 023C  
                   i1l10682 01DA                     i1l10674 018A                     i1l10666 013A  
                   i1l10658 00D8                     i1l10782 06A1                     i1l10774 0616  
                   i1l10766 05C6                     i1l10758 0576                     i1l10694 027A  
                   i1l10686 0202                     i1l10678 01B2                     i1l10786 06B5  
                   i1l10778 0659                     i1l10698 028E                     _SP1BRGH 019C  
                   _SP1BRGL 019B        __size_of_pin_manager 0020                  __pswtext10 08A0  
                __pswtext11 08B4                  __pswtext20 0978                  __pswtext12 08C8  
                __pswtext21 098C                  __pswtext13 08DC                  __pswtext30 1050  
                __pswtext22 09A0                  __pswtext14 0900                  __pswtext31 1064  
                __pswtext23 09B4                  __pswtext15 0914                  __pswtext32 1078  
                __pswtext24 09C8                  __pswtext16 0928                  __pswtext33 108C  
                __pswtext25 09DC                  __pswtext17 093C                  __pswtext26 1000  
                __pswtext18 0950                  __pswtext27 1014                  __pswtext19 0964  
                __pswtext28 1028                  __pswtext29 103C             __size_of_ACTION 0193  
                   _TX_FLAG 00E4            ?_TMR5_Initialize 0070                  _copy_frame 07B2  
        __size_of_writeUART 0019                ACTION@parent 002A                   _FAN_FLAG1 00E2  
                 _FAN_FLAG2 00E0                   _FAN_FLAG3 00DE             __size_of___wmul 001B  
           __CFG_STVREN$OFF 0000            ?_TMR6_Initialize 0070                     _dimmer1 005F  
                   _dimmer2 005E                     _dimmer3 005D                     __ptext1 0A60  
                   __ptext2 0A42                     __ptext3 17AE                     __ptext4 17DF  
                   __ptext5 17A5                     __ptext6 17D5                     __ptext7 17CB  
                   __ptext8 17E9                     __ptext9 09F8                   _T1CONbits 0018  
          ?_CCP9_Initialize 0070                   _T2CONbits 001C                     _isdigit 08F2  
              __size_of_isr 06C4                   _T3CONbits 0413                   _T4CONbits 0417  
                 _COPY_FLAG 004F                   _T5CONbits 041A                   _T6CONbits 041E  
                   clrloop0 17A0        end_of_initialization 06FB               copy_frame@end 0074  
                   init_ram 09F0                     initloop 09F1           _EUSART_Initialize 09F8  
            ACTION@FanSpeed 002E          ?_EUSART_Initialize 0070              main@start_flag 00D6  
       ??_EUSART_Initialize 0072           __end_of_writeUART 0A27                   _TRISAbits 008C  
                 _TRISCbits 008E                   _TRISEbits 0090                   _TRISFbits 030C  
                 _TRISGbits 030D    __size_of_CCP1_Initialize 000C              __end_of_ACTION 0C41  
 __end_of_EUSART_Initialize 0A0E                 ?_copy_frame 0072              ACTION@children 0030  
            __end_of___wmul 0A42        main@RX_CHK_FLAG_end1 00D2        main@RX_CHK_FLAG_end2 00D4  
       start_initialization 06CA                 __end_of_isr 06C8                    ??_ACTION 002C  
  __size_of_CCP3_Initialize 000A            ??_periperal_init 0072               _FAN_SPEED1_1s 0055  
             _FAN_SPEED2_1s 0053               _FAN_SPEED3_1s 0051    __size_of_TMR1_Initialize 000B  
                  ??___wmul 0076                 __pdataBANK0 0060                 __pdataBANK1 00A0  
               __pdataBANK2 0120         ACTION@Switch_Num_1s 0026         __size_of_copy_frame 003A  
               __pbssCOMMON 007A                   ___latbits 0002               __pcstackBANK0 0020  
             __pcstackBANK1 00CE    __size_of_TMR2_Initialize 000A  __size_of_EUSART_Initialize 0016  
         ??_CCP1_Initialize 0072    __size_of_TMR3_Initialize 000A                   __pswtext1 07EC  
                 __pswtext2 0800                   __pswtext3 0814                   __pswtext4 0828  
                 __pswtext5 083C                   __pswtext6 0850                   __pswtext7 0864  
                 __pswtext8 0878                   __pswtext9 088C               ??_pin_manager 0072  
               ACTION@SwNum 0039        ACTION@finalFrameStat 002B                    _BAUD1CON 019F  
                  ?_isdigit 0070    __size_of_TMR4_Initialize 0009        ACTION@FanSpeedString 0035  
            ___wmul@product 0076                   clear_ram0 179F           ??_CCP3_Initialize 0072  
                  _PIE1bits 0091                    _PIE3bits 0093                    _PIE4bits 0094  
                  _PIR1bits 0011                    _PIR3bits 0013                    _PIR4bits 0014  
  __size_of_TMR5_Initialize 000A           ??_TMR1_Initialize 0072           ___wmul@multiplier 0072  
                 main@k_749 00DA                   _writeUART 0A0E    __size_of_TMR6_Initialize 0009  
       __end_of_pin_manager 0A80    __size_of_CCP9_Initialize 000A                ??_copy_frame 0076  
         ??_TMR2_Initialize 0072             copy_frame@start 0072         ACTION@switch_status 003D  
         ??_TMR3_Initialize 0072                 _isdigit$975 0072          __end_of_copy_frame 07EC  
          __size_of_isdigit 000E                  ?_writeUART 0070                    __ptext10 17C1  
                  __ptext11 17B7                    __ptext12 17F4                    __ptext13 07B2  
                  __ptext14 0AAE                    __ptext15 0A0E                    __ptext16 06FF  
                  __ptext17 08F2                    __ptext18 0A27           ??_TMR4_Initialize 0072  
             __size_of_atoi 006B               __size_of_main 03BF                  _RC1STAbits 019D  
                  int$flags 007E                    atoi@sign 0022           ??_TMR5_Initialize 0072  
               _pin_manager 0A60             _CCP1_Initialize 17F4                    isdigit@c 0073  
                  intlevel1 0000           ??_TMR6_Initialize 0072           __CFG_CLKOUTEN$OFF 0000  
         ??_CCP9_Initialize 0072               __pstringtext1 10A0               __pstringtext2 0000  
               ??_writeUART 0072             _CCP3_Initialize 17B7                  _TX1STAbits 019E  
           _TMR1_Initialize 17E9  
