

Microchip Technology PIC LITE Macro Assembler V1.45 build -152302408 
                                                                                               Fri Aug 17 19:03:42 2018

Microchip Technology Omniscient Code Generator v1.45 (Free mode) build 201711160504
     1                           	processor	16F1526
     2                           	opt	pw 120
     3                           	opt	lm
     4                           	psect	idataBANK0,global,class=CODE,delta=2
     5                           	psect	idataBANK1,global,class=CODE,delta=2
     6                           	psect	idataBANK2,global,class=CODE,delta=2
     7                           	psect	stringtext1,global,class=STRCODE,delta=2
     8                           	psect	stringtext2,global,class=STRCODE,delta=2
     9                           	psect	cinit,global,class=CODE,merge=1,delta=2
    10                           	psect	bssCOMMON,global,class=COMMON,space=1,delta=1
    11                           	psect	bssBANK0,global,class=BANK0,space=1,delta=1
    12                           	psect	dataBANK0,global,class=BANK0,space=1,delta=1
    13                           	psect	bssBANK1,global,class=BANK1,space=1,delta=1
    14                           	psect	dataBANK1,global,class=BANK1,space=1,delta=1
    15                           	psect	dataBANK2,global,class=BANK2,space=1,delta=1
    16                           	psect	inittext,global,class=CODE,delta=2
    17                           	psect	clrtext,global,class=CODE,delta=2
    18                           	psect	cstackBANK1,global,class=BANK1,space=1,delta=1
    19                           	psect	cstackCOMMON,global,class=COMMON,space=1,delta=1
    20                           	psect	cstackBANK0,global,class=BANK0,space=1,delta=1
    21                           	psect	maintext,global,class=CODE,merge=1,split=1,delta=2
    22                           	psect	text1,local,class=CODE,merge=1,delta=2
    23                           	psect	text2,local,class=CODE,merge=1,delta=2
    24                           	psect	text3,local,class=CODE,merge=1,delta=2
    25                           	psect	text4,local,class=CODE,merge=1,delta=2
    26                           	psect	text5,local,class=CODE,merge=1,delta=2
    27                           	psect	text6,local,class=CODE,merge=1,delta=2
    28                           	psect	text7,local,class=CODE,merge=1,delta=2
    29                           	psect	text8,local,class=CODE,merge=1,delta=2
    30                           	psect	text9,local,class=CODE,merge=1,delta=2
    31                           	psect	text10,local,class=CODE,merge=1,delta=2
    32                           	psect	text11,local,class=CODE,merge=1,delta=2
    33                           	psect	text12,local,class=CODE,merge=1,delta=2
    34                           	psect	text13,local,class=CODE,merge=1,delta=2
    35                           	psect	text14,local,class=CODE,merge=1,delta=2
    36                           	psect	text15,local,class=CODE,merge=1,delta=2
    37                           	psect	text16,local,class=CODE,merge=1,delta=2,group=1
    38                           	psect	text17,local,class=CODE,merge=1,delta=2,group=1
    39                           	psect	text18,local,class=CODE,merge=1,delta=2,group=1
    40                           	psect	intentry,global,class=CODE,delta=2
    41                           	psect	swtext1,local,class=CONST,delta=2
    42                           	psect	swtext2,local,class=CONST,delta=2
    43                           	psect	swtext3,local,class=CONST,delta=2
    44                           	psect	swtext4,local,class=CONST,delta=2
    45                           	psect	swtext5,local,class=CONST,delta=2
    46                           	psect	swtext6,local,class=CONST,delta=2
    47                           	psect	swtext7,local,class=CONST,delta=2
    48                           	psect	swtext8,local,class=CONST,delta=2
    49                           	psect	swtext9,local,class=CONST,delta=2
    50                           	psect	swtext10,local,class=CONST,delta=2
    51                           	psect	swtext11,local,class=CONST,delta=2
    52                           	psect	swtext12,local,class=CONST,delta=2
    53                           	psect	swtext13,local,class=CONST,delta=2
    54                           	psect	swtext14,local,class=CONST,delta=2
    55                           	psect	swtext15,local,class=CONST,delta=2
    56                           	psect	swtext16,local,class=CONST,delta=2
    57                           	psect	swtext17,local,class=CONST,delta=2
    58                           	psect	swtext18,local,class=CONST,delta=2
    59                           	psect	swtext19,local,class=CONST,delta=2
    60                           	psect	swtext20,local,class=CONST,delta=2
    61                           	psect	swtext21,local,class=CONST,delta=2
    62                           	psect	swtext22,local,class=CONST,delta=2
    63                           	psect	swtext23,local,class=CONST,delta=2
    64                           	psect	swtext24,local,class=CONST,delta=2
    65                           	psect	swtext25,local,class=CONST,delta=2
    66                           	psect	swtext26,local,class=CONST,delta=2
    67                           	psect	swtext27,local,class=CONST,delta=2
    68                           	psect	swtext28,local,class=CONST,delta=2
    69                           	psect	swtext29,local,class=CONST,delta=2
    70                           	psect	swtext30,local,class=CONST,delta=2
    71                           	psect	swtext31,local,class=CONST,delta=2
    72                           	psect	swtext32,local,class=CONST,delta=2
    73                           	psect	swtext33,local,class=CONST,delta=2
    74                           	dabs	1,0x7E,2
    75  0000                     
    76                           ; Version 1.45
    77                           ; Generated 16/11/2017 GMT
    78                           ; 
    79                           ; Copyright © 2017, Microchip Technology Inc. and its subsidiaries ("Microchip")
    80                           ; All rights reserved.
    81                           ; 
    82                           ; This software is developed by Microchip Technology Inc. and its subsidiaries ("Microch
      +                          ip").
    83                           ; 
    84                           ; Redistribution and use in source and binary forms, with or without modification, are
    85                           ; permitted provided that the following conditions are met:
    86                           ; 
    87                           ;     1. Redistributions of source code must retain the above copyright notice, this lis
      +                          t of
    88                           ;        conditions and the following disclaimer.
    89                           ; 
    90                           ;     2. Redistributions in binary form must reproduce the above copyright notice, this 
      +                          list
    91                           ;        of conditions and the following disclaimer in the documentation and/or other
    92                           ;        materials provided with the distribution.
    93                           ; 
    94                           ;     3. Microchip's name may not be used to endorse or promote products derived from th
      +                          is
    95                           ;        software without specific prior written permission.
    96                           ; 
    97                           ; THIS SOFTWARE IS PROVIDED BY MICROCHIP "AS IS" AND ANY EXPRESS OR IMPLIED WARRANTIES,
    98                           ; INCLUDING, BUT NOT LIMITED TO, THE IMPLIED WARRANTIES OF MERCHANTABILITY AND FITNESS F
      +                          OR
    99                           ; PURPOSE ARE DISCLAIMED.  IN NO EVENT SHALL MICROCHIP BE LIABLE FOR ANY DIRECT, INDIREC
      +                          T,
   100                           ; INCIDENTAL, SPECIAL, EXEMPLARY, OR CONSEQUENTIAL DAMAGES (INCLUDING BUT NOT LIMITED TO
   101                           ; PROCUREMENT OF SUBSTITUTE GOODS OR SERVICES; LOSS OF USE, DATA OR PROFITS; OR BUSINESS
   102                           ; INTERRUPTION) HOWSOEVER CAUSED AND ON ANY THEORY OF LIABILITY, WHETHER IN CONTRACT, ST
      +                          RICT
   103                           ; LIABILITY, OR TORT (INCLUDING NEGLIGENCE OR OTHERWISE) ARISING IN ANY WAY OUT OF THE U
      +                          SE OF
   104                           ; THIS SOFTWARE, EVEN IF ADVISED OF THE POSSIBILITY OF SUCH DAMAGE.
   105                           ; 
   106                           ; 
   107                           ; Code-generator required, PIC16F1526 Definitions
   108                           ; 
   109                           ; SFR Addresses
   110  0000                     	;# 
   111  0001                     	;# 
   112  0002                     	;# 
   113  0003                     	;# 
   114  0004                     	;# 
   115  0005                     	;# 
   116  0006                     	;# 
   117  0007                     	;# 
   118  0008                     	;# 
   119  0009                     	;# 
   120  000A                     	;# 
   121  000B                     	;# 
   122  000C                     	;# 
   123  000D                     	;# 
   124  000E                     	;# 
   125  000F                     	;# 
   126  0010                     	;# 
   127  0011                     	;# 
   128  0012                     	;# 
   129  0013                     	;# 
   130  0014                     	;# 
   131  0015                     	;# 
   132  0016                     	;# 
   133  0016                     	;# 
   134  0017                     	;# 
   135  0018                     	;# 
   136  0019                     	;# 
   137  001A                     	;# 
   138  001B                     	;# 
   139  001C                     	;# 
   140  008C                     	;# 
   141  008D                     	;# 
   142  008E                     	;# 
   143  008F                     	;# 
   144  0090                     	;# 
   145  0091                     	;# 
   146  0092                     	;# 
   147  0093                     	;# 
   148  0094                     	;# 
   149  0095                     	;# 
   150  0096                     	;# 
   151  0097                     	;# 
   152  0099                     	;# 
   153  009A                     	;# 
   154  009B                     	;# 
   155  009B                     	;# 
   156  009C                     	;# 
   157  009D                     	;# 
   158  009E                     	;# 
   159  010C                     	;# 
   160  010D                     	;# 
   161  010E                     	;# 
   162  010F                     	;# 
   163  0110                     	;# 
   164  0116                     	;# 
   165  0117                     	;# 
   166  011D                     	;# 
   167  018C                     	;# 
   168  018D                     	;# 
   169  018F                     	;# 
   170  0190                     	;# 
   171  0191                     	;# 
   172  0191                     	;# 
   173  0192                     	;# 
   174  0193                     	;# 
   175  0193                     	;# 
   176  0194                     	;# 
   177  0195                     	;# 
   178  0196                     	;# 
   179  0197                     	;# 
   180  0199                     	;# 
   181  0199                     	;# 
   182  0199                     	;# 
   183  019A                     	;# 
   184  019A                     	;# 
   185  019A                     	;# 
   186  019B                     	;# 
   187  019B                     	;# 
   188  019B                     	;# 
   189  019B                     	;# 
   190  019B                     	;# 
   191  019C                     	;# 
   192  019C                     	;# 
   193  019C                     	;# 
   194  019D                     	;# 
   195  019D                     	;# 
   196  019D                     	;# 
   197  019E                     	;# 
   198  019E                     	;# 
   199  019E                     	;# 
   200  019F                     	;# 
   201  019F                     	;# 
   202  019F                     	;# 
   203  020D                     	;# 
   204  020F                     	;# 
   205  0210                     	;# 
   206  0211                     	;# 
   207  0211                     	;# 
   208  0212                     	;# 
   209  0212                     	;# 
   210  0213                     	;# 
   211  0213                     	;# 
   212  0214                     	;# 
   213  0214                     	;# 
   214  0215                     	;# 
   215  0215                     	;# 
   216  0215                     	;# 
   217  0216                     	;# 
   218  0216                     	;# 
   219  0217                     	;# 
   220  0217                     	;# 
   221  0219                     	;# 
   222  021A                     	;# 
   223  021B                     	;# 
   224  021C                     	;# 
   225  021D                     	;# 
   226  021E                     	;# 
   227  021F                     	;# 
   228  028C                     	;# 
   229  028D                     	;# 
   230  0291                     	;# 
   231  0291                     	;# 
   232  0292                     	;# 
   233  0293                     	;# 
   234  0298                     	;# 
   235  0298                     	;# 
   236  0299                     	;# 
   237  029A                     	;# 
   238  029D                     	;# 
   239  029E                     	;# 
   240  029F                     	;# 
   241  030C                     	;# 
   242  030D                     	;# 
   243  0311                     	;# 
   244  0311                     	;# 
   245  0312                     	;# 
   246  0313                     	;# 
   247  0318                     	;# 
   248  0318                     	;# 
   249  0319                     	;# 
   250  031A                     	;# 
   251  031C                     	;# 
   252  031C                     	;# 
   253  031D                     	;# 
   254  031E                     	;# 
   255  038C                     	;# 
   256  038D                     	;# 
   257  0394                     	;# 
   258  0395                     	;# 
   259  0396                     	;# 
   260  040C                     	;# 
   261  040D                     	;# 
   262  0411                     	;# 
   263  0411                     	;# 
   264  0412                     	;# 
   265  0413                     	;# 
   266  0414                     	;# 
   267  0415                     	;# 
   268  0416                     	;# 
   269  0417                     	;# 
   270  0418                     	;# 
   271  0418                     	;# 
   272  0419                     	;# 
   273  041A                     	;# 
   274  041B                     	;# 
   275  041C                     	;# 
   276  041D                     	;# 
   277  041E                     	;# 
   278  048D                     	;# 
   279  0491                     	;# 
   280  0491                     	;# 
   281  0492                     	;# 
   282  0492                     	;# 
   283  0493                     	;# 
   284  0493                     	;# 
   285  0493                     	;# 
   286  0494                     	;# 
   287  0494                     	;# 
   288  0495                     	;# 
   289  0495                     	;# 
   290  0496                     	;# 
   291  0496                     	;# 
   292  0497                     	;# 
   293  0497                     	;# 
   294  0595                     	;# 
   295  0596                     	;# 
   296  0597                     	;# 
   297  059C                     	;# 
   298  059D                     	;# 
   299  059E                     	;# 
   300  0611                     	;# 
   301  0611                     	;# 
   302  0612                     	;# 
   303  0613                     	;# 
   304  0614                     	;# 
   305  0614                     	;# 
   306  0615                     	;# 
   307  0616                     	;# 
   308  0617                     	;# 
   309  0617                     	;# 
   310  0618                     	;# 
   311  0619                     	;# 
   312  061A                     	;# 
   313  061A                     	;# 
   314  061B                     	;# 
   315  061C                     	;# 
   316  061D                     	;# 
   317  061D                     	;# 
   318  061E                     	;# 
   319  061F                     	;# 
   320  0FE4                     	;# 
   321  0FE5                     	;# 
   322  0FE6                     	;# 
   323  0FE7                     	;# 
   324  0FE8                     	;# 
   325  0FE9                     	;# 
   326  0FEA                     	;# 
   327  0FEB                     	;# 
   328  0FED                     	;# 
   329  0FEE                     	;# 
   330  0FEF                     	;# 
   331                           
   332                           	psect	idataBANK0
   333  0002                     __pidataBANK0:	
   334                           
   335                           ;initializer for _man
   336  0002  3401               	retlw	1
   337  0003  3400               	retlw	0
   338                           
   339                           	psect	idataBANK1
   340  0909                     __pidataBANK1:	
   341                           
   342                           ;initializer for _child_LOCK
   343  0909  3436               	retlw	low (STR_1| (0+32768))
   344  090A  3492               	retlw	high (STR_1| (0+32768))
   345  090B  3400               	retlw	0
   346  090C  3400               	retlw	0
   347  090D  3400               	retlw	0
   348  090E  3400               	retlw	0
   349  090F  3400               	retlw	0
   350  0910  3400               	retlw	0
   351  0911  3400               	retlw	0
   352  0912  3400               	retlw	0
   353  0913  3400               	retlw	0
   354  0914  3400               	retlw	0
   355  0915  3400               	retlw	0
   356  0916  3400               	retlw	0
   357  0917  3400               	retlw	0
   358  0918  3400               	retlw	0
   359  0919  3400               	retlw	0
   360  091A  3400               	retlw	0
   361  091B  3400               	retlw	0
   362  091C  3400               	retlw	0
   363                           
   364                           ;initializer for _st
   365  091D  3454               	retlw	84
   366  091E  3430               	retlw	48
   367  091F  3430               	retlw	48
   368  0920  3430               	retlw	48
   369  0921  3430               	retlw	48
   370  0922  3430               	retlw	48
   371  0923  3430               	retlw	48
   372  0924  3430               	retlw	48
   373  0925  3430               	retlw	48
   374  0926  3430               	retlw	48
   375  0927  3430               	retlw	48
   376  0928  3430               	retlw	48
   377  0929  3430               	retlw	48
   378  092A  3430               	retlw	48
   379  092B  3430               	retlw	48
   380  092C  3430               	retlw	48
   381  092D  3430               	retlw	48
   382  092E  3430               	retlw	48
   383  092F  3430               	retlw	48
   384  0930  3430               	retlw	48
   385  0931  3430               	retlw	48
   386  0932  3430               	retlw	48
   387  0933  3400               	retlw	0
   388  0934  3400               	retlw	0
   389  0935  3400               	retlw	0
   390  0936  3400               	retlw	0
   391                           
   392                           	psect	idataBANK2
   393  076A                     __pidataBANK2:	
   394                           
   395                           ;initializer for _copy
   396  076A  3424               	retlw	36
   397  076B  3400               	retlw	0
   398  076C  3400               	retlw	0
   399  076D  3400               	retlw	0
   400  076E  3400               	retlw	0
   401  076F  3400               	retlw	0
   402  0770  3400               	retlw	0
   403  0771  3400               	retlw	0
   404  0772  3400               	retlw	0
   405  0773  3400               	retlw	0
   406  0774  3400               	retlw	0
   407  0775  3400               	retlw	0
   408  0776  3400               	retlw	0
   409  0777  3400               	retlw	0
   410  0778  3400               	retlw	0
   411  0779  3400               	retlw	0
   412  077A  3400               	retlw	0
   413  077B  3400               	retlw	0
   414  077C  3400               	retlw	0
   415  077D  3400               	retlw	0
   416  077E  3400               	retlw	0
   417  077F  3400               	retlw	0
   418  0780  3400               	retlw	0
   419  0781  3400               	retlw	0
   420  0782  3400               	retlw	0
   421  0783  3400               	retlw	0
   422  0784  3400               	retlw	0
   423  0785  3400               	retlw	0
   424  0786  3400               	retlw	0
   425  0787  3400               	retlw	0
   426  0788  3400               	retlw	0
   427  0789  3400               	retlw	0
   428  078A  3400               	retlw	0
   429  078B  3400               	retlw	0
   430  078C  3400               	retlw	0
   431  078D  3400               	retlw	0
   432                           
   433                           ;initializer for _name
   434  078E  3461               	retlw	97
   435  078F  3400               	retlw	0
   436  0790  3400               	retlw	0
   437  0791  3400               	retlw	0
   438  0792  3400               	retlw	0
   439  0793  3400               	retlw	0
   440  0794  3400               	retlw	0
   441  0795  3400               	retlw	0
   442  0796  3400               	retlw	0
   443  0797  3400               	retlw	0
   444  0798  3400               	retlw	0
   445  0799  3400               	retlw	0
   446  079A  3400               	retlw	0
   447  079B  3400               	retlw	0
   448  079C  3400               	retlw	0
   449  079D  3400               	retlw	0
   450  079E  3400               	retlw	0
   451  079F  3400               	retlw	0
   452  07A0  3400               	retlw	0
   453  07A1  3400               	retlw	0
   454  07A2  3400               	retlw	0
   455  07A3  3400               	retlw	0
   456  07A4  3400               	retlw	0
   457  07A5  3400               	retlw	0
   458  07A6  3400               	retlw	0
   459  07A7  3400               	retlw	0
   460  07A8  3400               	retlw	0
   461  07A9  3400               	retlw	0
   462  07AA  3400               	retlw	0
   463  07AB  3400               	retlw	0
   464  07AC  3400               	retlw	0
   465  07AD  3400               	retlw	0
   466  07AE  3400               	retlw	0
   467  07AF  3400               	retlw	0
   468  07B0  3400               	retlw	0
   469  07B1  3400               	retlw	0
   470  001A                     _TMR2	set	26
   471  001C                     _T2CON	set	28
   472  0019                     _T1GCON	set	25
   473  0018                     _T1CON	set	24
   474  0016                     _TMR1L	set	22
   475  0017                     _TMR1H	set	23
   476  0014                     _PIR4bits	set	20
   477  0013                     _PIR3bits	set	19
   478  001B                     _PR2	set	27
   479  0018                     _T1CONbits	set	24
   480  001C                     _T2CONbits	set	28
   481  0011                     _PIR1bits	set	17
   482  005E                     _PEIE	set	94
   483  005F                     _GIE	set	95
   484  0065                     _RA5	set	101
   485  0081                     _RE1	set	129
   486  0084                     _RE4	set	132
   487  0082                     _RE2	set	130
   488  0080                     _RE0	set	128
   489  0085                     _RE5	set	133
   490  0063                     _RA3	set	99
   491  0062                     _RA2	set	98
   492  008D                     _RCIF	set	141
   493  008E                     _TRISCbits	set	142
   494  008C                     _TRISAbits	set	140
   495  0090                     _TRISEbits	set	144
   496  0094                     _PIE4bits	set	148
   497  0093                     _PIE3bits	set	147
   498  0091                     _PIE1bits	set	145
   499  018C                     _ANSELA	set	396
   500  0190                     _ANSELE	set	400
   501  019C                     _SP1BRGH	set	412
   502  019B                     _SP1BRGL	set	411
   503  019E                     _TX1STA	set	414
   504  019D                     _RC1STA	set	413
   505  019F                     _BAUD1CON	set	415
   506  019E                     _TX1STAbits	set	414
   507  0199                     _RC1REG	set	409
   508  019A                     _TX1REG	set	410
   509  019D                     _RC1STAbits	set	413
   510  0210                     _WPUE	set	528
   511  0291                     _CCPR1L	set	657
   512  0292                     _CCPR1H	set	658
   513  0293                     _CCP1CON	set	659
   514  1467                     _RF7	set	5223
   515  1465                     _RF5	set	5221
   516  1463                     _RF3	set	5219
   517  1462                     _RF2	set	5218
   518  1461                     _RF1	set	5217
   519  1460                     _RF0	set	5216
   520  030C                     _TRISFbits	set	780
   521  030D                     _TRISGbits	set	781
   522  0312                     _CCPR3H	set	786
   523  0311                     _CCPR3L	set	785
   524  0313                     _CCP3CON	set	787
   525  040C                     _ANSELF	set	1036
   526  040D                     _ANSELG	set	1037
   527  041C                     _TMR6	set	1052
   528  041E                     _T6CON	set	1054
   529  0415                     _TMR4	set	1045
   530  0417                     _T4CON	set	1047
   531  041B                     _T5GCON	set	1051
   532  041A                     _T5CON	set	1050
   533  0414                     _T3GCON	set	1044
   534  0413                     _T3CON	set	1043
   535  0418                     _TMR5L	set	1048
   536  0419                     _TMR5H	set	1049
   537  0411                     _TMR3L	set	1041
   538  0412                     _TMR3H	set	1042
   539  041A                     _T5CONbits	set	1050
   540  041D                     _PR6	set	1053
   541  041E                     _T6CONbits	set	1054
   542  0413                     _T3CONbits	set	1043
   543  0416                     _PR4	set	1046
   544  0417                     _T4CONbits	set	1047
   545  048D                     _WPUG	set	1165
   546  061A                     _CCPR9L	set	1562
   547  061B                     _CCPR9H	set	1563
   548  061C                     _CCP9CON	set	1564
   549                           
   550                           	psect	stringtext1
   551  1236                     __pstringtext1:	
   552  1236                     STR_1:	
   553  1236  3430               	retlw	48	;'0'
   554  1237  3430               	retlw	48	;'0'
   555  1238  3430               	retlw	48	;'0'
   556  1239  3430               	retlw	48	;'0'
   557  123A  3430               	retlw	48	;'0'
   558  123B  3430               	retlw	48	;'0'
   559  123C  3430               	retlw	48	;'0'
   560  123D  3430               	retlw	48	;'0'
   561  123E  3430               	retlw	48	;'0'
   562  123F  3430               	retlw	48	;'0'
   563  1240  3430               	retlw	48	;'0'
   564  1241  3400               	retlw	0
   565                           
   566                           	psect	stringtext2
   567  0000                     __pstringtext2:	
   568                           
   569                           ; #config settings
   570  0000                     
   571                           	psect	cinit
   572  06CA                     start_initialization:	
   573  06CA                     __initialization:	
   574                           
   575                           ; Initialize objects allocated to BANK0
   576  06CA  3180  2002  3186   	fcall	__pidataBANK0	;fetch initializer
   577  06CD  00E0               	movwf	__pdataBANK0& (0+127)
   578  06CE  3180  2003  3186   	fcall	__pidataBANK0+1	;fetch initializer
   579  06D1  00E1               	movwf	(__pdataBANK0+1)& (0+127)
   580                           
   581                           ; Initialize objects allocated to BANK1
   582  06D2  3009               	movlw	low __pidataBANK1
   583  06D3  0084               	movwf	4
   584  06D4  3089               	movlw	(high __pidataBANK1)| (0+128)
   585  06D5  0085               	movwf	5
   586  06D6  30A0               	movlw	low __pdataBANK1
   587  06D7  0086               	movwf	6
   588  06D8  3000               	movlw	high __pdataBANK1
   589  06D9  0087               	movwf	7
   590  06DA  302E               	movlw	46
   591  06DB  3192  229D  3186   	fcall	init_ram
   592                           
   593                           ; Initialize objects allocated to BANK2
   594  06DE  306A               	movlw	low __pidataBANK2
   595  06DF  0084               	movwf	4
   596  06E0  3087               	movlw	(high __pidataBANK2)| (0+128)
   597  06E1  0085               	movwf	5
   598  06E2  3020               	movlw	low __pdataBANK2
   599  06E3  0086               	movwf	6
   600  06E4  3001               	movlw	high __pdataBANK2
   601  06E5  0087               	movwf	7
   602  06E6  3048               	movlw	72
   603  06E7  3192  229D  3186   	fcall	init_ram
   604                           
   605                           ; Clear objects allocated to COMMON
   606  06EA  01FA               	clrf	__pbssCOMMON& (0+127)
   607  06EB  01FB               	clrf	(__pbssCOMMON+1)& (0+127)
   608                           
   609                           ; Clear objects allocated to BANK0
   610  06EC  3045               	movlw	low __pbssBANK0
   611  06ED  0084               	movwf	4
   612  06EE  3000               	movlw	high __pbssBANK0
   613  06EF  0085               	movwf	5
   614  06F0  301B               	movlw	27
   615  06F1  3192  22A3  3186   	fcall	clear_ram0
   616                           
   617                           ; Clear objects allocated to BANK1
   618  06F4  30DE               	movlw	low __pbssBANK1
   619  06F5  0084               	movwf	4
   620  06F6  3000               	movlw	high __pbssBANK1
   621  06F7  0085               	movwf	5
   622  06F8  300E               	movlw	14
   623  06F9  3192  22A3         	fcall	clear_ram0
   624  06FB                     end_of_initialization:	
   625                           ;End of C runtime variable initialization code
   626                           
   627  06FB                     __end_of__initialization:	
   628  06FB  107E               	bcf	int$flags,0	;clear compiler interrupt flag (level 1)
   629  06FC  0020               	movlb	0
   630  06FD  318B  2BFC         	ljmp	_main	;jump to C main() function
   631                           
   632                           	psect	bssCOMMON
   633  007A                     __pbssCOMMON:	
   634  007A                     _tk:	
   635  007A                     	ds	2
   636                           
   637                           	psect	bssBANK0
   638  0045                     __pbssBANK0:	
   639  0045                     _M5:	
   640  0045                     	ds	2
   641  0047                     _M4:	
   642  0047                     	ds	2
   643  0049                     _M3:	
   644  0049                     	ds	2
   645  004B                     _M2:	
   646  004B                     	ds	2
   647  004D                     _M1:	
   648  004D                     	ds	2
   649  004F                     _COPY_FLAG:	
   650  004F                     	ds	2
   651  0051                     _FAN_SPEED3_1s:	
   652  0051                     	ds	2
   653  0053                     _FAN_SPEED2_1s:	
   654  0053                     	ds	2
   655  0055                     _FAN_SPEED1_1s:	
   656  0055                     	ds	2
   657  0057                     _ak:	
   658  0057                     	ds	2
   659  0059                     _pk:	
   660  0059                     	ds	2
   661  005B                     _i:	
   662  005B                     	ds	2
   663  005D                     _dimmer3:	
   664  005D                     	ds	1
   665  005E                     _dimmer2:	
   666  005E                     	ds	1
   667  005F                     _dimmer1:	
   668  005F                     	ds	1
   669                           
   670                           	psect	dataBANK0
   671  0060                     __pdataBANK0:	
   672  0060                     _man:	
   673  0060                     	ds	2
   674                           
   675                           	psect	bssBANK1
   676  00DE                     __pbssBANK1:	
   677  00DE                     _FAN_FLAG3:	
   678  00DE                     	ds	2
   679  00E0                     _FAN_FLAG2:	
   680  00E0                     	ds	2
   681  00E2                     _FAN_FLAG1:	
   682  00E2                     	ds	2
   683  00E4                     _TX_FLAG:	
   684  00E4                     	ds	2
   685  00E6                     _FAN_SPEED3_10s:	
   686  00E6                     	ds	2
   687  00E8                     _FAN_SPEED2_10s:	
   688  00E8                     	ds	2
   689  00EA                     _FAN_SPEED1_10s:	
   690  00EA                     	ds	2
   691                           
   692                           	psect	dataBANK1
   693  00A0                     __pdataBANK1:	
   694  00A0                     _child_LOCK:	
   695  00A0                     	ds	20
   696  00B4                     _st:	
   697  00B4                     	ds	26
   698                           
   699                           	psect	dataBANK2
   700  0120                     __pdataBANK2:	
   701  0120                     _copy:	
   702  0120                     	ds	36
   703  0144                     _name:	
   704  0144                     	ds	36
   705                           
   706                           	psect	inittext
   707  129D                     init_ram:	
   708  129D  00FE               	movwf	126
   709  129E                     initloop:	
   710  129E  0012               	moviw fsr0++
   711  129F  001E               	movwi fsr1++
   712  12A0  0BFE               	decfsz	126,f
   713  12A1  2A9E               	goto	initloop
   714  12A2  3400               	retlw	0
   715                           
   716                           	psect	clrtext
   717  12A3                     clear_ram0:	
   718                           ;	Called with FSR0 containing the base address, and
   719                           ;	WREG with the size to clear
   720                           
   721  12A3  0064               	clrwdt	;clear the watchdog before getting into this loop
   722  12A4                     clrloop0:	
   723  12A4  0180               	clrf	0	;clear RAM location pointed to by FSR
   724  12A5  3101               	addfsr 0,1
   725  12A6  0B89               	decfsz	9,f	;Have we reached the end of clearing yet?
   726  12A7  2AA4               	goto	clrloop0	;have we reached the end yet?
   727  12A8  3400               	retlw	0	;all done for this memory range, return
   728                           
   729                           	psect	cstackBANK1
   730  00CE                     __pcstackBANK1:	
   731  00CE                     main@RX_CHK_FLAG_start1:	
   732                           
   733                           ; 2 bytes @ 0x0
   734  00CE                     	ds	2
   735  00D0                     main@RX_CHK_FLAG_start2:	
   736                           
   737                           ; 2 bytes @ 0x2
   738  00D0                     	ds	2
   739  00D2                     main@RX_CHK_FLAG_end1:	
   740                           
   741                           ; 2 bytes @ 0x4
   742  00D2                     	ds	2
   743  00D4                     main@RX_CHK_FLAG_end2:	
   744                           
   745                           ; 2 bytes @ 0x6
   746  00D4                     	ds	2
   747  00D6                     main@start_flag:	
   748                           
   749                           ; 2 bytes @ 0x8
   750  00D6                     	ds	2
   751  00D8                     main@end_flag:	
   752                           
   753                           ; 2 bytes @ 0xA
   754  00D8                     	ds	2
   755  00DA                     main@k_753:	
   756                           
   757                           ; 2 bytes @ 0xC
   758  00DA                     	ds	2
   759  00DC                     main@k:	
   760                           
   761                           ; 2 bytes @ 0xE
   762  00DC                     	ds	2
   763                           
   764                           	psect	cstackCOMMON
   765  0070                     __pcstackCOMMON:	
   766  0070                     ?_isdigit:	
   767  0070                     ?_EUSART_Initialize:	
   768                           ; 1 bit 
   769                           
   770  0070                     ?_CCP1_Initialize:	
   771                           ; 1 bytes @ 0x0
   772                           
   773  0070                     ?_CCP3_Initialize:	
   774                           ; 1 bytes @ 0x0
   775                           
   776  0070                     ?_CCP9_Initialize:	
   777                           ; 1 bytes @ 0x0
   778                           
   779  0070                     ?_TMR1_Initialize:	
   780                           ; 1 bytes @ 0x0
   781                           
   782  0070                     ?_TMR3_Initialize:	
   783                           ; 1 bytes @ 0x0
   784                           
   785  0070                     ?_TMR2_Initialize:	
   786                           ; 1 bytes @ 0x0
   787                           
   788  0070                     ?_TMR4_Initialize:	
   789                           ; 1 bytes @ 0x0
   790                           
   791  0070                     ?_TMR5_Initialize:	
   792                           ; 1 bytes @ 0x0
   793                           
   794  0070                     ?_TMR6_Initialize:	
   795                           ; 1 bytes @ 0x0
   796                           
   797  0070                     ?_pin_manager:	
   798                           ; 1 bytes @ 0x0
   799                           
   800  0070                     ?_writeUART:	
   801                           ; 1 bytes @ 0x0
   802                           
   803  0070                     ?_isr:	
   804                           ; 1 bytes @ 0x0
   805                           
   806  0070                     ??_isr:	
   807                           ; 1 bytes @ 0x0
   808                           
   809  0070                     ?_periperal_init:	
   810                           ; 1 bytes @ 0x0
   811                           
   812  0070                     ?_main:	
   813                           ; 1 bytes @ 0x0
   814                           
   815                           
   816                           ; 1 bytes @ 0x0
   817  0070                     	ds	2
   818  0072                     ??_EUSART_Initialize:	
   819  0072                     ??_CCP1_Initialize:	
   820                           ; 1 bytes @ 0x2
   821                           
   822  0072                     ??_CCP3_Initialize:	
   823                           ; 1 bytes @ 0x2
   824                           
   825  0072                     ??_CCP9_Initialize:	
   826                           ; 1 bytes @ 0x2
   827                           
   828  0072                     ??_TMR1_Initialize:	
   829                           ; 1 bytes @ 0x2
   830                           
   831  0072                     ??_TMR3_Initialize:	
   832                           ; 1 bytes @ 0x2
   833                           
   834  0072                     ??_TMR2_Initialize:	
   835                           ; 1 bytes @ 0x2
   836                           
   837  0072                     ??_TMR4_Initialize:	
   838                           ; 1 bytes @ 0x2
   839                           
   840  0072                     ??_TMR5_Initialize:	
   841                           ; 1 bytes @ 0x2
   842                           
   843  0072                     ??_TMR6_Initialize:	
   844                           ; 1 bytes @ 0x2
   845                           
   846  0072                     ??_pin_manager:	
   847                           ; 1 bytes @ 0x2
   848                           
   849  0072                     ?_copy_frame:	
   850                           ; 1 bytes @ 0x2
   851                           
   852  0072                     ??_writeUART:	
   853                           ; 1 bytes @ 0x2
   854                           
   855  0072                     ??_isdigit:	
   856                           ; 1 bytes @ 0x2
   857                           
   858  0072                     ??_periperal_init:	
   859                           ; 1 bytes @ 0x2
   860                           
   861  0072                     ?___wmul:	
   862                           ; 1 bytes @ 0x2
   863                           
   864  0072                     _isdigit$979:	
   865                           ; 2 bytes @ 0x2
   866                           
   867  0072                     copy_frame@start:	
   868                           ; 1 bytes @ 0x2
   869                           
   870  0072                     ___wmul@multiplier:	
   871                           ; 2 bytes @ 0x2
   872                           
   873                           
   874                           ; 2 bytes @ 0x2
   875  0072                     	ds	1
   876  0073                     isdigit@c:	
   877  0073                     writeUART@Tx_count:	
   878                           ; 1 bytes @ 0x3
   879                           
   880                           
   881                           ; 2 bytes @ 0x3
   882  0073                     	ds	1
   883  0074                     copy_frame@end:	
   884  0074                     ___wmul@multiplicand:	
   885                           ; 2 bytes @ 0x4
   886                           
   887                           
   888                           ; 2 bytes @ 0x4
   889  0074                     	ds	1
   890  0075                     writeUART@str2Write:	
   891                           
   892                           ; 1 bytes @ 0x5
   893  0075                     	ds	1
   894  0076                     ??_copy_frame:	
   895  0076                     ??___wmul:	
   896                           ; 1 bytes @ 0x6
   897                           
   898  0076                     ___wmul@product:	
   899                           ; 1 bytes @ 0x6
   900                           
   901                           
   902                           ; 2 bytes @ 0x6
   903  0076                     	ds	2
   904  0078                     ?_atoi:	
   905                           
   906                           ; 2 bytes @ 0x8
   907  0078                     	ds	2
   908                           
   909                           	psect	cstackBANK0
   910  0020                     __pcstackBANK0:	
   911  0020                     ??_atoi:	
   912  0020                     copy_frame@sw:	
   913                           ; 1 bytes @ 0x0
   914                           
   915                           
   916                           ; 2 bytes @ 0x0
   917  0020                     	ds	2
   918  0022                     atoi@sign:	
   919  0022                     copy_frame@k:	
   920                           ; 1 bytes @ 0x2
   921                           
   922                           
   923                           ; 2 bytes @ 0x2
   924  0022                     	ds	1
   925  0023                     atoi@a:	
   926                           
   927                           ; 2 bytes @ 0x3
   928  0023                     	ds	2
   929  0025                     atoi@s:	
   930                           
   931                           ; 1 bytes @ 0x5
   932  0025                     	ds	1
   933  0026                     ?_ACTION:	
   934  0026                     ACTION@Switch_Num_1s:	
   935                           ; 1 bytes @ 0x6
   936                           
   937                           
   938                           ; 1 bytes @ 0x6
   939  0026                     	ds	1
   940  0027                     ACTION@sw_status:	
   941                           
   942                           ; 1 bytes @ 0x7
   943  0027                     	ds	1
   944  0028                     ACTION@speed_bitHigh:	
   945                           
   946                           ; 1 bytes @ 0x8
   947  0028                     	ds	1
   948  0029                     ACTION@speed_bitLow:	
   949                           
   950                           ; 1 bytes @ 0x9
   951  0029                     	ds	1
   952  002A                     ACTION@parent:	
   953                           
   954                           ; 1 bytes @ 0xA
   955  002A                     	ds	1
   956  002B                     ACTION@finalFrameStat:	
   957                           
   958                           ; 1 bytes @ 0xB
   959  002B                     	ds	1
   960  002C                     ??_ACTION:	
   961                           
   962                           ; 1 bytes @ 0xC
   963  002C                     	ds	2
   964  002E                     ACTION@FanSpeed:	
   965                           
   966                           ; 2 bytes @ 0xE
   967  002E                     	ds	2
   968  0030                     ACTION@children:	
   969                           
   970                           ; 2 bytes @ 0x10
   971  0030                     	ds	2
   972  0032                     ACTION@child_lock_num:	
   973                           
   974                           ; 2 bytes @ 0x12
   975  0032                     	ds	2
   976  0034                     ACTION@Switch_Num_10s:	
   977                           
   978                           ; 1 bytes @ 0x14
   979  0034                     	ds	1
   980  0035                     ACTION@FanSpeedString:	
   981                           
   982                           ; 2 bytes @ 0x15
   983  0035                     	ds	2
   984  0037                     ACTION@SwNumString:	
   985                           
   986                           ; 2 bytes @ 0x17
   987  0037                     	ds	2
   988  0039                     ACTION@SwNum:	
   989                           
   990                           ; 2 bytes @ 0x19
   991  0039                     	ds	2
   992  003B                     ACTION@response_starts:	
   993                           
   994                           ; 2 bytes @ 0x1B
   995  003B                     	ds	2
   996  003D                     ACTION@switch_status:	
   997                           
   998                           ; 2 bytes @ 0x1D
   999  003D                     	ds	2
  1000  003F                     ??_main:	
  1001                           
  1002                           ; 1 bytes @ 0x1F
  1003  003F                     	ds	6
  1004                           
  1005                           	psect	maintext
  1006  0BFC                     __pmaintext:	
  1007 ;;
  1008 ;;Main: autosize = 0, tempsize = 6, incstack = 0, save=0
  1009 ;;
  1010 ;; *************** function _main *****************
  1011 ;; Defined at:
  1012 ;;		line 1113 in file "two_dimmmer_1+fan.c"
  1013 ;; Parameters:    Size  Location     Type
  1014 ;;		None
  1015 ;; Auto vars:     Size  Location     Type
  1016 ;;  k               2   12[BANK1 ] int 
  1017 ;;  k               2   14[BANK1 ] int 
  1018 ;;  end_flag        2   10[BANK1 ] int 
  1019 ;;  start_flag      2    8[BANK1 ] int 
  1020 ;;  RX_CHK_FLAG_    2    6[BANK1 ] int 
  1021 ;;  RX_CHK_FLAG_    2    4[BANK1 ] int 
  1022 ;;  RX_CHK_FLAG_    2    2[BANK1 ] int 
  1023 ;;  RX_CHK_FLAG_    2    0[BANK1 ] int 
  1024 ;; Return value:  Size  Location     Type
  1025 ;;                  1    wreg      void 
  1026 ;; Registers used:
  1027 ;;		wreg, fsr0l, fsr0h, fsr1l, fsr1h, status,2, status,0, pclath, cstack
  1028 ;; Tracked objects:
  1029 ;;		On entry : B1F/0
  1030 ;;		On exit  : 0/0
  1031 ;;		Unchanged: 0/0
  1032 ;; Data sizes:     COMMON   BANK0   BANK1   BANK2   BANK3   BANK4   BANK5   BANK6   BANK7   BANK8   BANK9
  1033 ;;      Params:         0       0       0       0       0       0       0       0       0       0       0
  1034 ;;      Locals:         0       0      16       0       0       0       0       0       0       0       0
  1035 ;;      Temps:          0       6       0       0       0       0       0       0       0       0       0
  1036 ;;      Totals:         0       6      16       0       0       0       0       0       0       0       0
  1037 ;;Total ram usage:       22 bytes
  1038 ;; Hardware stack levels required when called:    4
  1039 ;; This function calls:
  1040 ;;		_ACTION
  1041 ;;		_copy_frame
  1042 ;;		_periperal_init
  1043 ;;		_pin_manager
  1044 ;;		_writeUART
  1045 ;; This function is called by:
  1046 ;;		Startup code after reset
  1047 ;; This function uses a non-reentrant model
  1048 ;;
  1049                           
  1050                           
  1051                           ;psect for function _main
  1052  0BFC                     _main:	
  1053                           
  1054                           ;two_dimmmer_1+fan.c: 1114: _delay((unsigned long)((2000)*(16000000/4000.0)));
  1055                           
  1056                           ;incstack = 0
  1057                           ; Regs used in _main: [wreg-fsr1h+status,2+status,0+pclath+cstack]
  1058  0BFC  3029               	movlw	41
  1059  0BFD  0020               	movlb	0	; select bank0
  1060  0BFE  00C0               	movwf	??_main+1
  1061  0BFF  3096               	movlw	150
  1062  0C00  00BF               	movwf	??_main
  1063  0C01  307F               	movlw	127
  1064  0C02                     u3667:	
  1065  0C02  0B89               	decfsz	9,f
  1066  0C03  2C02               	goto	u3667
  1067  0C04  0BBF               	decfsz	??_main,f
  1068  0C05  2C02               	goto	u3667
  1069  0C06  0BC0               	decfsz	??_main+1,f
  1070  0C07  2C02               	goto	u3667
  1071                           
  1072                           ;two_dimmmer_1+fan.c: 1116: int RX_CHK_FLAG_start1 = 0 ,RX_CHK_FLAG_start2 = 0, start_fl
      +                          ag=0;
  1073  0C08  0021               	movlb	1	; select bank1
  1074  0C09  01CE               	clrf	main@RX_CHK_FLAG_start1^(0+128)
  1075  0C0A  01CF               	clrf	(main@RX_CHK_FLAG_start1+1)^(0+128)
  1076  0C0B  01D0               	clrf	main@RX_CHK_FLAG_start2^(0+128)
  1077  0C0C  01D1               	clrf	(main@RX_CHK_FLAG_start2+1)^(0+128)
  1078  0C0D  01D6               	clrf	main@start_flag^(0+128)
  1079  0C0E  01D7               	clrf	(main@start_flag+1)^(0+128)
  1080                           
  1081                           ;two_dimmmer_1+fan.c: 1117: int RX_CHK_FLAG_end1 = 0, RX_CHK_FLAG_end2 = 0, end_flag=0;
  1082  0C0F  01D2               	clrf	main@RX_CHK_FLAG_end1^(0+128)
  1083  0C10  01D3               	clrf	(main@RX_CHK_FLAG_end1+1)^(0+128)
  1084  0C11  01D4               	clrf	main@RX_CHK_FLAG_end2^(0+128)
  1085  0C12  01D5               	clrf	(main@RX_CHK_FLAG_end2+1)^(0+128)
  1086  0C13  01D8               	clrf	main@end_flag^(0+128)
  1087  0C14  01D9               	clrf	(main@end_flag+1)^(0+128)
  1088                           
  1089                           ;two_dimmmer_1+fan.c: 1119: pin_manager();
  1090  0C15  3188  20E5  318B   	fcall	_pin_manager
  1091                           
  1092                           ;two_dimmmer_1+fan.c: 1120: periperal_init();
  1093  0C18  3188  20C7  318B   	fcall	_periperal_init
  1094                           
  1095                           ;two_dimmmer_1+fan.c: 1122: RF0 = 0; RF1 = 0; RE5 = 1; RA3 = 1; RA2 = 1;
  1096  0C1B  0025               	movlb	5	; select bank5
  1097  0C1C  100C               	bcf	12,0	;volatile
  1098  0C1D  108C               	bcf	12,1	;volatile
  1099  0C1E  0020               	movlb	0	; select bank0
  1100  0C1F  1690               	bsf	16,5	;volatile
  1101  0C20  158C               	bsf	12,3	;volatile
  1102  0C21  150C               	bsf	12,2	;volatile
  1103                           
  1104                           ;two_dimmmer_1+fan.c: 1123: M1=1; M2=1; M3=1; M4=1; M5=1;
  1105  0C22  3001               	movlw	1
  1106  0C23  00CD               	movwf	_M1
  1107  0C24  3000               	movlw	0
  1108  0C25  00CE               	movwf	_M1+1
  1109  0C26  3001               	movlw	1
  1110  0C27  00CB               	movwf	_M2
  1111  0C28  3000               	movlw	0
  1112  0C29  00CC               	movwf	_M2+1
  1113  0C2A  3001               	movlw	1
  1114  0C2B  00C9               	movwf	_M3
  1115  0C2C  3000               	movlw	0
  1116  0C2D  00CA               	movwf	_M3+1
  1117  0C2E  3001               	movlw	1
  1118  0C2F  00C7               	movwf	_M4
  1119  0C30  3000               	movlw	0
  1120  0C31  00C8               	movwf	_M4+1
  1121  0C32  3001               	movlw	1
  1122  0C33  00C5               	movwf	_M5
  1123  0C34  3000               	movlw	0
  1124  0C35  00C6               	movwf	_M5+1
  1125                           
  1126                           ;two_dimmmer_1+fan.c: 1124: RE0 = 1;
  1127  0C36  1410               	bsf	16,0	;volatile
  1128                           
  1129                           ;two_dimmmer_1+fan.c: 1125: RE2 = 0;
  1130  0C37  1110               	bcf	16,2	;volatile
  1131                           
  1132                           ;two_dimmmer_1+fan.c: 1126: RE4 = 0;
  1133  0C38  1210               	bcf	16,4	;volatile
  1134                           
  1135                           ;two_dimmmer_1+fan.c: 1127: RE1 = 0;
  1136  0C39  1090               	bcf	16,1	;volatile
  1137                           
  1138                           ;two_dimmmer_1+fan.c: 1128: st[0]='%';
  1139  0C3A  3025               	movlw	37
  1140  0C3B  00BF               	movwf	??_main
  1141  0C3C  083F               	movf	??_main,w
  1142  0C3D  0021               	movlb	1	; select bank1
  1143  0C3E  00B4               	movwf	_st^(0+128)
  1144                           
  1145                           ;two_dimmmer_1+fan.c: 1129: st[21]='@';
  1146  0C3F  3040               	movlw	64
  1147  0C40  0020               	movlb	0	; select bank0
  1148  0C41  00BF               	movwf	??_main
  1149  0C42  083F               	movf	??_main,w
  1150  0C43  0021               	movlb	1	; select bank1
  1151  0C44  00C9               	movwf	(_st^(0+128)+21)
  1152  0C45                     l9291:	
  1153                           ;two_dimmmer_1+fan.c: 1131: while(1){
  1154                           
  1155                           
  1156                           ;two_dimmmer_1+fan.c: 1133: if(TX_FLAG==1)
  1157  0C45  0021               	movlb	1	; select bank1
  1158  0C46  0364               	decf	_TX_FLAG^(0+128),w
  1159  0C47  0465               	iorwf	(_TX_FLAG+1)^(0+128),w
  1160  0C48  1D03               	btfss	3,2
  1161  0C49  2D98               	goto	l9377
  1162                           
  1163                           ;two_dimmmer_1+fan.c: 1134: {
  1164                           ;two_dimmmer_1+fan.c: 1136: TX_FLAG=0; start_flag = 0; end_flag = 0;
  1165  0C4A  01E4               	clrf	_TX_FLAG^(0+128)
  1166  0C4B  01E5               	clrf	(_TX_FLAG+1)^(0+128)
  1167  0C4C  01D6               	clrf	main@start_flag^(0+128)
  1168  0C4D  01D7               	clrf	(main@start_flag+1)^(0+128)
  1169  0C4E  01D8               	clrf	main@end_flag^(0+128)
  1170  0C4F  01D9               	clrf	(main@end_flag+1)^(0+128)
  1171                           
  1172                           ;two_dimmmer_1+fan.c: 1138: if(name[0]=='%' && name[1]=='%' && name[14]=='@' && name[15]
      +                          =='@')
  1173  0C50  3025               	movlw	37
  1174  0C51  0022               	movlb	2	; select bank2
  1175  0C52  0644               	xorwf	_name^(0+256),w
  1176  0C53  1D03               	btfss	3,2
  1177  0C54  2CF7               	goto	l9345
  1178  0C55  3025               	movlw	37
  1179  0C56  0645               	xorwf	(_name^(0+256)+1),w
  1180  0C57  1D03               	btfss	3,2
  1181  0C58  2CF7               	goto	l9345
  1182  0C59  3040               	movlw	64
  1183  0C5A  0652               	xorwf	(_name^(0+256)+14),w
  1184  0C5B  1D03               	btfss	3,2
  1185  0C5C  2CF7               	goto	l9345
  1186  0C5D  3040               	movlw	64
  1187  0C5E  0653               	xorwf	(_name^(0+256)+15),w
  1188  0C5F  1D03               	btfss	3,2
  1189  0C60  2CF7               	goto	l9345
  1190                           
  1191                           ;two_dimmmer_1+fan.c: 1139: {
  1192                           ;two_dimmmer_1+fan.c: 1140: for(int k=0;k<16;k++)
  1193  0C61  0021               	movlb	1	; select bank1
  1194  0C62  01DC               	clrf	main@k^(0+128)
  1195  0C63  01DD               	clrf	(main@k+1)^(0+128)
  1196  0C64                     L3:	
  1197  0C64  085D               	movf	(main@k+1)^(0+128),w
  1198  0C65  3A80               	xorlw	128
  1199  0C66  0020               	movlb	0	; select bank0
  1200  0C67  00BF               	movwf	??_main
  1201  0C68  3080               	movlw	128
  1202  0C69  023F               	subwf	??_main,w
  1203  0C6A  1D03               	skipz
  1204  0C6B  2C6F               	goto	u3085
  1205  0C6C  3010               	movlw	16
  1206  0C6D  0021               	movlb	1	; select bank1
  1207  0C6E  025C               	subwf	main@k^(0+128),w
  1208  0C6F                     u3085:	
  1209  0C6F  1803               	btfsc	3,0
  1210  0C70  2D4F               	goto	l9365
  1211                           
  1212                           ;two_dimmmer_1+fan.c: 1141: {
  1213                           ;two_dimmmer_1+fan.c: 1142: if(name[k] == '%' && name[k+1] == '%' && start_flag == 0)
  1214  0C71  0021               	movlb	1	; select bank1
  1215  0C72  085C               	movf	main@k^(0+128),w
  1216  0C73  3E44               	addlw	(low (_name| (0+256)))& (0+255)
  1217  0C74  0086               	movwf	6
  1218  0C75  3001               	movlw	1	; select bank2/3
  1219  0C76  0087               	movwf	7
  1220  0C77  3025               	movlw	37
  1221  0C78  0601               	xorwf	1,w
  1222  0C79  1D03               	btfss	3,2
  1223  0C7A  2C92               	goto	l9317
  1224  0C7B  085C               	movf	main@k^(0+128),w
  1225  0C7C  3E01               	addlw	1
  1226  0C7D  3E44               	addlw	(low (_name| (0+256)))& (0+255)
  1227  0C7E  0086               	movwf	6
  1228  0C7F  3001               	movlw	1	; select bank2/3
  1229  0C80  0087               	movwf	7
  1230  0C81  3025               	movlw	37
  1231  0C82  0601               	xorwf	1,w
  1232  0C83  1D03               	btfss	3,2
  1233  0C84  2C92               	goto	l9317
  1234  0C85  0856               	movf	main@start_flag^(0+128),w
  1235  0C86  0457               	iorwf	(main@start_flag+1)^(0+128),w
  1236  0C87  1D03               	btfss	3,2
  1237  0C88  2C92               	goto	l9317
  1238                           
  1239                           ;two_dimmmer_1+fan.c: 1143: {
  1240                           ;two_dimmmer_1+fan.c: 1144: RX_CHK_FLAG_start1 = k;
  1241  0C89  085D               	movf	(main@k+1)^(0+128),w
  1242  0C8A  00CF               	movwf	(main@RX_CHK_FLAG_start1+1)^(0+128)
  1243  0C8B  085C               	movf	main@k^(0+128),w
  1244  0C8C  00CE               	movwf	main@RX_CHK_FLAG_start1^(0+128)
  1245                           
  1246                           ;two_dimmmer_1+fan.c: 1145: start_flag = 1;
  1247  0C8D  3001               	movlw	1
  1248  0C8E  00D6               	movwf	main@start_flag^(0+128)
  1249  0C8F  3000               	movlw	0
  1250  0C90  00D7               	movwf	(main@start_flag^(0+128)+1)
  1251                           
  1252                           ;two_dimmmer_1+fan.c: 1146: }
  1253  0C91  2CF1               	goto	l9343
  1254  0C92                     l9317:	
  1255                           
  1256                           ;two_dimmmer_1+fan.c: 1147: else if(name[k] == '%' && name[k+1] == '%' && start_flag == 
      +                          1)
  1257  0C92  085C               	movf	main@k^(0+128),w
  1258  0C93  3E44               	addlw	(low (_name| (0+256)))& (0+255)
  1259  0C94  0086               	movwf	6
  1260  0C95  3001               	movlw	1	; select bank2/3
  1261  0C96  0087               	movwf	7
  1262  0C97  3025               	movlw	37
  1263  0C98  0601               	xorwf	1,w
  1264  0C99  1D03               	btfss	3,2
  1265  0C9A  2CAE               	goto	l9325
  1266  0C9B  085C               	movf	main@k^(0+128),w
  1267  0C9C  3E01               	addlw	1
  1268  0C9D  3E44               	addlw	(low (_name| (0+256)))& (0+255)
  1269  0C9E  0086               	movwf	6
  1270  0C9F  3001               	movlw	1	; select bank2/3
  1271  0CA0  0087               	movwf	7
  1272  0CA1  3025               	movlw	37
  1273  0CA2  0601               	xorwf	1,w
  1274  0CA3  1D03               	btfss	3,2
  1275  0CA4  2CAE               	goto	l9325
  1276  0CA5  0356               	decf	main@start_flag^(0+128),w
  1277  0CA6  0457               	iorwf	(main@start_flag+1)^(0+128),w
  1278  0CA7  1D03               	btfss	3,2
  1279  0CA8  2CAE               	goto	l9325
  1280                           
  1281                           ;two_dimmmer_1+fan.c: 1148: {
  1282                           ;two_dimmmer_1+fan.c: 1149: RX_CHK_FLAG_start2 = k;
  1283  0CA9  085D               	movf	(main@k+1)^(0+128),w
  1284  0CAA  00D1               	movwf	(main@RX_CHK_FLAG_start2+1)^(0+128)
  1285  0CAB  085C               	movf	main@k^(0+128),w
  1286  0CAC  00D0               	movwf	main@RX_CHK_FLAG_start2^(0+128)
  1287                           
  1288                           ;two_dimmmer_1+fan.c: 1150: }
  1289  0CAD  2CF1               	goto	l9343
  1290  0CAE                     l9325:	
  1291                           
  1292                           ;two_dimmmer_1+fan.c: 1151: else if(name[k] == '@' && name[k+1] == '@' && end_flag == 0)
  1293  0CAE  085C               	movf	main@k^(0+128),w
  1294  0CAF  3E44               	addlw	(low (_name| (0+256)))& (0+255)
  1295  0CB0  0086               	movwf	6
  1296  0CB1  3001               	movlw	1	; select bank2/3
  1297  0CB2  0087               	movwf	7
  1298  0CB3  3040               	movlw	64
  1299  0CB4  0601               	xorwf	1,w
  1300  0CB5  1D03               	btfss	3,2
  1301  0CB6  2CCF               	goto	l9335
  1302  0CB7  085C               	movf	main@k^(0+128),w
  1303  0CB8  3E01               	addlw	1
  1304  0CB9  3E44               	addlw	(low (_name| (0+256)))& (0+255)
  1305  0CBA  0086               	movwf	6
  1306  0CBB  3001               	movlw	1	; select bank2/3
  1307  0CBC  0087               	movwf	7
  1308  0CBD  3040               	movlw	64
  1309  0CBE  0601               	xorwf	1,w
  1310  0CBF  1D03               	btfss	3,2
  1311  0CC0  2CCF               	goto	l9335
  1312  0CC1  0858               	movf	main@end_flag^(0+128),w
  1313  0CC2  0459               	iorwf	(main@end_flag+1)^(0+128),w
  1314  0CC3  1D03               	btfss	3,2
  1315  0CC4  2CCF               	goto	l9335
  1316                           
  1317                           ;two_dimmmer_1+fan.c: 1152: {
  1318                           ;two_dimmmer_1+fan.c: 1153: RX_CHK_FLAG_end1 = k;
  1319  0CC5  085D               	movf	(main@k+1)^(0+128),w
  1320  0CC6  00D3               	movwf	(main@RX_CHK_FLAG_end1+1)^(0+128)
  1321  0CC7  085C               	movf	main@k^(0+128),w
  1322  0CC8  00D2               	movwf	main@RX_CHK_FLAG_end1^(0+128)
  1323                           
  1324                           ;two_dimmmer_1+fan.c: 1154: end_flag = 1;
  1325  0CC9  3001               	movlw	1
  1326  0CCA  00D8               	movwf	main@end_flag^(0+128)
  1327  0CCB  3000               	movlw	0
  1328  0CCC  00D9               	movwf	(main@end_flag^(0+128)+1)
  1329                           
  1330                           ;two_dimmmer_1+fan.c: 1155: COPY_FLAG=1;
  1331  0CCD  3001               	movlw	1
  1332  0CCE  2CEC               	goto	L1
  1333  0CCF                     l9335:	
  1334                           ;two_dimmmer_1+fan.c: 1157: }
  1335                           
  1336                           ;two_dimmmer_1+fan.c: 1156: break;
  1337                           
  1338                           
  1339                           ;two_dimmmer_1+fan.c: 1158: else if(name[k] == '@' && name[k+1] == '@' && end_flag == 1)
  1340  0CCF  0021               	movlb	1	; select bank1
  1341  0CD0  085C               	movf	main@k^(0+128),w
  1342  0CD1  3E44               	addlw	(low (_name| (0+256)))& (0+255)
  1343  0CD2  0086               	movwf	6
  1344  0CD3  3001               	movlw	1	; select bank2/3
  1345  0CD4  0087               	movwf	7
  1346  0CD5  3040               	movlw	64
  1347  0CD6  0601               	xorwf	1,w
  1348  0CD7  1D03               	btfss	3,2
  1349  0CD8  2CF1               	goto	l9343
  1350  0CD9  085C               	movf	main@k^(0+128),w
  1351  0CDA  3E01               	addlw	1
  1352  0CDB  3E44               	addlw	(low (_name| (0+256)))& (0+255)
  1353  0CDC  0086               	movwf	6
  1354  0CDD  3001               	movlw	1	; select bank2/3
  1355  0CDE  0087               	movwf	7
  1356  0CDF  3040               	movlw	64
  1357  0CE0  0601               	xorwf	1,w
  1358  0CE1  1D03               	btfss	3,2
  1359  0CE2  2CF1               	goto	l9343
  1360  0CE3  0358               	decf	main@end_flag^(0+128),w
  1361  0CE4  0459               	iorwf	(main@end_flag+1)^(0+128),w
  1362  0CE5  1D03               	btfss	3,2
  1363  0CE6  2CF1               	goto	l9343
  1364                           
  1365                           ;two_dimmmer_1+fan.c: 1159: {
  1366                           ;two_dimmmer_1+fan.c: 1160: RX_CHK_FLAG_end2 = k;
  1367  0CE7  085D               	movf	(main@k+1)^(0+128),w
  1368  0CE8  00D5               	movwf	(main@RX_CHK_FLAG_end2+1)^(0+128)
  1369  0CE9  085C               	movf	main@k^(0+128),w
  1370  0CEA  00D4               	movwf	main@RX_CHK_FLAG_end2^(0+128)
  1371                           
  1372                           ;two_dimmmer_1+fan.c: 1161: COPY_FLAG=2;
  1373  0CEB  3002               	movlw	2
  1374  0CEC                     L1:	
  1375  0CEC  0020               	movlb	0	; select bank0
  1376  0CED  00CF               	movwf	_COPY_FLAG
  1377  0CEE  3000               	movlw	0
  1378  0CEF  00D0               	movwf	_COPY_FLAG+1
  1379                           
  1380                           ;two_dimmmer_1+fan.c: 1162: break;
  1381  0CF0  2D4F               	goto	l9365
  1382  0CF1                     l9343:	
  1383  0CF1  3001               	movlw	1
  1384  0CF2  0021               	movlb	1	; select bank1
  1385  0CF3  07DC               	addwf	main@k^(0+128),f
  1386  0CF4  3000               	movlw	0
  1387  0CF5  3DDD               	addwfc	(main@k+1)^(0+128),f
  1388  0CF6  2C64               	goto	L3
  1389  0CF7                     l9345:	
  1390                           ;two_dimmmer_1+fan.c: 1163: }
  1391                           ;two_dimmmer_1+fan.c: 1164: }
  1392                           ;two_dimmmer_1+fan.c: 1165: }
  1393                           
  1394                           
  1395                           ;two_dimmmer_1+fan.c: 1166: else
  1396                           ;two_dimmmer_1+fan.c: 1167: {
  1397                           ;two_dimmmer_1+fan.c: 1168: _delay((unsigned long)((10)*(16000000/4000.0))); TX1REG='P';
      +                           _delay((unsigned long)((1)*(16000000/4000.0))); TX1REG='K'; _delay((unsigned long)((1)*
      +                          (16000000/4000.0)));
  1398  0CF7  3034               	movlw	52
  1399  0CF8  0020               	movlb	0	; select bank0
  1400  0CF9  00BF               	movwf	??_main
  1401  0CFA  30F1               	movlw	241
  1402  0CFB                     u3677:	
  1403  0CFB  0B89               	decfsz	9,f
  1404  0CFC  2CFB               	goto	u3677
  1405  0CFD  0BBF               	decfsz	??_main,f
  1406  0CFE  2CFB               	goto	u3677
  1407  0CFF  3200               	nop2
  1408  0D00  3050               	movlw	80
  1409  0D01  0023               	movlb	3	; select bank3
  1410  0D02  009A               	movwf	26	;volatile
  1411  0D03  3006               	movlw	6
  1412  0D04  0020               	movlb	0	; select bank0
  1413  0D05  00BF               	movwf	??_main
  1414  0D06  3030               	movlw	48
  1415  0D07                     u3687:	
  1416  0D07  0B89               	decfsz	9,f
  1417  0D08  2D07               	goto	u3687
  1418  0D09  0BBF               	decfsz	??_main,f
  1419  0D0A  2D07               	goto	u3687
  1420  0D0B  0000               	nop
  1421  0D0C  304B               	movlw	75
  1422  0D0D  0023               	movlb	3	; select bank3
  1423  0D0E  009A               	movwf	26	;volatile
  1424  0D0F  3006               	movlw	6
  1425  0D10  0020               	movlb	0	; select bank0
  1426  0D11  00BF               	movwf	??_main
  1427  0D12  3030               	movlw	48
  1428  0D13                     u3697:	
  1429  0D13  0B89               	decfsz	9,f
  1430  0D14  2D13               	goto	u3697
  1431  0D15  0BBF               	decfsz	??_main,f
  1432  0D16  2D13               	goto	u3697
  1433  0D17  0000               	nop
  1434                           
  1435                           ;two_dimmmer_1+fan.c: 1169: i=0; RC1STAbits.SPEN=0; RC1STAbits.SPEN=1;
  1436  0D18  0020               	movlb	0	; select bank0
  1437  0D19  01DB               	clrf	_i
  1438  0D1A  01DC               	clrf	_i+1
  1439  0D1B  0023               	movlb	3	; select bank3
  1440  0D1C  139D               	bcf	29,7	;volatile
  1441  0D1D  179D               	bsf	29,7	;volatile
  1442                           
  1443                           ;two_dimmmer_1+fan.c: 1170: for(int k = 0; k< 15; k++)
  1444  0D1E  0021               	movlb	1	; select bank1
  1445  0D1F  01DA               	clrf	main@k_753^(0+128)
  1446  0D20  01DB               	clrf	(main@k_753+1)^(0+128)
  1447  0D21  085B               	movf	(main@k_753+1)^(0+128),w
  1448  0D22  3A80               	xorlw	128
  1449  0D23  0020               	movlb	0	; select bank0
  1450  0D24  00BF               	movwf	??_main
  1451  0D25  3080               	movlw	128
  1452  0D26  023F               	subwf	??_main,w
  1453  0D27  1D03               	skipz
  1454  0D28  2D2C               	goto	u3225
  1455  0D29  300F               	movlw	15
  1456  0D2A  0021               	movlb	1	; select bank1
  1457  0D2B  025A               	subwf	main@k_753^(0+128),w
  1458  0D2C                     u3225:	
  1459  0D2C  1803               	btfsc	3,0
  1460  0D2D  2D4C               	goto	l9363
  1461  0D2E                     l9357:	
  1462                           
  1463                           ;two_dimmmer_1+fan.c: 1171: {
  1464                           ;two_dimmmer_1+fan.c: 1172: name[k] = '#';
  1465  0D2E  3023               	movlw	35
  1466  0D2F  0020               	movlb	0	; select bank0
  1467  0D30  00BF               	movwf	??_main
  1468  0D31  0021               	movlb	1	; select bank1
  1469  0D32  085A               	movf	main@k_753^(0+128),w
  1470  0D33  3E44               	addlw	(low (_name| (0+256)))& (0+255)
  1471  0D34  0086               	movwf	6
  1472  0D35  3001               	movlw	1	; select bank2/3
  1473  0D36  0087               	movwf	7
  1474  0D37  0020               	movlb	0	; select bank0
  1475  0D38  083F               	movf	??_main,w
  1476  0D39  0081               	movwf	1
  1477  0D3A  3001               	movlw	1
  1478  0D3B  0021               	movlb	1	; select bank1
  1479  0D3C  07DA               	addwf	main@k_753^(0+128),f
  1480  0D3D  3000               	movlw	0
  1481  0D3E  3DDB               	addwfc	(main@k_753+1)^(0+128),f
  1482  0D3F  085B               	movf	(main@k_753+1)^(0+128),w
  1483  0D40  3A80               	xorlw	128
  1484  0D41  0020               	movlb	0	; select bank0
  1485  0D42  00BF               	movwf	??_main
  1486  0D43  3080               	movlw	128
  1487  0D44  023F               	subwf	??_main,w
  1488  0D45  1D03               	skipz
  1489  0D46  2D4A               	goto	u3235
  1490  0D47  300F               	movlw	15
  1491  0D48  0021               	movlb	1	; select bank1
  1492  0D49  025A               	subwf	main@k_753^(0+128),w
  1493  0D4A                     u3235:	
  1494  0D4A  1C03               	skipc
  1495  0D4B  2D2E               	goto	l9357
  1496  0D4C                     l9363:	
  1497                           
  1498                           ;two_dimmmer_1+fan.c: 1173: }
  1499                           ;two_dimmmer_1+fan.c: 1176: COPY_FLAG=0;
  1500  0D4C  0020               	movlb	0	; select bank0
  1501  0D4D  01CF               	clrf	_COPY_FLAG
  1502  0D4E  01D0               	clrf	_COPY_FLAG+1
  1503  0D4F                     l9365:	
  1504                           
  1505                           ;two_dimmmer_1+fan.c: 1177: }
  1506                           ;two_dimmmer_1+fan.c: 1180: if(COPY_FLAG==1)
  1507  0D4F  0020               	movlb	0	; select bank0
  1508  0D50  034F               	decf	_COPY_FLAG,w
  1509  0D51  0450               	iorwf	_COPY_FLAG+1,w
  1510  0D52  1D03               	btfss	3,2
  1511  0D53  2D5D               	goto	l9371
  1512                           
  1513                           ;two_dimmmer_1+fan.c: 1181: {
  1514                           ;two_dimmmer_1+fan.c: 1182: copy_frame(RX_CHK_FLAG_start1,RX_CHK_FLAG_end1);
  1515  0D54  0021               	movlb	1	; select bank1
  1516  0D55  084F               	movf	(main@RX_CHK_FLAG_start1+1)^(0+128),w
  1517  0D56  00F3               	movwf	copy_frame@start+1
  1518  0D57  084E               	movf	main@RX_CHK_FLAG_start1^(0+128),w
  1519  0D58  00F2               	movwf	copy_frame@start
  1520  0D59  0853               	movf	(main@RX_CHK_FLAG_end1+1)^(0+128),w
  1521  0D5A  00F5               	movwf	copy_frame@end+1
  1522  0D5B  0852               	movf	main@RX_CHK_FLAG_end1^(0+128),w
  1523  0D5C  2D6B               	goto	L2
  1524  0D5D                     l9371:	
  1525                           ;two_dimmmer_1+fan.c: 1185: }
  1526                           
  1527                           ;two_dimmmer_1+fan.c: 1184: ACTION(copy[2], copy[3], copy[4], copy[5], copy[6], copy[7],
      +                          copy[8]);
  1528                           
  1529                           
  1530                           ;two_dimmmer_1+fan.c: 1186: else if(COPY_FLAG==2)
  1531  0D5D  3002               	movlw	2
  1532  0D5E  0020               	movlb	0	; select bank0
  1533  0D5F  064F               	xorwf	_COPY_FLAG,w
  1534  0D60  0450               	iorwf	_COPY_FLAG+1,w
  1535  0D61  1D03               	btfss	3,2
  1536  0D62  2D98               	goto	l9377
  1537                           
  1538                           ;two_dimmmer_1+fan.c: 1187: {
  1539                           ;two_dimmmer_1+fan.c: 1188: copy_frame(RX_CHK_FLAG_start2,RX_CHK_FLAG_end2);
  1540  0D63  0021               	movlb	1	; select bank1
  1541  0D64  0851               	movf	(main@RX_CHK_FLAG_start2+1)^(0+128),w
  1542  0D65  00F3               	movwf	copy_frame@start+1
  1543  0D66  0850               	movf	main@RX_CHK_FLAG_start2^(0+128),w
  1544  0D67  00F2               	movwf	copy_frame@start
  1545  0D68  0855               	movf	(main@RX_CHK_FLAG_end2+1)^(0+128),w
  1546  0D69  00F5               	movwf	copy_frame@end+1
  1547  0D6A  0854               	movf	main@RX_CHK_FLAG_end2^(0+128),w
  1548  0D6B                     L2:	
  1549  0D6B  00F4               	movwf	copy_frame@end
  1550  0D6C  3187  27B2  318B   	fcall	_copy_frame
  1551                           
  1552                           ;two_dimmmer_1+fan.c: 1189: ACTION(copy[2], copy[3], copy[4], copy[5], copy[6], copy[7],
      +                          copy[8]);
  1553  0D6F  0022               	movlb	2	; select bank2
  1554  0D70  0823               	movf	(_copy^(0+256)+3),w
  1555  0D71  0020               	movlb	0	; select bank0
  1556  0D72  00BF               	movwf	??_main
  1557  0D73  083F               	movf	??_main,w
  1558  0D74  00A6               	movwf	ACTION@Switch_Num_1s
  1559  0D75  0022               	movlb	2	; select bank2
  1560  0D76  0824               	movf	(_copy^(0+256)+4),w
  1561  0D77  0020               	movlb	0	; select bank0
  1562  0D78  00C0               	movwf	??_main+1
  1563  0D79  0840               	movf	??_main+1,w
  1564  0D7A  00A7               	movwf	ACTION@sw_status
  1565  0D7B  0022               	movlb	2	; select bank2
  1566  0D7C  0825               	movf	(_copy^(0+256)+5),w
  1567  0D7D  0020               	movlb	0	; select bank0
  1568  0D7E  00C1               	movwf	??_main+2
  1569  0D7F  0841               	movf	??_main+2,w
  1570  0D80  00A8               	movwf	ACTION@speed_bitHigh
  1571  0D81  0022               	movlb	2	; select bank2
  1572  0D82  0826               	movf	(_copy^(0+256)+6),w
  1573  0D83  0020               	movlb	0	; select bank0
  1574  0D84  00C2               	movwf	??_main+3
  1575  0D85  0842               	movf	??_main+3,w
  1576  0D86  00A9               	movwf	ACTION@speed_bitLow
  1577  0D87  0022               	movlb	2	; select bank2
  1578  0D88  0827               	movf	(_copy^(0+256)+7),w
  1579  0D89  0020               	movlb	0	; select bank0
  1580  0D8A  00C3               	movwf	??_main+4
  1581  0D8B  0843               	movf	??_main+4,w
  1582  0D8C  00AA               	movwf	ACTION@parent
  1583  0D8D  0022               	movlb	2	; select bank2
  1584  0D8E  0828               	movf	(_copy^(0+256)+8),w
  1585  0D8F  0020               	movlb	0	; select bank0
  1586  0D90  00C4               	movwf	??_main+5
  1587  0D91  0844               	movf	??_main+5,w
  1588  0D92  00AB               	movwf	ACTION@finalFrameStat
  1589  0D93  0022               	movlb	2	; select bank2
  1590  0D94  0822               	movf	(_copy^(0+256)+2),w
  1591  0D95  3189  2137  318B   	fcall	_ACTION
  1592  0D98                     l9377:	
  1593                           
  1594                           ;two_dimmmer_1+fan.c: 1190: }
  1595                           ;two_dimmmer_1+fan.c: 1191: }
  1596                           ;two_dimmmer_1+fan.c: 1196: if(child_LOCK[1]==0 && RA5==0 && M1==0)
  1597  0D98  0021               	movlb	1	; select bank1
  1598  0D99  0822               	movf	(_child_LOCK^(0+128)+2),w
  1599  0D9A  0423               	iorwf	((_child_LOCK+1)^(0+128)+2),w
  1600  0D9B  1D03               	btfss	3,2
  1601  0D9C  2DCE               	goto	l9395
  1602  0D9D  0020               	movlb	0	; select bank0
  1603  0D9E  1A8C               	btfsc	12,5	;volatile
  1604  0D9F  2DCE               	goto	l9395
  1605  0DA0  084D               	movf	_M1,w
  1606  0DA1  044E               	iorwf	_M1+1,w
  1607  0DA2  1D03               	btfss	3,2
  1608  0DA3  2DCE               	goto	l9395
  1609                           
  1610                           ;two_dimmmer_1+fan.c: 1197: {
  1611                           ;two_dimmmer_1+fan.c: 1198: if(man==1)
  1612  0DA4  0360               	decf	_man,w
  1613  0DA5  0461               	iorwf	_man+1,w
  1614  0DA6  1D03               	btfss	3,2
  1615  0DA7  2DC5               	goto	l9391
  1616                           
  1617                           ;two_dimmmer_1+fan.c: 1199: {
  1618                           ;two_dimmmer_1+fan.c: 1200: st[1]='R'; st[2]='0'; st[3]='0'; st[4]='1'; writeUART(st+1);
      +                           RF0=0;
  1619  0DA8  3052               	movlw	82
  1620  0DA9  00BF               	movwf	??_main
  1621  0DAA  083F               	movf	??_main,w
  1622  0DAB  0021               	movlb	1	; select bank1
  1623  0DAC  00B5               	movwf	(_st^(0+128)+1)
  1624  0DAD  3030               	movlw	48
  1625  0DAE  0020               	movlb	0	; select bank0
  1626  0DAF  00BF               	movwf	??_main
  1627  0DB0  083F               	movf	??_main,w
  1628  0DB1  0021               	movlb	1	; select bank1
  1629  0DB2  00B6               	movwf	(_st^(0+128)+2)
  1630  0DB3  3030               	movlw	48
  1631  0DB4  0020               	movlb	0	; select bank0
  1632  0DB5  00BF               	movwf	??_main
  1633  0DB6  083F               	movf	??_main,w
  1634  0DB7  0021               	movlb	1	; select bank1
  1635  0DB8  00B7               	movwf	(_st^(0+128)+3)
  1636  0DB9  3031               	movlw	49
  1637  0DBA  0020               	movlb	0	; select bank0
  1638  0DBB  00BF               	movwf	??_main
  1639  0DBC  083F               	movf	??_main,w
  1640  0DBD  0021               	movlb	1	; select bank1
  1641  0DBE  00B8               	movwf	(_st^(0+128)+4)
  1642  0DBF  30B5               	movlw	(low ((_st| 0+1)))& (0+255)
  1643  0DC0  3188  2093  318B   	fcall	_writeUART
  1644  0DC3  0025               	movlb	5	; select bank5
  1645  0DC4  100C               	bcf	12,0	;volatile
  1646  0DC5                     l9391:	
  1647                           
  1648                           ;two_dimmmer_1+fan.c: 1201: }
  1649                           ;two_dimmmer_1+fan.c: 1202: M1=1; man=1;
  1650  0DC5  3001               	movlw	1
  1651  0DC6  0020               	movlb	0	; select bank0
  1652  0DC7  00CD               	movwf	_M1
  1653  0DC8  3000               	movlw	0
  1654  0DC9  00CE               	movwf	_M1+1
  1655  0DCA  3001               	movlw	1
  1656  0DCB  00E0               	movwf	_man
  1657  0DCC  3000               	movlw	0
  1658  0DCD  00E1               	movwf	_man+1
  1659  0DCE                     l9395:	
  1660                           
  1661                           ;two_dimmmer_1+fan.c: 1203: }
  1662                           ;two_dimmmer_1+fan.c: 1206: if(child_LOCK[1]==0 && RA5==1 && M1==1)
  1663  0DCE  0021               	movlb	1	; select bank1
  1664  0DCF  0822               	movf	(_child_LOCK^(0+128)+2),w
  1665  0DD0  0423               	iorwf	((_child_LOCK+1)^(0+128)+2),w
  1666  0DD1  1D03               	btfss	3,2
  1667  0DD2  2E02               	goto	l9413
  1668  0DD3  0020               	movlb	0	; select bank0
  1669  0DD4  1E8C               	btfss	12,5	;volatile
  1670  0DD5  2E02               	goto	l9413
  1671  0DD6  034D               	decf	_M1,w
  1672  0DD7  044E               	iorwf	_M1+1,w
  1673  0DD8  1D03               	btfss	3,2
  1674  0DD9  2E02               	goto	l9413
  1675                           
  1676                           ;two_dimmmer_1+fan.c: 1207: {
  1677                           ;two_dimmmer_1+fan.c: 1208: if(man==1)
  1678  0DDA  0360               	decf	_man,w
  1679  0DDB  0461               	iorwf	_man+1,w
  1680  0DDC  1D03               	btfss	3,2
  1681  0DDD  2DFB               	goto	l9409
  1682                           
  1683                           ;two_dimmmer_1+fan.c: 1209: {
  1684                           ;two_dimmmer_1+fan.c: 1210: st[1]='R'; st[2]='1'; st[3]='0'; st[4]='1'; writeUART(st+1);
      +                           RF0=1;
  1685  0DDE  3052               	movlw	82
  1686  0DDF  00BF               	movwf	??_main
  1687  0DE0  083F               	movf	??_main,w
  1688  0DE1  0021               	movlb	1	; select bank1
  1689  0DE2  00B5               	movwf	(_st^(0+128)+1)
  1690  0DE3  3031               	movlw	49
  1691  0DE4  0020               	movlb	0	; select bank0
  1692  0DE5  00BF               	movwf	??_main
  1693  0DE6  083F               	movf	??_main,w
  1694  0DE7  0021               	movlb	1	; select bank1
  1695  0DE8  00B6               	movwf	(_st^(0+128)+2)
  1696  0DE9  3030               	movlw	48
  1697  0DEA  0020               	movlb	0	; select bank0
  1698  0DEB  00BF               	movwf	??_main
  1699  0DEC  083F               	movf	??_main,w
  1700  0DED  0021               	movlb	1	; select bank1
  1701  0DEE  00B7               	movwf	(_st^(0+128)+3)
  1702  0DEF  3031               	movlw	49
  1703  0DF0  0020               	movlb	0	; select bank0
  1704  0DF1  00BF               	movwf	??_main
  1705  0DF2  083F               	movf	??_main,w
  1706  0DF3  0021               	movlb	1	; select bank1
  1707  0DF4  00B8               	movwf	(_st^(0+128)+4)
  1708  0DF5  30B5               	movlw	(low ((_st| 0+1)))& (0+255)
  1709  0DF6  3188  2093  318B   	fcall	_writeUART
  1710  0DF9  0025               	movlb	5	; select bank5
  1711  0DFA  140C               	bsf	12,0	;volatile
  1712  0DFB                     l9409:	
  1713                           
  1714                           ;two_dimmmer_1+fan.c: 1211: }
  1715                           ;two_dimmmer_1+fan.c: 1212: M1=0; man=1;
  1716  0DFB  0020               	movlb	0	; select bank0
  1717  0DFC  01CD               	clrf	_M1
  1718  0DFD  01CE               	clrf	_M1+1
  1719  0DFE  3001               	movlw	1
  1720  0DFF  00E0               	movwf	_man
  1721  0E00  3000               	movlw	0
  1722  0E01  00E1               	movwf	_man+1
  1723  0E02                     l9413:	
  1724                           
  1725                           ;two_dimmmer_1+fan.c: 1213: }
  1726                           ;two_dimmmer_1+fan.c: 1216: if(child_LOCK[3]==0 && RF2==0 && M2==0)
  1727  0E02  0021               	movlb	1	; select bank1
  1728  0E03  0826               	movf	(_child_LOCK^(0+128)+6),w
  1729  0E04  0427               	iorwf	((_child_LOCK+1)^(0+128)+6),w
  1730  0E05  1D03               	btfss	3,2
  1731  0E06  2E7B               	goto	l9447
  1732  0E07  0025               	movlb	5	; select bank5
  1733  0E08  190C               	btfsc	12,2	;volatile
  1734  0E09  2E7B               	goto	l9447
  1735  0E0A  0020               	movlb	0	; select bank0
  1736  0E0B  084B               	movf	_M2,w
  1737  0E0C  044C               	iorwf	_M2+1,w
  1738  0E0D  1D03               	btfss	3,2
  1739  0E0E  2E7B               	goto	l9447
  1740                           
  1741                           ;two_dimmmer_1+fan.c: 1217: {
  1742                           ;two_dimmmer_1+fan.c: 1218: if(man==1)
  1743  0E0F  0360               	decf	_man,w
  1744  0E10  0461               	iorwf	_man+1,w
  1745  0E11  1D03               	btfss	3,2
  1746  0E12  2E72               	goto	l9443
  1747                           
  1748                           ;two_dimmmer_1+fan.c: 1219: {
  1749                           ;two_dimmmer_1+fan.c: 1220: st[5]='R';
  1750  0E13  3052               	movlw	82
  1751  0E14  00BF               	movwf	??_main
  1752  0E15  083F               	movf	??_main,w
  1753  0E16  0021               	movlb	1	; select bank1
  1754  0E17  00B9               	movwf	(_st^(0+128)+5)
  1755                           
  1756                           ;two_dimmmer_1+fan.c: 1221: st[6]='0';
  1757  0E18  3030               	movlw	48
  1758  0E19  0020               	movlb	0	; select bank0
  1759  0E1A  00BF               	movwf	??_main
  1760  0E1B  083F               	movf	??_main,w
  1761  0E1C  0021               	movlb	1	; select bank1
  1762  0E1D  00BA               	movwf	(_st^(0+128)+6)
  1763                           
  1764                           ;two_dimmmer_1+fan.c: 1222: st[7]='0';
  1765  0E1E  3030               	movlw	48
  1766  0E1F  0020               	movlb	0	; select bank0
  1767  0E20  00BF               	movwf	??_main
  1768  0E21  083F               	movf	??_main,w
  1769  0E22  0021               	movlb	1	; select bank1
  1770  0E23  00BB               	movwf	(_st^(0+128)+7)
  1771                           
  1772                           ;two_dimmmer_1+fan.c: 1223: st[8]='2';
  1773  0E24  3032               	movlw	50
  1774  0E25  0020               	movlb	0	; select bank0
  1775  0E26  00BF               	movwf	??_main
  1776  0E27  083F               	movf	??_main,w
  1777  0E28  0021               	movlb	1	; select bank1
  1778  0E29  00BC               	movwf	(_st^(0+128)+8)
  1779                           
  1780                           ;two_dimmmer_1+fan.c: 1224: writeUART(st+5);
  1781  0E2A  30B9               	movlw	(low ((_st| 0+5)))& (0+255)
  1782  0E2B  3188  2093  318B   	fcall	_writeUART
  1783                           
  1784                           ;two_dimmmer_1+fan.c: 1225: _delay((unsigned long)((200)*(16000000/4000.0)));
  1785  0E2E  3005               	movlw	5
  1786  0E2F  0020               	movlb	0	; select bank0
  1787  0E30  00C0               	movwf	??_main+1
  1788  0E31  300F               	movlw	15
  1789  0E32  00BF               	movwf	??_main
  1790  0E33  30F1               	movlw	241
  1791  0E34                     u3707:	
  1792  0E34  0B89               	decfsz	9,f
  1793  0E35  2E34               	goto	u3707
  1794  0E36  0BBF               	decfsz	??_main,f
  1795  0E37  2E34               	goto	u3707
  1796  0E38  0BC0               	decfsz	??_main+1,f
  1797  0E39  2E34               	goto	u3707
  1798                           
  1799                           ;two_dimmmer_1+fan.c: 1226: RE0=1;
  1800  0E3A  0020               	movlb	0	; select bank0
  1801  0E3B  1410               	bsf	16,0	;volatile
  1802                           
  1803                           ;two_dimmmer_1+fan.c: 1227: _delay((unsigned long)((200)*(16000000/4000.0)));
  1804  0E3C  3005               	movlw	5
  1805  0E3D  0020               	movlb	0	; select bank0
  1806  0E3E  00C0               	movwf	??_main+1
  1807  0E3F  300F               	movlw	15
  1808  0E40  00BF               	movwf	??_main
  1809  0E41  30F1               	movlw	241
  1810  0E42                     u3717:	
  1811  0E42  0B89               	decfsz	9,f
  1812  0E43  2E42               	goto	u3717
  1813  0E44  0BBF               	decfsz	??_main,f
  1814  0E45  2E42               	goto	u3717
  1815  0E46  0BC0               	decfsz	??_main+1,f
  1816  0E47  2E42               	goto	u3717
  1817                           
  1818                           ;two_dimmmer_1+fan.c: 1228: RE2=0;
  1819  0E48  0020               	movlb	0	; select bank0
  1820  0E49  1110               	bcf	16,2	;volatile
  1821                           
  1822                           ;two_dimmmer_1+fan.c: 1229: _delay((unsigned long)((200)*(16000000/4000.0)));
  1823  0E4A  3005               	movlw	5
  1824  0E4B  0020               	movlb	0	; select bank0
  1825  0E4C  00C0               	movwf	??_main+1
  1826  0E4D  300F               	movlw	15
  1827  0E4E  00BF               	movwf	??_main
  1828  0E4F  30F1               	movlw	241
  1829  0E50                     u3727:	
  1830  0E50  0B89               	decfsz	9,f
  1831  0E51  2E50               	goto	u3727
  1832  0E52  0BBF               	decfsz	??_main,f
  1833  0E53  2E50               	goto	u3727
  1834  0E54  0BC0               	decfsz	??_main+1,f
  1835  0E55  2E50               	goto	u3727
  1836                           
  1837                           ;two_dimmmer_1+fan.c: 1230: RE4=0;
  1838  0E56  0020               	movlb	0	; select bank0
  1839  0E57  1210               	bcf	16,4	;volatile
  1840                           
  1841                           ;two_dimmmer_1+fan.c: 1231: _delay((unsigned long)((200)*(16000000/4000.0)));
  1842  0E58  3005               	movlw	5
  1843  0E59  0020               	movlb	0	; select bank0
  1844  0E5A  00C0               	movwf	??_main+1
  1845  0E5B  300F               	movlw	15
  1846  0E5C  00BF               	movwf	??_main
  1847  0E5D  30F1               	movlw	241
  1848  0E5E                     u3737:	
  1849  0E5E  0B89               	decfsz	9,f
  1850  0E5F  2E5E               	goto	u3737
  1851  0E60  0BBF               	decfsz	??_main,f
  1852  0E61  2E5E               	goto	u3737
  1853  0E62  0BC0               	decfsz	??_main+1,f
  1854  0E63  2E5E               	goto	u3737
  1855                           
  1856                           ;two_dimmmer_1+fan.c: 1232: RE1=0;
  1857  0E64  0020               	movlb	0	; select bank0
  1858  0E65  1090               	bcf	16,1	;volatile
  1859                           
  1860                           ;two_dimmmer_1+fan.c: 1233: _delay((unsigned long)((200)*(16000000/4000.0)));
  1861  0E66  3005               	movlw	5
  1862  0E67  0020               	movlb	0	; select bank0
  1863  0E68  00C0               	movwf	??_main+1
  1864  0E69  300F               	movlw	15
  1865  0E6A  00BF               	movwf	??_main
  1866  0E6B  30F1               	movlw	241
  1867  0E6C                     u3747:	
  1868  0E6C  0B89               	decfsz	9,f
  1869  0E6D  2E6C               	goto	u3747
  1870  0E6E  0BBF               	decfsz	??_main,f
  1871  0E6F  2E6C               	goto	u3747
  1872  0E70  0BC0               	decfsz	??_main+1,f
  1873  0E71  2E6C               	goto	u3747
  1874  0E72                     l9443:	
  1875                           
  1876                           ;two_dimmmer_1+fan.c: 1234: }
  1877                           ;two_dimmmer_1+fan.c: 1235: M2=1;
  1878  0E72  3001               	movlw	1
  1879  0E73  0020               	movlb	0	; select bank0
  1880  0E74  00CB               	movwf	_M2
  1881  0E75  3000               	movlw	0
  1882  0E76  00CC               	movwf	_M2+1
  1883                           
  1884                           ;two_dimmmer_1+fan.c: 1236: man=1;
  1885  0E77  3001               	movlw	1
  1886  0E78  00E0               	movwf	_man
  1887  0E79  3000               	movlw	0
  1888  0E7A  00E1               	movwf	_man+1
  1889  0E7B                     l9447:	
  1890                           
  1891                           ;two_dimmmer_1+fan.c: 1238: }
  1892                           ;two_dimmmer_1+fan.c: 1240: if(child_LOCK[3]==0 && RF2==1 && M2==1)
  1893  0E7B  0021               	movlb	1	; select bank1
  1894  0E7C  0826               	movf	(_child_LOCK^(0+128)+6),w
  1895  0E7D  0427               	iorwf	((_child_LOCK+1)^(0+128)+6),w
  1896  0E7E  1D03               	btfss	3,2
  1897  0E7F  2EAF               	goto	l9465
  1898  0E80  0025               	movlb	5	; select bank5
  1899  0E81  1D0C               	btfss	12,2	;volatile
  1900  0E82  2EAF               	goto	l9465
  1901  0E83  0020               	movlb	0	; select bank0
  1902  0E84  034B               	decf	_M2,w
  1903  0E85  044C               	iorwf	_M2+1,w
  1904  0E86  1D03               	btfss	3,2
  1905  0E87  2EAF               	goto	l9465
  1906                           
  1907                           ;two_dimmmer_1+fan.c: 1241: {
  1908                           ;two_dimmmer_1+fan.c: 1242: if(man==1)
  1909  0E88  0360               	decf	_man,w
  1910  0E89  0461               	iorwf	_man+1,w
  1911  0E8A  1D03               	btfss	3,2
  1912  0E8B  2EA9               	goto	l9461
  1913                           
  1914                           ;two_dimmmer_1+fan.c: 1243: {
  1915                           ;two_dimmmer_1+fan.c: 1244: st[5]='R';
  1916  0E8C  3052               	movlw	82
  1917  0E8D  00BF               	movwf	??_main
  1918  0E8E  083F               	movf	??_main,w
  1919  0E8F  0021               	movlb	1	; select bank1
  1920  0E90  00B9               	movwf	(_st^(0+128)+5)
  1921                           
  1922                           ;two_dimmmer_1+fan.c: 1245: st[6]='1';
  1923  0E91  3031               	movlw	49
  1924  0E92  0020               	movlb	0	; select bank0
  1925  0E93  00BF               	movwf	??_main
  1926  0E94  083F               	movf	??_main,w
  1927  0E95  0021               	movlb	1	; select bank1
  1928  0E96  00BA               	movwf	(_st^(0+128)+6)
  1929                           
  1930                           ;two_dimmmer_1+fan.c: 1246: st[7]='0';
  1931  0E97  3030               	movlw	48
  1932  0E98  0020               	movlb	0	; select bank0
  1933  0E99  00BF               	movwf	??_main
  1934  0E9A  083F               	movf	??_main,w
  1935  0E9B  0021               	movlb	1	; select bank1
  1936  0E9C  00BB               	movwf	(_st^(0+128)+7)
  1937                           
  1938                           ;two_dimmmer_1+fan.c: 1247: st[8]='2';
  1939  0E9D  3032               	movlw	50
  1940  0E9E  0020               	movlb	0	; select bank0
  1941  0E9F  00BF               	movwf	??_main
  1942  0EA0  083F               	movf	??_main,w
  1943  0EA1  0021               	movlb	1	; select bank1
  1944  0EA2  00BC               	movwf	(_st^(0+128)+8)
  1945                           
  1946                           ;two_dimmmer_1+fan.c: 1248: writeUART(st+5);
  1947  0EA3  30B9               	movlw	(low ((_st| 0+5)))& (0+255)
  1948  0EA4  3188  2093  318B   	fcall	_writeUART
  1949                           
  1950                           ;two_dimmmer_1+fan.c: 1250: RE0=0;
  1951  0EA7  0020               	movlb	0	; select bank0
  1952  0EA8  1010               	bcf	16,0	;volatile
  1953  0EA9                     l9461:	
  1954                           
  1955                           ;two_dimmmer_1+fan.c: 1251: }
  1956                           ;two_dimmmer_1+fan.c: 1252: M2=0;
  1957  0EA9  01CB               	clrf	_M2
  1958  0EAA  01CC               	clrf	_M2+1
  1959                           
  1960                           ;two_dimmmer_1+fan.c: 1253: man=1;
  1961  0EAB  3001               	movlw	1
  1962  0EAC  00E0               	movwf	_man
  1963  0EAD  3000               	movlw	0
  1964  0EAE  00E1               	movwf	_man+1
  1965  0EAF                     l9465:	
  1966                           
  1967                           ;two_dimmmer_1+fan.c: 1254: }
  1968                           ;two_dimmmer_1+fan.c: 1257: if(child_LOCK[5]==0 && RF3==0 && M3==0)
  1969  0EAF  0021               	movlb	1	; select bank1
  1970  0EB0  082A               	movf	(_child_LOCK^(0+128)+10),w
  1971  0EB1  042B               	iorwf	((_child_LOCK+1)^(0+128)+10),w
  1972  0EB2  1D03               	btfss	3,2
  1973  0EB3  2EE8               	goto	l9485
  1974  0EB4  0025               	movlb	5	; select bank5
  1975  0EB5  198C               	btfsc	12,3	;volatile
  1976  0EB6  2EE8               	goto	l9485
  1977  0EB7  0020               	movlb	0	; select bank0
  1978  0EB8  0849               	movf	_M3,w
  1979  0EB9  044A               	iorwf	_M3+1,w
  1980  0EBA  1D03               	btfss	3,2
  1981  0EBB  2EE8               	goto	l9485
  1982                           
  1983                           ;two_dimmmer_1+fan.c: 1258: {
  1984                           ;two_dimmmer_1+fan.c: 1259: if(man==1)
  1985  0EBC  0360               	decf	_man,w
  1986  0EBD  0461               	iorwf	_man+1,w
  1987  0EBE  1D03               	btfss	3,2
  1988  0EBF  2EE0               	goto	l9481
  1989                           
  1990                           ;two_dimmmer_1+fan.c: 1260: {
  1991                           ;two_dimmmer_1+fan.c: 1261: st[9]='R'; st[10]='0'; st[11]='0'; st[12]='3'; writeUART(st+
      +                          9);FAN_FLAG1=0;
  1992  0EC0  3052               	movlw	82
  1993  0EC1  00BF               	movwf	??_main
  1994  0EC2  083F               	movf	??_main,w
  1995  0EC3  0021               	movlb	1	; select bank1
  1996  0EC4  00BD               	movwf	(_st^(0+128)+9)
  1997  0EC5  3030               	movlw	48
  1998  0EC6  0020               	movlb	0	; select bank0
  1999  0EC7  00BF               	movwf	??_main
  2000  0EC8  083F               	movf	??_main,w
  2001  0EC9  0021               	movlb	1	; select bank1
  2002  0ECA  00BE               	movwf	(_st^(0+128)+10)
  2003  0ECB  3030               	movlw	48
  2004  0ECC  0020               	movlb	0	; select bank0
  2005  0ECD  00BF               	movwf	??_main
  2006  0ECE  083F               	movf	??_main,w
  2007  0ECF  0021               	movlb	1	; select bank1
  2008  0ED0  00BF               	movwf	(_st^(0+128)+11)
  2009  0ED1  3033               	movlw	51
  2010  0ED2  0020               	movlb	0	; select bank0
  2011  0ED3  00BF               	movwf	??_main
  2012  0ED4  083F               	movf	??_main,w
  2013  0ED5  0021               	movlb	1	; select bank1
  2014  0ED6  00C0               	movwf	(_st^(0+128)+12)
  2015  0ED7  30BD               	movlw	(low ((_st| 0+9)))& (0+255)
  2016  0ED8  3188  2093  318B   	fcall	_writeUART
  2017  0EDB  0021               	movlb	1	; select bank1
  2018  0EDC  01E2               	clrf	_FAN_FLAG1^(0+128)
  2019  0EDD  01E3               	clrf	(_FAN_FLAG1+1)^(0+128)
  2020                           
  2021                           ;two_dimmmer_1+fan.c: 1262: RA2=1;
  2022  0EDE  0020               	movlb	0	; select bank0
  2023  0EDF  150C               	bsf	12,2	;volatile
  2024  0EE0                     l9481:	
  2025                           
  2026                           ;two_dimmmer_1+fan.c: 1263: }
  2027                           ;two_dimmmer_1+fan.c: 1264: M3=1;
  2028  0EE0  3001               	movlw	1
  2029  0EE1  00C9               	movwf	_M3
  2030  0EE2  3000               	movlw	0
  2031  0EE3  00CA               	movwf	_M3+1
  2032                           
  2033                           ;two_dimmmer_1+fan.c: 1265: man=1;
  2034  0EE4  3001               	movlw	1
  2035  0EE5  00E0               	movwf	_man
  2036  0EE6  3000               	movlw	0
  2037  0EE7  00E1               	movwf	_man+1
  2038  0EE8                     l9485:	
  2039                           
  2040                           ;two_dimmmer_1+fan.c: 1266: }
  2041                           ;two_dimmmer_1+fan.c: 1268: if( child_LOCK[5]==0 && RF3==1 && M3==1)
  2042  0EE8  0021               	movlb	1	; select bank1
  2043  0EE9  082A               	movf	(_child_LOCK^(0+128)+10),w
  2044  0EEA  042B               	iorwf	((_child_LOCK+1)^(0+128)+10),w
  2045  0EEB  1D03               	btfss	3,2
  2046  0EEC  2F1F               	goto	l9505
  2047  0EED  0025               	movlb	5	; select bank5
  2048  0EEE  1D8C               	btfss	12,3	;volatile
  2049  0EEF  2F1F               	goto	l9505
  2050  0EF0  0020               	movlb	0	; select bank0
  2051  0EF1  0349               	decf	_M3,w
  2052  0EF2  044A               	iorwf	_M3+1,w
  2053  0EF3  1D03               	btfss	3,2
  2054  0EF4  2F1F               	goto	l9505
  2055                           
  2056                           ;two_dimmmer_1+fan.c: 1269: {
  2057                           ;two_dimmmer_1+fan.c: 1270: if(man==1)
  2058  0EF5  0360               	decf	_man,w
  2059  0EF6  0461               	iorwf	_man+1,w
  2060  0EF7  1D03               	btfss	3,2
  2061  0EF8  2F19               	goto	l9501
  2062                           
  2063                           ;two_dimmmer_1+fan.c: 1271: {
  2064                           ;two_dimmmer_1+fan.c: 1272: st[9]='R'; st[10]='1'; st[11]='0'; st[12]='3'; writeUART(st+
      +                          9);FAN_FLAG1=0;
  2065  0EF9  3052               	movlw	82
  2066  0EFA  00BF               	movwf	??_main
  2067  0EFB  083F               	movf	??_main,w
  2068  0EFC  0021               	movlb	1	; select bank1
  2069  0EFD  00BD               	movwf	(_st^(0+128)+9)
  2070  0EFE  3031               	movlw	49
  2071  0EFF  0020               	movlb	0	; select bank0
  2072  0F00  00BF               	movwf	??_main
  2073  0F01  083F               	movf	??_main,w
  2074  0F02  0021               	movlb	1	; select bank1
  2075  0F03  00BE               	movwf	(_st^(0+128)+10)
  2076  0F04  3030               	movlw	48
  2077  0F05  0020               	movlb	0	; select bank0
  2078  0F06  00BF               	movwf	??_main
  2079  0F07  083F               	movf	??_main,w
  2080  0F08  0021               	movlb	1	; select bank1
  2081  0F09  00BF               	movwf	(_st^(0+128)+11)
  2082  0F0A  3033               	movlw	51
  2083  0F0B  0020               	movlb	0	; select bank0
  2084  0F0C  00BF               	movwf	??_main
  2085  0F0D  083F               	movf	??_main,w
  2086  0F0E  0021               	movlb	1	; select bank1
  2087  0F0F  00C0               	movwf	(_st^(0+128)+12)
  2088  0F10  30BD               	movlw	(low ((_st| 0+9)))& (0+255)
  2089  0F11  3188  2093  318B   	fcall	_writeUART
  2090  0F14  0021               	movlb	1	; select bank1
  2091  0F15  01E2               	clrf	_FAN_FLAG1^(0+128)
  2092  0F16  01E3               	clrf	(_FAN_FLAG1+1)^(0+128)
  2093                           
  2094                           ;two_dimmmer_1+fan.c: 1273: RA2=0;
  2095  0F17  0020               	movlb	0	; select bank0
  2096  0F18  110C               	bcf	12,2	;volatile
  2097  0F19                     l9501:	
  2098                           
  2099                           ;two_dimmmer_1+fan.c: 1274: }
  2100                           ;two_dimmmer_1+fan.c: 1275: M3=0;
  2101  0F19  01C9               	clrf	_M3
  2102  0F1A  01CA               	clrf	_M3+1
  2103                           
  2104                           ;two_dimmmer_1+fan.c: 1276: man=1;
  2105  0F1B  3001               	movlw	1
  2106  0F1C  00E0               	movwf	_man
  2107  0F1D  3000               	movlw	0
  2108  0F1E  00E1               	movwf	_man+1
  2109  0F1F                     l9505:	
  2110                           
  2111                           ;two_dimmmer_1+fan.c: 1277: }
  2112                           ;two_dimmmer_1+fan.c: 1279: if(child_LOCK[7]==0 && RF5==0 && M4==0)
  2113  0F1F  0021               	movlb	1	; select bank1
  2114  0F20  082E               	movf	(_child_LOCK^(0+128)+14),w
  2115  0F21  042F               	iorwf	((_child_LOCK+1)^(0+128)+14),w
  2116  0F22  1D03               	btfss	3,2
  2117  0F23  2F58               	goto	l9525
  2118  0F24  0025               	movlb	5	; select bank5
  2119  0F25  1A8C               	btfsc	12,5	;volatile
  2120  0F26  2F58               	goto	l9525
  2121  0F27  0020               	movlb	0	; select bank0
  2122  0F28  0847               	movf	_M4,w
  2123  0F29  0448               	iorwf	_M4+1,w
  2124  0F2A  1D03               	btfss	3,2
  2125  0F2B  2F58               	goto	l9525
  2126                           
  2127                           ;two_dimmmer_1+fan.c: 1280: {
  2128                           ;two_dimmmer_1+fan.c: 1281: if(man==1)
  2129  0F2C  0360               	decf	_man,w
  2130  0F2D  0461               	iorwf	_man+1,w
  2131  0F2E  1D03               	btfss	3,2
  2132  0F2F  2F50               	goto	l9521
  2133                           
  2134                           ;two_dimmmer_1+fan.c: 1282: {
  2135                           ;two_dimmmer_1+fan.c: 1283: st[13]='R'; st[14]='0'; st[15]='0'; st[16]='4'; writeUART(st
      +                          +13);FAN_FLAG2=0;
  2136  0F30  3052               	movlw	82
  2137  0F31  00BF               	movwf	??_main
  2138  0F32  083F               	movf	??_main,w
  2139  0F33  0021               	movlb	1	; select bank1
  2140  0F34  00C1               	movwf	(_st^(0+128)+13)
  2141  0F35  3030               	movlw	48
  2142  0F36  0020               	movlb	0	; select bank0
  2143  0F37  00BF               	movwf	??_main
  2144  0F38  083F               	movf	??_main,w
  2145  0F39  0021               	movlb	1	; select bank1
  2146  0F3A  00C2               	movwf	(_st^(0+128)+14)
  2147  0F3B  3030               	movlw	48
  2148  0F3C  0020               	movlb	0	; select bank0
  2149  0F3D  00BF               	movwf	??_main
  2150  0F3E  083F               	movf	??_main,w
  2151  0F3F  0021               	movlb	1	; select bank1
  2152  0F40  00C3               	movwf	(_st^(0+128)+15)
  2153  0F41  3034               	movlw	52
  2154  0F42  0020               	movlb	0	; select bank0
  2155  0F43  00BF               	movwf	??_main
  2156  0F44  083F               	movf	??_main,w
  2157  0F45  0021               	movlb	1	; select bank1
  2158  0F46  00C4               	movwf	(_st^(0+128)+16)
  2159  0F47  30C1               	movlw	(low ((_st| 0+13)))& (0+255)
  2160  0F48  3188  2093  318B   	fcall	_writeUART
  2161  0F4B  0021               	movlb	1	; select bank1
  2162  0F4C  01E0               	clrf	_FAN_FLAG2^(0+128)
  2163  0F4D  01E1               	clrf	(_FAN_FLAG2+1)^(0+128)
  2164                           
  2165                           ;two_dimmmer_1+fan.c: 1284: RA3=1;
  2166  0F4E  0020               	movlb	0	; select bank0
  2167  0F4F  158C               	bsf	12,3	;volatile
  2168  0F50                     l9521:	
  2169                           
  2170                           ;two_dimmmer_1+fan.c: 1285: }
  2171                           ;two_dimmmer_1+fan.c: 1286: M4=1;
  2172  0F50  3001               	movlw	1
  2173  0F51  00C7               	movwf	_M4
  2174  0F52  3000               	movlw	0
  2175  0F53  00C8               	movwf	_M4+1
  2176                           
  2177                           ;two_dimmmer_1+fan.c: 1287: man=1;
  2178  0F54  3001               	movlw	1
  2179  0F55  00E0               	movwf	_man
  2180  0F56  3000               	movlw	0
  2181  0F57  00E1               	movwf	_man+1
  2182  0F58                     l9525:	
  2183                           
  2184                           ;two_dimmmer_1+fan.c: 1288: }
  2185                           ;two_dimmmer_1+fan.c: 1290: if(child_LOCK[7]==0 && RF5==1 && M4==1)
  2186  0F58  0021               	movlb	1	; select bank1
  2187  0F59  082E               	movf	(_child_LOCK^(0+128)+14),w
  2188  0F5A  042F               	iorwf	((_child_LOCK+1)^(0+128)+14),w
  2189  0F5B  1D03               	btfss	3,2
  2190  0F5C  2F8F               	goto	l9545
  2191  0F5D  0025               	movlb	5	; select bank5
  2192  0F5E  1E8C               	btfss	12,5	;volatile
  2193  0F5F  2F8F               	goto	l9545
  2194  0F60  0020               	movlb	0	; select bank0
  2195  0F61  0347               	decf	_M4,w
  2196  0F62  0448               	iorwf	_M4+1,w
  2197  0F63  1D03               	btfss	3,2
  2198  0F64  2F8F               	goto	l9545
  2199                           
  2200                           ;two_dimmmer_1+fan.c: 1291: {
  2201                           ;two_dimmmer_1+fan.c: 1292: if(man==1)
  2202  0F65  0360               	decf	_man,w
  2203  0F66  0461               	iorwf	_man+1,w
  2204  0F67  1D03               	btfss	3,2
  2205  0F68  2F89               	goto	l9541
  2206                           
  2207                           ;two_dimmmer_1+fan.c: 1293: {
  2208                           ;two_dimmmer_1+fan.c: 1294: st[13]='R'; st[14]='1'; st[15]='0'; st[16]='4'; writeUART(st
      +                          +13); FAN_FLAG2=0;
  2209  0F69  3052               	movlw	82
  2210  0F6A  00BF               	movwf	??_main
  2211  0F6B  083F               	movf	??_main,w
  2212  0F6C  0021               	movlb	1	; select bank1
  2213  0F6D  00C1               	movwf	(_st^(0+128)+13)
  2214  0F6E  3031               	movlw	49
  2215  0F6F  0020               	movlb	0	; select bank0
  2216  0F70  00BF               	movwf	??_main
  2217  0F71  083F               	movf	??_main,w
  2218  0F72  0021               	movlb	1	; select bank1
  2219  0F73  00C2               	movwf	(_st^(0+128)+14)
  2220  0F74  3030               	movlw	48
  2221  0F75  0020               	movlb	0	; select bank0
  2222  0F76  00BF               	movwf	??_main
  2223  0F77  083F               	movf	??_main,w
  2224  0F78  0021               	movlb	1	; select bank1
  2225  0F79  00C3               	movwf	(_st^(0+128)+15)
  2226  0F7A  3034               	movlw	52
  2227  0F7B  0020               	movlb	0	; select bank0
  2228  0F7C  00BF               	movwf	??_main
  2229  0F7D  083F               	movf	??_main,w
  2230  0F7E  0021               	movlb	1	; select bank1
  2231  0F7F  00C4               	movwf	(_st^(0+128)+16)
  2232  0F80  30C1               	movlw	(low ((_st| 0+13)))& (0+255)
  2233  0F81  3188  2093  318B   	fcall	_writeUART
  2234  0F84  0021               	movlb	1	; select bank1
  2235  0F85  01E0               	clrf	_FAN_FLAG2^(0+128)
  2236  0F86  01E1               	clrf	(_FAN_FLAG2+1)^(0+128)
  2237                           
  2238                           ;two_dimmmer_1+fan.c: 1295: RA3=0;
  2239  0F87  0020               	movlb	0	; select bank0
  2240  0F88  118C               	bcf	12,3	;volatile
  2241  0F89                     l9541:	
  2242                           
  2243                           ;two_dimmmer_1+fan.c: 1296: }
  2244                           ;two_dimmmer_1+fan.c: 1297: M4=0;
  2245  0F89  01C7               	clrf	_M4
  2246  0F8A  01C8               	clrf	_M4+1
  2247                           
  2248                           ;two_dimmmer_1+fan.c: 1298: man=1;
  2249  0F8B  3001               	movlw	1
  2250  0F8C  00E0               	movwf	_man
  2251  0F8D  3000               	movlw	0
  2252  0F8E  00E1               	movwf	_man+1
  2253  0F8F                     l9545:	
  2254                           
  2255                           ;two_dimmmer_1+fan.c: 1299: }
  2256                           ;two_dimmmer_1+fan.c: 1302: if(child_LOCK[9] == 0 && RF7==0 && M5==0)
  2257  0F8F  0021               	movlb	1	; select bank1
  2258  0F90  0832               	movf	(_child_LOCK^(0+128)+18),w
  2259  0F91  0433               	iorwf	((_child_LOCK+1)^(0+128)+18),w
  2260  0F92  1D03               	btfss	3,2
  2261  0F93  2FC8               	goto	l9565
  2262  0F94  0025               	movlb	5	; select bank5
  2263  0F95  1B8C               	btfsc	12,7	;volatile
  2264  0F96  2FC8               	goto	l9565
  2265  0F97  0020               	movlb	0	; select bank0
  2266  0F98  0845               	movf	_M5,w
  2267  0F99  0446               	iorwf	_M5+1,w
  2268  0F9A  1D03               	btfss	3,2
  2269  0F9B  2FC8               	goto	l9565
  2270                           
  2271                           ;two_dimmmer_1+fan.c: 1303: {
  2272                           ;two_dimmmer_1+fan.c: 1304: if(man==1)
  2273  0F9C  0360               	decf	_man,w
  2274  0F9D  0461               	iorwf	_man+1,w
  2275  0F9E  1D03               	btfss	3,2
  2276  0F9F  2FC0               	goto	l9561
  2277                           
  2278                           ;two_dimmmer_1+fan.c: 1305: {
  2279                           ;two_dimmmer_1+fan.c: 1306: st[17]='R';
  2280  0FA0  3052               	movlw	82
  2281  0FA1  00BF               	movwf	??_main
  2282  0FA2  083F               	movf	??_main,w
  2283  0FA3  0021               	movlb	1	; select bank1
  2284  0FA4  00C5               	movwf	(_st^(0+128)+17)
  2285                           
  2286                           ;two_dimmmer_1+fan.c: 1307: st[18]='0';
  2287  0FA5  3030               	movlw	48
  2288  0FA6  0020               	movlb	0	; select bank0
  2289  0FA7  00BF               	movwf	??_main
  2290  0FA8  083F               	movf	??_main,w
  2291  0FA9  0021               	movlb	1	; select bank1
  2292  0FAA  00C6               	movwf	(_st^(0+128)+18)
  2293                           
  2294                           ;two_dimmmer_1+fan.c: 1308: st[19]='0';
  2295  0FAB  3030               	movlw	48
  2296  0FAC  0020               	movlb	0	; select bank0
  2297  0FAD  00BF               	movwf	??_main
  2298  0FAE  083F               	movf	??_main,w
  2299  0FAF  0021               	movlb	1	; select bank1
  2300  0FB0  00C7               	movwf	(_st^(0+128)+19)
  2301                           
  2302                           ;two_dimmmer_1+fan.c: 1309: st[20]='5';
  2303  0FB1  3035               	movlw	53
  2304  0FB2  0020               	movlb	0	; select bank0
  2305  0FB3  00BF               	movwf	??_main
  2306  0FB4  083F               	movf	??_main,w
  2307  0FB5  0021               	movlb	1	; select bank1
  2308  0FB6  00C8               	movwf	(_st^(0+128)+20)
  2309                           
  2310                           ;two_dimmmer_1+fan.c: 1310: writeUART(st+17);
  2311  0FB7  30C5               	movlw	(low ((_st| 0+17)))& (0+255)
  2312  0FB8  3188  2093  318B   	fcall	_writeUART
  2313                           
  2314                           ;two_dimmmer_1+fan.c: 1311: FAN_FLAG3=0;
  2315  0FBB  0021               	movlb	1	; select bank1
  2316  0FBC  01DE               	clrf	_FAN_FLAG3^(0+128)
  2317  0FBD  01DF               	clrf	(_FAN_FLAG3+1)^(0+128)
  2318                           
  2319                           ;two_dimmmer_1+fan.c: 1313: RE5=1;
  2320  0FBE  0020               	movlb	0	; select bank0
  2321  0FBF  1690               	bsf	16,5	;volatile
  2322  0FC0                     l9561:	
  2323                           
  2324                           ;two_dimmmer_1+fan.c: 1314: }
  2325                           ;two_dimmmer_1+fan.c: 1315: M5=1;
  2326  0FC0  3001               	movlw	1
  2327  0FC1  00C5               	movwf	_M5
  2328  0FC2  3000               	movlw	0
  2329  0FC3  00C6               	movwf	_M5+1
  2330                           
  2331                           ;two_dimmmer_1+fan.c: 1316: man=1;
  2332  0FC4  3001               	movlw	1
  2333  0FC5  00E0               	movwf	_man
  2334  0FC6  3000               	movlw	0
  2335  0FC7  00E1               	movwf	_man+1
  2336  0FC8                     l9565:	
  2337                           
  2338                           ;two_dimmmer_1+fan.c: 1318: }
  2339                           ;two_dimmmer_1+fan.c: 1320: if(child_LOCK[9] == 0 && RF7==1 && M5==1)
  2340  0FC8  0021               	movlb	1	; select bank1
  2341  0FC9  0832               	movf	(_child_LOCK^(0+128)+18),w
  2342  0FCA  0433               	iorwf	((_child_LOCK+1)^(0+128)+18),w
  2343  0FCB  1D03               	btfss	3,2
  2344  0FCC  2C45               	goto	l9291
  2345  0FCD  0025               	movlb	5	; select bank5
  2346  0FCE  1F8C               	btfss	12,7	;volatile
  2347  0FCF  2C45               	goto	l9291
  2348  0FD0  0020               	movlb	0	; select bank0
  2349  0FD1  0345               	decf	_M5,w
  2350  0FD2  0446               	iorwf	_M5+1,w
  2351  0FD3  1D03               	btfss	3,2
  2352  0FD4  2C45               	goto	l9291
  2353                           
  2354                           ;two_dimmmer_1+fan.c: 1321: {
  2355                           ;two_dimmmer_1+fan.c: 1322: if(man==1)
  2356  0FD5  0360               	decf	_man,w
  2357  0FD6  0461               	iorwf	_man+1,w
  2358  0FD7  1D03               	btfss	3,2
  2359  0FD8  2FF9               	goto	l9581
  2360                           
  2361                           ;two_dimmmer_1+fan.c: 1323: {
  2362                           ;two_dimmmer_1+fan.c: 1324: st[17]='R';
  2363  0FD9  3052               	movlw	82
  2364  0FDA  00BF               	movwf	??_main
  2365  0FDB  083F               	movf	??_main,w
  2366  0FDC  0021               	movlb	1	; select bank1
  2367  0FDD  00C5               	movwf	(_st^(0+128)+17)
  2368                           
  2369                           ;two_dimmmer_1+fan.c: 1325: st[18]='1';
  2370  0FDE  3031               	movlw	49
  2371  0FDF  0020               	movlb	0	; select bank0
  2372  0FE0  00BF               	movwf	??_main
  2373  0FE1  083F               	movf	??_main,w
  2374  0FE2  0021               	movlb	1	; select bank1
  2375  0FE3  00C6               	movwf	(_st^(0+128)+18)
  2376                           
  2377                           ;two_dimmmer_1+fan.c: 1326: st[19]='0';
  2378  0FE4  3030               	movlw	48
  2379  0FE5  0020               	movlb	0	; select bank0
  2380  0FE6  00BF               	movwf	??_main
  2381  0FE7  083F               	movf	??_main,w
  2382  0FE8  0021               	movlb	1	; select bank1
  2383  0FE9  00C7               	movwf	(_st^(0+128)+19)
  2384                           
  2385                           ;two_dimmmer_1+fan.c: 1327: st[20]='5';
  2386  0FEA  3035               	movlw	53
  2387  0FEB  0020               	movlb	0	; select bank0
  2388  0FEC  00BF               	movwf	??_main
  2389  0FED  083F               	movf	??_main,w
  2390  0FEE  0021               	movlb	1	; select bank1
  2391  0FEF  00C8               	movwf	(_st^(0+128)+20)
  2392                           
  2393                           ;two_dimmmer_1+fan.c: 1328: writeUART(st+17);
  2394  0FF0  30C5               	movlw	(low ((_st| 0+17)))& (0+255)
  2395  0FF1  3188  2093  318B   	fcall	_writeUART
  2396                           
  2397                           ;two_dimmmer_1+fan.c: 1329: FAN_FLAG3=0;
  2398  0FF4  0021               	movlb	1	; select bank1
  2399  0FF5  01DE               	clrf	_FAN_FLAG3^(0+128)
  2400  0FF6  01DF               	clrf	(_FAN_FLAG3+1)^(0+128)
  2401                           
  2402                           ;two_dimmmer_1+fan.c: 1330: RE5=0;
  2403  0FF7  0020               	movlb	0	; select bank0
  2404  0FF8  1290               	bcf	16,5	;volatile
  2405  0FF9                     l9581:	
  2406                           
  2407                           ;two_dimmmer_1+fan.c: 1331: }
  2408                           ;two_dimmmer_1+fan.c: 1332: M5=0;
  2409  0FF9  01C5               	clrf	_M5
  2410  0FFA  01C6               	clrf	_M5+1
  2411                           
  2412                           ;two_dimmmer_1+fan.c: 1333: man=1;
  2413  0FFB  3001               	movlw	1
  2414  0FFC  00E0               	movwf	_man
  2415  0FFD  3000               	movlw	0
  2416  0FFE  00E1               	movwf	_man+1
  2417  0FFF  2C45               	goto	l9291
  2418  1000                     __end_of_main:	
  2419                           
  2420                           	psect	text1
  2421  08E5                     __ptext1:	
  2422 ;; *************** function _pin_manager *****************
  2423 ;; Defined at:
  2424 ;;		line 1863 in file "two_dimmmer_1+fan.c"
  2425 ;; Parameters:    Size  Location     Type
  2426 ;;		None
  2427 ;; Auto vars:     Size  Location     Type
  2428 ;;		None
  2429 ;; Return value:  Size  Location     Type
  2430 ;;                  1    wreg      void 
  2431 ;; Registers used:
  2432 ;;		status,2
  2433 ;; Tracked objects:
  2434 ;;		On entry : 0/0
  2435 ;;		On exit  : 0/0
  2436 ;;		Unchanged: 0/0
  2437 ;; Data sizes:     COMMON   BANK0   BANK1   BANK2   BANK3   BANK4   BANK5   BANK6   BANK7   BANK8   BANK9
  2438 ;;      Params:         0       0       0       0       0       0       0       0       0       0       0
  2439 ;;      Locals:         0       0       0       0       0       0       0       0       0       0       0
  2440 ;;      Temps:          0       0       0       0       0       0       0       0       0       0       0
  2441 ;;      Totals:         0       0       0       0       0       0       0       0       0       0       0
  2442 ;;Total ram usage:        0 bytes
  2443 ;; Hardware stack levels used:    1
  2444 ;; Hardware stack levels required when called:    1
  2445 ;; This function calls:
  2446 ;;		Nothing
  2447 ;; This function is called by:
  2448 ;;		_main
  2449 ;; This function uses a non-reentrant model
  2450 ;;
  2451                           
  2452                           
  2453                           ;psect for function _pin_manager
  2454  08E5                     _pin_manager:	
  2455                           
  2456                           ;two_dimmmer_1+fan.c: 1868: ANSELG=0x00;
  2457                           
  2458                           ;incstack = 0
  2459                           ; Regs used in _pin_manager: [status,2]
  2460  08E5  0028               	movlb	8	; select bank8
  2461  08E6  018D               	clrf	13	;volatile
  2462                           
  2463                           ;two_dimmmer_1+fan.c: 1869: TRISGbits.TRISG0=1;
  2464  08E7  0026               	movlb	6	; select bank6
  2465  08E8  140D               	bsf	13,0	;volatile
  2466                           
  2467                           ;two_dimmmer_1+fan.c: 1871: WPUG = 0;
  2468  08E9  0029               	movlb	9	; select bank9
  2469  08EA  018D               	clrf	13	;volatile
  2470                           
  2471                           ;two_dimmmer_1+fan.c: 1874: ANSELF=0x00;
  2472  08EB  0028               	movlb	8	; select bank8
  2473  08EC  018C               	clrf	12	;volatile
  2474                           
  2475                           ;two_dimmmer_1+fan.c: 1875: TRISFbits.TRISF0=0;
  2476  08ED  0026               	movlb	6	; select bank6
  2477  08EE  100C               	bcf	12,0	;volatile
  2478                           
  2479                           ;two_dimmmer_1+fan.c: 1876: TRISFbits.TRISF1=0;
  2480  08EF  108C               	bcf	12,1	;volatile
  2481                           
  2482                           ;two_dimmmer_1+fan.c: 1877: TRISFbits.TRISF2=1;
  2483  08F0  150C               	bsf	12,2	;volatile
  2484                           
  2485                           ;two_dimmmer_1+fan.c: 1878: TRISFbits.TRISF3=1;
  2486  08F1  158C               	bsf	12,3	;volatile
  2487                           
  2488                           ;two_dimmmer_1+fan.c: 1880: TRISFbits.TRISF5=1;
  2489  08F2  168C               	bsf	12,5	;volatile
  2490                           
  2491                           ;two_dimmmer_1+fan.c: 1882: TRISFbits.TRISF7=1;
  2492  08F3  178C               	bsf	12,7	;volatile
  2493                           
  2494                           ;two_dimmmer_1+fan.c: 1885: WPUE=0x00;
  2495  08F4  0024               	movlb	4	; select bank4
  2496  08F5  0190               	clrf	16	;volatile
  2497                           
  2498                           ;two_dimmmer_1+fan.c: 1886: ANSELE=0x00;
  2499  08F6  0023               	movlb	3	; select bank3
  2500  08F7  0190               	clrf	16	;volatile
  2501                           
  2502                           ;two_dimmmer_1+fan.c: 1887: TRISEbits.TRISE2=0;
  2503  08F8  0021               	movlb	1	; select bank1
  2504  08F9  1110               	bcf	16,2	;volatile
  2505                           
  2506                           ;two_dimmmer_1+fan.c: 1888: TRISEbits.TRISE4=0;
  2507  08FA  1210               	bcf	16,4	;volatile
  2508                           
  2509                           ;two_dimmmer_1+fan.c: 1889: TRISEbits.TRISE0=0;
  2510  08FB  1010               	bcf	16,0	;volatile
  2511                           
  2512                           ;two_dimmmer_1+fan.c: 1890: TRISEbits.TRISE1=0;
  2513  08FC  1090               	bcf	16,1	;volatile
  2514                           
  2515                           ;two_dimmmer_1+fan.c: 1892: TRISEbits.TRISE3=1;
  2516  08FD  1590               	bsf	16,3	;volatile
  2517                           
  2518                           ;two_dimmmer_1+fan.c: 1893: TRISEbits.TRISE5=0;
  2519  08FE  1290               	bcf	16,5	;volatile
  2520                           
  2521                           ;two_dimmmer_1+fan.c: 1911: ANSELA = 0x00;
  2522  08FF  0023               	movlb	3	; select bank3
  2523  0900  018C               	clrf	12	;volatile
  2524                           
  2525                           ;two_dimmmer_1+fan.c: 1914: TRISAbits.TRISA2=0;
  2526  0901  0021               	movlb	1	; select bank1
  2527  0902  110C               	bcf	12,2	;volatile
  2528                           
  2529                           ;two_dimmmer_1+fan.c: 1915: TRISAbits.TRISA3=0;
  2530  0903  118C               	bcf	12,3	;volatile
  2531                           
  2532                           ;two_dimmmer_1+fan.c: 1917: TRISAbits.TRISA5=1;
  2533  0904  168C               	bsf	12,5	;volatile
  2534                           
  2535                           ;two_dimmmer_1+fan.c: 1922: TRISCbits.TRISC2 = 1;
  2536  0905  150E               	bsf	14,2	;volatile
  2537                           
  2538                           ;two_dimmmer_1+fan.c: 1925: TRISCbits.TRISC6 = 0;
  2539  0906  130E               	bcf	14,6	;volatile
  2540                           
  2541                           ;two_dimmmer_1+fan.c: 1926: TRISCbits.TRISC7 = 1;
  2542  0907  178E               	bsf	14,7	;volatile
  2543  0908  0008               	return
  2544  0909                     __end_of_pin_manager:	
  2545                           
  2546                           	psect	text2
  2547  08C7                     __ptext2:	
  2548 ;; *************** function _periperal_init *****************
  2549 ;; Defined at:
  2550 ;;		line 1096 in file "two_dimmmer_1+fan.c"
  2551 ;; Parameters:    Size  Location     Type
  2552 ;;		None
  2553 ;; Auto vars:     Size  Location     Type
  2554 ;;		None
  2555 ;; Return value:  Size  Location     Type
  2556 ;;                  1    wreg      void 
  2557 ;; Registers used:
  2558 ;;		wreg, status,2, status,0, pclath, cstack
  2559 ;; Tracked objects:
  2560 ;;		On entry : 0/0
  2561 ;;		On exit  : 0/0
  2562 ;;		Unchanged: 0/0
  2563 ;; Data sizes:     COMMON   BANK0   BANK1   BANK2   BANK3   BANK4   BANK5   BANK6   BANK7   BANK8   BANK9
  2564 ;;      Params:         0       0       0       0       0       0       0       0       0       0       0
  2565 ;;      Locals:         0       0       0       0       0       0       0       0       0       0       0
  2566 ;;      Temps:          0       0       0       0       0       0       0       0       0       0       0
  2567 ;;      Totals:         0       0       0       0       0       0       0       0       0       0       0
  2568 ;;Total ram usage:        0 bytes
  2569 ;; Hardware stack levels used:    1
  2570 ;; Hardware stack levels required when called:    2
  2571 ;; This function calls:
  2572 ;;		_CCP1_Initialize
  2573 ;;		_CCP3_Initialize
  2574 ;;		_CCP9_Initialize
  2575 ;;		_EUSART_Initialize
  2576 ;;		_TMR1_Initialize
  2577 ;;		_TMR2_Initialize
  2578 ;;		_TMR3_Initialize
  2579 ;;		_TMR4_Initialize
  2580 ;;		_TMR5_Initialize
  2581 ;;		_TMR6_Initialize
  2582 ;; This function is called by:
  2583 ;;		_main
  2584 ;; This function uses a non-reentrant model
  2585 ;;
  2586                           
  2587                           
  2588                           ;psect for function _periperal_init
  2589  08C7                     _periperal_init:	
  2590                           
  2591                           ;two_dimmmer_1+fan.c: 1098: EUSART_Initialize();
  2592                           
  2593                           ;incstack = 0
  2594                           ; Regs used in _periperal_init: [wreg+status,2+status,0+pclath+cstack]
  2595  08C7  3188  207D  3188   	fcall	_EUSART_Initialize
  2596                           
  2597                           ;two_dimmmer_1+fan.c: 1099: CCP1_Initialize();
  2598  08CA  3192  2242  3188   	fcall	_CCP1_Initialize
  2599                           
  2600                           ;two_dimmmer_1+fan.c: 1100: CCP3_Initialize();
  2601  08CD  3192  2281  3188   	fcall	_CCP3_Initialize
  2602                           
  2603                           ;two_dimmmer_1+fan.c: 1102: CCP9_Initialize();
  2604  08D0  3192  2277  3188   	fcall	_CCP9_Initialize
  2605                           
  2606                           ;two_dimmmer_1+fan.c: 1104: TMR1_Initialize();
  2607  08D3  3192  224E  3188   	fcall	_TMR1_Initialize
  2608                           
  2609                           ;two_dimmmer_1+fan.c: 1105: TMR3_Initialize();
  2610  08D6  3192  2263  3188   	fcall	_TMR3_Initialize
  2611                           
  2612                           ;two_dimmmer_1+fan.c: 1106: TMR2_Initialize();
  2613  08D9  3192  226D  3188   	fcall	_TMR2_Initialize
  2614                           
  2615                           ;two_dimmmer_1+fan.c: 1107: TMR4_Initialize();
  2616  08DC  3192  2294  3188   	fcall	_TMR4_Initialize
  2617                           
  2618                           ;two_dimmmer_1+fan.c: 1108: TMR5_Initialize();
  2619  08DF  3192  2259  3188   	fcall	_TMR5_Initialize
  2620                           
  2621                           ;two_dimmmer_1+fan.c: 1109: TMR6_Initialize();
  2622  08E2  3192  228B         	fcall	_TMR6_Initialize
  2623  08E4  0008               	return
  2624  08E5                     __end_of_periperal_init:	
  2625                           
  2626                           	psect	text3
  2627  128B                     __ptext3:	
  2628 ;; *************** function _TMR6_Initialize *****************
  2629 ;; Defined at:
  2630 ;;		line 1712 in file "two_dimmmer_1+fan.c"
  2631 ;; Parameters:    Size  Location     Type
  2632 ;;		None
  2633 ;; Auto vars:     Size  Location     Type
  2634 ;;		None
  2635 ;; Return value:  Size  Location     Type
  2636 ;;                  1    wreg      void 
  2637 ;; Registers used:
  2638 ;;		wreg, status,2
  2639 ;; Tracked objects:
  2640 ;;		On entry : 0/0
  2641 ;;		On exit  : 0/0
  2642 ;;		Unchanged: 0/0
  2643 ;; Data sizes:     COMMON   BANK0   BANK1   BANK2   BANK3   BANK4   BANK5   BANK6   BANK7   BANK8   BANK9
  2644 ;;      Params:         0       0       0       0       0       0       0       0       0       0       0
  2645 ;;      Locals:         0       0       0       0       0       0       0       0       0       0       0
  2646 ;;      Temps:          0       0       0       0       0       0       0       0       0       0       0
  2647 ;;      Totals:         0       0       0       0       0       0       0       0       0       0       0
  2648 ;;Total ram usage:        0 bytes
  2649 ;; Hardware stack levels used:    1
  2650 ;; Hardware stack levels required when called:    1
  2651 ;; This function calls:
  2652 ;;		Nothing
  2653 ;; This function is called by:
  2654 ;;		_periperal_init
  2655 ;; This function uses a non-reentrant model
  2656 ;;
  2657                           
  2658                           
  2659                           ;psect for function _TMR6_Initialize
  2660  128B                     _TMR6_Initialize:	
  2661                           
  2662                           ;two_dimmmer_1+fan.c: 1717: T6CON = 0x08;
  2663                           
  2664                           ;incstack = 0
  2665                           ; Regs used in _TMR6_Initialize: [wreg+status,2]
  2666  128B  3008               	movlw	8
  2667  128C  0028               	movlb	8	; select bank8
  2668  128D  009E               	movwf	30	;volatile
  2669                           
  2670                           ;two_dimmmer_1+fan.c: 1723: TMR6 = 0x00;
  2671  128E  019C               	clrf	28	;volatile
  2672                           
  2673                           ;two_dimmmer_1+fan.c: 1726: PIR3bits.TMR6IF = 0;
  2674  128F  0020               	movlb	0	; select bank0
  2675  1290  1193               	bcf	19,3	;volatile
  2676                           
  2677                           ;two_dimmmer_1+fan.c: 1729: PIE3bits.TMR6IE = 1;
  2678  1291  0021               	movlb	1	; select bank1
  2679  1292  1593               	bsf	19,3	;volatile
  2680  1293  0008               	return
  2681  1294                     __end_of_TMR6_Initialize:	
  2682                           
  2683                           	psect	text4
  2684  1259                     __ptext4:	
  2685 ;; *************** function _TMR5_Initialize *****************
  2686 ;; Defined at:
  2687 ;;		line 1621 in file "two_dimmmer_1+fan.c"
  2688 ;; Parameters:    Size  Location     Type
  2689 ;;		None
  2690 ;; Auto vars:     Size  Location     Type
  2691 ;;		None
  2692 ;; Return value:  Size  Location     Type
  2693 ;;                  1    wreg      void 
  2694 ;; Registers used:
  2695 ;;		status,2
  2696 ;; Tracked objects:
  2697 ;;		On entry : 0/0
  2698 ;;		On exit  : 0/0
  2699 ;;		Unchanged: 0/0
  2700 ;; Data sizes:     COMMON   BANK0   BANK1   BANK2   BANK3   BANK4   BANK5   BANK6   BANK7   BANK8   BANK9
  2701 ;;      Params:         0       0       0       0       0       0       0       0       0       0       0
  2702 ;;      Locals:         0       0       0       0       0       0       0       0       0       0       0
  2703 ;;      Temps:          0       0       0       0       0       0       0       0       0       0       0
  2704 ;;      Totals:         0       0       0       0       0       0       0       0       0       0       0
  2705 ;;Total ram usage:        0 bytes
  2706 ;; Hardware stack levels used:    1
  2707 ;; Hardware stack levels required when called:    1
  2708 ;; This function calls:
  2709 ;;		Nothing
  2710 ;; This function is called by:
  2711 ;;		_periperal_init
  2712 ;; This function uses a non-reentrant model
  2713 ;;
  2714                           
  2715                           
  2716                           ;psect for function _TMR5_Initialize
  2717  1259                     _TMR5_Initialize:	
  2718                           
  2719                           ;two_dimmmer_1+fan.c: 1626: T5CON = 0x00;
  2720                           
  2721                           ;incstack = 0
  2722                           ; Regs used in _TMR5_Initialize: [status,2]
  2723  1259  0028               	movlb	8	; select bank8
  2724  125A  019A               	clrf	26	;volatile
  2725                           
  2726                           ;two_dimmmer_1+fan.c: 1629: T5GCON = 0x00;
  2727  125B  019B               	clrf	27	;volatile
  2728                           
  2729                           ;two_dimmmer_1+fan.c: 1632: TMR5H = 0x00;
  2730  125C  0199               	clrf	25	;volatile
  2731                           
  2732                           ;two_dimmmer_1+fan.c: 1635: TMR5L = 0x00;
  2733  125D  0198               	clrf	24	;volatile
  2734                           
  2735                           ;two_dimmmer_1+fan.c: 1638: PIR3bits.TMR5IF = 0;
  2736  125E  0020               	movlb	0	; select bank0
  2737  125F  1113               	bcf	19,2	;volatile
  2738                           
  2739                           ;two_dimmmer_1+fan.c: 1641: PIE3bits.TMR5IE = 1;
  2740  1260  0021               	movlb	1	; select bank1
  2741  1261  1513               	bsf	19,2	;volatile
  2742  1262  0008               	return
  2743  1263                     __end_of_TMR5_Initialize:	
  2744                           
  2745                           	psect	text5
  2746  1294                     __ptext5:	
  2747 ;; *************** function _TMR4_Initialize *****************
  2748 ;; Defined at:
  2749 ;;		line 1692 in file "two_dimmmer_1+fan.c"
  2750 ;; Parameters:    Size  Location     Type
  2751 ;;		None
  2752 ;; Auto vars:     Size  Location     Type
  2753 ;;		None
  2754 ;; Return value:  Size  Location     Type
  2755 ;;                  1    wreg      void 
  2756 ;; Registers used:
  2757 ;;		wreg, status,2
  2758 ;; Tracked objects:
  2759 ;;		On entry : 0/0
  2760 ;;		On exit  : 0/0
  2761 ;;		Unchanged: 0/0
  2762 ;; Data sizes:     COMMON   BANK0   BANK1   BANK2   BANK3   BANK4   BANK5   BANK6   BANK7   BANK8   BANK9
  2763 ;;      Params:         0       0       0       0       0       0       0       0       0       0       0
  2764 ;;      Locals:         0       0       0       0       0       0       0       0       0       0       0
  2765 ;;      Temps:          0       0       0       0       0       0       0       0       0       0       0
  2766 ;;      Totals:         0       0       0       0       0       0       0       0       0       0       0
  2767 ;;Total ram usage:        0 bytes
  2768 ;; Hardware stack levels used:    1
  2769 ;; Hardware stack levels required when called:    1
  2770 ;; This function calls:
  2771 ;;		Nothing
  2772 ;; This function is called by:
  2773 ;;		_periperal_init
  2774 ;; This function uses a non-reentrant model
  2775 ;;
  2776                           
  2777                           
  2778                           ;psect for function _TMR4_Initialize
  2779  1294                     _TMR4_Initialize:	
  2780                           
  2781                           ;two_dimmmer_1+fan.c: 1697: T4CON = 0x08;
  2782                           
  2783                           ;incstack = 0
  2784                           ; Regs used in _TMR4_Initialize: [wreg+status,2]
  2785  1294  3008               	movlw	8
  2786  1295  0028               	movlb	8	; select bank8
  2787  1296  0097               	movwf	23	;volatile
  2788                           
  2789                           ;two_dimmmer_1+fan.c: 1703: TMR4 = 0x00;
  2790  1297  0195               	clrf	21	;volatile
  2791                           
  2792                           ;two_dimmmer_1+fan.c: 1706: PIR3bits.TMR4IF = 0;
  2793  1298  0020               	movlb	0	; select bank0
  2794  1299  1093               	bcf	19,1	;volatile
  2795                           
  2796                           ;two_dimmmer_1+fan.c: 1709: PIE3bits.TMR4IE = 1;
  2797  129A  0021               	movlb	1	; select bank1
  2798  129B  1493               	bsf	19,1	;volatile
  2799  129C  0008               	return
  2800  129D                     __end_of_TMR4_Initialize:	
  2801                           
  2802                           	psect	text6
  2803  1263                     __ptext6:	
  2804 ;; *************** function _TMR3_Initialize *****************
  2805 ;; Defined at:
  2806 ;;		line 1589 in file "two_dimmmer_1+fan.c"
  2807 ;; Parameters:    Size  Location     Type
  2808 ;;		None
  2809 ;; Auto vars:     Size  Location     Type
  2810 ;;		None
  2811 ;; Return value:  Size  Location     Type
  2812 ;;                  1    wreg      void 
  2813 ;; Registers used:
  2814 ;;		status,2
  2815 ;; Tracked objects:
  2816 ;;		On entry : 0/0
  2817 ;;		On exit  : 0/0
  2818 ;;		Unchanged: 0/0
  2819 ;; Data sizes:     COMMON   BANK0   BANK1   BANK2   BANK3   BANK4   BANK5   BANK6   BANK7   BANK8   BANK9
  2820 ;;      Params:         0       0       0       0       0       0       0       0       0       0       0
  2821 ;;      Locals:         0       0       0       0       0       0       0       0       0       0       0
  2822 ;;      Temps:          0       0       0       0       0       0       0       0       0       0       0
  2823 ;;      Totals:         0       0       0       0       0       0       0       0       0       0       0
  2824 ;;Total ram usage:        0 bytes
  2825 ;; Hardware stack levels used:    1
  2826 ;; Hardware stack levels required when called:    1
  2827 ;; This function calls:
  2828 ;;		Nothing
  2829 ;; This function is called by:
  2830 ;;		_periperal_init
  2831 ;; This function uses a non-reentrant model
  2832 ;;
  2833                           
  2834                           
  2835                           ;psect for function _TMR3_Initialize
  2836  1263                     _TMR3_Initialize:	
  2837                           
  2838                           ;two_dimmmer_1+fan.c: 1594: T3CON = 0x00;
  2839                           
  2840                           ;incstack = 0
  2841                           ; Regs used in _TMR3_Initialize: [status,2]
  2842  1263  0028               	movlb	8	; select bank8
  2843  1264  0193               	clrf	19	;volatile
  2844                           
  2845                           ;two_dimmmer_1+fan.c: 1597: T3GCON = 0x00;
  2846  1265  0194               	clrf	20	;volatile
  2847                           
  2848                           ;two_dimmmer_1+fan.c: 1600: TMR3H = 0x00;
  2849  1266  0192               	clrf	18	;volatile
  2850                           
  2851                           ;two_dimmmer_1+fan.c: 1603: TMR3L = 0x00;
  2852  1267  0191               	clrf	17	;volatile
  2853                           
  2854                           ;two_dimmmer_1+fan.c: 1606: PIR3bits.TMR3IF = 0;
  2855  1268  0020               	movlb	0	; select bank0
  2856  1269  1013               	bcf	19,0	;volatile
  2857                           
  2858                           ;two_dimmmer_1+fan.c: 1609: PIE3bits.TMR3IE = 1;
  2859  126A  0021               	movlb	1	; select bank1
  2860  126B  1413               	bsf	19,0	;volatile
  2861  126C  0008               	return
  2862  126D                     __end_of_TMR3_Initialize:	
  2863                           
  2864                           	psect	text7
  2865  126D                     __ptext7:	
  2866 ;; *************** function _TMR2_Initialize *****************
  2867 ;; Defined at:
  2868 ;;		line 1644 in file "two_dimmmer_1+fan.c"
  2869 ;; Parameters:    Size  Location     Type
  2870 ;;		None
  2871 ;; Auto vars:     Size  Location     Type
  2872 ;;		None
  2873 ;; Return value:  Size  Location     Type
  2874 ;;                  1    wreg      void 
  2875 ;; Registers used:
  2876 ;;		wreg, status,2
  2877 ;; Tracked objects:
  2878 ;;		On entry : 0/0
  2879 ;;		On exit  : 0/0
  2880 ;;		Unchanged: 0/0
  2881 ;; Data sizes:     COMMON   BANK0   BANK1   BANK2   BANK3   BANK4   BANK5   BANK6   BANK7   BANK8   BANK9
  2882 ;;      Params:         0       0       0       0       0       0       0       0       0       0       0
  2883 ;;      Locals:         0       0       0       0       0       0       0       0       0       0       0
  2884 ;;      Temps:          0       0       0       0       0       0       0       0       0       0       0
  2885 ;;      Totals:         0       0       0       0       0       0       0       0       0       0       0
  2886 ;;Total ram usage:        0 bytes
  2887 ;; Hardware stack levels used:    1
  2888 ;; Hardware stack levels required when called:    1
  2889 ;; This function calls:
  2890 ;;		Nothing
  2891 ;; This function is called by:
  2892 ;;		_periperal_init
  2893 ;; This function uses a non-reentrant model
  2894 ;;
  2895                           
  2896                           
  2897                           ;psect for function _TMR2_Initialize
  2898  126D                     _TMR2_Initialize:	
  2899                           
  2900                           ;two_dimmmer_1+fan.c: 1649: T2CON = 0x08;
  2901                           
  2902                           ;incstack = 0
  2903                           ; Regs used in _TMR2_Initialize: [wreg+status,2]
  2904  126D  3008               	movlw	8
  2905  126E  0020               	movlb	0	; select bank0
  2906  126F  009C               	movwf	28	;volatile
  2907                           
  2908                           ;two_dimmmer_1+fan.c: 1655: TMR2 = 0x00;
  2909  1270  019A               	clrf	26	;volatile
  2910                           
  2911                           ;two_dimmmer_1+fan.c: 1658: PIR1bits.TMR2IF = 0;
  2912  1271  1091               	bcf	17,1	;volatile
  2913                           
  2914                           ;two_dimmmer_1+fan.c: 1661: PIE1bits.TMR2IE = 1;
  2915  1272  0021               	movlb	1	; select bank1
  2916  1273  1491               	bsf	17,1	;volatile
  2917                           
  2918                           ;two_dimmmer_1+fan.c: 1662: GIE = 1;
  2919  1274  178B               	bsf	11,7	;volatile
  2920                           
  2921                           ;two_dimmmer_1+fan.c: 1665: PEIE = 1;
  2922  1275  170B               	bsf	11,6	;volatile
  2923  1276  0008               	return
  2924  1277                     __end_of_TMR2_Initialize:	
  2925                           
  2926                           	psect	text8
  2927  124E                     __ptext8:	
  2928 ;; *************** function _TMR1_Initialize *****************
  2929 ;; Defined at:
  2930 ;;		line 1557 in file "two_dimmmer_1+fan.c"
  2931 ;; Parameters:    Size  Location     Type
  2932 ;;		None
  2933 ;; Auto vars:     Size  Location     Type
  2934 ;;		None
  2935 ;; Return value:  Size  Location     Type
  2936 ;;                  1    wreg      void 
  2937 ;; Registers used:
  2938 ;;		status,2
  2939 ;; Tracked objects:
  2940 ;;		On entry : 0/0
  2941 ;;		On exit  : 0/0
  2942 ;;		Unchanged: 0/0
  2943 ;; Data sizes:     COMMON   BANK0   BANK1   BANK2   BANK3   BANK4   BANK5   BANK6   BANK7   BANK8   BANK9
  2944 ;;      Params:         0       0       0       0       0       0       0       0       0       0       0
  2945 ;;      Locals:         0       0       0       0       0       0       0       0       0       0       0
  2946 ;;      Temps:          0       0       0       0       0       0       0       0       0       0       0
  2947 ;;      Totals:         0       0       0       0       0       0       0       0       0       0       0
  2948 ;;Total ram usage:        0 bytes
  2949 ;; Hardware stack levels used:    1
  2950 ;; Hardware stack levels required when called:    1
  2951 ;; This function calls:
  2952 ;;		Nothing
  2953 ;; This function is called by:
  2954 ;;		_periperal_init
  2955 ;; This function uses a non-reentrant model
  2956 ;;
  2957                           
  2958                           
  2959                           ;psect for function _TMR1_Initialize
  2960  124E                     _TMR1_Initialize:	
  2961                           
  2962                           ;two_dimmmer_1+fan.c: 1562: T1CON = 0x00;
  2963                           
  2964                           ;incstack = 0
  2965                           ; Regs used in _TMR1_Initialize: [status,2]
  2966  124E  0020               	movlb	0	; select bank0
  2967  124F  0198               	clrf	24	;volatile
  2968                           
  2969                           ;two_dimmmer_1+fan.c: 1565: T1GCON = 0x00;
  2970  1250  0199               	clrf	25	;volatile
  2971                           
  2972                           ;two_dimmmer_1+fan.c: 1568: TMR1H = 0x00;
  2973  1251  0197               	clrf	23	;volatile
  2974                           
  2975                           ;two_dimmmer_1+fan.c: 1571: TMR1L = 0x00;
  2976  1252  0196               	clrf	22	;volatile
  2977                           
  2978                           ;two_dimmmer_1+fan.c: 1574: PIR1bits.TMR1IF = 0;
  2979  1253  1011               	bcf	17,0	;volatile
  2980                           
  2981                           ;two_dimmmer_1+fan.c: 1577: PIE1bits.TMR1IE = 1;
  2982  1254  0021               	movlb	1	; select bank1
  2983  1255  1411               	bsf	17,0	;volatile
  2984                           
  2985                           ;two_dimmmer_1+fan.c: 1583: GIE = 1;
  2986  1256  178B               	bsf	11,7	;volatile
  2987                           
  2988                           ;two_dimmmer_1+fan.c: 1586: PEIE = 1;
  2989  1257  170B               	bsf	11,6	;volatile
  2990  1258  0008               	return
  2991  1259                     __end_of_TMR1_Initialize:	
  2992                           
  2993                           	psect	text9
  2994  087D                     __ptext9:	
  2995 ;; *************** function _EUSART_Initialize *****************
  2996 ;; Defined at:
  2997 ;;		line 1823 in file "two_dimmmer_1+fan.c"
  2998 ;; Parameters:    Size  Location     Type
  2999 ;;		None
  3000 ;; Auto vars:     Size  Location     Type
  3001 ;;		None
  3002 ;; Return value:  Size  Location     Type
  3003 ;;                  1    wreg      void 
  3004 ;; Registers used:
  3005 ;;		wreg
  3006 ;; Tracked objects:
  3007 ;;		On entry : 0/0
  3008 ;;		On exit  : 0/0
  3009 ;;		Unchanged: 0/0
  3010 ;; Data sizes:     COMMON   BANK0   BANK1   BANK2   BANK3   BANK4   BANK5   BANK6   BANK7   BANK8   BANK9
  3011 ;;      Params:         0       0       0       0       0       0       0       0       0       0       0
  3012 ;;      Locals:         0       0       0       0       0       0       0       0       0       0       0
  3013 ;;      Temps:          0       0       0       0       0       0       0       0       0       0       0
  3014 ;;      Totals:         0       0       0       0       0       0       0       0       0       0       0
  3015 ;;Total ram usage:        0 bytes
  3016 ;; Hardware stack levels used:    1
  3017 ;; Hardware stack levels required when called:    1
  3018 ;; This function calls:
  3019 ;;		Nothing
  3020 ;; This function is called by:
  3021 ;;		_periperal_init
  3022 ;; This function uses a non-reentrant model
  3023 ;;
  3024                           
  3025                           
  3026                           ;psect for function _EUSART_Initialize
  3027  087D                     _EUSART_Initialize:	
  3028                           
  3029                           ;two_dimmmer_1+fan.c: 1826: PIE1bits.RC1IE = 0;
  3030                           
  3031                           ;incstack = 0
  3032                           ; Regs used in _EUSART_Initialize: [wreg]
  3033  087D  0021               	movlb	1	; select bank1
  3034  087E  1291               	bcf	17,5	;volatile
  3035                           
  3036                           ;two_dimmmer_1+fan.c: 1827: PIE1bits.TX1IE = 0;
  3037  087F  1211               	bcf	17,4	;volatile
  3038                           
  3039                           ;two_dimmmer_1+fan.c: 1832: BAUD1CON = 0x0A;
  3040  0880  300A               	movlw	10
  3041  0881  0023               	movlb	3	; select bank3
  3042  0882  009F               	movwf	31	;volatile
  3043                           
  3044                           ;two_dimmmer_1+fan.c: 1835: RC1STA = 0x90;
  3045  0883  3090               	movlw	144
  3046  0884  009D               	movwf	29	;volatile
  3047                           
  3048                           ;two_dimmmer_1+fan.c: 1838: TX1STA = 0x24;
  3049  0885  3024               	movlw	36
  3050  0886  009E               	movwf	30	;volatile
  3051                           
  3052                           ;two_dimmmer_1+fan.c: 1843: SP1BRGL = 0xA0;
  3053  0887  30A0               	movlw	160
  3054  0888  009B               	movwf	27	;volatile
  3055                           
  3056                           ;two_dimmmer_1+fan.c: 1845: SP1BRGH = 0x01;
  3057  0889  3001               	movlw	1
  3058  088A  009C               	movwf	28	;volatile
  3059                           
  3060                           ;two_dimmmer_1+fan.c: 1848: GIE = 1;
  3061  088B  178B               	bsf	11,7	;volatile
  3062                           
  3063                           ;two_dimmmer_1+fan.c: 1851: PEIE = 1;
  3064  088C  170B               	bsf	11,6	;volatile
  3065                           
  3066                           ;two_dimmmer_1+fan.c: 1854: PIE1bits.RC1IE = 1;
  3067  088D  0021               	movlb	1	; select bank1
  3068  088E  1691               	bsf	17,5	;volatile
  3069                           
  3070                           ;two_dimmmer_1+fan.c: 1857: TX1STAbits.TXEN = 1;
  3071  088F  0023               	movlb	3	; select bank3
  3072  0890  169E               	bsf	30,5	;volatile
  3073                           
  3074                           ;two_dimmmer_1+fan.c: 1860: RC1STAbits.SPEN = 1;
  3075  0891  179D               	bsf	29,7	;volatile
  3076  0892  0008               	return
  3077  0893                     __end_of_EUSART_Initialize:	
  3078                           
  3079                           	psect	text10
  3080  1277                     __ptext10:	
  3081 ;; *************** function _CCP9_Initialize *****************
  3082 ;; Defined at:
  3083 ;;		line 1803 in file "two_dimmmer_1+fan.c"
  3084 ;; Parameters:    Size  Location     Type
  3085 ;;		None
  3086 ;; Auto vars:     Size  Location     Type
  3087 ;;		None
  3088 ;; Return value:  Size  Location     Type
  3089 ;;                  1    wreg      void 
  3090 ;; Registers used:
  3091 ;;		wreg, status,2
  3092 ;; Tracked objects:
  3093 ;;		On entry : 0/0
  3094 ;;		On exit  : 0/0
  3095 ;;		Unchanged: 0/0
  3096 ;; Data sizes:     COMMON   BANK0   BANK1   BANK2   BANK3   BANK4   BANK5   BANK6   BANK7   BANK8   BANK9
  3097 ;;      Params:         0       0       0       0       0       0       0       0       0       0       0
  3098 ;;      Locals:         0       0       0       0       0       0       0       0       0       0       0
  3099 ;;      Temps:          0       0       0       0       0       0       0       0       0       0       0
  3100 ;;      Totals:         0       0       0       0       0       0       0       0       0       0       0
  3101 ;;Total ram usage:        0 bytes
  3102 ;; Hardware stack levels used:    1
  3103 ;; Hardware stack levels required when called:    1
  3104 ;; This function calls:
  3105 ;;		Nothing
  3106 ;; This function is called by:
  3107 ;;		_periperal_init
  3108 ;; This function uses a non-reentrant model
  3109 ;;
  3110                           
  3111                           
  3112                           ;psect for function _CCP9_Initialize
  3113  1277                     _CCP9_Initialize:	
  3114                           
  3115                           ;two_dimmmer_1+fan.c: 1808: CCP9CON = 0x84;
  3116                           
  3117                           ;incstack = 0
  3118                           ; Regs used in _CCP9_Initialize: [wreg+status,2]
  3119  1277  3084               	movlw	132
  3120  1278  002C               	movlb	12	; select bank12
  3121  1279  009C               	movwf	28	;volatile
  3122                           
  3123                           ;two_dimmmer_1+fan.c: 1811: CCPR9H = 0x00;
  3124  127A  019B               	clrf	27	;volatile
  3125                           
  3126                           ;two_dimmmer_1+fan.c: 1814: CCPR9L = 0x00;
  3127  127B  019A               	clrf	26	;volatile
  3128                           
  3129                           ;two_dimmmer_1+fan.c: 1817: PIR4bits.CCP9IF = 0;
  3130  127C  0020               	movlb	0	; select bank0
  3131  127D  1314               	bcf	20,6	;volatile
  3132                           
  3133                           ;two_dimmmer_1+fan.c: 1820: PIE4bits.CCP9IE = 0;
  3134  127E  0021               	movlb	1	; select bank1
  3135  127F  1314               	bcf	20,6	;volatile
  3136  1280  0008               	return
  3137  1281                     __end_of_CCP9_Initialize:	
  3138                           
  3139                           	psect	text11
  3140  1281                     __ptext11:	
  3141 ;; *************** function _CCP3_Initialize *****************
  3142 ;; Defined at:
  3143 ;;		line 1757 in file "two_dimmmer_1+fan.c"
  3144 ;; Parameters:    Size  Location     Type
  3145 ;;		None
  3146 ;; Auto vars:     Size  Location     Type
  3147 ;;		None
  3148 ;; Return value:  Size  Location     Type
  3149 ;;                  1    wreg      void 
  3150 ;; Registers used:
  3151 ;;		wreg, status,2
  3152 ;; Tracked objects:
  3153 ;;		On entry : 0/0
  3154 ;;		On exit  : 0/0
  3155 ;;		Unchanged: 0/0
  3156 ;; Data sizes:     COMMON   BANK0   BANK1   BANK2   BANK3   BANK4   BANK5   BANK6   BANK7   BANK8   BANK9
  3157 ;;      Params:         0       0       0       0       0       0       0       0       0       0       0
  3158 ;;      Locals:         0       0       0       0       0       0       0       0       0       0       0
  3159 ;;      Temps:          0       0       0       0       0       0       0       0       0       0       0
  3160 ;;      Totals:         0       0       0       0       0       0       0       0       0       0       0
  3161 ;;Total ram usage:        0 bytes
  3162 ;; Hardware stack levels used:    1
  3163 ;; Hardware stack levels required when called:    1
  3164 ;; This function calls:
  3165 ;;		Nothing
  3166 ;; This function is called by:
  3167 ;;		_periperal_init
  3168 ;; This function uses a non-reentrant model
  3169 ;;
  3170                           
  3171                           
  3172                           ;psect for function _CCP3_Initialize
  3173  1281                     _CCP3_Initialize:	
  3174                           
  3175                           ;two_dimmmer_1+fan.c: 1762: CCP3CON = 0x84;
  3176                           
  3177                           ;incstack = 0
  3178                           ; Regs used in _CCP3_Initialize: [wreg+status,2]
  3179  1281  3084               	movlw	132
  3180  1282  0026               	movlb	6	; select bank6
  3181  1283  0093               	movwf	19	;volatile
  3182                           
  3183                           ;two_dimmmer_1+fan.c: 1765: CCPR3L = 0x00;
  3184  1284  0191               	clrf	17	;volatile
  3185                           
  3186                           ;two_dimmmer_1+fan.c: 1768: CCPR3H = 0x00;
  3187  1285  0192               	clrf	18	;volatile
  3188                           
  3189                           ;two_dimmmer_1+fan.c: 1774: PIR3bits.CCP3IF = 0;
  3190  1286  0020               	movlb	0	; select bank0
  3191  1287  1213               	bcf	19,4	;volatile
  3192                           
  3193                           ;two_dimmmer_1+fan.c: 1777: PIE3bits.CCP3IE = 0;
  3194  1288  0021               	movlb	1	; select bank1
  3195  1289  1213               	bcf	19,4	;volatile
  3196  128A  0008               	return
  3197  128B                     __end_of_CCP3_Initialize:	
  3198                           
  3199                           	psect	text12
  3200  1242                     __ptext12:	
  3201 ;; *************** function _CCP1_Initialize *****************
  3202 ;; Defined at:
  3203 ;;		line 1732 in file "two_dimmmer_1+fan.c"
  3204 ;; Parameters:    Size  Location     Type
  3205 ;;		None
  3206 ;; Auto vars:     Size  Location     Type
  3207 ;;		None
  3208 ;; Return value:  Size  Location     Type
  3209 ;;                  1    wreg      void 
  3210 ;; Registers used:
  3211 ;;		wreg, status,2
  3212 ;; Tracked objects:
  3213 ;;		On entry : 0/0
  3214 ;;		On exit  : 0/0
  3215 ;;		Unchanged: 0/0
  3216 ;; Data sizes:     COMMON   BANK0   BANK1   BANK2   BANK3   BANK4   BANK5   BANK6   BANK7   BANK8   BANK9
  3217 ;;      Params:         0       0       0       0       0       0       0       0       0       0       0
  3218 ;;      Locals:         0       0       0       0       0       0       0       0       0       0       0
  3219 ;;      Temps:          0       0       0       0       0       0       0       0       0       0       0
  3220 ;;      Totals:         0       0       0       0       0       0       0       0       0       0       0
  3221 ;;Total ram usage:        0 bytes
  3222 ;; Hardware stack levels used:    1
  3223 ;; Hardware stack levels required when called:    1
  3224 ;; This function calls:
  3225 ;;		Nothing
  3226 ;; This function is called by:
  3227 ;;		_periperal_init
  3228 ;; This function uses a non-reentrant model
  3229 ;;
  3230                           
  3231                           
  3232                           ;psect for function _CCP1_Initialize
  3233  1242                     _CCP1_Initialize:	
  3234                           
  3235                           ;two_dimmmer_1+fan.c: 1737: CCP1CON = 0x04;
  3236                           
  3237                           ;incstack = 0
  3238                           ; Regs used in _CCP1_Initialize: [wreg+status,2]
  3239  1242  3004               	movlw	4
  3240  1243  0025               	movlb	5	; select bank5
  3241  1244  0093               	movwf	19	;volatile
  3242                           
  3243                           ;two_dimmmer_1+fan.c: 1741: CCPR1H = 0x00;
  3244  1245  0192               	clrf	18	;volatile
  3245                           
  3246                           ;two_dimmmer_1+fan.c: 1744: CCPR1L = 0x00;
  3247  1246  0191               	clrf	17	;volatile
  3248                           
  3249                           ;two_dimmmer_1+fan.c: 1747: PIR1bits.CCP1IF = 0;
  3250  1247  0020               	movlb	0	; select bank0
  3251  1248  1111               	bcf	17,2	;volatile
  3252                           
  3253                           ;two_dimmmer_1+fan.c: 1750: PIE1bits.CCP1IE = 1;
  3254  1249  0021               	movlb	1	; select bank1
  3255  124A  1511               	bsf	17,2	;volatile
  3256                           
  3257                           ;two_dimmmer_1+fan.c: 1751: GIE = 1;
  3258  124B  178B               	bsf	11,7	;volatile
  3259                           
  3260                           ;two_dimmmer_1+fan.c: 1754: PEIE = 1;
  3261  124C  170B               	bsf	11,6	;volatile
  3262  124D  0008               	return
  3263  124E                     __end_of_CCP1_Initialize:	
  3264                           
  3265                           	psect	text13
  3266  07B2                     __ptext13:	
  3267 ;; *************** function _copy_frame *****************
  3268 ;; Defined at:
  3269 ;;		line 1339 in file "two_dimmmer_1+fan.c"
  3270 ;; Parameters:    Size  Location     Type
  3271 ;;  start           2    2[COMMON] int 
  3272 ;;  end             2    4[COMMON] int 
  3273 ;; Auto vars:     Size  Location     Type
  3274 ;;  k               2    2[BANK0 ] int 
  3275 ;;  sw              2    0[BANK0 ] int 
  3276 ;; Return value:  Size  Location     Type
  3277 ;;                  1    wreg      void 
  3278 ;; Registers used:
  3279 ;;		wreg, fsr1l, fsr1h, status,2, status,0
  3280 ;; Tracked objects:
  3281 ;;		On entry : 0/0
  3282 ;;		On exit  : 0/0
  3283 ;;		Unchanged: 0/0
  3284 ;; Data sizes:     COMMON   BANK0   BANK1   BANK2   BANK3   BANK4   BANK5   BANK6   BANK7   BANK8   BANK9
  3285 ;;      Params:         4       0       0       0       0       0       0       0       0       0       0
  3286 ;;      Locals:         0       4       0       0       0       0       0       0       0       0       0
  3287 ;;      Temps:          1       0       0       0       0       0       0       0       0       0       0
  3288 ;;      Totals:         5       4       0       0       0       0       0       0       0       0       0
  3289 ;;Total ram usage:        9 bytes
  3290 ;; Hardware stack levels used:    1
  3291 ;; Hardware stack levels required when called:    1
  3292 ;; This function calls:
  3293 ;;		Nothing
  3294 ;; This function is called by:
  3295 ;;		_main
  3296 ;; This function uses a non-reentrant model
  3297 ;;
  3298                           
  3299                           
  3300                           ;psect for function _copy_frame
  3301  07B2                     _copy_frame:	
  3302                           
  3303                           ;two_dimmmer_1+fan.c: 1340: int k=0,sw=0;
  3304                           
  3305                           ;incstack = 0
  3306                           ; Regs used in _copy_frame: [wreg+fsr1l+fsr1h+status,2+status,0]
  3307  07B2  0020               	movlb	0	; select bank0
  3308  07B3  01A2               	clrf	copy_frame@k
  3309  07B4  01A3               	clrf	copy_frame@k+1
  3310  07B5  01A0               	clrf	copy_frame@sw
  3311  07B6  01A1               	clrf	copy_frame@sw+1
  3312                           
  3313                           ;two_dimmmer_1+fan.c: 1341: for(k = start; k< end; k++)
  3314  07B7  0873               	movf	copy_frame@start+1,w
  3315  07B8  00A3               	movwf	copy_frame@k+1
  3316  07B9  0872               	movf	copy_frame@start,w
  3317  07BA  00A2               	movwf	copy_frame@k
  3318  07BB                     l769:	
  3319  07BB  0823               	movf	copy_frame@k+1,w
  3320  07BC  3A80               	xorlw	128
  3321  07BD  00F6               	movwf	??_copy_frame
  3322  07BE  0875               	movf	copy_frame@end+1,w
  3323  07BF  3A80               	xorlw	128
  3324  07C0  0276               	subwf	??_copy_frame,w
  3325  07C1  1D03               	skipz
  3326  07C2  2FC5               	goto	u2815
  3327  07C3  0874               	movf	copy_frame@end,w
  3328  07C4  0222               	subwf	copy_frame@k,w
  3329  07C5                     u2815:	
  3330  07C5  1803               	btfsc	3,0
  3331  07C6  2FE8               	goto	l9081
  3332                           
  3333                           ;two_dimmmer_1+fan.c: 1342: {
  3334                           ;two_dimmmer_1+fan.c: 1343: copy[sw]=name[k];
  3335  07C7  0020               	movlb	0	; select bank0
  3336  07C8  0822               	movf	copy_frame@k,w
  3337  07C9  3E44               	addlw	(low (_name| (0+256)))& (0+255)
  3338  07CA  0086               	movwf	6
  3339  07CB  3001               	movlw	1	; select bank2/3
  3340  07CC  0087               	movwf	7
  3341  07CD  0801               	movf	1,w
  3342  07CE  00F6               	movwf	??_copy_frame
  3343  07CF  0820               	movf	copy_frame@sw,w
  3344  07D0  3E20               	addlw	(low (_copy| (0+256)))& (0+255)
  3345  07D1  0086               	movwf	6
  3346  07D2  3001               	movlw	1	; select bank2/3
  3347  07D3  0087               	movwf	7
  3348  07D4  0876               	movf	??_copy_frame,w
  3349  07D5  0081               	movwf	1
  3350                           
  3351                           ;two_dimmmer_1+fan.c: 1344: sw++;
  3352  07D6  3001               	movlw	1
  3353  07D7  07A0               	addwf	copy_frame@sw,f
  3354  07D8  3000               	movlw	0
  3355  07D9  3DA1               	addwfc	copy_frame@sw+1,f
  3356                           
  3357                           ;two_dimmmer_1+fan.c: 1345: name[k] = '#';
  3358  07DA  3023               	movlw	35
  3359  07DB  00F6               	movwf	??_copy_frame
  3360  07DC  0822               	movf	copy_frame@k,w
  3361  07DD  3E44               	addlw	(low (_name| (0+256)))& (0+255)
  3362  07DE  0086               	movwf	6
  3363  07DF  3001               	movlw	1	; select bank2/3
  3364  07E0  0087               	movwf	7
  3365  07E1  0876               	movf	??_copy_frame,w
  3366  07E2  0081               	movwf	1
  3367  07E3  3001               	movlw	1
  3368  07E4  07A2               	addwf	copy_frame@k,f
  3369  07E5  3000               	movlw	0
  3370  07E6  3DA3               	addwfc	copy_frame@k+1,f
  3371  07E7  2FBB               	goto	l769
  3372  07E8                     l9081:	
  3373                           
  3374                           ;two_dimmmer_1+fan.c: 1346: }
  3375                           ;two_dimmmer_1+fan.c: 1348: COPY_FLAG=0;
  3376  07E8  0020               	movlb	0	; select bank0
  3377  07E9  01CF               	clrf	_COPY_FLAG
  3378  07EA  01D0               	clrf	_COPY_FLAG+1
  3379  07EB  0008               	return
  3380  07EC                     __end_of_copy_frame:	
  3381                           
  3382                           	psect	text14
  3383  0937                     __ptext14:	
  3384 ;; *************** function _ACTION *****************
  3385 ;; Defined at:
  3386 ;;		line 1351 in file "two_dimmmer_1+fan.c"
  3387 ;; Parameters:    Size  Location     Type
  3388 ;;  Switch_Num_1    1    wreg     unsigned char 
  3389 ;;  Switch_Num_1    1    6[BANK0 ] unsigned char 
  3390 ;;  sw_status       1    7[BANK0 ] unsigned char 
  3391 ;;  speed_bitHig    1    8[BANK0 ] unsigned char 
  3392 ;;  speed_bitLow    1    9[BANK0 ] unsigned char 
  3393 ;;  parent          1   10[BANK0 ] unsigned char 
  3394 ;;  finalFrameSt    1   11[BANK0 ] unsigned char 
  3395 ;; Auto vars:     Size  Location     Type
  3396 ;;  Switch_Num_1    1   20[BANK0 ] unsigned char 
  3397 ;;  SwNumString     2   23[BANK0 ] unsigned char [2]
  3398 ;;  FanSpeedStri    2   21[BANK0 ] unsigned char [2]
  3399 ;;  child_lock_n    2   18[BANK0 ] int 
  3400 ;;  children        2   16[BANK0 ] int 
  3401 ;;  FanSpeed        2   14[BANK0 ] int 
  3402 ;;  switch_statu    2   29[BANK0 ] int 
  3403 ;;  response_sta    2   27[BANK0 ] int 
  3404 ;;  SwNum           2   25[BANK0 ] int 
  3405 ;; Return value:  Size  Location     Type
  3406 ;;                  1    wreg      void 
  3407 ;; Registers used:
  3408 ;;		wreg, fsr0l, fsr0h, fsr1l, fsr1h, status,2, status,0, pclath, cstack
  3409 ;; Tracked objects:
  3410 ;;		On entry : 0/0
  3411 ;;		On exit  : 0/0
  3412 ;;		Unchanged: 0/0
  3413 ;; Data sizes:     COMMON   BANK0   BANK1   BANK2   BANK3   BANK4   BANK5   BANK6   BANK7   BANK8   BANK9
  3414 ;;      Params:         0       6       0       0       0       0       0       0       0       0       0
  3415 ;;      Locals:         0      17       0       0       0       0       0       0       0       0       0
  3416 ;;      Temps:          0       2       0       0       0       0       0       0       0       0       0
  3417 ;;      Totals:         0      25       0       0       0       0       0       0       0       0       0
  3418 ;;Total ram usage:       25 bytes
  3419 ;; Hardware stack levels used:    1
  3420 ;; Hardware stack levels required when called:    3
  3421 ;; This function calls:
  3422 ;;		_atoi
  3423 ;;		_writeUART
  3424 ;; This function is called by:
  3425 ;;		_main
  3426 ;; This function uses a non-reentrant model
  3427 ;;
  3428                           
  3429                           
  3430                           ;psect for function _ACTION
  3431  0937                     _ACTION:	
  3432                           
  3433                           ;incstack = 0
  3434                           ; Regs used in _ACTION: [wreg-fsr1h+status,2+status,0+pclath+cstack]
  3435                           ;ACTION@Switch_Num_10s stored from wreg
  3436  0937  0020               	movlb	0	; select bank0
  3437  0938  00B4               	movwf	ACTION@Switch_Num_10s
  3438                           
  3439                           ;two_dimmmer_1+fan.c: 1353: int response_starts=0;
  3440  0939  01BB               	clrf	ACTION@response_starts
  3441  093A  01BC               	clrf	ACTION@response_starts+1
  3442                           
  3443                           ;two_dimmmer_1+fan.c: 1354: int switch_status=0;
  3444  093B  01BD               	clrf	ACTION@switch_status
  3445  093C  01BE               	clrf	ACTION@switch_status+1
  3446                           
  3447                           ;two_dimmmer_1+fan.c: 1355: int SwNum=0;
  3448  093D  01B9               	clrf	ACTION@SwNum
  3449  093E  01BA               	clrf	ACTION@SwNum+1
  3450                           
  3451                           ;two_dimmmer_1+fan.c: 1357: if(Switch_Num_1s != 'T')
  3452  093F  3054               	movlw	84
  3453  0940  0626               	xorwf	ACTION@Switch_Num_1s,w
  3454  0941  1903               	btfsc	3,2
  3455  0942  2BE5               	goto	l9237
  3456                           
  3457                           ;two_dimmmer_1+fan.c: 1358: {
  3458                           ;two_dimmmer_1+fan.c: 1359: unsigned char FanSpeedString[2], SwNumString[2];
  3459                           ;two_dimmmer_1+fan.c: 1360: int FanSpeed=0;
  3460  0943  01AE               	clrf	ACTION@FanSpeed
  3461  0944  01AF               	clrf	ACTION@FanSpeed+1
  3462                           
  3463                           ;two_dimmmer_1+fan.c: 1362: switch_status=sw_status - '0';
  3464  0945  0827               	movf	ACTION@sw_status,w
  3465  0946  3ED0               	addlw	208
  3466  0947  00BD               	movwf	ACTION@switch_status
  3467  0948  30FF               	movlw	255
  3468  0949  1803               	skipnc
  3469  094A  3000               	movlw	0
  3470  094B  00BE               	movwf	ACTION@switch_status+1
  3471                           
  3472                           ;two_dimmmer_1+fan.c: 1364: SwNumString[0]=Switch_Num_10s;
  3473  094C  0834               	movf	ACTION@Switch_Num_10s,w
  3474  094D  00AC               	movwf	??_ACTION
  3475  094E  082C               	movf	??_ACTION,w
  3476  094F  00B7               	movwf	ACTION@SwNumString
  3477                           
  3478                           ;two_dimmmer_1+fan.c: 1365: SwNumString[1]=Switch_Num_1s;
  3479  0950  0826               	movf	ACTION@Switch_Num_1s,w
  3480  0951  00AC               	movwf	??_ACTION
  3481  0952  082C               	movf	??_ACTION,w
  3482  0953  00B8               	movwf	ACTION@SwNumString+1
  3483                           
  3484                           ;two_dimmmer_1+fan.c: 1366: SwNum=atoi(SwNumString);
  3485  0954  3037               	movlw	(low (ACTION@SwNumString| 0))& (0+255)
  3486  0955  3186  26FF  3189   	fcall	_atoi
  3487  0958  0879               	movf	?_atoi+1,w
  3488  0959  0020               	movlb	0	; select bank0
  3489  095A  00BA               	movwf	ACTION@SwNum+1
  3490  095B  0878               	movf	?_atoi,w
  3491  095C  00B9               	movwf	ACTION@SwNum
  3492                           
  3493                           ;two_dimmmer_1+fan.c: 1368: FanSpeedString[0] = speed_bitHigh;
  3494  095D  0828               	movf	ACTION@speed_bitHigh,w
  3495  095E  00AC               	movwf	??_ACTION
  3496  095F  082C               	movf	??_ACTION,w
  3497  0960  00B5               	movwf	ACTION@FanSpeedString
  3498                           
  3499                           ;two_dimmmer_1+fan.c: 1369: FanSpeedString[1] = speed_bitLow;
  3500  0961  0829               	movf	ACTION@speed_bitLow,w
  3501  0962  00AC               	movwf	??_ACTION
  3502  0963  082C               	movf	??_ACTION,w
  3503  0964  00B6               	movwf	ACTION@FanSpeedString+1
  3504                           
  3505                           ;two_dimmmer_1+fan.c: 1370: FanSpeed = atoi(FanSpeedString);
  3506  0965  3035               	movlw	(low (ACTION@FanSpeedString| 0))& (0+255)
  3507  0966  3186  26FF  3189   	fcall	_atoi
  3508  0969  0879               	movf	?_atoi+1,w
  3509  096A  0020               	movlb	0	; select bank0
  3510  096B  00AF               	movwf	ACTION@FanSpeed+1
  3511  096C  0878               	movf	?_atoi,w
  3512  096D  00AE               	movwf	ACTION@FanSpeed
  3513                           
  3514                           ;two_dimmmer_1+fan.c: 1372: int children=parent - '0';
  3515  096E  082A               	movf	ACTION@parent,w
  3516  096F  3ED0               	addlw	208
  3517  0970  00B0               	movwf	ACTION@children
  3518  0971  30FF               	movlw	255
  3519  0972  1803               	skipnc
  3520  0973  3000               	movlw	0
  3521  0974  00B1               	movwf	ACTION@children+1
  3522                           
  3523                           ;two_dimmmer_1+fan.c: 1373: int child_lock_num=(2*(SwNum)-1);
  3524  0975  083A               	movf	ACTION@SwNum+1,w
  3525  0976  00AD               	movwf	??_ACTION+1
  3526  0977  0839               	movf	ACTION@SwNum,w
  3527  0978  00AC               	movwf	??_ACTION
  3528  0979  35AC               	lslf	??_ACTION,f
  3529  097A  0DAD               	rlf	??_ACTION+1,f
  3530  097B  082C               	movf	??_ACTION,w
  3531  097C  3EFF               	addlw	255
  3532  097D  00B2               	movwf	ACTION@child_lock_num
  3533  097E  30FF               	movlw	255
  3534  097F  3D2D               	addwfc	??_ACTION+1,w
  3535  0980  00B3               	movwf	ACTION@child_lock_num+1
  3536                           
  3537                           ;two_dimmmer_1+fan.c: 1374: child_LOCK[child_lock_num]=children;
  3538  0981  3532               	lslf	ACTION@child_lock_num,w
  3539  0982  3EA0               	addlw	(low (_child_LOCK| 0))& (0+255)
  3540  0983  0086               	movwf	6
  3541  0984  0187               	clrf	7
  3542  0985  0830               	movf	ACTION@children,w
  3543  0986  3FC0               	movwi [0]fsr1
  3544  0987  0831               	movf	ACTION@children+1,w
  3545  0988  3FC1               	movwi [1]fsr1
  3546                           
  3547                           ;two_dimmmer_1+fan.c: 1376: response_starts=((1+4*(SwNum))-4);
  3548  0989  083A               	movf	ACTION@SwNum+1,w
  3549  098A  00AD               	movwf	??_ACTION+1
  3550  098B  0839               	movf	ACTION@SwNum,w
  3551  098C  00AC               	movwf	??_ACTION
  3552  098D  35AC               	lslf	??_ACTION,f
  3553  098E  0DAD               	rlf	??_ACTION+1,f
  3554  098F  35AC               	lslf	??_ACTION,f
  3555  0990  0DAD               	rlf	??_ACTION+1,f
  3556  0991  082C               	movf	??_ACTION,w
  3557  0992  3EFD               	addlw	253
  3558  0993  00BB               	movwf	ACTION@response_starts
  3559  0994  30FF               	movlw	255
  3560  0995  3D2D               	addwfc	??_ACTION+1,w
  3561  0996  00BC               	movwf	ACTION@response_starts+1
  3562                           
  3563                           ;two_dimmmer_1+fan.c: 1377: st[response_starts++]='G';
  3564  0997  3047               	movlw	71
  3565  0998  00AC               	movwf	??_ACTION
  3566  0999  083B               	movf	ACTION@response_starts,w
  3567  099A  3EB4               	addlw	(low (_st| 0))& (0+255)
  3568  099B  0086               	movwf	6
  3569  099C  0187               	clrf	7
  3570  099D  082C               	movf	??_ACTION,w
  3571  099E  0081               	movwf	1
  3572  099F  3001               	movlw	1
  3573  09A0  07BB               	addwf	ACTION@response_starts,f
  3574  09A1  3000               	movlw	0
  3575  09A2  3DBC               	addwfc	ACTION@response_starts+1,f
  3576                           
  3577                           ;two_dimmmer_1+fan.c: 1378: st[response_starts++]=sw_status;
  3578  09A3  0827               	movf	ACTION@sw_status,w
  3579  09A4  00AC               	movwf	??_ACTION
  3580  09A5  083B               	movf	ACTION@response_starts,w
  3581  09A6  3EB4               	addlw	(low (_st| 0))& (0+255)
  3582  09A7  0086               	movwf	6
  3583  09A8  0187               	clrf	7
  3584  09A9  082C               	movf	??_ACTION,w
  3585  09AA  0081               	movwf	1
  3586  09AB  3001               	movlw	1
  3587  09AC  07BB               	addwf	ACTION@response_starts,f
  3588  09AD  3000               	movlw	0
  3589  09AE  3DBC               	addwfc	ACTION@response_starts+1,f
  3590                           
  3591                           ;two_dimmmer_1+fan.c: 1379: st[response_starts++]=Switch_Num_10s;
  3592  09AF  0834               	movf	ACTION@Switch_Num_10s,w
  3593  09B0  00AC               	movwf	??_ACTION
  3594  09B1  083B               	movf	ACTION@response_starts,w
  3595  09B2  3EB4               	addlw	(low (_st| 0))& (0+255)
  3596  09B3  0086               	movwf	6
  3597  09B4  0187               	clrf	7
  3598  09B5  082C               	movf	??_ACTION,w
  3599  09B6  0081               	movwf	1
  3600  09B7  3001               	movlw	1
  3601  09B8  07BB               	addwf	ACTION@response_starts,f
  3602  09B9  3000               	movlw	0
  3603  09BA  3DBC               	addwfc	ACTION@response_starts+1,f
  3604                           
  3605                           ;two_dimmmer_1+fan.c: 1380: st[response_starts]=Switch_Num_1s;
  3606  09BB  0826               	movf	ACTION@Switch_Num_1s,w
  3607  09BC  00AC               	movwf	??_ACTION
  3608  09BD  083B               	movf	ACTION@response_starts,w
  3609  09BE  3EB4               	addlw	(low (_st| 0))& (0+255)
  3610  09BF  0086               	movwf	6
  3611  09C0  0187               	clrf	7
  3612  09C1  082C               	movf	??_ACTION,w
  3613  09C2  0081               	movwf	1
  3614                           
  3615                           ;two_dimmmer_1+fan.c: 1382: response_starts-=3;
  3616  09C3  30FD               	movlw	253
  3617  09C4  07BB               	addwf	ACTION@response_starts,f
  3618  09C5  30FF               	movlw	255
  3619  09C6  3DBC               	addwfc	ACTION@response_starts+1,f
  3620                           
  3621                           ;two_dimmmer_1+fan.c: 1383: if(finalFrameStat=='1')
  3622  09C7  3031               	movlw	49
  3623  09C8  062B               	xorwf	ACTION@finalFrameStat,w
  3624  09C9  1D03               	btfss	3,2
  3625  09CA  29D0               	goto	l9131
  3626                           
  3627                           ;two_dimmmer_1+fan.c: 1384: {
  3628                           ;two_dimmmer_1+fan.c: 1385: writeUART(st+response_starts);
  3629  09CB  083B               	movf	ACTION@response_starts,w
  3630  09CC  3EB4               	addlw	(low (_st| 0))& (0+255)
  3631  09CD  3188  2093  3189   	fcall	_writeUART
  3632  09D0                     l9131:	
  3633                           
  3634                           ;two_dimmmer_1+fan.c: 1386: }
  3635                           ;two_dimmmer_1+fan.c: 1387: man=0;
  3636  09D0  0020               	movlb	0	; select bank0
  3637  09D1  01E0               	clrf	_man
  3638  09D2  01E1               	clrf	_man+1
  3639                           
  3640                           ;two_dimmmer_1+fan.c: 1388: }
  3641                           ;two_dimmmer_1+fan.c: 1391: switch(SwNum)
  3642  09D3  2BE5               	goto	l9237
  3643  09D4                     l778:	
  3644                           ;two_dimmmer_1+fan.c: 1392: {
  3645                           ;two_dimmmer_1+fan.c: 1394: case 1:
  3646                           
  3647                           
  3648                           ;two_dimmmer_1+fan.c: 1395: RF0=switch_status;
  3649  09D4  1C3D               	btfss	ACTION@switch_status,0
  3650  09D5  29D9               	goto	u2840
  3651  09D6  0025               	movlb	5	; select bank5
  3652  09D7  140C               	bsf	12,0	;volatile
  3653  09D8  29DB               	goto	l9133
  3654  09D9                     u2840:	
  3655  09D9  0025               	movlb	5	; select bank5
  3656  09DA  100C               	bcf	12,0	;volatile
  3657  09DB                     l9133:	
  3658                           
  3659                           ;two_dimmmer_1+fan.c: 1396: M1=switch_status;
  3660  09DB  0020               	movlb	0	; select bank0
  3661  09DC  083E               	movf	ACTION@switch_status+1,w
  3662  09DD  00CE               	movwf	_M1+1
  3663  09DE  083D               	movf	ACTION@switch_status,w
  3664  09DF  00CD               	movwf	_M1
  3665                           
  3666                           ;two_dimmmer_1+fan.c: 1397: break;
  3667  09E0  0008               	return
  3668  09E1                     l9135:	
  3669                           ;two_dimmmer_1+fan.c: 1398: case 2:
  3670                           
  3671                           
  3672                           ;two_dimmmer_1+fan.c: 1399: {
  3673                           ;two_dimmmer_1+fan.c: 1400: M1=switch_status;
  3674  09E1  083E               	movf	ACTION@switch_status+1,w
  3675  09E2  00CE               	movwf	_M1+1
  3676  09E3  083D               	movf	ACTION@switch_status,w
  3677  09E4  00CD               	movwf	_M1
  3678                           
  3679                           ;two_dimmmer_1+fan.c: 1401: if(switch_status==0)
  3680  09E5  083D               	movf	ACTION@switch_status,w
  3681  09E6  043E               	iorwf	ACTION@switch_status+1,w
  3682  09E7  1D03               	btfss	3,2
  3683  09E8  2A24               	goto	l9147
  3684                           
  3685                           ;two_dimmmer_1+fan.c: 1402: {
  3686                           ;two_dimmmer_1+fan.c: 1403: _delay((unsigned long)((500)*(16000000/4000.0)));
  3687  09E9  300B               	movlw	11
  3688  09EA  0020               	movlb	0	; select bank0
  3689  09EB  00AD               	movwf	??_ACTION+1
  3690  09EC  3026               	movlw	38
  3691  09ED  00AC               	movwf	??_ACTION
  3692  09EE  305D               	movlw	93
  3693  09EF                     u3757:	
  3694  09EF  0B89               	decfsz	9,f
  3695  09F0  29EF               	goto	u3757
  3696  09F1  0BAC               	decfsz	??_ACTION,f
  3697  09F2  29EF               	goto	u3757
  3698  09F3  0BAD               	decfsz	??_ACTION+1,f
  3699  09F4  29EF               	goto	u3757
  3700  09F5  3200               	nop2
  3701                           
  3702                           ;two_dimmmer_1+fan.c: 1407: RE2=0;
  3703  09F6  0020               	movlb	0	; select bank0
  3704  09F7  1110               	bcf	16,2	;volatile
  3705                           
  3706                           ;two_dimmmer_1+fan.c: 1408: _delay((unsigned long)((1000)*(16000000/4000.0)));
  3707  09F8  3015               	movlw	21
  3708  09F9  0020               	movlb	0	; select bank0
  3709  09FA  00AD               	movwf	??_ACTION+1
  3710  09FB  304B               	movlw	75
  3711  09FC  00AC               	movwf	??_ACTION
  3712  09FD  30BE               	movlw	190
  3713  09FE                     u3767:	
  3714  09FE  0B89               	decfsz	9,f
  3715  09FF  29FE               	goto	u3767
  3716  0A00  0BAC               	decfsz	??_ACTION,f
  3717  0A01  29FE               	goto	u3767
  3718  0A02  0BAD               	decfsz	??_ACTION+1,f
  3719  0A03  29FE               	goto	u3767
  3720  0A04  0000               	nop
  3721                           
  3722                           ;two_dimmmer_1+fan.c: 1409: RE4=0;
  3723  0A05  0020               	movlb	0	; select bank0
  3724  0A06  1210               	bcf	16,4	;volatile
  3725                           
  3726                           ;two_dimmmer_1+fan.c: 1410: _delay((unsigned long)((1000)*(16000000/4000.0)));
  3727  0A07  3015               	movlw	21
  3728  0A08  0020               	movlb	0	; select bank0
  3729  0A09  00AD               	movwf	??_ACTION+1
  3730  0A0A  304B               	movlw	75
  3731  0A0B  00AC               	movwf	??_ACTION
  3732  0A0C  30BE               	movlw	190
  3733  0A0D                     u3777:	
  3734  0A0D  0B89               	decfsz	9,f
  3735  0A0E  2A0D               	goto	u3777
  3736  0A0F  0BAC               	decfsz	??_ACTION,f
  3737  0A10  2A0D               	goto	u3777
  3738  0A11  0BAD               	decfsz	??_ACTION+1,f
  3739  0A12  2A0D               	goto	u3777
  3740  0A13  0000               	nop
  3741                           
  3742                           ;two_dimmmer_1+fan.c: 1411: RE1=0;
  3743  0A14  0020               	movlb	0	; select bank0
  3744  0A15  1090               	bcf	16,1	;volatile
  3745                           
  3746                           ;two_dimmmer_1+fan.c: 1412: _delay((unsigned long)((1000)*(16000000/4000.0)));
  3747  0A16  3015               	movlw	21
  3748  0A17  0020               	movlb	0	; select bank0
  3749  0A18  00AD               	movwf	??_ACTION+1
  3750  0A19  304B               	movlw	75
  3751  0A1A  00AC               	movwf	??_ACTION
  3752  0A1B  30BE               	movlw	190
  3753  0A1C                     u3787:	
  3754  0A1C  0B89               	decfsz	9,f
  3755  0A1D  2A1C               	goto	u3787
  3756  0A1E  0BAC               	decfsz	??_ACTION,f
  3757  0A1F  2A1C               	goto	u3787
  3758  0A20  0BAD               	decfsz	??_ACTION+1,f
  3759  0A21  2A1C               	goto	u3787
  3760  0A22  0000               	nop
  3761                           
  3762                           ;two_dimmmer_1+fan.c: 1413: }
  3763  0A23  0008               	return
  3764  0A24                     l9147:	
  3765                           
  3766                           ;two_dimmmer_1+fan.c: 1414: else if( speed_bitHigh=='2')
  3767  0A24  3032               	movlw	50
  3768  0A25  0020               	movlb	0	; select bank0
  3769  0A26  0628               	xorwf	ACTION@speed_bitHigh,w
  3770  0A27  1D03               	btfss	3,2
  3771  0A28  2A60               	goto	l9157
  3772                           
  3773                           ;two_dimmmer_1+fan.c: 1415: {
  3774                           ;two_dimmmer_1+fan.c: 1416: _delay((unsigned long)((2)*(16000000/4000.0)));
  3775  0A29  300B               	movlw	11
  3776  0A2A  0020               	movlb	0	; select bank0
  3777  0A2B  00AC               	movwf	??_ACTION
  3778  0A2C  3062               	movlw	98
  3779  0A2D                     u3797:	
  3780  0A2D  0B89               	decfsz	9,f
  3781  0A2E  2A2D               	goto	u3797
  3782  0A2F  0BAC               	decfsz	??_ACTION,f
  3783  0A30  2A2D               	goto	u3797
  3784  0A31  0000               	nop
  3785                           
  3786                           ;two_dimmmer_1+fan.c: 1418: _delay((unsigned long)((500)*(16000000/4000.0)));
  3787  0A32  300B               	movlw	11
  3788  0A33  0020               	movlb	0	; select bank0
  3789  0A34  00AD               	movwf	??_ACTION+1
  3790  0A35  3026               	movlw	38
  3791  0A36  00AC               	movwf	??_ACTION
  3792  0A37  305D               	movlw	93
  3793  0A38                     u3807:	
  3794  0A38  0B89               	decfsz	9,f
  3795  0A39  2A38               	goto	u3807
  3796  0A3A  0BAC               	decfsz	??_ACTION,f
  3797  0A3B  2A38               	goto	u3807
  3798  0A3C  0BAD               	decfsz	??_ACTION+1,f
  3799  0A3D  2A38               	goto	u3807
  3800  0A3E  3200               	nop2
  3801                           
  3802                           ;two_dimmmer_1+fan.c: 1421: RE4=0;
  3803  0A3F  0020               	movlb	0	; select bank0
  3804  0A40  1210               	bcf	16,4	;volatile
  3805                           
  3806                           ;two_dimmmer_1+fan.c: 1422: _delay((unsigned long)((1000)*(16000000/4000.0)));
  3807  0A41  3015               	movlw	21
  3808  0A42  0020               	movlb	0	; select bank0
  3809  0A43  00AD               	movwf	??_ACTION+1
  3810  0A44  304B               	movlw	75
  3811  0A45  00AC               	movwf	??_ACTION
  3812  0A46  30BE               	movlw	190
  3813  0A47                     u3817:	
  3814  0A47  0B89               	decfsz	9,f
  3815  0A48  2A47               	goto	u3817
  3816  0A49  0BAC               	decfsz	??_ACTION,f
  3817  0A4A  2A47               	goto	u3817
  3818  0A4B  0BAD               	decfsz	??_ACTION+1,f
  3819  0A4C  2A47               	goto	u3817
  3820  0A4D  0000               	nop
  3821                           
  3822                           ;two_dimmmer_1+fan.c: 1423: RE1=0;
  3823  0A4E  0020               	movlb	0	; select bank0
  3824  0A4F  1090               	bcf	16,1	;volatile
  3825                           
  3826                           ;two_dimmmer_1+fan.c: 1425: _delay((unsigned long)((1000)*(16000000/4000.0)));
  3827  0A50  3015               	movlw	21
  3828  0A51  0020               	movlb	0	; select bank0
  3829  0A52  00AD               	movwf	??_ACTION+1
  3830  0A53  304B               	movlw	75
  3831  0A54  00AC               	movwf	??_ACTION
  3832  0A55  30BE               	movlw	190
  3833  0A56                     u3827:	
  3834  0A56  0B89               	decfsz	9,f
  3835  0A57  2A56               	goto	u3827
  3836  0A58  0BAC               	decfsz	??_ACTION,f
  3837  0A59  2A56               	goto	u3827
  3838  0A5A  0BAD               	decfsz	??_ACTION+1,f
  3839  0A5B  2A56               	goto	u3827
  3840  0A5C  0000               	nop
  3841                           
  3842                           ;two_dimmmer_1+fan.c: 1426: RE2=1;
  3843  0A5D  0020               	movlb	0	; select bank0
  3844  0A5E  1510               	bsf	16,2	;volatile
  3845                           
  3846                           ;two_dimmmer_1+fan.c: 1428: }
  3847  0A5F  0008               	return
  3848  0A60                     l9157:	
  3849                           
  3850                           ;two_dimmmer_1+fan.c: 1429: else if( speed_bitHigh=='5')
  3851  0A60  3035               	movlw	53
  3852  0A61  0628               	xorwf	ACTION@speed_bitHigh,w
  3853  0A62  1D03               	btfss	3,2
  3854  0A63  2A9B               	goto	l9167
  3855                           
  3856                           ;two_dimmmer_1+fan.c: 1430: {
  3857                           ;two_dimmmer_1+fan.c: 1431: _delay((unsigned long)((1)*(16000000/4000.0)));
  3858  0A64  3006               	movlw	6
  3859  0A65  0020               	movlb	0	; select bank0
  3860  0A66  00AC               	movwf	??_ACTION
  3861  0A67  3030               	movlw	48
  3862  0A68                     u3837:	
  3863  0A68  0B89               	decfsz	9,f
  3864  0A69  2A68               	goto	u3837
  3865  0A6A  0BAC               	decfsz	??_ACTION,f
  3866  0A6B  2A68               	goto	u3837
  3867  0A6C  0000               	nop
  3868                           
  3869                           ;two_dimmmer_1+fan.c: 1435: _delay((unsigned long)((500)*(16000000/4000.0)));
  3870  0A6D  300B               	movlw	11
  3871  0A6E  0020               	movlb	0	; select bank0
  3872  0A6F  00AD               	movwf	??_ACTION+1
  3873  0A70  3026               	movlw	38
  3874  0A71  00AC               	movwf	??_ACTION
  3875  0A72  305D               	movlw	93
  3876  0A73                     u3847:	
  3877  0A73  0B89               	decfsz	9,f
  3878  0A74  2A73               	goto	u3847
  3879  0A75  0BAC               	decfsz	??_ACTION,f
  3880  0A76  2A73               	goto	u3847
  3881  0A77  0BAD               	decfsz	??_ACTION+1,f
  3882  0A78  2A73               	goto	u3847
  3883  0A79  3200               	nop2
  3884                           
  3885                           ;two_dimmmer_1+fan.c: 1436: RE2=0;
  3886  0A7A  0020               	movlb	0	; select bank0
  3887  0A7B  1110               	bcf	16,2	;volatile
  3888                           
  3889                           ;two_dimmmer_1+fan.c: 1437: _delay((unsigned long)((1000)*(16000000/4000.0)));
  3890  0A7C  3015               	movlw	21
  3891  0A7D  0020               	movlb	0	; select bank0
  3892  0A7E  00AD               	movwf	??_ACTION+1
  3893  0A7F  304B               	movlw	75
  3894  0A80  00AC               	movwf	??_ACTION
  3895  0A81  30BE               	movlw	190
  3896  0A82                     u3857:	
  3897  0A82  0B89               	decfsz	9,f
  3898  0A83  2A82               	goto	u3857
  3899  0A84  0BAC               	decfsz	??_ACTION,f
  3900  0A85  2A82               	goto	u3857
  3901  0A86  0BAD               	decfsz	??_ACTION+1,f
  3902  0A87  2A82               	goto	u3857
  3903  0A88  0000               	nop
  3904                           
  3905                           ;two_dimmmer_1+fan.c: 1438: RE1=0;
  3906  0A89  0020               	movlb	0	; select bank0
  3907  0A8A  1090               	bcf	16,1	;volatile
  3908                           
  3909                           ;two_dimmmer_1+fan.c: 1440: _delay((unsigned long)((1000)*(16000000/4000.0)));
  3910  0A8B  3015               	movlw	21
  3911  0A8C  0020               	movlb	0	; select bank0
  3912  0A8D  00AD               	movwf	??_ACTION+1
  3913  0A8E  304B               	movlw	75
  3914  0A8F  00AC               	movwf	??_ACTION
  3915  0A90  30BE               	movlw	190
  3916  0A91                     u3867:	
  3917  0A91  0B89               	decfsz	9,f
  3918  0A92  2A91               	goto	u3867
  3919  0A93  0BAC               	decfsz	??_ACTION,f
  3920  0A94  2A91               	goto	u3867
  3921  0A95  0BAD               	decfsz	??_ACTION+1,f
  3922  0A96  2A91               	goto	u3867
  3923  0A97  0000               	nop
  3924                           
  3925                           ;two_dimmmer_1+fan.c: 1441: RE4=1;
  3926  0A98  0020               	movlb	0	; select bank0
  3927  0A99  1610               	bsf	16,4	;volatile
  3928                           
  3929                           ;two_dimmmer_1+fan.c: 1444: }
  3930  0A9A  0008               	return
  3931  0A9B                     l9167:	
  3932                           
  3933                           ;two_dimmmer_1+fan.c: 1445: else if( speed_bitHigh=='7')
  3934  0A9B  3037               	movlw	55
  3935  0A9C  0628               	xorwf	ACTION@speed_bitHigh,w
  3936  0A9D  1D03               	btfss	3,2
  3937  0A9E  2AD6               	goto	l9177
  3938                           
  3939                           ;two_dimmmer_1+fan.c: 1446: {
  3940                           ;two_dimmmer_1+fan.c: 1447: _delay((unsigned long)((1)*(16000000/4000.0)));
  3941  0A9F  3006               	movlw	6
  3942  0AA0  0020               	movlb	0	; select bank0
  3943  0AA1  00AC               	movwf	??_ACTION
  3944  0AA2  3030               	movlw	48
  3945  0AA3                     u3877:	
  3946  0AA3  0B89               	decfsz	9,f
  3947  0AA4  2AA3               	goto	u3877
  3948  0AA5  0BAC               	decfsz	??_ACTION,f
  3949  0AA6  2AA3               	goto	u3877
  3950  0AA7  0000               	nop
  3951                           
  3952                           ;two_dimmmer_1+fan.c: 1449: _delay((unsigned long)((500)*(16000000/4000.0)));
  3953  0AA8  300B               	movlw	11
  3954  0AA9  0020               	movlb	0	; select bank0
  3955  0AAA  00AD               	movwf	??_ACTION+1
  3956  0AAB  3026               	movlw	38
  3957  0AAC  00AC               	movwf	??_ACTION
  3958  0AAD  305D               	movlw	93
  3959  0AAE                     u3887:	
  3960  0AAE  0B89               	decfsz	9,f
  3961  0AAF  2AAE               	goto	u3887
  3962  0AB0  0BAC               	decfsz	??_ACTION,f
  3963  0AB1  2AAE               	goto	u3887
  3964  0AB2  0BAD               	decfsz	??_ACTION+1,f
  3965  0AB3  2AAE               	goto	u3887
  3966  0AB4  3200               	nop2
  3967                           
  3968                           ;two_dimmmer_1+fan.c: 1452: RE1=0;
  3969  0AB5  0020               	movlb	0	; select bank0
  3970  0AB6  1090               	bcf	16,1	;volatile
  3971                           
  3972                           ;two_dimmmer_1+fan.c: 1454: _delay((unsigned long)((500)*(16000000/4000.0)));
  3973  0AB7  300B               	movlw	11
  3974  0AB8  0020               	movlb	0	; select bank0
  3975  0AB9  00AD               	movwf	??_ACTION+1
  3976  0ABA  3026               	movlw	38
  3977  0ABB  00AC               	movwf	??_ACTION
  3978  0ABC  305D               	movlw	93
  3979  0ABD                     u3897:	
  3980  0ABD  0B89               	decfsz	9,f
  3981  0ABE  2ABD               	goto	u3897
  3982  0ABF  0BAC               	decfsz	??_ACTION,f
  3983  0AC0  2ABD               	goto	u3897
  3984  0AC1  0BAD               	decfsz	??_ACTION+1,f
  3985  0AC2  2ABD               	goto	u3897
  3986  0AC3  3200               	nop2
  3987                           
  3988                           ;two_dimmmer_1+fan.c: 1455: RE2=1;
  3989  0AC4  0020               	movlb	0	; select bank0
  3990  0AC5  1510               	bsf	16,2	;volatile
  3991                           
  3992                           ;two_dimmmer_1+fan.c: 1456: _delay((unsigned long)((500)*(16000000/4000.0)));
  3993  0AC6  300B               	movlw	11
  3994  0AC7  0020               	movlb	0	; select bank0
  3995  0AC8  00AD               	movwf	??_ACTION+1
  3996  0AC9  3026               	movlw	38
  3997  0ACA  00AC               	movwf	??_ACTION
  3998  0ACB  305D               	movlw	93
  3999  0ACC                     u3907:	
  4000  0ACC  0B89               	decfsz	9,f
  4001  0ACD  2ACC               	goto	u3907
  4002  0ACE  0BAC               	decfsz	??_ACTION,f
  4003  0ACF  2ACC               	goto	u3907
  4004  0AD0  0BAD               	decfsz	??_ACTION+1,f
  4005  0AD1  2ACC               	goto	u3907
  4006  0AD2  3200               	nop2
  4007                           
  4008                           ;two_dimmmer_1+fan.c: 1457: RE4=1;
  4009  0AD3  0020               	movlb	0	; select bank0
  4010  0AD4  1610               	bsf	16,4	;volatile
  4011                           
  4012                           ;two_dimmmer_1+fan.c: 1459: }
  4013  0AD5  0008               	return
  4014  0AD6                     l9177:	
  4015                           
  4016                           ;two_dimmmer_1+fan.c: 1460: else if(speed_bitHigh=='9')
  4017  0AD6  3039               	movlw	57
  4018  0AD7  0628               	xorwf	ACTION@speed_bitHigh,w
  4019  0AD8  1D03               	btfss	3,2
  4020  0AD9  0008               	return
  4021                           
  4022                           ;two_dimmmer_1+fan.c: 1461: {
  4023                           ;two_dimmmer_1+fan.c: 1462: _delay((unsigned long)((1)*(16000000/4000.0)));
  4024  0ADA  3006               	movlw	6
  4025  0ADB  0020               	movlb	0	; select bank0
  4026  0ADC  00AC               	movwf	??_ACTION
  4027  0ADD  3030               	movlw	48
  4028  0ADE                     u3917:	
  4029  0ADE  0B89               	decfsz	9,f
  4030  0ADF  2ADE               	goto	u3917
  4031  0AE0  0BAC               	decfsz	??_ACTION,f
  4032  0AE1  2ADE               	goto	u3917
  4033  0AE2  0000               	nop
  4034                           
  4035                           ;two_dimmmer_1+fan.c: 1464: _delay((unsigned long)((500)*(16000000/4000.0)));
  4036  0AE3  300B               	movlw	11
  4037  0AE4  0020               	movlb	0	; select bank0
  4038  0AE5  00AD               	movwf	??_ACTION+1
  4039  0AE6  3026               	movlw	38
  4040  0AE7  00AC               	movwf	??_ACTION
  4041  0AE8  305D               	movlw	93
  4042  0AE9                     u3927:	
  4043  0AE9  0B89               	decfsz	9,f
  4044  0AEA  2AE9               	goto	u3927
  4045  0AEB  0BAC               	decfsz	??_ACTION,f
  4046  0AEC  2AE9               	goto	u3927
  4047  0AED  0BAD               	decfsz	??_ACTION+1,f
  4048  0AEE  2AE9               	goto	u3927
  4049  0AEF  3200               	nop2
  4050                           
  4051                           ;two_dimmmer_1+fan.c: 1465: RE0=1;
  4052  0AF0  0020               	movlb	0	; select bank0
  4053  0AF1  1410               	bsf	16,0	;volatile
  4054                           
  4055                           ;two_dimmmer_1+fan.c: 1466: _delay((unsigned long)((500)*(16000000/4000.0)));
  4056  0AF2  300B               	movlw	11
  4057  0AF3  0020               	movlb	0	; select bank0
  4058  0AF4  00AD               	movwf	??_ACTION+1
  4059  0AF5  3026               	movlw	38
  4060  0AF6  00AC               	movwf	??_ACTION
  4061  0AF7  305D               	movlw	93
  4062  0AF8                     u3937:	
  4063  0AF8  0B89               	decfsz	9,f
  4064  0AF9  2AF8               	goto	u3937
  4065  0AFA  0BAC               	decfsz	??_ACTION,f
  4066  0AFB  2AF8               	goto	u3937
  4067  0AFC  0BAD               	decfsz	??_ACTION+1,f
  4068  0AFD  2AF8               	goto	u3937
  4069  0AFE  3200               	nop2
  4070                           
  4071                           ;two_dimmmer_1+fan.c: 1467: RE2=0;
  4072  0AFF  0020               	movlb	0	; select bank0
  4073  0B00  1110               	bcf	16,2	;volatile
  4074                           
  4075                           ;two_dimmmer_1+fan.c: 1468: _delay((unsigned long)((1000)*(16000000/4000.0)));
  4076  0B01  3015               	movlw	21
  4077  0B02  0020               	movlb	0	; select bank0
  4078  0B03  00AD               	movwf	??_ACTION+1
  4079  0B04  304B               	movlw	75
  4080  0B05  00AC               	movwf	??_ACTION
  4081  0B06  30BE               	movlw	190
  4082  0B07                     u3947:	
  4083  0B07  0B89               	decfsz	9,f
  4084  0B08  2B07               	goto	u3947
  4085  0B09  0BAC               	decfsz	??_ACTION,f
  4086  0B0A  2B07               	goto	u3947
  4087  0B0B  0BAD               	decfsz	??_ACTION+1,f
  4088  0B0C  2B07               	goto	u3947
  4089  0B0D  0000               	nop
  4090                           
  4091                           ;two_dimmmer_1+fan.c: 1469: RE4=0;
  4092  0B0E  0020               	movlb	0	; select bank0
  4093  0B0F  1210               	bcf	16,4	;volatile
  4094                           
  4095                           ;two_dimmmer_1+fan.c: 1470: _delay((unsigned long)((1000)*(16000000/4000.0)));
  4096  0B10  3015               	movlw	21
  4097  0B11  0020               	movlb	0	; select bank0
  4098  0B12  00AD               	movwf	??_ACTION+1
  4099  0B13  304B               	movlw	75
  4100  0B14  00AC               	movwf	??_ACTION
  4101  0B15  30BE               	movlw	190
  4102  0B16                     u3957:	
  4103  0B16  0B89               	decfsz	9,f
  4104  0B17  2B16               	goto	u3957
  4105  0B18  0BAC               	decfsz	??_ACTION,f
  4106  0B19  2B16               	goto	u3957
  4107  0B1A  0BAD               	decfsz	??_ACTION+1,f
  4108  0B1B  2B16               	goto	u3957
  4109  0B1C  0000               	nop
  4110                           
  4111                           ;two_dimmmer_1+fan.c: 1471: RE1=1;
  4112  0B1D  0020               	movlb	0	; select bank0
  4113  0B1E  1490               	bsf	16,1	;volatile
  4114                           
  4115                           ;two_dimmmer_1+fan.c: 1472: }
  4116                           ;two_dimmmer_1+fan.c: 1473: }
  4117                           ;two_dimmmer_1+fan.c: 1474: break;
  4118  0B1F  0008               	return
  4119  0B20                     l9189:	
  4120                           ;two_dimmmer_1+fan.c: 1475: case 3:
  4121                           
  4122                           
  4123                           ;two_dimmmer_1+fan.c: 1476: FAN_FLAG1 = switch_status;
  4124  0B20  083E               	movf	ACTION@switch_status+1,w
  4125  0B21  0021               	movlb	1	; select bank1
  4126  0B22  00E3               	movwf	(_FAN_FLAG1+1)^(0+128)
  4127  0B23  0020               	movlb	0	; select bank0
  4128  0B24  083D               	movf	ACTION@switch_status,w
  4129  0B25  0021               	movlb	1	; select bank1
  4130  0B26  00E2               	movwf	_FAN_FLAG1^(0+128)
  4131                           
  4132                           ;two_dimmmer_1+fan.c: 1477: if(switch_status==0)
  4133  0B27  0020               	movlb	0	; select bank0
  4134  0B28  083D               	movf	ACTION@switch_status,w
  4135  0B29  043E               	iorwf	ACTION@switch_status+1,w
  4136  0B2A  1D03               	btfss	3,2
  4137  0B2B  2B3B               	goto	l9197
  4138                           
  4139                           ;two_dimmmer_1+fan.c: 1478: {
  4140                           ;two_dimmmer_1+fan.c: 1479: T2CONbits.TMR2ON=0;
  4141  0B2C  111C               	bcf	28,2	;volatile
  4142                           
  4143                           ;two_dimmmer_1+fan.c: 1480: T1CONbits.TMR1ON = 0;
  4144  0B2D  1018               	bcf	24,0	;volatile
  4145                           
  4146                           ;two_dimmmer_1+fan.c: 1481: PIE1bits.CCP1IE = 0;
  4147  0B2E  0021               	movlb	1	; select bank1
  4148  0B2F  1111               	bcf	17,2	;volatile
  4149                           
  4150                           ;two_dimmmer_1+fan.c: 1482: RA2 =(switch_status^1);
  4151  0B30  0020               	movlb	0	; select bank0
  4152  0B31  183D               	btfsc	ACTION@switch_status,0
  4153  0B32  2B36               	goto	u2920
  4154  0B33  0020               	movlb	0	; select bank0
  4155  0B34  150C               	bsf	12,2	;volatile
  4156  0B35  2B38               	goto	l9195
  4157  0B36                     u2920:	
  4158  0B36  0020               	movlb	0	; select bank0
  4159  0B37  110C               	bcf	12,2	;volatile
  4160  0B38                     l9195:	
  4161                           
  4162                           ;two_dimmmer_1+fan.c: 1483: pk=0;
  4163  0B38  01D9               	clrf	_pk
  4164  0B39  01DA               	clrf	_pk+1
  4165                           
  4166                           ;two_dimmmer_1+fan.c: 1484: }
  4167  0B3A  2B5C               	goto	l792
  4168  0B3B                     l9197:	
  4169                           
  4170                           ;two_dimmmer_1+fan.c: 1485: else if(switch_status==1)
  4171  0B3B  033D               	decf	ACTION@switch_status,w
  4172  0B3C  043E               	iorwf	ACTION@switch_status+1,w
  4173  0B3D  1D03               	btfss	3,2
  4174  0B3E  2B5C               	goto	l792
  4175                           
  4176                           ;two_dimmmer_1+fan.c: 1486: {
  4177                           ;two_dimmmer_1+fan.c: 1487: PIE1bits.CCP1IE = 1;
  4178  0B3F  0021               	movlb	1	; select bank1
  4179  0B40  1511               	bsf	17,2	;volatile
  4180                           
  4181                           ;two_dimmmer_1+fan.c: 1488: dimmer1=speed_bitHigh;
  4182  0B41  0020               	movlb	0	; select bank0
  4183  0B42  0828               	movf	ACTION@speed_bitHigh,w
  4184  0B43  00AC               	movwf	??_ACTION
  4185  0B44  082C               	movf	??_ACTION,w
  4186  0B45  00DF               	movwf	_dimmer1
  4187                           
  4188                           ;two_dimmmer_1+fan.c: 1489: pk=1;
  4189  0B46  3001               	movlw	1
  4190  0B47  00D9               	movwf	_pk
  4191  0B48  3000               	movlw	0
  4192  0B49  00DA               	movwf	_pk+1
  4193                           
  4194                           ;two_dimmmer_1+fan.c: 1490: FAN_SPEED1_10s = speed_bitHigh;
  4195  0B4A  0828               	movf	ACTION@speed_bitHigh,w
  4196  0B4B  00AC               	movwf	??_ACTION
  4197  0B4C  01AD               	clrf	??_ACTION+1
  4198  0B4D  082C               	movf	??_ACTION,w
  4199  0B4E  0021               	movlb	1	; select bank1
  4200  0B4F  00EA               	movwf	_FAN_SPEED1_10s^(0+128)
  4201  0B50  0020               	movlb	0	; select bank0
  4202  0B51  082D               	movf	??_ACTION+1,w
  4203  0B52  0021               	movlb	1	; select bank1
  4204  0B53  00EB               	movwf	(_FAN_SPEED1_10s+1)^(0+128)
  4205                           
  4206                           ;two_dimmmer_1+fan.c: 1491: FAN_SPEED1_1s= speed_bitLow;
  4207  0B54  0020               	movlb	0	; select bank0
  4208  0B55  0829               	movf	ACTION@speed_bitLow,w
  4209  0B56  00AC               	movwf	??_ACTION
  4210  0B57  01AD               	clrf	??_ACTION+1
  4211  0B58  082C               	movf	??_ACTION,w
  4212  0B59  00D5               	movwf	_FAN_SPEED1_1s
  4213  0B5A  082D               	movf	??_ACTION+1,w
  4214  0B5B  00D6               	movwf	_FAN_SPEED1_1s+1
  4215  0B5C                     l792:	
  4216                           
  4217                           ;two_dimmmer_1+fan.c: 1493: }
  4218                           ;two_dimmmer_1+fan.c: 1494: M3=switch_status;
  4219  0B5C  083E               	movf	ACTION@switch_status+1,w
  4220  0B5D  00CA               	movwf	_M3+1
  4221  0B5E  083D               	movf	ACTION@switch_status,w
  4222  0B5F  00C9               	movwf	_M3
  4223                           
  4224                           ;two_dimmmer_1+fan.c: 1495: break;
  4225  0B60  0008               	return
  4226  0B61                     l9203:	
  4227                           ;two_dimmmer_1+fan.c: 1496: case 4:
  4228                           
  4229                           
  4230                           ;two_dimmmer_1+fan.c: 1497: FAN_FLAG2 = switch_status;
  4231  0B61  083E               	movf	ACTION@switch_status+1,w
  4232  0B62  0021               	movlb	1	; select bank1
  4233  0B63  00E1               	movwf	(_FAN_FLAG2+1)^(0+128)
  4234  0B64  0020               	movlb	0	; select bank0
  4235  0B65  083D               	movf	ACTION@switch_status,w
  4236  0B66  0021               	movlb	1	; select bank1
  4237  0B67  00E0               	movwf	_FAN_FLAG2^(0+128)
  4238                           
  4239                           ;two_dimmmer_1+fan.c: 1498: if(switch_status==0)
  4240  0B68  0020               	movlb	0	; select bank0
  4241  0B69  083D               	movf	ACTION@switch_status,w
  4242  0B6A  043E               	iorwf	ACTION@switch_status+1,w
  4243  0B6B  1D03               	btfss	3,2
  4244  0B6C  2B7D               	goto	l9211
  4245                           
  4246                           ;two_dimmmer_1+fan.c: 1499: {
  4247                           ;two_dimmmer_1+fan.c: 1500: T3CONbits.TMR3ON=0;
  4248  0B6D  0028               	movlb	8	; select bank8
  4249  0B6E  1013               	bcf	19,0	;volatile
  4250                           
  4251                           ;two_dimmmer_1+fan.c: 1501: T4CONbits.TMR4ON = 0;
  4252  0B6F  1117               	bcf	23,2	;volatile
  4253                           
  4254                           ;two_dimmmer_1+fan.c: 1502: PIE3bits.CCP3IE = 0;
  4255  0B70  0021               	movlb	1	; select bank1
  4256  0B71  1213               	bcf	19,4	;volatile
  4257                           
  4258                           ;two_dimmmer_1+fan.c: 1503: RA3 =(switch_status^1);
  4259  0B72  0020               	movlb	0	; select bank0
  4260  0B73  183D               	btfsc	ACTION@switch_status,0
  4261  0B74  2B78               	goto	u2960
  4262  0B75  0020               	movlb	0	; select bank0
  4263  0B76  158C               	bsf	12,3	;volatile
  4264  0B77  2B7A               	goto	l9209
  4265  0B78                     u2960:	
  4266  0B78  0020               	movlb	0	; select bank0
  4267  0B79  118C               	bcf	12,3	;volatile
  4268  0B7A                     l9209:	
  4269                           
  4270                           ;two_dimmmer_1+fan.c: 1504: ak=0;
  4271  0B7A  01D7               	clrf	_ak
  4272  0B7B  01D8               	clrf	_ak+1
  4273                           
  4274                           ;two_dimmmer_1+fan.c: 1505: }
  4275  0B7C  2B9E               	goto	l796
  4276  0B7D                     l9211:	
  4277                           
  4278                           ;two_dimmmer_1+fan.c: 1506: else if(switch_status==1)
  4279  0B7D  033D               	decf	ACTION@switch_status,w
  4280  0B7E  043E               	iorwf	ACTION@switch_status+1,w
  4281  0B7F  1D03               	btfss	3,2
  4282  0B80  2B9E               	goto	l796
  4283                           
  4284                           ;two_dimmmer_1+fan.c: 1507: {
  4285                           ;two_dimmmer_1+fan.c: 1508: PIE3bits.CCP3IE = 1;
  4286  0B81  0021               	movlb	1	; select bank1
  4287  0B82  1613               	bsf	19,4	;volatile
  4288                           
  4289                           ;two_dimmmer_1+fan.c: 1509: dimmer2=speed_bitHigh;
  4290  0B83  0020               	movlb	0	; select bank0
  4291  0B84  0828               	movf	ACTION@speed_bitHigh,w
  4292  0B85  00AC               	movwf	??_ACTION
  4293  0B86  082C               	movf	??_ACTION,w
  4294  0B87  00DE               	movwf	_dimmer2
  4295                           
  4296                           ;two_dimmmer_1+fan.c: 1510: ak=1;
  4297  0B88  3001               	movlw	1
  4298  0B89  00D7               	movwf	_ak
  4299  0B8A  3000               	movlw	0
  4300  0B8B  00D8               	movwf	_ak+1
  4301                           
  4302                           ;two_dimmmer_1+fan.c: 1511: FAN_SPEED2_10s = speed_bitHigh;
  4303  0B8C  0828               	movf	ACTION@speed_bitHigh,w
  4304  0B8D  00AC               	movwf	??_ACTION
  4305  0B8E  01AD               	clrf	??_ACTION+1
  4306  0B8F  082C               	movf	??_ACTION,w
  4307  0B90  0021               	movlb	1	; select bank1
  4308  0B91  00E8               	movwf	_FAN_SPEED2_10s^(0+128)
  4309  0B92  0020               	movlb	0	; select bank0
  4310  0B93  082D               	movf	??_ACTION+1,w
  4311  0B94  0021               	movlb	1	; select bank1
  4312  0B95  00E9               	movwf	(_FAN_SPEED2_10s+1)^(0+128)
  4313                           
  4314                           ;two_dimmmer_1+fan.c: 1512: FAN_SPEED2_1s= speed_bitLow;
  4315  0B96  0020               	movlb	0	; select bank0
  4316  0B97  0829               	movf	ACTION@speed_bitLow,w
  4317  0B98  00AC               	movwf	??_ACTION
  4318  0B99  01AD               	clrf	??_ACTION+1
  4319  0B9A  082C               	movf	??_ACTION,w
  4320  0B9B  00D3               	movwf	_FAN_SPEED2_1s
  4321  0B9C  082D               	movf	??_ACTION+1,w
  4322  0B9D  00D4               	movwf	_FAN_SPEED2_1s+1
  4323  0B9E                     l796:	
  4324                           
  4325                           ;two_dimmmer_1+fan.c: 1514: }
  4326                           ;two_dimmmer_1+fan.c: 1515: M4=switch_status;
  4327  0B9E  083E               	movf	ACTION@switch_status+1,w
  4328  0B9F  00C8               	movwf	_M4+1
  4329  0BA0  083D               	movf	ACTION@switch_status,w
  4330  0BA1  00C7               	movwf	_M4
  4331                           
  4332                           ;two_dimmmer_1+fan.c: 1516: break;
  4333  0BA2  0008               	return
  4334  0BA3                     l9217:	
  4335                           ;two_dimmmer_1+fan.c: 1517: case 5:
  4336                           
  4337                           
  4338                           ;two_dimmmer_1+fan.c: 1518: FAN_FLAG3 = switch_status;
  4339  0BA3  083E               	movf	ACTION@switch_status+1,w
  4340  0BA4  0021               	movlb	1	; select bank1
  4341  0BA5  00DF               	movwf	(_FAN_FLAG3+1)^(0+128)
  4342  0BA6  0020               	movlb	0	; select bank0
  4343  0BA7  083D               	movf	ACTION@switch_status,w
  4344  0BA8  0021               	movlb	1	; select bank1
  4345  0BA9  00DE               	movwf	_FAN_FLAG3^(0+128)
  4346                           
  4347                           ;two_dimmmer_1+fan.c: 1519: if(switch_status==0)
  4348  0BAA  0020               	movlb	0	; select bank0
  4349  0BAB  083D               	movf	ACTION@switch_status,w
  4350  0BAC  043E               	iorwf	ACTION@switch_status+1,w
  4351  0BAD  1D03               	btfss	3,2
  4352  0BAE  2BBF               	goto	l9229
  4353                           
  4354                           ;two_dimmmer_1+fan.c: 1520: {
  4355                           ;two_dimmmer_1+fan.c: 1521: T5CONbits.TMR5ON=0;
  4356  0BAF  0028               	movlb	8	; select bank8
  4357  0BB0  101A               	bcf	26,0	;volatile
  4358                           
  4359                           ;two_dimmmer_1+fan.c: 1522: T6CONbits.TMR6ON = 0;
  4360  0BB1  111E               	bcf	30,2	;volatile
  4361                           
  4362                           ;two_dimmmer_1+fan.c: 1523: tk=0;
  4363  0BB2  01FA               	clrf	_tk
  4364  0BB3  01FB               	clrf	_tk+1
  4365                           
  4366                           ;two_dimmmer_1+fan.c: 1524: PIE4bits.CCP9IE = 0;
  4367  0BB4  0021               	movlb	1	; select bank1
  4368  0BB5  1314               	bcf	20,6	;volatile
  4369                           
  4370                           ;two_dimmmer_1+fan.c: 1525: RE5 =(switch_status^1);
  4371  0BB6  0020               	movlb	0	; select bank0
  4372  0BB7  183D               	btfsc	ACTION@switch_status,0
  4373  0BB8  2BBC               	goto	u3000
  4374  0BB9  0020               	movlb	0	; select bank0
  4375  0BBA  1690               	bsf	16,5	;volatile
  4376  0BBB  2BE0               	goto	l800
  4377  0BBC                     u3000:	
  4378  0BBC  0020               	movlb	0	; select bank0
  4379  0BBD  1290               	bcf	16,5	;volatile
  4380                           
  4381                           ;two_dimmmer_1+fan.c: 1526: }
  4382  0BBE  2BE0               	goto	l800
  4383  0BBF                     l9229:	
  4384                           
  4385                           ;two_dimmmer_1+fan.c: 1527: else if(switch_status==1)
  4386  0BBF  033D               	decf	ACTION@switch_status,w
  4387  0BC0  043E               	iorwf	ACTION@switch_status+1,w
  4388  0BC1  1D03               	btfss	3,2
  4389  0BC2  2BE0               	goto	l800
  4390                           
  4391                           ;two_dimmmer_1+fan.c: 1528: {
  4392                           ;two_dimmmer_1+fan.c: 1529: PIE4bits.CCP9IE = 1;
  4393  0BC3  0021               	movlb	1	; select bank1
  4394  0BC4  1714               	bsf	20,6	;volatile
  4395                           
  4396                           ;two_dimmmer_1+fan.c: 1530: dimmer3=speed_bitHigh;
  4397  0BC5  0020               	movlb	0	; select bank0
  4398  0BC6  0828               	movf	ACTION@speed_bitHigh,w
  4399  0BC7  00AC               	movwf	??_ACTION
  4400  0BC8  082C               	movf	??_ACTION,w
  4401  0BC9  00DD               	movwf	_dimmer3
  4402                           
  4403                           ;two_dimmmer_1+fan.c: 1531: tk=1;
  4404  0BCA  3001               	movlw	1
  4405  0BCB  00FA               	movwf	_tk
  4406  0BCC  3000               	movlw	0
  4407  0BCD  00FB               	movwf	_tk+1
  4408                           
  4409                           ;two_dimmmer_1+fan.c: 1532: FAN_SPEED3_10s = speed_bitHigh;
  4410  0BCE  0828               	movf	ACTION@speed_bitHigh,w
  4411  0BCF  00AC               	movwf	??_ACTION
  4412  0BD0  01AD               	clrf	??_ACTION+1
  4413  0BD1  082C               	movf	??_ACTION,w
  4414  0BD2  0021               	movlb	1	; select bank1
  4415  0BD3  00E6               	movwf	_FAN_SPEED3_10s^(0+128)
  4416  0BD4  0020               	movlb	0	; select bank0
  4417  0BD5  082D               	movf	??_ACTION+1,w
  4418  0BD6  0021               	movlb	1	; select bank1
  4419  0BD7  00E7               	movwf	(_FAN_SPEED3_10s+1)^(0+128)
  4420                           
  4421                           ;two_dimmmer_1+fan.c: 1533: FAN_SPEED3_1s= speed_bitLow;
  4422  0BD8  0020               	movlb	0	; select bank0
  4423  0BD9  0829               	movf	ACTION@speed_bitLow,w
  4424  0BDA  00AC               	movwf	??_ACTION
  4425  0BDB  01AD               	clrf	??_ACTION+1
  4426  0BDC  082C               	movf	??_ACTION,w
  4427  0BDD  00D1               	movwf	_FAN_SPEED3_1s
  4428  0BDE  082D               	movf	??_ACTION+1,w
  4429  0BDF  00D2               	movwf	_FAN_SPEED3_1s+1
  4430  0BE0                     l800:	
  4431                           
  4432                           ;two_dimmmer_1+fan.c: 1534: }
  4433                           ;two_dimmmer_1+fan.c: 1535: M5=switch_status;
  4434  0BE0  083E               	movf	ACTION@switch_status+1,w
  4435  0BE1  00C6               	movwf	_M5+1
  4436  0BE2  083D               	movf	ACTION@switch_status,w
  4437  0BE3  00C5               	movwf	_M5
  4438                           
  4439                           ;two_dimmmer_1+fan.c: 1539: }
  4440                           
  4441                           ;two_dimmmer_1+fan.c: 1538: break;
  4442                           
  4443                           ;two_dimmmer_1+fan.c: 1537: default:
  4444                           
  4445                           ;two_dimmmer_1+fan.c: 1536: break;
  4446  0BE4  0008               	return
  4447  0BE5                     l9237:	
  4448                           
  4449                           ; Switch on 2 bytes has been partitioned into a top level switch of size 1, and 1 sub-sw
      +                          itches
  4450                           ; Switch size 1, requested type "space"
  4451                           ; Number of cases is 1, Range of values is 0 to 0
  4452                           ; switch strategies available:
  4453                           ; Name         Instructions Cycles
  4454                           ; simple_byte            4     3 (average)
  4455                           ; direct_byte            8     6 (fixed)
  4456                           ; jumptable            260     6 (fixed)
  4457                           ;	Chosen strategy is simple_byte
  4458  0BE5  083A               	movf	ACTION@SwNum+1,w
  4459  0BE6  3A00               	xorlw	0	; case 0
  4460  0BE7  1903               	skipnz
  4461  0BE8  2BEA               	goto	l10925
  4462  0BE9  2BFB               	goto	l803
  4463  0BEA                     l10925:	
  4464                           
  4465                           ; Switch size 1, requested type "space"
  4466                           ; Number of cases is 5, Range of values is 1 to 5
  4467                           ; switch strategies available:
  4468                           ; Name         Instructions Cycles
  4469                           ; simple_byte           16     9 (average)
  4470                           ; direct_byte           19     9 (fixed)
  4471                           ; jumptable            263     9 (fixed)
  4472                           ;	Chosen strategy is simple_byte
  4473  0BEA  0839               	movf	ACTION@SwNum,w
  4474  0BEB  3A01               	xorlw	1	; case 1
  4475  0BEC  1903               	skipnz
  4476  0BED  29D4               	goto	l778
  4477  0BEE  3A03               	xorlw	3	; case 2
  4478  0BEF  1903               	skipnz
  4479  0BF0  29E1               	goto	l9135
  4480  0BF1  3A01               	xorlw	1	; case 3
  4481  0BF2  1903               	skipnz
  4482  0BF3  2B20               	goto	l9189
  4483  0BF4  3A07               	xorlw	7	; case 4
  4484  0BF5  1903               	skipnz
  4485  0BF6  2B61               	goto	l9203
  4486  0BF7  3A01               	xorlw	1	; case 5
  4487  0BF8  1903               	skipnz
  4488  0BF9  2BA3               	goto	l9217
  4489  0BFA  2BFB               	goto	l803
  4490  0BFB                     l803:	
  4491  0BFB  0008               	return
  4492  0BFC                     __end_of_ACTION:	
  4493                           
  4494                           	psect	text15
  4495  0893                     __ptext15:	
  4496 ;; *************** function _writeUART *****************
  4497 ;; Defined at:
  4498 ;;		line 1543 in file "two_dimmmer_1+fan.c"
  4499 ;; Parameters:    Size  Location     Type
  4500 ;;  str2Write       1    wreg     PTR unsigned char 
  4501 ;;		 -> st(26), 
  4502 ;; Auto vars:     Size  Location     Type
  4503 ;;  str2Write       1    5[COMMON] PTR unsigned char 
  4504 ;;		 -> st(26), 
  4505 ;;  Tx_count        2    3[COMMON] int 
  4506 ;; Return value:  Size  Location     Type
  4507 ;;                  1    wreg      void 
  4508 ;; Registers used:
  4509 ;;		wreg, fsr1l, fsr1h, status,2, status,0
  4510 ;; Tracked objects:
  4511 ;;		On entry : 0/0
  4512 ;;		On exit  : 0/0
  4513 ;;		Unchanged: 0/0
  4514 ;; Data sizes:     COMMON   BANK0   BANK1   BANK2   BANK3   BANK4   BANK5   BANK6   BANK7   BANK8   BANK9
  4515 ;;      Params:         0       0       0       0       0       0       0       0       0       0       0
  4516 ;;      Locals:         3       0       0       0       0       0       0       0       0       0       0
  4517 ;;      Temps:          1       0       0       0       0       0       0       0       0       0       0
  4518 ;;      Totals:         4       0       0       0       0       0       0       0       0       0       0
  4519 ;;Total ram usage:        4 bytes
  4520 ;; Hardware stack levels used:    1
  4521 ;; Hardware stack levels required when called:    1
  4522 ;; This function calls:
  4523 ;;		Nothing
  4524 ;; This function is called by:
  4525 ;;		_main
  4526 ;;		_ACTION
  4527 ;; This function uses a non-reentrant model
  4528 ;;
  4529                           
  4530                           
  4531                           ;psect for function _writeUART
  4532  0893                     _writeUART:	
  4533                           
  4534                           ;incstack = 0
  4535                           ; Regs used in _writeUART: [wreg+fsr1l+fsr1h+status,2+status,0]
  4536                           ;writeUART@str2Write stored from wreg
  4537  0893  00F5               	movwf	writeUART@str2Write
  4538                           
  4539                           ;two_dimmmer_1+fan.c: 1545: int Tx_count=0;
  4540  0894  01F3               	clrf	writeUART@Tx_count
  4541  0895  01F4               	clrf	writeUART@Tx_count+1
  4542  0896                     l8985:	
  4543                           ;two_dimmmer_1+fan.c: 1547: while(Tx_count!=4)
  4544                           
  4545  0896  3004               	movlw	4
  4546  0897  0673               	xorwf	writeUART@Tx_count,w
  4547  0898  0474               	iorwf	writeUART@Tx_count+1,w
  4548  0899  1903               	btfsc	3,2
  4549  089A  0008               	return
  4550  089B                     l808:	
  4551                           ;two_dimmmer_1+fan.c: 1548: {
  4552                           ;two_dimmmer_1+fan.c: 1550: while (!TX1STAbits.TRMT);
  4553                           
  4554  089B  0023               	movlb	3	; select bank3
  4555  089C  1C9E               	btfss	30,1	;volatile
  4556  089D  289B               	goto	l808
  4557                           
  4558                           ;two_dimmmer_1+fan.c: 1551: TX1REG = *str2Write;
  4559  089E  0875               	movf	writeUART@str2Write,w
  4560  089F  0086               	movwf	6
  4561  08A0  0187               	clrf	7
  4562  08A1  0801               	movf	1,w
  4563  08A2  009A               	movwf	26	;volatile
  4564                           
  4565                           ;two_dimmmer_1+fan.c: 1552: *str2Write++;
  4566  08A3  3001               	movlw	1
  4567  08A4  00F2               	movwf	??_writeUART
  4568  08A5  0872               	movf	??_writeUART,w
  4569  08A6  07F5               	addwf	writeUART@str2Write,f
  4570                           
  4571                           ;two_dimmmer_1+fan.c: 1553: Tx_count++;
  4572  08A7  3001               	movlw	1
  4573  08A8  07F3               	addwf	writeUART@Tx_count,f
  4574  08A9  3000               	movlw	0
  4575  08AA  3DF4               	addwfc	writeUART@Tx_count+1,f
  4576  08AB  2896               	goto	l8985
  4577  08AC                     __end_of_writeUART:	
  4578                           
  4579                           	psect	text16
  4580  06FF                     __ptext16:	
  4581 ;; *************** function _atoi *****************
  4582 ;; Defined at:
  4583 ;;		line 5 in file "C:\Program Files\Microchip\xc8\v1.45\sources\common\atoi.c"
  4584 ;; Parameters:    Size  Location     Type
  4585 ;;  s               1    wreg     PTR const unsigned char 
  4586 ;;		 -> ACTION@FanSpeedString(2), ACTION@SwNumString(2), 
  4587 ;; Auto vars:     Size  Location     Type
  4588 ;;  s               1    5[BANK0 ] PTR const unsigned char 
  4589 ;;		 -> ACTION@FanSpeedString(2), ACTION@SwNumString(2), 
  4590 ;;  a               2    3[BANK0 ] int 
  4591 ;;  sign            1    2[BANK0 ] unsigned char 
  4592 ;; Return value:  Size  Location     Type
  4593 ;;                  2    8[COMMON] int 
  4594 ;; Registers used:
  4595 ;;		wreg, fsr1l, fsr1h, status,2, status,0, pclath, cstack
  4596 ;; Tracked objects:
  4597 ;;		On entry : 0/0
  4598 ;;		On exit  : 0/0
  4599 ;;		Unchanged: 0/0
  4600 ;; Data sizes:     COMMON   BANK0   BANK1   BANK2   BANK3   BANK4   BANK5   BANK6   BANK7   BANK8   BANK9
  4601 ;;      Params:         2       0       0       0       0       0       0       0       0       0       0
  4602 ;;      Locals:         0       4       0       0       0       0       0       0       0       0       0
  4603 ;;      Temps:          0       2       0       0       0       0       0       0       0       0       0
  4604 ;;      Totals:         2       6       0       0       0       0       0       0       0       0       0
  4605 ;;Total ram usage:        8 bytes
  4606 ;; Hardware stack levels used:    1
  4607 ;; Hardware stack levels required when called:    2
  4608 ;; This function calls:
  4609 ;;		___wmul
  4610 ;;		_isdigit
  4611 ;; This function is called by:
  4612 ;;		_ACTION
  4613 ;; This function uses a non-reentrant model
  4614 ;;
  4615                           
  4616                           
  4617                           ;psect for function _atoi
  4618  06FF                     _atoi:	
  4619                           
  4620                           ;incstack = 0
  4621                           ; Regs used in _atoi: [wreg+fsr1l+fsr1h+status,2+status,0+pclath+cstack]
  4622                           ;atoi@s stored from wreg
  4623  06FF  0020               	movlb	0	; select bank0
  4624  0700  00A5               	movwf	atoi@s
  4625  0701                     l8991:	
  4626  0701  0825               	movf	atoi@s,w
  4627  0702  0086               	movwf	6
  4628  0703  0187               	clrf	7
  4629  0704  3020               	movlw	32
  4630  0705  0601               	xorwf	1,w
  4631  0706  1D03               	btfss	3,2
  4632  0707  2F0D               	goto	l8993
  4633  0708                     l8989:	
  4634  0708  3001               	movlw	1
  4635  0709  00A0               	movwf	??_atoi
  4636  070A  0820               	movf	??_atoi,w
  4637  070B  07A5               	addwf	atoi@s,f
  4638  070C  2F01               	goto	l8991
  4639  070D                     l8993:	
  4640  070D  0825               	movf	atoi@s,w
  4641  070E  0086               	movwf	6
  4642  070F  0187               	clrf	7
  4643  0710  3009               	movlw	9
  4644  0711  0601               	xorwf	1,w
  4645  0712  1903               	btfsc	3,2
  4646  0713  2F08               	goto	l8989
  4647  0714  01A3               	clrf	atoi@a
  4648  0715  01A4               	clrf	atoi@a+1
  4649  0716  01A2               	clrf	atoi@sign
  4650  0717  0825               	movf	atoi@s,w
  4651  0718  0086               	movwf	6
  4652  0719  0187               	clrf	7
  4653  071A  302D               	movlw	45
  4654  071B  0601               	xorwf	1,w
  4655  071C  1D03               	btfss	3,2
  4656  071D  2F23               	goto	l9001
  4657  071E  3001               	movlw	1
  4658  071F  00A0               	movwf	??_atoi
  4659  0720  0820               	movf	??_atoi,w
  4660  0721  07A2               	addwf	atoi@sign,f
  4661  0722  2F2A               	goto	l9007
  4662  0723                     l9001:	
  4663  0723  0825               	movf	atoi@s,w
  4664  0724  0086               	movwf	6
  4665  0725  0187               	clrf	7
  4666  0726  302B               	movlw	43
  4667  0727  0601               	xorwf	1,w
  4668  0728  1D03               	btfss	3,2
  4669  0729  2F2E               	goto	l9009
  4670  072A                     l9007:	
  4671  072A  3001               	movlw	1
  4672  072B  00A0               	movwf	??_atoi
  4673  072C  0820               	movf	??_atoi,w
  4674  072D  07A5               	addwf	atoi@s,f
  4675  072E                     l9009:	
  4676  072E  0825               	movf	atoi@s,w
  4677  072F  0086               	movwf	6
  4678  0730  0187               	clrf	7
  4679  0731  0801               	movf	1,w
  4680  0732  3192  2228  3186   	fcall	_isdigit
  4681  0735  1C03               	btfss	3,0
  4682  0736  2F55               	goto	l9011
  4683  0737  0020               	movlb	0	; select bank0
  4684  0738  0824               	movf	atoi@a+1,w
  4685  0739  00F3               	movwf	___wmul@multiplier+1
  4686  073A  0823               	movf	atoi@a,w
  4687  073B  00F2               	movwf	___wmul@multiplier
  4688  073C  300A               	movlw	10
  4689  073D  00F4               	movwf	___wmul@multiplicand
  4690  073E  3000               	movlw	0
  4691  073F  00F5               	movwf	___wmul@multiplicand+1
  4692  0740  3188  20AC  3186   	fcall	___wmul
  4693  0743  0020               	movlb	0	; select bank0
  4694  0744  0825               	movf	atoi@s,w
  4695  0745  0086               	movwf	6
  4696  0746  0187               	clrf	7
  4697  0747  0801               	movf	1,w
  4698  0748  0772               	addwf	?___wmul,w
  4699  0749  00A0               	movwf	??_atoi
  4700  074A  0873               	movf	?___wmul+1,w
  4701  074B  1803               	skipnc
  4702  074C  0A73               	incf	?___wmul+1,w
  4703  074D  00A1               	movwf	??_atoi+1
  4704  074E  0820               	movf	??_atoi,w
  4705  074F  3ED0               	addlw	208
  4706  0750  00A3               	movwf	atoi@a
  4707  0751  30FF               	movlw	255
  4708  0752  3D21               	addwfc	??_atoi+1,w
  4709  0753  00A4               	movwf	atoi@a+1
  4710  0754  2F2A               	goto	l9007
  4711  0755                     l9011:	
  4712  0755  0020               	movlb	0	; select bank0
  4713  0756  0822               	movf	atoi@sign,w
  4714  0757  1903               	btfsc	3,2
  4715  0758  2F65               	goto	l9017
  4716  0759  0923               	comf	atoi@a,w
  4717  075A  00A0               	movwf	??_atoi
  4718  075B  0924               	comf	atoi@a+1,w
  4719  075C  00A1               	movwf	??_atoi+1
  4720  075D  0AA0               	incf	??_atoi,f
  4721  075E  1903               	skipnz
  4722  075F  0AA1               	incf	??_atoi+1,f
  4723  0760  0820               	movf	??_atoi,w
  4724  0761  00F8               	movwf	?_atoi
  4725  0762  0821               	movf	??_atoi+1,w
  4726  0763  00F9               	movwf	?_atoi+1
  4727  0764  0008               	return
  4728  0765                     l9017:	
  4729  0765  0824               	movf	atoi@a+1,w
  4730  0766  00F9               	movwf	?_atoi+1
  4731  0767  0823               	movf	atoi@a,w
  4732  0768  00F8               	movwf	?_atoi
  4733  0769  0008               	return
  4734  076A                     __end_of_atoi:	
  4735                           
  4736                           	psect	text17
  4737  1228                     __ptext17:	
  4738 ;; *************** function _isdigit *****************
  4739 ;; Defined at:
  4740 ;;		line 8 in file "C:\Program Files\Microchip\xc8\v1.45\sources\common\isdigit.c"
  4741 ;; Parameters:    Size  Location     Type
  4742 ;;  c               1    wreg     unsigned char 
  4743 ;; Auto vars:     Size  Location     Type
  4744 ;;  c               1    3[COMMON] unsigned char 
  4745 ;; Return value:  Size  Location     Type
  4746 ;;		None               void
  4747 ;; Registers used:
  4748 ;;		wreg, status,2, status,0
  4749 ;; Tracked objects:
  4750 ;;		On entry : 0/0
  4751 ;;		On exit  : 0/0
  4752 ;;		Unchanged: 0/0
  4753 ;; Data sizes:     COMMON   BANK0   BANK1   BANK2   BANK3   BANK4   BANK5   BANK6   BANK7   BANK8   BANK9
  4754 ;;      Params:         0       0       0       0       0       0       0       0       0       0       0
  4755 ;;      Locals:         2       0       0       0       0       0       0       0       0       0       0
  4756 ;;      Temps:          0       0       0       0       0       0       0       0       0       0       0
  4757 ;;      Totals:         2       0       0       0       0       0       0       0       0       0       0
  4758 ;;Total ram usage:        2 bytes
  4759 ;; Hardware stack levels used:    1
  4760 ;; Hardware stack levels required when called:    1
  4761 ;; This function calls:
  4762 ;;		Nothing
  4763 ;; This function is called by:
  4764 ;;		_atoi
  4765 ;; This function uses a non-reentrant model
  4766 ;;
  4767                           
  4768                           
  4769                           ;psect for function _isdigit
  4770  1228                     _isdigit:	
  4771                           
  4772                           ;incstack = 0
  4773                           ; Regs used in _isdigit: [wreg+status,2+status,0]
  4774                           ;isdigit@c stored from wreg
  4775  1228  00F3               	movwf	isdigit@c
  4776  1229  01F2               	clrf	_isdigit$979
  4777  122A  303A               	movlw	58
  4778  122B  0273               	subwf	isdigit@c,w
  4779  122C  1803               	skipnc
  4780  122D  2A34               	goto	l8875
  4781  122E  3030               	movlw	48
  4782  122F  0273               	subwf	isdigit@c,w
  4783  1230  1C03               	skipc
  4784  1231  2A34               	goto	l8875
  4785  1232  01F2               	clrf	_isdigit$979
  4786  1233  0AF2               	incf	_isdigit$979,f
  4787  1234                     l8875:	
  4788  1234  0C72               	rrf	_isdigit$979,w
  4789  1235  0008               	return
  4790  1236                     __end_of_isdigit:	
  4791                           
  4792                           	psect	text18
  4793  08AC                     __ptext18:	
  4794 ;; *************** function ___wmul *****************
  4795 ;; Defined at:
  4796 ;;		line 15 in file "C:\Program Files\Microchip\xc8\v1.45\sources\common\Umul16.c"
  4797 ;; Parameters:    Size  Location     Type
  4798 ;;  multiplier      2    2[COMMON] unsigned int 
  4799 ;;  multiplicand    2    4[COMMON] unsigned int 
  4800 ;; Auto vars:     Size  Location     Type
  4801 ;;  product         2    6[COMMON] unsigned int 
  4802 ;; Return value:  Size  Location     Type
  4803 ;;                  2    2[COMMON] unsigned int 
  4804 ;; Registers used:
  4805 ;;		wreg, status,2, status,0
  4806 ;; Tracked objects:
  4807 ;;		On entry : 0/0
  4808 ;;		On exit  : 0/0
  4809 ;;		Unchanged: 0/0
  4810 ;; Data sizes:     COMMON   BANK0   BANK1   BANK2   BANK3   BANK4   BANK5   BANK6   BANK7   BANK8   BANK9
  4811 ;;      Params:         4       0       0       0       0       0       0       0       0       0       0
  4812 ;;      Locals:         2       0       0       0       0       0       0       0       0       0       0
  4813 ;;      Temps:          0       0       0       0       0       0       0       0       0       0       0
  4814 ;;      Totals:         6       0       0       0       0       0       0       0       0       0       0
  4815 ;;Total ram usage:        6 bytes
  4816 ;; Hardware stack levels used:    1
  4817 ;; Hardware stack levels required when called:    1
  4818 ;; This function calls:
  4819 ;;		Nothing
  4820 ;; This function is called by:
  4821 ;;		_atoi
  4822 ;; This function uses a non-reentrant model
  4823 ;;
  4824                           
  4825                           
  4826                           ;psect for function ___wmul
  4827  08AC                     ___wmul:	
  4828                           
  4829                           ;incstack = 0
  4830                           ; Regs used in ___wmul: [wreg+status,2+status,0]
  4831  08AC  01F6               	clrf	___wmul@product
  4832  08AD  01F7               	clrf	___wmul@product+1
  4833  08AE                     l8855:	
  4834  08AE  1C72               	btfss	___wmul@multiplier,0
  4835  08AF  28B4               	goto	l849
  4836  08B0  0874               	movf	___wmul@multiplicand,w
  4837  08B1  07F6               	addwf	___wmul@product,f
  4838  08B2  0875               	movf	___wmul@multiplicand+1,w
  4839  08B3  3DF7               	addwfc	___wmul@product+1,f
  4840  08B4                     l849:	
  4841  08B4  3001               	movlw	1
  4842  08B5                     u2685:	
  4843  08B5  35F4               	lslf	___wmul@multiplicand,f
  4844  08B6  0DF5               	rlf	___wmul@multiplicand+1,f
  4845  08B7  0B89               	decfsz	9,f
  4846  08B8  28B5               	goto	u2685
  4847  08B9  3001               	movlw	1
  4848  08BA                     u2695:	
  4849  08BA  36F3               	lsrf	___wmul@multiplier+1,f
  4850  08BB  0CF2               	rrf	___wmul@multiplier,f
  4851  08BC  0B89               	decfsz	9,f
  4852  08BD  28BA               	goto	u2695
  4853  08BE  0872               	movf	___wmul@multiplier,w
  4854  08BF  0473               	iorwf	___wmul@multiplier+1,w
  4855  08C0  1D03               	btfss	3,2
  4856  08C1  28AE               	goto	l8855
  4857  08C2  0877               	movf	___wmul@product+1,w
  4858  08C3  00F3               	movwf	?___wmul+1
  4859  08C4  0876               	movf	___wmul@product,w
  4860  08C5  00F2               	movwf	?___wmul
  4861  08C6  0008               	return
  4862  08C7                     __end_of___wmul:	
  4863                           
  4864                           	psect	intentry
  4865  0004                     __pintentry:	
  4866 ;; *************** function _isr *****************
  4867 ;; Defined at:
  4868 ;;		line 81 in file "two_dimmmer_1+fan.c"
  4869 ;; Parameters:    Size  Location     Type
  4870 ;;		None
  4871 ;; Auto vars:     Size  Location     Type
  4872 ;;		None
  4873 ;; Return value:  Size  Location     Type
  4874 ;;                  1    wreg      void 
  4875 ;; Registers used:
  4876 ;;		wreg, fsr0l, fsr0h, fsr1l, fsr1h, status,2, status,0
  4877 ;; Tracked objects:
  4878 ;;		On entry : 0/0
  4879 ;;		On exit  : 0/0
  4880 ;;		Unchanged: 0/0
  4881 ;; Data sizes:     COMMON   BANK0   BANK1   BANK2   BANK3   BANK4   BANK5   BANK6   BANK7   BANK8   BANK9
  4882 ;;      Params:         0       0       0       0       0       0       0       0       0       0       0
  4883 ;;      Locals:         0       0       0       0       0       0       0       0       0       0       0
  4884 ;;      Temps:          2       0       0       0       0       0       0       0       0       0       0
  4885 ;;      Totals:         2       0       0       0       0       0       0       0       0       0       0
  4886 ;;Total ram usage:        2 bytes
  4887 ;; Hardware stack levels used:    1
  4888 ;; This function calls:
  4889 ;;		Nothing
  4890 ;; This function is called by:
  4891 ;;		Interrupt level 1
  4892 ;; This function uses a non-reentrant model
  4893 ;;
  4894                           
  4895  0004                     _isr:	
  4896                           
  4897                           ;incstack = 0
  4898  0004  147E               	bsf	126,0	;set compiler interrupt flag (level 1)
  4899                           
  4900                           ; Regs used in _isr: [wreg-fsr1h+status,2+status,0]
  4901  0005  3180               	pagesel	$
  4902  0006  0020               	movlb	0	; select bank0
  4903  0007  087F               	movf	127,w
  4904  0008  00F1               	movwf	??_isr+1
  4905                           
  4906                           ;two_dimmmer_1+fan.c: 85: if(RCIF == 1)
  4907  0009  1E91               	btfss	17,5	;volatile
  4908  000A  285B               	goto	i1l5467
  4909                           
  4910                           ;two_dimmmer_1+fan.c: 86: {
  4911                           ;two_dimmmer_1+fan.c: 87: if(RC1STAbits.OERR)
  4912  000B  0023               	movlb	3	; select bank3
  4913  000C  1C9D               	btfss	29,1	;volatile
  4914  000D  2819               	goto	i1l5447
  4915                           
  4916                           ;two_dimmmer_1+fan.c: 88: {
  4917                           ;two_dimmmer_1+fan.c: 89: RC1STAbits.CREN = 0;
  4918  000E  121D               	bcf	29,4	;volatile
  4919                           
  4920                           ;two_dimmmer_1+fan.c: 90: RC1STAbits.CREN = 1;
  4921  000F  161D               	bsf	29,4	;volatile
  4922  0010                     i1l253:	
  4923                           ;two_dimmmer_1+fan.c: 92: while(PIR1bits.TXIF==0);
  4924                           
  4925  0010  0020               	movlb	0	; select bank0
  4926  0011  1E11               	btfss	17,4	;volatile
  4927  0012  2810               	goto	i1l253
  4928                           
  4929                           ;two_dimmmer_1+fan.c: 93: TX1REG='F';
  4930  0013  3046               	movlw	70
  4931  0014  0023               	movlb	3	; select bank3
  4932  0015  009A               	movwf	26	;volatile
  4933  0016                     i1l256:	
  4934                           ;two_dimmmer_1+fan.c: 94: while(PIR1bits.TXIF==0);
  4935                           
  4936  0016  0020               	movlb	0	; select bank0
  4937  0017  1E11               	btfss	17,4	;volatile
  4938  0018  2816               	goto	i1l256
  4939  0019                     i1l5447:	
  4940                           
  4941                           ;two_dimmmer_1+fan.c: 96: }
  4942                           ;two_dimmmer_1+fan.c: 97: name[i]=RC1REG;
  4943  0019  0023               	movlb	3	; select bank3
  4944  001A  0819               	movf	25,w	;volatile
  4945  001B  00F0               	movwf	??_isr
  4946  001C  0020               	movlb	0	; select bank0
  4947  001D  085B               	movf	_i,w
  4948  001E  3E44               	addlw	(low (_name| (0+256)))& (0+255)
  4949  001F  0086               	movwf	6
  4950  0020  3001               	movlw	1	; select bank2/3
  4951  0021  0087               	movwf	7
  4952  0022  0870               	movf	??_isr,w
  4953  0023  0081               	movwf	1
  4954                           
  4955                           ;two_dimmmer_1+fan.c: 98: if(name[0]=='%')
  4956  0024  3025               	movlw	37
  4957  0025  0022               	movlb	2	; select bank2
  4958  0026  0644               	xorwf	_name^(0+256),w
  4959  0027  1D03               	btfss	3,2
  4960  0028  2844               	goto	i1l259
  4961                           
  4962                           ;two_dimmmer_1+fan.c: 99: {
  4963                           ;two_dimmmer_1+fan.c: 100: i++;
  4964  0029  3001               	movlw	1
  4965  002A  0020               	movlb	0	; select bank0
  4966  002B  07DB               	addwf	_i,f
  4967  002C  3000               	movlw	0
  4968  002D  3DDC               	addwfc	_i+1,f
  4969                           
  4970                           ;two_dimmmer_1+fan.c: 101: if(i>15)
  4971  002E  085C               	movf	_i+1,w
  4972  002F  3A80               	xorlw	128
  4973  0030  00F0               	movwf	??_isr
  4974  0031  3080               	movlw	128
  4975  0032  0270               	subwf	??_isr,w
  4976  0033  1D03               	skipz
  4977  0034  2837               	goto	u175_25
  4978  0035  3010               	movlw	16
  4979  0036  025B               	subwf	_i,w
  4980  0037                     u175_25:	
  4981  0037  1C03               	skipc
  4982  0038  285B               	goto	i1l5467
  4983                           
  4984                           ;two_dimmmer_1+fan.c: 102: {
  4985                           ;two_dimmmer_1+fan.c: 103: i=0;
  4986  0039  0020               	movlb	0	; select bank0
  4987  003A  01DB               	clrf	_i
  4988  003B  01DC               	clrf	_i+1
  4989                           
  4990                           ;two_dimmmer_1+fan.c: 104: TX_FLAG = 1;
  4991  003C  3001               	movlw	1
  4992  003D  0021               	movlb	1	; select bank1
  4993  003E  00E4               	movwf	_TX_FLAG^(0+128)
  4994  003F  3000               	movlw	0
  4995  0040  00E5               	movwf	(_TX_FLAG^(0+128)+1)
  4996                           
  4997                           ;two_dimmmer_1+fan.c: 105: RCIF=0;
  4998  0041  0020               	movlb	0	; select bank0
  4999  0042  1291               	bcf	17,5	;volatile
  5000                           
  5001                           ;two_dimmmer_1+fan.c: 106: }
  5002                           ;two_dimmmer_1+fan.c: 107: }
  5003  0043  285B               	goto	i1l5467
  5004  0044                     i1l259:	
  5005                           
  5006                           ;two_dimmmer_1+fan.c: 108: else
  5007                           ;two_dimmmer_1+fan.c: 109: {
  5008                           ;two_dimmmer_1+fan.c: 110: RC1STAbits.CREN = 0;
  5009  0044  0023               	movlb	3	; select bank3
  5010  0045  121D               	bcf	29,4	;volatile
  5011                           
  5012                           ;two_dimmmer_1+fan.c: 111: RC1STAbits.CREN = 1;
  5013  0046  161D               	bsf	29,4	;volatile
  5014                           
  5015                           ;two_dimmmer_1+fan.c: 113: i=0;
  5016  0047  0020               	movlb	0	; select bank0
  5017  0048  01DB               	clrf	_i
  5018  0049  01DC               	clrf	_i+1
  5019  004A                     i1l262:	
  5020                           ;two_dimmmer_1+fan.c: 114: while(PIR1bits.TXIF==0);
  5021                           
  5022  004A  1E11               	btfss	17,4	;volatile
  5023  004B  284A               	goto	i1l262
  5024                           
  5025                           ;two_dimmmer_1+fan.c: 115: TX1REG='F';
  5026  004C  3046               	movlw	70
  5027  004D  0023               	movlb	3	; select bank3
  5028  004E  009A               	movwf	26	;volatile
  5029  004F                     i1l265:	
  5030                           ;two_dimmmer_1+fan.c: 116: while(PIR1bits.TXIF==0);
  5031                           
  5032  004F  0020               	movlb	0	; select bank0
  5033  0050  1E11               	btfss	17,4	;volatile
  5034  0051  284F               	goto	i1l265
  5035                           
  5036                           ;two_dimmmer_1+fan.c: 117: TX1REG='R';
  5037  0052  3052               	movlw	82
  5038  0053  0023               	movlb	3	; select bank3
  5039  0054  009A               	movwf	26	;volatile
  5040  0055                     i1l268:	
  5041                           ;two_dimmmer_1+fan.c: 118: while(PIR1bits.TXIF==0);
  5042                           
  5043  0055  0020               	movlb	0	; select bank0
  5044  0056  1E11               	btfss	17,4	;volatile
  5045  0057  2855               	goto	i1l268
  5046                           
  5047                           ;two_dimmmer_1+fan.c: 119: TX1REG='R';
  5048  0058  3052               	movlw	82
  5049  0059  0023               	movlb	3	; select bank3
  5050  005A  009A               	movwf	26	;volatile
  5051  005B                     i1l5467:	
  5052                           
  5053                           ;two_dimmmer_1+fan.c: 120: }
  5054                           ;two_dimmmer_1+fan.c: 121: }
  5055                           ;two_dimmmer_1+fan.c: 124: if(PIE1bits.TMR2IE==1 && PIR1bits.TMR2IF==1)
  5056  005B  0021               	movlb	1	; select bank1
  5057  005C  1C91               	btfss	17,1	;volatile
  5058  005D  2869               	goto	i1l271
  5059  005E  0020               	movlb	0	; select bank0
  5060  005F  1C91               	btfss	17,1	;volatile
  5061  0060  2869               	goto	i1l271
  5062  0061                     i1l5473:	
  5063                           ;two_dimmmer_1+fan.c: 125: {
  5064                           ;two_dimmmer_1+fan.c: 127: while(TX1REG==0);
  5065                           
  5066  0061  0023               	movlb	3	; select bank3
  5067  0062  081A               	movf	26,w	;volatile
  5068  0063  1903               	btfsc	3,2
  5069  0064  2861               	goto	i1l5473
  5070                           
  5071                           ;two_dimmmer_1+fan.c: 128: PIR1bits.TMR2IF=0;
  5072  0065  0020               	movlb	0	; select bank0
  5073  0066  1091               	bcf	17,1	;volatile
  5074                           
  5075                           ;two_dimmmer_1+fan.c: 129: RA2=1;
  5076  0067  150C               	bsf	12,2	;volatile
  5077                           
  5078                           ;two_dimmmer_1+fan.c: 130: T2CONbits.TMR2ON=0;
  5079  0068  111C               	bcf	28,2	;volatile
  5080  0069                     i1l271:	
  5081                           
  5082                           ;two_dimmmer_1+fan.c: 131: }
  5083                           ;two_dimmmer_1+fan.c: 133: if(PIE1bits.TMR1IE == 1 && PIR1bits.TMR1IF==1)
  5084  0069  0021               	movlb	1	; select bank1
  5085  006A  1C11               	btfss	17,0	;volatile
  5086  006B  2875               	goto	i1l5483
  5087  006C  0020               	movlb	0	; select bank0
  5088  006D  1C11               	btfss	17,0	;volatile
  5089  006E  2875               	goto	i1l5483
  5090                           
  5091                           ;two_dimmmer_1+fan.c: 134: {
  5092                           ;two_dimmmer_1+fan.c: 136: PIR1bits.TMR1IF=0;
  5093  006F  1011               	bcf	17,0	;volatile
  5094                           
  5095                           ;two_dimmmer_1+fan.c: 137: T1CONbits.TMR1ON = 0;
  5096  0070  1018               	bcf	24,0	;volatile
  5097                           
  5098                           ;two_dimmmer_1+fan.c: 138: RA2=0;
  5099  0071  110C               	bcf	12,2	;volatile
  5100                           
  5101                           ;two_dimmmer_1+fan.c: 139: PR2=0x9F;
  5102  0072  309F               	movlw	159
  5103  0073  009B               	movwf	27	;volatile
  5104                           
  5105                           ;two_dimmmer_1+fan.c: 140: T2CONbits.TMR2ON=1;
  5106  0074  151C               	bsf	28,2	;volatile
  5107  0075                     i1l5483:	
  5108                           
  5109                           ;two_dimmmer_1+fan.c: 142: }
  5110                           ;two_dimmmer_1+fan.c: 146: if(PIE3bits.TMR4IE==1 && PIR3bits.TMR4IF==1)
  5111  0075  0021               	movlb	1	; select bank1
  5112  0076  1C93               	btfss	19,1	;volatile
  5113  0077  287F               	goto	i1l276
  5114  0078  0020               	movlb	0	; select bank0
  5115  0079  1C93               	btfss	19,1	;volatile
  5116  007A  287F               	goto	i1l276
  5117                           
  5118                           ;two_dimmmer_1+fan.c: 147: {
  5119                           ;two_dimmmer_1+fan.c: 149: PIR3bits.TMR4IF=0;
  5120  007B  1093               	bcf	19,1	;volatile
  5121                           
  5122                           ;two_dimmmer_1+fan.c: 150: RA3=1;
  5123  007C  158C               	bsf	12,3	;volatile
  5124                           
  5125                           ;two_dimmmer_1+fan.c: 151: T4CONbits.TMR4ON=0;
  5126  007D  0028               	movlb	8	; select bank8
  5127  007E  1117               	bcf	23,2	;volatile
  5128  007F                     i1l276:	
  5129                           
  5130                           ;two_dimmmer_1+fan.c: 153: }
  5131                           ;two_dimmmer_1+fan.c: 155: if(PIE3bits.TMR3IE == 1 && PIR3bits.TMR3IF==1)
  5132  007F  0021               	movlb	1	; select bank1
  5133  0080  1C13               	btfss	19,0	;volatile
  5134  0081  288C               	goto	i1l5499
  5135  0082  0020               	movlb	0	; select bank0
  5136  0083  1C13               	btfss	19,0	;volatile
  5137  0084  288C               	goto	i1l5499
  5138                           
  5139                           ;two_dimmmer_1+fan.c: 156: {
  5140                           ;two_dimmmer_1+fan.c: 158: PIR3bits.TMR3IF=0;
  5141  0085  1013               	bcf	19,0	;volatile
  5142                           
  5143                           ;two_dimmmer_1+fan.c: 160: RA3=0;
  5144  0086  118C               	bcf	12,3	;volatile
  5145                           
  5146                           ;two_dimmmer_1+fan.c: 161: PR4=0x9F;
  5147  0087  309F               	movlw	159
  5148  0088  0028               	movlb	8	; select bank8
  5149  0089  0096               	movwf	22	;volatile
  5150                           
  5151                           ;two_dimmmer_1+fan.c: 163: T4CONbits.TMR4ON=1;
  5152  008A  1517               	bsf	23,2	;volatile
  5153                           
  5154                           ;two_dimmmer_1+fan.c: 164: T3CONbits.TMR3ON = 0;
  5155  008B  1013               	bcf	19,0	;volatile
  5156  008C                     i1l5499:	
  5157                           
  5158                           ;two_dimmmer_1+fan.c: 165: }
  5159                           ;two_dimmmer_1+fan.c: 169: if(PIE3bits.TMR6IE == 1 && PIR3bits.TMR6IF == 1)
  5160  008C  0021               	movlb	1	; select bank1
  5161  008D  1D93               	btfss	19,3	;volatile
  5162  008E  2896               	goto	i1l278
  5163  008F  0020               	movlb	0	; select bank0
  5164  0090  1D93               	btfss	19,3	;volatile
  5165  0091  2896               	goto	i1l278
  5166                           
  5167                           ;two_dimmmer_1+fan.c: 170: {
  5168                           ;two_dimmmer_1+fan.c: 171: PIR3bits.TMR6IF=0;
  5169  0092  1193               	bcf	19,3	;volatile
  5170                           
  5171                           ;two_dimmmer_1+fan.c: 172: RE5=1;
  5172  0093  1690               	bsf	16,5	;volatile
  5173                           
  5174                           ;two_dimmmer_1+fan.c: 173: T6CONbits.TMR6ON=0;
  5175  0094  0028               	movlb	8	; select bank8
  5176  0095  111E               	bcf	30,2	;volatile
  5177  0096                     i1l278:	
  5178                           
  5179                           ;two_dimmmer_1+fan.c: 174: }
  5180                           ;two_dimmmer_1+fan.c: 176: if(PIE3bits.TMR5IE == 1 && PIR3bits.TMR5IF==1)
  5181  0096  0021               	movlb	1	; select bank1
  5182  0097  1D13               	btfss	19,2	;volatile
  5183  0098  28A3               	goto	i1l5515
  5184  0099  0020               	movlb	0	; select bank0
  5185  009A  1D13               	btfss	19,2	;volatile
  5186  009B  28A3               	goto	i1l5515
  5187                           
  5188                           ;two_dimmmer_1+fan.c: 177: {
  5189                           ;two_dimmmer_1+fan.c: 178: PIR3bits.TMR5IF=0;
  5190  009C  1113               	bcf	19,2	;volatile
  5191                           
  5192                           ;two_dimmmer_1+fan.c: 179: RE5=0;
  5193  009D  1290               	bcf	16,5	;volatile
  5194                           
  5195                           ;two_dimmmer_1+fan.c: 180: PR6=0x9F;
  5196  009E  309F               	movlw	159
  5197  009F  0028               	movlb	8	; select bank8
  5198  00A0  009D               	movwf	29	;volatile
  5199                           
  5200                           ;two_dimmmer_1+fan.c: 181: T6CONbits.TMR6ON=1;
  5201  00A1  151E               	bsf	30,2	;volatile
  5202                           
  5203                           ;two_dimmmer_1+fan.c: 182: T5CONbits.TMR5ON=0;
  5204  00A2  101A               	bcf	26,0	;volatile
  5205  00A3                     i1l5515:	
  5206                           
  5207                           ;two_dimmmer_1+fan.c: 183: }
  5208                           ;two_dimmmer_1+fan.c: 186: if(PIR1bits.CCP1IF==1 || PIR3bits.CCP3IF == 1 || PIR4bits.CCP
      +                          9IF==1)
  5209  00A3  0020               	movlb	0	; select bank0
  5210  00A4  1D11               	btfss	17,2	;volatile
  5211  00A5  1A13               	btfsc	19,4	;volatile
  5212  00A6  28A9               	goto	i1l282
  5213  00A7  1F14               	btfss	20,6	;volatile
  5214  00A8  2EC4               	goto	i1l718
  5215  00A9                     i1l282:	
  5216                           
  5217                           ;two_dimmmer_1+fan.c: 187: {
  5218                           ;two_dimmmer_1+fan.c: 188: if(PIR1bits.CCP1IF == 1)
  5219  00A9  1D11               	btfss	17,2	;volatile
  5220  00AA  2A9D               	goto	i1l283
  5221                           
  5222                           ;two_dimmmer_1+fan.c: 189: {
  5223                           ;two_dimmmer_1+fan.c: 190: PIR1bits.CCP1IF = 0;
  5224  00AB  1111               	bcf	17,2	;volatile
  5225                           
  5226                           ;two_dimmmer_1+fan.c: 192: if(FAN_FLAG1==1 && pk==1)
  5227  00AC  0021               	movlb	1	; select bank1
  5228  00AD  0362               	decf	_FAN_FLAG1^(0+128),w
  5229  00AE  0463               	iorwf	(_FAN_FLAG1+1)^(0+128),w
  5230  00AF  1D03               	btfss	3,2
  5231  00B0  2A9B               	goto	i1l284
  5232  00B1  0020               	movlb	0	; select bank0
  5233  00B2  0359               	decf	_pk,w
  5234  00B3  045A               	iorwf	_pk+1,w
  5235  00B4  1903               	btfsc	3,2
  5236  00B5  2A88               	goto	i1l5981
  5237  00B6  2A9B               	goto	i1l284
  5238  00B7                     i1l5529:	
  5239                           ;two_dimmmer_1+fan.c: 198: {
  5240                           ;two_dimmmer_1+fan.c: 199: case '0':
  5241                           
  5242                           ;two_dimmmer_1+fan.c: 197: switch(FAN_SPEED1_1s)
  5243                           
  5244                           ;two_dimmmer_1+fan.c: 195: {
  5245                           ;two_dimmmer_1+fan.c: 196: case '0':
  5246                           
  5247                           ;two_dimmmer_1+fan.c: 193: {
  5248                           ;two_dimmmer_1+fan.c: 194: switch(FAN_SPEED1_10s)
  5249                           
  5250                           
  5251                           ;two_dimmmer_1+fan.c: 200: TMR1H=0x7B; TMR1L=0x30; T1CONbits.TMR1ON = 1; break;
  5252  00B7  307B               	movlw	123
  5253  00B8  2A63               	goto	L50
  5254  00B9                     i1l5533:	
  5255                           ;two_dimmmer_1+fan.c: 201: case '1':
  5256                           
  5257                           
  5258                           ;two_dimmmer_1+fan.c: 202: TMR1H=0x7C; TMR1L=0xC0; T1CONbits.TMR1ON = 1; break;
  5259  00B9  307C               	movlw	124
  5260  00BA  2A67               	goto	L51
  5261  00BB                     i1l5537:	
  5262                           ;two_dimmmer_1+fan.c: 203: case '2':
  5263                           
  5264                           
  5265                           ;two_dimmmer_1+fan.c: 204: TMR1H=0x7D; TMR1L=0x88; T1CONbits.TMR1ON = 1; break;
  5266  00BB  307D               	movlw	125
  5267  00BC  0097               	movwf	23	;volatile
  5268  00BD  3088               	movlw	136
  5269  00BE  2A71               	goto	L4
  5270  00BF                     i1l5541:	
  5271                           ;two_dimmmer_1+fan.c: 205: case '3':
  5272                           
  5273                           
  5274                           ;two_dimmmer_1+fan.c: 206: TMR1H=0x7F; TMR1L=0x18; T1CONbits.TMR1ON = 1; break;
  5275  00BF  307F               	movlw	127
  5276  00C0  0097               	movwf	23	;volatile
  5277  00C1  3018               	movlw	24
  5278  00C2  2A71               	goto	L4
  5279  00C3                     i1l5545:	
  5280                           ;two_dimmmer_1+fan.c: 207: case '4':
  5281                           
  5282                           
  5283                           ;two_dimmmer_1+fan.c: 208: TMR1H=0x80; TMR1L=0xA8; T1CONbits.TMR1ON = 1; break;
  5284  00C3  3080               	movlw	128
  5285  00C4  2A13               	goto	L147
  5286  00C5                     i1l5549:	
  5287                           ;two_dimmmer_1+fan.c: 209: case '5':
  5288                           
  5289                           
  5290                           ;two_dimmmer_1+fan.c: 210: TMR1H=0x81; TMR1L=0x70; T1CONbits.TMR1ON = 1; break;
  5291  00C5  3081               	movlw	129
  5292  00C6  2A17               	goto	L38
  5293  00C7                     i1l5553:	
  5294                           ;two_dimmmer_1+fan.c: 211: case '6':
  5295                           
  5296                           
  5297                           ;two_dimmmer_1+fan.c: 212: TMR1H=0x83; TMR1L=0x00; T1CONbits.TMR1ON = 1; break;
  5298  00C7  3083               	movlw	131
  5299  00C8  2A1F               	goto	L39
  5300  00C9                     i1l5559:	
  5301                           ;two_dimmmer_1+fan.c: 213: case '7':
  5302                           
  5303                           
  5304                           ;two_dimmmer_1+fan.c: 214: TMR1H=0x83; TMR1L=0xC8; T1CONbits.TMR1ON = 1; break;
  5305  00C9  3083               	movlw	131
  5306  00CA  0097               	movwf	23	;volatile
  5307  00CB  30C8               	movlw	200
  5308  00CC  2A71               	goto	L4
  5309  00CD                     i1l5563:	
  5310                           ;two_dimmmer_1+fan.c: 215: case '8':
  5311                           
  5312  00CD  28EC               	goto	i1l5583
  5313  00CE                     i1l5567:	
  5314                           ;two_dimmmer_1+fan.c: 217: case '9':
  5315                           
  5316                           ;two_dimmmer_1+fan.c: 216: TMR1H=0x87; TMR1L=0xB0; T1CONbits.TMR1ON = 1; break;
  5317                           
  5318                           
  5319                           ;two_dimmmer_1+fan.c: 218: TMR1H=0x85; TMR1L=0x58; T1CONbits.TMR1ON = 1; break;
  5320  00CE  3085               	movlw	133
  5321  00CF  0097               	movwf	23	;volatile
  5322  00D0  3058               	movlw	88
  5323  00D1  2A71               	goto	L4
  5324  00D2                     i1l5573:	
  5325                           ;two_dimmmer_1+fan.c: 221: }
  5326                           
  5327                           ;two_dimmmer_1+fan.c: 220: break;
  5328                           
  5329                           ;two_dimmmer_1+fan.c: 219: default:
  5330                           
  5331                           
  5332                           ; Switch on 2 bytes has been partitioned into a top level switch of size 1, and 1 sub-sw
      +                          itches
  5333                           ; Switch size 1, requested type "space"
  5334                           ; Number of cases is 1, Range of values is 0 to 0
  5335                           ; switch strategies available:
  5336                           ; Name         Instructions Cycles
  5337                           ; simple_byte            4     3 (average)
  5338                           ; direct_byte            8     6 (fixed)
  5339                           ; jumptable            260     6 (fixed)
  5340                           ;	Chosen strategy is simple_byte
  5341  00D2  0020               	movlb	0	; select bank0
  5342  00D3  0856               	movf	_FAN_SPEED1_1s+1,w
  5343  00D4  3A00               	xorlw	0	; case 0
  5344  00D5  1903               	skipnz
  5345  00D6  28D8               	goto	i1l10927
  5346  00D7  2A9B               	goto	i1l284
  5347  00D8                     i1l10927:	
  5348                           
  5349                           ; Switch size 1, requested type "space"
  5350                           ; Number of cases is 10, Range of values is 48 to 57
  5351                           ; switch strategies available:
  5352                           ; Name         Instructions Cycles
  5353                           ; direct_byte           29     9 (fixed)
  5354                           ; simple_byte           31    16 (average)
  5355                           ; jumptable            263     9 (fixed)
  5356                           ;	Chosen strategy is direct_byte
  5357  00D8  0855               	movf	_FAN_SPEED1_1s,w
  5358  00D9  3ED0               	addlw	-48
  5359  00DA  1C03               	skipc
  5360  00DB  2A9B               	goto	i1l284
  5361  00DC  0084               	movwf	4
  5362  00DD  300A               	movlw	10
  5363  00DE  0204               	subwf	4,w
  5364  00DF  1803               	skipnc
  5365  00E0  2A9B               	goto	i1l284
  5366  00E1  3187               	movlp	high i1S10929
  5367  00E2  3504               	lslf	4,w
  5368  00E3  3EEC               	addlw	low i1S10929
  5369  00E4  0082               	movwf	2
  5370                           
  5371                           ;two_dimmmer_1+fan.c: 222: break;
  5372  00E5  2A9B               	goto	i1l284
  5373  00E6                     i1l5575:	
  5374                           ;two_dimmmer_1+fan.c: 226: {
  5375                           ;two_dimmmer_1+fan.c: 227: case '0':
  5376                           
  5377                           ;two_dimmmer_1+fan.c: 225: switch(FAN_SPEED1_1s)
  5378                           
  5379                           ;two_dimmmer_1+fan.c: 223: case '1':
  5380                           
  5381                           
  5382                           ;two_dimmmer_1+fan.c: 228: TMR1H=0x86; TMR1L=0x20; T1CONbits.TMR1ON = 1; break;
  5383  00E6  3086               	movlw	134
  5384  00E7  2A27               	goto	L41
  5385  00E8                     i1l5579:	
  5386                           ;two_dimmmer_1+fan.c: 229: case '1':
  5387                           
  5388                           
  5389                           ;two_dimmmer_1+fan.c: 230: TMR1H=0x86; TMR1L=0xE8; T1CONbits.TMR1ON = 1; break;
  5390  00E8  3086               	movlw	134
  5391  00E9  0097               	movwf	23	;volatile
  5392  00EA  30E8               	movlw	232
  5393  00EB  2A71               	goto	L4
  5394  00EC                     i1l5583:	
  5395                           ;two_dimmmer_1+fan.c: 231: case '2':
  5396                           
  5397                           
  5398                           ;two_dimmmer_1+fan.c: 232: TMR1H=0x87; TMR1L=0xB0; T1CONbits.TMR1ON = 1; break;
  5399  00EC  3087               	movlw	135
  5400  00ED  2A2B               	goto	L42
  5401  00EE                     i1l5587:	
  5402                           ;two_dimmmer_1+fan.c: 233: case '3':
  5403                           
  5404                           
  5405                           ;two_dimmmer_1+fan.c: 234: TMR1H=0x88; TMR1L=0x78; T1CONbits.TMR1ON = 1; break;
  5406  00EE  3088               	movlw	136
  5407  00EF  2A2F               	goto	L149
  5408  00F0                     i1l5591:	
  5409                           ;two_dimmmer_1+fan.c: 235: case '4':
  5410                           
  5411                           
  5412                           ;two_dimmmer_1+fan.c: 236: TMR1H=0x89; TMR1L=0x40; T1CONbits.TMR1ON = 1; break;
  5413  00F0  3089               	movlw	137
  5414  00F1  2A33               	goto	L43
  5415  00F2                     i1l5595:	
  5416                           ;two_dimmmer_1+fan.c: 237: case '5':
  5417                           
  5418                           
  5419                           ;two_dimmmer_1+fan.c: 238: TMR1H=0x8A; TMR1L=0x08; T1CONbits.TMR1ON = 1; break;
  5420  00F2  308A               	movlw	138
  5421  00F3  0097               	movwf	23	;volatile
  5422  00F4  3008               	movlw	8
  5423  00F5  2A71               	goto	L4
  5424  00F6                     i1l5599:	
  5425                           ;two_dimmmer_1+fan.c: 239: case '6':
  5426                           
  5427                           
  5428                           ;two_dimmmer_1+fan.c: 240: TMR1H=0x8A; TMR1L=0xD0; T1CONbits.TMR1ON = 1; break;
  5429  00F6  308A               	movlw	138
  5430  00F7  2A4B               	goto	L44
  5431  00F8                     i1l5603:	
  5432                           ;two_dimmmer_1+fan.c: 241: case '7':
  5433                           
  5434                           
  5435                           ;two_dimmmer_1+fan.c: 242: TMR1H=0x8B; TMR1L=0x98; T1CONbits.TMR1ON = 1; break;
  5436  00F8  308B               	movlw	139
  5437  00F9  0097               	movwf	23	;volatile
  5438  00FA  3098               	movlw	152
  5439  00FB  2A71               	goto	L4
  5440  00FC                     i1l5607:	
  5441                           ;two_dimmmer_1+fan.c: 243: case '8':
  5442                           
  5443                           
  5444                           ;two_dimmmer_1+fan.c: 244: TMR1H=0x8C; TMR1L=0x60; T1CONbits.TMR1ON = 1; break;
  5445  00FC  308C               	movlw	140
  5446  00FD  2A4F               	goto	L45
  5447  00FE                     i1l5611:	
  5448                           ;two_dimmmer_1+fan.c: 245: case '9':
  5449                           
  5450                           
  5451                           ;two_dimmmer_1+fan.c: 246: TMR1H=0x8D; TMR1L=0x28; T1CONbits.TMR1ON = 1; break;
  5452  00FE  308D               	movlw	141
  5453  00FF  0097               	movwf	23	;volatile
  5454  0100  3028               	movlw	40
  5455  0101  2A71               	goto	L4
  5456  0102                     i1l5617:	
  5457                           ;two_dimmmer_1+fan.c: 249: }
  5458                           
  5459                           ;two_dimmmer_1+fan.c: 248: break;
  5460                           
  5461                           ;two_dimmmer_1+fan.c: 247: default:
  5462                           
  5463                           
  5464                           ; Switch on 2 bytes has been partitioned into a top level switch of size 1, and 1 sub-sw
      +                          itches
  5465                           ; Switch size 1, requested type "space"
  5466                           ; Number of cases is 1, Range of values is 0 to 0
  5467                           ; switch strategies available:
  5468                           ; Name         Instructions Cycles
  5469                           ; simple_byte            4     3 (average)
  5470                           ; direct_byte            8     6 (fixed)
  5471                           ; jumptable            260     6 (fixed)
  5472                           ;	Chosen strategy is simple_byte
  5473  0102  0020               	movlb	0	; select bank0
  5474  0103  0856               	movf	_FAN_SPEED1_1s+1,w
  5475  0104  3A00               	xorlw	0	; case 0
  5476  0105  1903               	skipnz
  5477  0106  2908               	goto	i1l10931
  5478  0107  2A9B               	goto	i1l284
  5479  0108                     i1l10931:	
  5480                           
  5481                           ; Switch size 1, requested type "space"
  5482                           ; Number of cases is 10, Range of values is 48 to 57
  5483                           ; switch strategies available:
  5484                           ; Name         Instructions Cycles
  5485                           ; direct_byte           29     9 (fixed)
  5486                           ; simple_byte           31    16 (average)
  5487                           ; jumptable            263     9 (fixed)
  5488                           ;	Chosen strategy is direct_byte
  5489  0108  0855               	movf	_FAN_SPEED1_1s,w
  5490  0109  3ED0               	addlw	-48
  5491  010A  1C03               	skipc
  5492  010B  2A9B               	goto	i1l284
  5493  010C  0084               	movwf	4
  5494  010D  300A               	movlw	10
  5495  010E  0204               	subwf	4,w
  5496  010F  1803               	skipnc
  5497  0110  2A9B               	goto	i1l284
  5498  0111  3188               	movlp	high i1S10933
  5499  0112  3504               	lslf	4,w
  5500  0113  3E00               	addlw	low i1S10933
  5501  0114  0082               	movwf	2
  5502                           
  5503                           ;two_dimmmer_1+fan.c: 250: break;
  5504  0115  2A9B               	goto	i1l284
  5505  0116                     i1l5619:	
  5506                           ;two_dimmmer_1+fan.c: 254: {
  5507                           ;two_dimmmer_1+fan.c: 255: case '0':
  5508                           
  5509                           ;two_dimmmer_1+fan.c: 253: switch(FAN_SPEED1_1s)
  5510                           
  5511                           ;two_dimmmer_1+fan.c: 251: case '2':
  5512                           
  5513                           
  5514                           ;two_dimmmer_1+fan.c: 256: TMR1H=0x8D; TMR1L=0xF0; T1CONbits.TMR1ON = 1; break;
  5515  0116  308D               	movlw	141
  5516  0117  2A53               	goto	L46
  5517  0118                     i1l5623:	
  5518                           ;two_dimmmer_1+fan.c: 257: case '1':
  5519                           
  5520                           
  5521                           ;two_dimmmer_1+fan.c: 258: TMR1H=0x8E; TMR1L=0xB8; T1CONbits.TMR1ON = 1; break;
  5522  0118  308E               	movlw	142
  5523  0119  0097               	movwf	23	;volatile
  5524  011A  30B8               	movlw	184
  5525  011B  2A71               	goto	L4
  5526  011C                     i1l5627:	
  5527                           ;two_dimmmer_1+fan.c: 259: case '2':
  5528                           
  5529                           
  5530                           ;two_dimmmer_1+fan.c: 260: TMR1H=0x8F; TMR1L=0x80; T1CONbits.TMR1ON = 1; break;
  5531  011C  308F               	movlw	143
  5532  011D  2A57               	goto	L47
  5533  011E                     i1l5631:	
  5534                           ;two_dimmmer_1+fan.c: 261: case '3':
  5535                           
  5536                           
  5537                           ;two_dimmmer_1+fan.c: 262: TMR1H=0x90; TMR1L=0x48; T1CONbits.TMR1ON = 1; break;
  5538  011E  3090               	movlw	144
  5539  011F  0097               	movwf	23	;volatile
  5540  0120  3048               	movlw	72
  5541  0121  2A71               	goto	L4
  5542  0122                     i1l5635:	
  5543                           ;two_dimmmer_1+fan.c: 263: case '4':
  5544                           
  5545                           
  5546                           ;two_dimmmer_1+fan.c: 264: TMR1H=0x91; TMR1L=0x10; T1CONbits.TMR1ON = 1; break;
  5547  0122  3091               	movlw	145
  5548  0123  2A5B               	goto	L48
  5549  0124                     i1l5639:	
  5550                           ;two_dimmmer_1+fan.c: 265: case '5':
  5551                           
  5552                           
  5553                           ;two_dimmmer_1+fan.c: 266: TMR1H=0x91; TMR1L=0xD8; T1CONbits.TMR1ON = 1; break;
  5554  0124  3091               	movlw	145
  5555  0125  0097               	movwf	23	;volatile
  5556  0126  30D8               	movlw	216
  5557  0127  2A71               	goto	L4
  5558  0128                     i1l5643:	
  5559                           ;two_dimmmer_1+fan.c: 267: case '6':
  5560                           
  5561                           
  5562                           ;two_dimmmer_1+fan.c: 268: TMR1H=0x92; TMR1L=0xA0; T1CONbits.TMR1ON = 1; break;
  5563  0128  3092               	movlw	146
  5564  0129  2A5F               	goto	L49
  5565  012A                     i1l5647:	
  5566                           ;two_dimmmer_1+fan.c: 269: case '7':
  5567                           
  5568                           
  5569                           ;two_dimmmer_1+fan.c: 270: TMR1H=0x93; TMR1L=0x68; T1CONbits.TMR1ON = 1; break;
  5570  012A  3093               	movlw	147
  5571  012B  0097               	movwf	23	;volatile
  5572  012C  3068               	movlw	104
  5573  012D  2A71               	goto	L4
  5574  012E                     i1l5651:	
  5575                           ;two_dimmmer_1+fan.c: 271: case '8':
  5576                           
  5577                           
  5578                           ;two_dimmmer_1+fan.c: 272: TMR1H=0x94; TMR1L=0x30; T1CONbits.TMR1ON = 1; break;
  5579  012E  3094               	movlw	148
  5580  012F  2A63               	goto	L50
  5581  0130                     i1l5655:	
  5582                           ;two_dimmmer_1+fan.c: 273: case '9':
  5583                           
  5584                           
  5585                           ;two_dimmmer_1+fan.c: 274: TMR1H=0x94; TMR1L=0xF8; T1CONbits.TMR1ON = 1; break;
  5586  0130  3094               	movlw	148
  5587  0131  0097               	movwf	23	;volatile
  5588  0132  30F8               	movlw	248
  5589  0133  2A71               	goto	L4
  5590  0134                     i1l5661:	
  5591                           ;two_dimmmer_1+fan.c: 277: }
  5592                           
  5593                           ;two_dimmmer_1+fan.c: 276: break;
  5594                           
  5595                           ;two_dimmmer_1+fan.c: 275: default:
  5596                           
  5597                           
  5598                           ; Switch on 2 bytes has been partitioned into a top level switch of size 1, and 1 sub-sw
      +                          itches
  5599                           ; Switch size 1, requested type "space"
  5600                           ; Number of cases is 1, Range of values is 0 to 0
  5601                           ; switch strategies available:
  5602                           ; Name         Instructions Cycles
  5603                           ; simple_byte            4     3 (average)
  5604                           ; direct_byte            8     6 (fixed)
  5605                           ; jumptable            260     6 (fixed)
  5606                           ;	Chosen strategy is simple_byte
  5607  0134  0020               	movlb	0	; select bank0
  5608  0135  0856               	movf	_FAN_SPEED1_1s+1,w
  5609  0136  3A00               	xorlw	0	; case 0
  5610  0137  1903               	skipnz
  5611  0138  293A               	goto	i1l10935
  5612  0139  2A9B               	goto	i1l284
  5613  013A                     i1l10935:	
  5614                           
  5615                           ; Switch size 1, requested type "space"
  5616                           ; Number of cases is 10, Range of values is 48 to 57
  5617                           ; switch strategies available:
  5618                           ; Name         Instructions Cycles
  5619                           ; direct_byte           29     9 (fixed)
  5620                           ; simple_byte           31    16 (average)
  5621                           ; jumptable            263     9 (fixed)
  5622                           ;	Chosen strategy is direct_byte
  5623  013A  0855               	movf	_FAN_SPEED1_1s,w
  5624  013B  3ED0               	addlw	-48
  5625  013C  1C03               	skipc
  5626  013D  2A9B               	goto	i1l284
  5627  013E  0084               	movwf	4
  5628  013F  300A               	movlw	10
  5629  0140  0204               	subwf	4,w
  5630  0141  1803               	skipnc
  5631  0142  2A9B               	goto	i1l284
  5632  0143  3188               	movlp	high i1S10937
  5633  0144  3504               	lslf	4,w
  5634  0145  3E14               	addlw	low i1S10937
  5635  0146  0082               	movwf	2
  5636                           
  5637                           ;two_dimmmer_1+fan.c: 278: break;
  5638  0147  2A9B               	goto	i1l284
  5639  0148                     i1l5663:	
  5640                           ;two_dimmmer_1+fan.c: 282: {
  5641                           ;two_dimmmer_1+fan.c: 283: case '0':
  5642                           
  5643                           ;two_dimmmer_1+fan.c: 281: switch(FAN_SPEED1_1s)
  5644                           
  5645                           ;two_dimmmer_1+fan.c: 279: case '3':
  5646                           
  5647                           
  5648                           ;two_dimmmer_1+fan.c: 284: TMR1H=0x95; TMR1L=0xC0; T1CONbits.TMR1ON = 1; break;
  5649  0148  3095               	movlw	149
  5650  0149  2A67               	goto	L51
  5651  014A                     i1l5667:	
  5652                           ;two_dimmmer_1+fan.c: 285: case '1':
  5653                           
  5654                           
  5655                           ;two_dimmmer_1+fan.c: 286: TMR1H=0x97; TMR1L=0x50; T1CONbits.TMR1ON = 1; break;
  5656  014A  3097               	movlw	151
  5657  014B  2A6B               	goto	L52
  5658  014C                     i1l5671:	
  5659                           ;two_dimmmer_1+fan.c: 287: case '2':
  5660                           
  5661                           
  5662                           ;two_dimmmer_1+fan.c: 288: TMR1H=0x98; TMR1L=0xE0; T1CONbits.TMR1ON = 1; break;
  5663  014C  3098               	movlw	152
  5664  014D  2A6F               	goto	L22
  5665  014E                     i1l5675:	
  5666                           ;two_dimmmer_1+fan.c: 289: case '3':
  5667                           
  5668                           
  5669                           ;two_dimmmer_1+fan.c: 290: TMR1H=0x9A; TMR1L=0x70; T1CONbits.TMR1ON = 1; break;
  5670  014E  309A               	movlw	154
  5671  014F  2A17               	goto	L38
  5672  0150                     i1l5679:	
  5673                           ;two_dimmmer_1+fan.c: 291: case '4':
  5674                           
  5675                           
  5676                           ;two_dimmmer_1+fan.c: 292: TMR1H=0x9C; TMR1L=0x00; T1CONbits.TMR1ON = 1; break;
  5677  0150  309C               	movlw	156
  5678  0151  2A1F               	goto	L39
  5679  0152                     i1l5685:	
  5680                           ;two_dimmmer_1+fan.c: 293: case '5':
  5681                           
  5682                           
  5683                           ;two_dimmmer_1+fan.c: 294: TMR1H=0x9D; TMR1L=0x90; T1CONbits.TMR1ON = 1; break;
  5684  0152  309D               	movlw	157
  5685  0153  2A23               	goto	L40
  5686  0154                     i1l5689:	
  5687                           ;two_dimmmer_1+fan.c: 295: case '6':
  5688                           
  5689                           
  5690                           ;two_dimmmer_1+fan.c: 296: TMR1H=0x9F; TMR1L=0x20; T1CONbits.TMR1ON = 1; break;
  5691  0154  309F               	movlw	159
  5692  0155  2A27               	goto	L41
  5693  0156                     i1l5693:	
  5694                           ;two_dimmmer_1+fan.c: 297: case '7':
  5695                           
  5696                           
  5697                           ;two_dimmmer_1+fan.c: 298: TMR1H=0xA0; TMR1L=0xB0; T1CONbits.TMR1ON = 1; break;
  5698  0156  30A0               	movlw	160
  5699  0157  2A2B               	goto	L42
  5700  0158                     i1l5697:	
  5701                           ;two_dimmmer_1+fan.c: 299: case '8':
  5702                           
  5703                           
  5704                           ;two_dimmmer_1+fan.c: 300: TMR1H=0xA2; TMR1L=0x40; T1CONbits.TMR1ON = 1; break;
  5705  0158  30A2               	movlw	162
  5706  0159  2A33               	goto	L43
  5707  015A                     i1l5701:	
  5708                           ;two_dimmmer_1+fan.c: 301: case '9':
  5709                           
  5710                           
  5711                           ;two_dimmmer_1+fan.c: 302: TMR1H=0xA3; TMR1L=0xD0; T1CONbits.TMR1ON = 1; break;
  5712  015A  30A3               	movlw	163
  5713  015B  2A4B               	goto	L44
  5714  015C                     i1l5707:	
  5715                           ;two_dimmmer_1+fan.c: 305: }
  5716                           
  5717                           ;two_dimmmer_1+fan.c: 304: break;
  5718                           
  5719                           ;two_dimmmer_1+fan.c: 303: default:
  5720                           
  5721                           
  5722                           ; Switch on 2 bytes has been partitioned into a top level switch of size 1, and 1 sub-sw
      +                          itches
  5723                           ; Switch size 1, requested type "space"
  5724                           ; Number of cases is 1, Range of values is 0 to 0
  5725                           ; switch strategies available:
  5726                           ; Name         Instructions Cycles
  5727                           ; simple_byte            4     3 (average)
  5728                           ; direct_byte            8     6 (fixed)
  5729                           ; jumptable            260     6 (fixed)
  5730                           ;	Chosen strategy is simple_byte
  5731  015C  0020               	movlb	0	; select bank0
  5732  015D  0856               	movf	_FAN_SPEED1_1s+1,w
  5733  015E  3A00               	xorlw	0	; case 0
  5734  015F  1903               	skipnz
  5735  0160  2962               	goto	i1l10939
  5736  0161  2A9B               	goto	i1l284
  5737  0162                     i1l10939:	
  5738                           
  5739                           ; Switch size 1, requested type "space"
  5740                           ; Number of cases is 10, Range of values is 48 to 57
  5741                           ; switch strategies available:
  5742                           ; Name         Instructions Cycles
  5743                           ; direct_byte           29     9 (fixed)
  5744                           ; simple_byte           31    16 (average)
  5745                           ; jumptable            263     9 (fixed)
  5746                           ;	Chosen strategy is direct_byte
  5747  0162  0855               	movf	_FAN_SPEED1_1s,w
  5748  0163  3ED0               	addlw	-48
  5749  0164  1C03               	skipc
  5750  0165  2A9B               	goto	i1l284
  5751  0166  0084               	movwf	4
  5752  0167  300A               	movlw	10
  5753  0168  0204               	subwf	4,w
  5754  0169  1803               	skipnc
  5755  016A  2A9B               	goto	i1l284
  5756  016B  3188               	movlp	high i1S10941
  5757  016C  3504               	lslf	4,w
  5758  016D  3E28               	addlw	low i1S10941
  5759  016E  0082               	movwf	2
  5760                           
  5761                           ;two_dimmmer_1+fan.c: 306: break;
  5762  016F  2A9B               	goto	i1l284
  5763  0170                     i1l5709:	
  5764                           ;two_dimmmer_1+fan.c: 310: {
  5765                           ;two_dimmmer_1+fan.c: 311: case '0':
  5766                           
  5767                           ;two_dimmmer_1+fan.c: 309: switch(FAN_SPEED1_1s)
  5768                           
  5769                           ;two_dimmmer_1+fan.c: 307: case '4':
  5770                           
  5771                           
  5772                           ;two_dimmmer_1+fan.c: 312: TMR1H=0xA5; TMR1L=0x60; T1CONbits.TMR1ON = 1; break;
  5773  0170  30A5               	movlw	165
  5774  0171  2A4F               	goto	L45
  5775  0172                     i1l5713:	
  5776                           ;two_dimmmer_1+fan.c: 313: case '1':
  5777                           
  5778                           
  5779                           ;two_dimmmer_1+fan.c: 314: TMR1H=0xA6; TMR1L=0xF0; T1CONbits.TMR1ON = 1; break;
  5780  0172  30A6               	movlw	166
  5781  0173  2A53               	goto	L46
  5782  0174                     i1l5717:	
  5783                           ;two_dimmmer_1+fan.c: 315: case '2':
  5784                           
  5785                           
  5786                           ;two_dimmmer_1+fan.c: 316: TMR1H=0xA8; TMR1L=0x80; T1CONbits.TMR1ON = 1; break;
  5787  0174  30A8               	movlw	168
  5788  0175  2A57               	goto	L47
  5789  0176                     i1l5721:	
  5790                           ;two_dimmmer_1+fan.c: 317: case '3':
  5791                           
  5792                           
  5793                           ;two_dimmmer_1+fan.c: 318: TMR1H=0xAA; TMR1L=0x10; T1CONbits.TMR1ON = 1; break;
  5794  0176  30AA               	movlw	170
  5795  0177  2A5B               	goto	L48
  5796  0178                     i1l5725:	
  5797                           ;two_dimmmer_1+fan.c: 319: case '4':
  5798                           
  5799                           
  5800                           ;two_dimmmer_1+fan.c: 320: TMR1H=0xAB; TMR1L=0xA0; T1CONbits.TMR1ON = 1; break;
  5801  0178  30AB               	movlw	171
  5802  0179  2A5F               	goto	L49
  5803  017A                     i1l5729:	
  5804                           ;two_dimmmer_1+fan.c: 321: case '5':
  5805                           
  5806                           
  5807                           ;two_dimmmer_1+fan.c: 322: TMR1H=0xAD; TMR1L=0x30; T1CONbits.TMR1ON = 1; break;
  5808  017A  30AD               	movlw	173
  5809  017B  2A63               	goto	L50
  5810  017C                     i1l5733:	
  5811                           ;two_dimmmer_1+fan.c: 323: case '6':
  5812                           
  5813                           
  5814                           ;two_dimmmer_1+fan.c: 324: TMR1H=0xAE; TMR1L=0xC0; T1CONbits.TMR1ON = 1; break;
  5815  017C  30AE               	movlw	174
  5816  017D  2A67               	goto	L51
  5817  017E                     i1l5737:	
  5818                           ;two_dimmmer_1+fan.c: 325: case '7':
  5819                           
  5820                           
  5821                           ;two_dimmmer_1+fan.c: 326: TMR1H=0xB0; TMR1L=0x50; T1CONbits.TMR1ON = 1; break;
  5822  017E  30B0               	movlw	176
  5823  017F  2A6B               	goto	L52
  5824  0180                     i1l5741:	
  5825                           ;two_dimmmer_1+fan.c: 327: case '8':
  5826                           
  5827                           
  5828                           ;two_dimmmer_1+fan.c: 328: TMR1H=0xB1; TMR1L=0xE0; T1CONbits.TMR1ON = 1; break;
  5829  0180  30B1               	movlw	177
  5830  0181  2A6F               	goto	L22
  5831  0182                     i1l5745:	
  5832                           ;two_dimmmer_1+fan.c: 329: case '9':
  5833                           
  5834                           
  5835                           ;two_dimmmer_1+fan.c: 330: TMR1H=0xB3; TMR1L=0x70; T1CONbits.TMR1ON = 1; break;
  5836  0182  30B3               	movlw	179
  5837  0183  2A17               	goto	L38
  5838  0184                     i1l5751:	
  5839                           ;two_dimmmer_1+fan.c: 333: }
  5840                           
  5841                           ;two_dimmmer_1+fan.c: 332: break;
  5842                           
  5843                           ;two_dimmmer_1+fan.c: 331: default:
  5844                           
  5845                           
  5846                           ; Switch on 2 bytes has been partitioned into a top level switch of size 1, and 1 sub-sw
      +                          itches
  5847                           ; Switch size 1, requested type "space"
  5848                           ; Number of cases is 1, Range of values is 0 to 0
  5849                           ; switch strategies available:
  5850                           ; Name         Instructions Cycles
  5851                           ; simple_byte            4     3 (average)
  5852                           ; direct_byte            8     6 (fixed)
  5853                           ; jumptable            260     6 (fixed)
  5854                           ;	Chosen strategy is simple_byte
  5855  0184  0020               	movlb	0	; select bank0
  5856  0185  0856               	movf	_FAN_SPEED1_1s+1,w
  5857  0186  3A00               	xorlw	0	; case 0
  5858  0187  1903               	skipnz
  5859  0188  298A               	goto	i1l10943
  5860  0189  2A9B               	goto	i1l284
  5861  018A                     i1l10943:	
  5862                           
  5863                           ; Switch size 1, requested type "space"
  5864                           ; Number of cases is 10, Range of values is 48 to 57
  5865                           ; switch strategies available:
  5866                           ; Name         Instructions Cycles
  5867                           ; direct_byte           29     9 (fixed)
  5868                           ; simple_byte           31    16 (average)
  5869                           ; jumptable            263     9 (fixed)
  5870                           ;	Chosen strategy is direct_byte
  5871  018A  0855               	movf	_FAN_SPEED1_1s,w
  5872  018B  3ED0               	addlw	-48
  5873  018C  1C03               	skipc
  5874  018D  2A9B               	goto	i1l284
  5875  018E  0084               	movwf	4
  5876  018F  300A               	movlw	10
  5877  0190  0204               	subwf	4,w
  5878  0191  1803               	skipnc
  5879  0192  2A9B               	goto	i1l284
  5880  0193  3188               	movlp	high i1S10945
  5881  0194  3504               	lslf	4,w
  5882  0195  3E3C               	addlw	low i1S10945
  5883  0196  0082               	movwf	2
  5884                           
  5885                           ;two_dimmmer_1+fan.c: 334: break;
  5886  0197  2A9B               	goto	i1l284
  5887  0198                     i1l5753:	
  5888                           ;two_dimmmer_1+fan.c: 338: {
  5889                           ;two_dimmmer_1+fan.c: 339: case '0':
  5890                           
  5891                           ;two_dimmmer_1+fan.c: 337: switch(FAN_SPEED1_1s)
  5892                           
  5893                           ;two_dimmmer_1+fan.c: 335: case '5':
  5894                           
  5895                           
  5896                           ;two_dimmmer_1+fan.c: 340: TMR1H=0xB5; TMR1L=0x00; T1CONbits.TMR1ON = 1; break;
  5897  0198  30B5               	movlw	181
  5898  0199  2A1F               	goto	L39
  5899  019A                     i1l5759:	
  5900                           ;two_dimmmer_1+fan.c: 341: case '1':
  5901                           
  5902                           
  5903                           ;two_dimmmer_1+fan.c: 342: TMR1H=0xB6; TMR1L=0x90; T1CONbits.TMR1ON = 1; break;
  5904  019A  30B6               	movlw	182
  5905  019B  2A23               	goto	L40
  5906  019C                     i1l5763:	
  5907                           ;two_dimmmer_1+fan.c: 343: case '2':
  5908                           
  5909                           
  5910                           ;two_dimmmer_1+fan.c: 344: TMR1H=0xB8; TMR1L=0x20; T1CONbits.TMR1ON = 1; break;
  5911  019C  30B8               	movlw	184
  5912  019D  2A27               	goto	L41
  5913  019E                     i1l5767:	
  5914                           ;two_dimmmer_1+fan.c: 345: case '3':
  5915                           
  5916                           
  5917                           ;two_dimmmer_1+fan.c: 346: TMR1H=0xB9; TMR1L=0xB0; T1CONbits.TMR1ON = 1; break;
  5918  019E  30B9               	movlw	185
  5919  019F  2A2B               	goto	L42
  5920  01A0                     i1l5771:	
  5921                           ;two_dimmmer_1+fan.c: 347: case '4':
  5922                           
  5923                           
  5924                           ;two_dimmmer_1+fan.c: 348: TMR1H=0xBB; TMR1L=0x40; T1CONbits.TMR1ON = 1; break;
  5925  01A0  30BB               	movlw	187
  5926  01A1  2A33               	goto	L43
  5927  01A2                     i1l5775:	
  5928                           ;two_dimmmer_1+fan.c: 349: case '5':
  5929                           
  5930                           
  5931                           ;two_dimmmer_1+fan.c: 350: TMR1H=0xBC; TMR1L=0xD0; T1CONbits.TMR1ON = 1; break;
  5932  01A2  30BC               	movlw	188
  5933  01A3  2A4B               	goto	L44
  5934  01A4                     i1l5779:	
  5935                           ;two_dimmmer_1+fan.c: 351: case '6':
  5936                           
  5937                           
  5938                           ;two_dimmmer_1+fan.c: 352: TMR1H=0xBE; TMR1L=0x60; T1CONbits.TMR1ON = 1; break;
  5939  01A4  30BE               	movlw	190
  5940  01A5  2A4F               	goto	L45
  5941  01A6                     i1l5783:	
  5942                           ;two_dimmmer_1+fan.c: 353: case '7':
  5943                           
  5944                           
  5945                           ;two_dimmmer_1+fan.c: 354: TMR1H=0xBF; TMR1L=0xF0; T1CONbits.TMR1ON = 1; break;
  5946  01A6  30BF               	movlw	191
  5947  01A7  2A53               	goto	L46
  5948  01A8                     i1l5787:	
  5949                           ;two_dimmmer_1+fan.c: 355: case '8':
  5950                           
  5951                           
  5952                           ;two_dimmmer_1+fan.c: 356: TMR1H=0xC1; TMR1L=0x80; T1CONbits.TMR1ON = 1; break;
  5953  01A8  30C1               	movlw	193
  5954  01A9  2A57               	goto	L47
  5955  01AA                     i1l5791:	
  5956                           ;two_dimmmer_1+fan.c: 357: case '9':
  5957                           
  5958                           
  5959                           ;two_dimmmer_1+fan.c: 358: TMR1H=0xC3; TMR1L=0x10; T1CONbits.TMR1ON = 1; break;
  5960  01AA  30C3               	movlw	195
  5961  01AB  2A5B               	goto	L48
  5962  01AC                     i1l5797:	
  5963                           ;two_dimmmer_1+fan.c: 361: }
  5964                           
  5965                           ;two_dimmmer_1+fan.c: 360: break;
  5966                           
  5967                           ;two_dimmmer_1+fan.c: 359: default:
  5968                           
  5969                           
  5970                           ; Switch on 2 bytes has been partitioned into a top level switch of size 1, and 1 sub-sw
      +                          itches
  5971                           ; Switch size 1, requested type "space"
  5972                           ; Number of cases is 1, Range of values is 0 to 0
  5973                           ; switch strategies available:
  5974                           ; Name         Instructions Cycles
  5975                           ; simple_byte            4     3 (average)
  5976                           ; direct_byte            8     6 (fixed)
  5977                           ; jumptable            260     6 (fixed)
  5978                           ;	Chosen strategy is simple_byte
  5979  01AC  0020               	movlb	0	; select bank0
  5980  01AD  0856               	movf	_FAN_SPEED1_1s+1,w
  5981  01AE  3A00               	xorlw	0	; case 0
  5982  01AF  1903               	skipnz
  5983  01B0  29B2               	goto	i1l10947
  5984  01B1  2A9B               	goto	i1l284
  5985  01B2                     i1l10947:	
  5986                           
  5987                           ; Switch size 1, requested type "space"
  5988                           ; Number of cases is 10, Range of values is 48 to 57
  5989                           ; switch strategies available:
  5990                           ; Name         Instructions Cycles
  5991                           ; direct_byte           29     9 (fixed)
  5992                           ; simple_byte           31    16 (average)
  5993                           ; jumptable            263     9 (fixed)
  5994                           ;	Chosen strategy is direct_byte
  5995  01B2  0855               	movf	_FAN_SPEED1_1s,w
  5996  01B3  3ED0               	addlw	-48
  5997  01B4  1C03               	skipc
  5998  01B5  2A9B               	goto	i1l284
  5999  01B6  0084               	movwf	4
  6000  01B7  300A               	movlw	10
  6001  01B8  0204               	subwf	4,w
  6002  01B9  1803               	skipnc
  6003  01BA  2A9B               	goto	i1l284
  6004  01BB  3188               	movlp	high i1S10949
  6005  01BC  3504               	lslf	4,w
  6006  01BD  3E50               	addlw	low i1S10949
  6007  01BE  0082               	movwf	2
  6008                           
  6009                           ;two_dimmmer_1+fan.c: 362: break;
  6010  01BF  2A9B               	goto	i1l284
  6011  01C0                     i1l5799:	
  6012                           ;two_dimmmer_1+fan.c: 366: {
  6013                           ;two_dimmmer_1+fan.c: 367: case '0':
  6014                           
  6015                           ;two_dimmmer_1+fan.c: 365: switch(FAN_SPEED1_1s)
  6016                           
  6017                           ;two_dimmmer_1+fan.c: 363: case '6':
  6018                           
  6019                           
  6020                           ;two_dimmmer_1+fan.c: 368: TMR1H=0xC4; TMR1L=0xA0; T1CONbits.TMR1ON = 1; break;
  6021  01C0  30C4               	movlw	196
  6022  01C1  2A5F               	goto	L49
  6023  01C2                     i1l5803:	
  6024                           ;two_dimmmer_1+fan.c: 369: case '1':
  6025                           
  6026                           
  6027                           ;two_dimmmer_1+fan.c: 370: TMR1H=0xC6; TMR1L=0x30; T1CONbits.TMR1ON = 1; break;
  6028  01C2  30C6               	movlw	198
  6029  01C3  2A63               	goto	L50
  6030  01C4                     i1l5807:	
  6031                           ;two_dimmmer_1+fan.c: 371: case '2':
  6032                           
  6033                           
  6034                           ;two_dimmmer_1+fan.c: 372: TMR1H=0xC7; TMR1L=0xC0; T1CONbits.TMR1ON = 1; break;
  6035  01C4  30C7               	movlw	199
  6036  01C5  2A67               	goto	L51
  6037  01C6                     i1l5811:	
  6038                           ;two_dimmmer_1+fan.c: 373: case '3':
  6039                           
  6040                           
  6041                           ;two_dimmmer_1+fan.c: 374: TMR1H=0xC9; TMR1L=0x50; T1CONbits.TMR1ON = 1; break;
  6042  01C6  30C9               	movlw	201
  6043  01C7  2A6B               	goto	L52
  6044  01C8                     i1l5815:	
  6045                           ;two_dimmmer_1+fan.c: 375: case '4':
  6046                           
  6047                           
  6048                           ;two_dimmmer_1+fan.c: 376: TMR1H=0xCA; TMR1L=0xE0; T1CONbits.TMR1ON = 1; break;
  6049  01C8  30CA               	movlw	202
  6050  01C9  2A6F               	goto	L22
  6051  01CA                     i1l5819:	
  6052                           ;two_dimmmer_1+fan.c: 377: case '5':
  6053                           
  6054                           
  6055                           ;two_dimmmer_1+fan.c: 378: TMR1H=0xCC; TMR1L=0x70; T1CONbits.TMR1ON = 1; break;
  6056  01CA  30CC               	movlw	204
  6057  01CB  2A17               	goto	L38
  6058  01CC                     i1l5823:	
  6059                           ;two_dimmmer_1+fan.c: 379: case '6':
  6060                           
  6061                           
  6062                           ;two_dimmmer_1+fan.c: 380: TMR1H=0xCE; TMR1L=0x00; T1CONbits.TMR1ON = 1; break;
  6063  01CC  30CE               	movlw	206
  6064  01CD  2A1F               	goto	L39
  6065  01CE                     i1l5829:	
  6066                           ;two_dimmmer_1+fan.c: 381: case '7':
  6067                           
  6068                           
  6069                           ;two_dimmmer_1+fan.c: 382: TMR1H=0xCF; TMR1L=0x90; T1CONbits.TMR1ON = 1; break;
  6070  01CE  30CF               	movlw	207
  6071  01CF  2A23               	goto	L40
  6072  01D0                     i1l5833:	
  6073                           ;two_dimmmer_1+fan.c: 383: case '8':
  6074                           
  6075                           
  6076                           ;two_dimmmer_1+fan.c: 384: TMR1H=0xD1; TMR1L=0x20; T1CONbits.TMR1ON = 1; break;
  6077  01D0  30D1               	movlw	209
  6078  01D1  2A27               	goto	L41
  6079  01D2                     i1l5837:	
  6080                           ;two_dimmmer_1+fan.c: 385: case '9':
  6081                           
  6082                           
  6083                           ;two_dimmmer_1+fan.c: 386: TMR1H=0xD2; TMR1L=0xB0; T1CONbits.TMR1ON = 1; break;
  6084  01D2  30D2               	movlw	210
  6085  01D3  2A2B               	goto	L42
  6086  01D4                     i1l5843:	
  6087                           ;two_dimmmer_1+fan.c: 389: }
  6088                           
  6089                           ;two_dimmmer_1+fan.c: 388: break;
  6090                           
  6091                           ;two_dimmmer_1+fan.c: 387: default:
  6092                           
  6093                           
  6094                           ; Switch on 2 bytes has been partitioned into a top level switch of size 1, and 1 sub-sw
      +                          itches
  6095                           ; Switch size 1, requested type "space"
  6096                           ; Number of cases is 1, Range of values is 0 to 0
  6097                           ; switch strategies available:
  6098                           ; Name         Instructions Cycles
  6099                           ; simple_byte            4     3 (average)
  6100                           ; direct_byte            8     6 (fixed)
  6101                           ; jumptable            260     6 (fixed)
  6102                           ;	Chosen strategy is simple_byte
  6103  01D4  0020               	movlb	0	; select bank0
  6104  01D5  0856               	movf	_FAN_SPEED1_1s+1,w
  6105  01D6  3A00               	xorlw	0	; case 0
  6106  01D7  1903               	skipnz
  6107  01D8  29DA               	goto	i1l10951
  6108  01D9  2A9B               	goto	i1l284
  6109  01DA                     i1l10951:	
  6110                           
  6111                           ; Switch size 1, requested type "space"
  6112                           ; Number of cases is 10, Range of values is 48 to 57
  6113                           ; switch strategies available:
  6114                           ; Name         Instructions Cycles
  6115                           ; direct_byte           29     9 (fixed)
  6116                           ; simple_byte           31    16 (average)
  6117                           ; jumptable            263     9 (fixed)
  6118                           ;	Chosen strategy is direct_byte
  6119  01DA  0855               	movf	_FAN_SPEED1_1s,w
  6120  01DB  3ED0               	addlw	-48
  6121  01DC  1C03               	skipc
  6122  01DD  2A9B               	goto	i1l284
  6123  01DE  0084               	movwf	4
  6124  01DF  300A               	movlw	10
  6125  01E0  0204               	subwf	4,w
  6126  01E1  1803               	skipnc
  6127  01E2  2A9B               	goto	i1l284
  6128  01E3  3188               	movlp	high i1S10953
  6129  01E4  3504               	lslf	4,w
  6130  01E5  3E64               	addlw	low i1S10953
  6131  01E6  0082               	movwf	2
  6132                           
  6133                           ;two_dimmmer_1+fan.c: 390: break;
  6134  01E7  2A9B               	goto	i1l284
  6135  01E8                     i1l5845:	
  6136                           ;two_dimmmer_1+fan.c: 394: {
  6137                           ;two_dimmmer_1+fan.c: 395: case '0':
  6138                           
  6139                           ;two_dimmmer_1+fan.c: 393: switch(FAN_SPEED1_1s)
  6140                           
  6141                           ;two_dimmmer_1+fan.c: 391: case '7':
  6142                           
  6143                           
  6144                           ;two_dimmmer_1+fan.c: 396: TMR1H=0xD4; TMR1L=0x40; T1CONbits.TMR1ON = 1; break;
  6145  01E8  30D4               	movlw	212
  6146  01E9  2A33               	goto	L43
  6147  01EA                     i1l5849:	
  6148                           ;two_dimmmer_1+fan.c: 397: case '1':
  6149                           
  6150                           
  6151                           ;two_dimmmer_1+fan.c: 398: TMR1H=0xD5; TMR1L=0xD0; T1CONbits.TMR1ON = 1; break;
  6152  01EA  30D5               	movlw	213
  6153  01EB  2A4B               	goto	L44
  6154  01EC                     i1l5853:	
  6155                           ;two_dimmmer_1+fan.c: 399: case '2':
  6156                           
  6157                           
  6158                           ;two_dimmmer_1+fan.c: 400: TMR1H=0xD7; TMR1L=0x60; T1CONbits.TMR1ON = 1; break;
  6159  01EC  30D7               	movlw	215
  6160  01ED  2A4F               	goto	L45
  6161  01EE                     i1l5857:	
  6162                           ;two_dimmmer_1+fan.c: 401: case '3':
  6163                           
  6164                           
  6165                           ;two_dimmmer_1+fan.c: 402: TMR1H=0xD8; TMR1L=0xF0; T1CONbits.TMR1ON = 1; break;
  6166  01EE  30D8               	movlw	216
  6167  01EF  2A53               	goto	L46
  6168  01F0                     i1l5861:	
  6169                           ;two_dimmmer_1+fan.c: 403: case '4':
  6170                           
  6171                           
  6172                           ;two_dimmmer_1+fan.c: 404: TMR1H=0xDA; TMR1L=0x80; T1CONbits.TMR1ON = 1; break;
  6173  01F0  30DA               	movlw	218
  6174  01F1  2A57               	goto	L47
  6175  01F2                     i1l5865:	
  6176                           ;two_dimmmer_1+fan.c: 405: case '5':
  6177                           
  6178                           
  6179                           ;two_dimmmer_1+fan.c: 406: TMR1H=0xDC; TMR1L=0x10; T1CONbits.TMR1ON = 1; break;
  6180  01F2  30DC               	movlw	220
  6181  01F3  2A5B               	goto	L48
  6182  01F4                     i1l5869:	
  6183                           ;two_dimmmer_1+fan.c: 407: case '6':
  6184                           
  6185                           
  6186                           ;two_dimmmer_1+fan.c: 408: TMR1H=0xDD; TMR1L=0xA0; T1CONbits.TMR1ON = 1; break;
  6187  01F4  30DD               	movlw	221
  6188  01F5  2A5F               	goto	L49
  6189  01F6                     i1l5873:	
  6190                           ;two_dimmmer_1+fan.c: 409: case '7':
  6191                           
  6192                           
  6193                           ;two_dimmmer_1+fan.c: 410: TMR1H=0xDF; TMR1L=0x30; T1CONbits.TMR1ON = 1; break;
  6194  01F6  30DF               	movlw	223
  6195  01F7  2A63               	goto	L50
  6196  01F8                     i1l5877:	
  6197                           ;two_dimmmer_1+fan.c: 411: case '8':
  6198                           
  6199                           
  6200                           ;two_dimmmer_1+fan.c: 412: TMR1H=0xE0; TMR1L=0xC0; T1CONbits.TMR1ON = 1; break;
  6201  01F8  30E0               	movlw	224
  6202  01F9  2A67               	goto	L51
  6203  01FA                     i1l5881:	
  6204                           ;two_dimmmer_1+fan.c: 413: case '9':
  6205                           
  6206                           
  6207                           ;two_dimmmer_1+fan.c: 414: TMR1H=0xE2; TMR1L=0x50; T1CONbits.TMR1ON = 1; break;
  6208  01FA  30E2               	movlw	226
  6209  01FB  2A6B               	goto	L52
  6210  01FC                     i1l5887:	
  6211                           ;two_dimmmer_1+fan.c: 417: }
  6212                           
  6213                           ;two_dimmmer_1+fan.c: 416: break;
  6214                           
  6215                           ;two_dimmmer_1+fan.c: 415: default:
  6216                           
  6217                           
  6218                           ; Switch on 2 bytes has been partitioned into a top level switch of size 1, and 1 sub-sw
      +                          itches
  6219                           ; Switch size 1, requested type "space"
  6220                           ; Number of cases is 1, Range of values is 0 to 0
  6221                           ; switch strategies available:
  6222                           ; Name         Instructions Cycles
  6223                           ; simple_byte            4     3 (average)
  6224                           ; direct_byte            8     6 (fixed)
  6225                           ; jumptable            260     6 (fixed)
  6226                           ;	Chosen strategy is simple_byte
  6227  01FC  0020               	movlb	0	; select bank0
  6228  01FD  0856               	movf	_FAN_SPEED1_1s+1,w
  6229  01FE  3A00               	xorlw	0	; case 0
  6230  01FF  1903               	skipnz
  6231  0200  2A02               	goto	i1l10955
  6232  0201  2A9B               	goto	i1l284
  6233  0202                     i1l10955:	
  6234                           
  6235                           ; Switch size 1, requested type "space"
  6236                           ; Number of cases is 10, Range of values is 48 to 57
  6237                           ; switch strategies available:
  6238                           ; Name         Instructions Cycles
  6239                           ; direct_byte           29     9 (fixed)
  6240                           ; simple_byte           31    16 (average)
  6241                           ; jumptable            263     9 (fixed)
  6242                           ;	Chosen strategy is direct_byte
  6243  0202  0855               	movf	_FAN_SPEED1_1s,w
  6244  0203  3ED0               	addlw	-48
  6245  0204  1C03               	skipc
  6246  0205  2A9B               	goto	i1l284
  6247  0206  0084               	movwf	4
  6248  0207  300A               	movlw	10
  6249  0208  0204               	subwf	4,w
  6250  0209  1803               	skipnc
  6251  020A  2A9B               	goto	i1l284
  6252  020B  3190               	movlp	high i1S10957
  6253  020C  3504               	lslf	4,w
  6254  020D  3E00               	addlw	low i1S10957
  6255  020E  0082               	movwf	2
  6256                           
  6257                           ;two_dimmmer_1+fan.c: 418: break;
  6258  020F  2A9B               	goto	i1l284
  6259  0210                     i1l5889:	
  6260                           ;two_dimmmer_1+fan.c: 422: {
  6261                           ;two_dimmmer_1+fan.c: 423: case '0':
  6262                           
  6263                           ;two_dimmmer_1+fan.c: 421: switch(FAN_SPEED1_1s)
  6264                           
  6265                           ;two_dimmmer_1+fan.c: 419: case '8':
  6266                           
  6267                           
  6268                           ;two_dimmmer_1+fan.c: 424: TMR1H=0xE3; TMR1L=0xE0; T1CONbits.TMR1ON = 1; break;
  6269  0210  30E3               	movlw	227
  6270  0211  2A6F               	goto	L22
  6271  0212                     i1l5893:	
  6272                           ;two_dimmmer_1+fan.c: 425: case '1':
  6273                           
  6274                           
  6275                           ;two_dimmmer_1+fan.c: 426: TMR1H=0xE4; TMR1L=0xA8; T1CONbits.TMR1ON = 1; break;
  6276  0212  30E4               	movlw	228
  6277  0213                     L147:	
  6278  0213  0097               	movwf	23	;volatile
  6279  0214  30A8               	movlw	168
  6280  0215  2A71               	goto	L4
  6281  0216                     i1l5897:	
  6282                           ;two_dimmmer_1+fan.c: 427: case '2':
  6283                           
  6284                           
  6285                           ;two_dimmmer_1+fan.c: 428: TMR1H=0xE5; TMR1L=0x70; T1CONbits.TMR1ON = 1; break;
  6286  0216  30E5               	movlw	229
  6287  0217                     L38:	
  6288  0217  0097               	movwf	23	;volatile
  6289  0218  3070               	movlw	112
  6290  0219  2A71               	goto	L4
  6291  021A                     i1l5901:	
  6292                           ;two_dimmmer_1+fan.c: 429: case '3':
  6293                           
  6294                           
  6295                           ;two_dimmmer_1+fan.c: 430: TMR1H=0xE6; TMR1L=0x38; T1CONbits.TMR1ON = 1; break;
  6296  021A  30E6               	movlw	230
  6297  021B  0097               	movwf	23	;volatile
  6298  021C  3038               	movlw	56
  6299  021D  2A71               	goto	L4
  6300  021E                     i1l5905:	
  6301                           ;two_dimmmer_1+fan.c: 431: case '4':
  6302                           
  6303                           
  6304                           ;two_dimmmer_1+fan.c: 432: TMR1H=0xE7; TMR1L=0x00; T1CONbits.TMR1ON = 1; break;
  6305  021E  30E7               	movlw	231
  6306  021F                     L39:	
  6307  021F  0097               	movwf	23	;volatile
  6308  0220  0196               	clrf	22	;volatile
  6309  0221  2A72               	goto	i1l5973
  6310  0222                     i1l5911:	
  6311                           ;two_dimmmer_1+fan.c: 433: case '5':
  6312                           
  6313                           
  6314                           ;two_dimmmer_1+fan.c: 434: TMR1H=0xE8; TMR1L=0x90; T1CONbits.TMR1ON = 1; break;
  6315  0222  30E8               	movlw	232
  6316  0223                     L40:	
  6317  0223  0097               	movwf	23	;volatile
  6318  0224  3090               	movlw	144
  6319  0225  2A71               	goto	L4
  6320  0226                     i1l5915:	
  6321                           ;two_dimmmer_1+fan.c: 435: case '6':
  6322                           
  6323                           
  6324                           ;two_dimmmer_1+fan.c: 436: TMR1H=0xEA; TMR1L=0x20; T1CONbits.TMR1ON = 1; break;
  6325  0226  30EA               	movlw	234
  6326  0227                     L41:	
  6327  0227  0097               	movwf	23	;volatile
  6328  0228  3020               	movlw	32
  6329  0229  2A71               	goto	L4
  6330  022A                     i1l5919:	
  6331                           ;two_dimmmer_1+fan.c: 437: case '7':
  6332                           
  6333                           
  6334                           ;two_dimmmer_1+fan.c: 438: TMR1H=0xEB; TMR1L=0xB0; T1CONbits.TMR1ON = 1; break;
  6335  022A  30EB               	movlw	235
  6336  022B                     L42:	
  6337  022B  0097               	movwf	23	;volatile
  6338  022C  30B0               	movlw	176
  6339  022D  2A71               	goto	L4
  6340  022E                     i1l5923:	
  6341                           ;two_dimmmer_1+fan.c: 439: case '8':
  6342                           
  6343                           
  6344                           ;two_dimmmer_1+fan.c: 440: TMR1H=0xEC; TMR1L=0x78; T1CONbits.TMR1ON = 1; break;
  6345  022E  30EC               	movlw	236
  6346  022F                     L149:	
  6347  022F  0097               	movwf	23	;volatile
  6348  0230  3078               	movlw	120
  6349  0231  2A71               	goto	L4
  6350  0232                     i1l5927:	
  6351                           ;two_dimmmer_1+fan.c: 441: case '9':
  6352                           
  6353                           
  6354                           ;two_dimmmer_1+fan.c: 442: TMR1H=0xED; TMR1L=0x40; T1CONbits.TMR1ON = 1; break;
  6355  0232  30ED               	movlw	237
  6356  0233                     L43:	
  6357  0233  0097               	movwf	23	;volatile
  6358  0234  3040               	movlw	64
  6359  0235  2A71               	goto	L4
  6360  0236                     i1l5933:	
  6361                           ;two_dimmmer_1+fan.c: 445: }
  6362                           
  6363                           ;two_dimmmer_1+fan.c: 444: break;
  6364                           
  6365                           ;two_dimmmer_1+fan.c: 443: default:
  6366                           
  6367                           
  6368                           ; Switch on 2 bytes has been partitioned into a top level switch of size 1, and 1 sub-sw
      +                          itches
  6369                           ; Switch size 1, requested type "space"
  6370                           ; Number of cases is 1, Range of values is 0 to 0
  6371                           ; switch strategies available:
  6372                           ; Name         Instructions Cycles
  6373                           ; simple_byte            4     3 (average)
  6374                           ; direct_byte            8     6 (fixed)
  6375                           ; jumptable            260     6 (fixed)
  6376                           ;	Chosen strategy is simple_byte
  6377  0236  0020               	movlb	0	; select bank0
  6378  0237  0856               	movf	_FAN_SPEED1_1s+1,w
  6379  0238  3A00               	xorlw	0	; case 0
  6380  0239  1903               	skipnz
  6381  023A  2A3C               	goto	i1l10959
  6382  023B  2A9B               	goto	i1l284
  6383  023C                     i1l10959:	
  6384                           
  6385                           ; Switch size 1, requested type "space"
  6386                           ; Number of cases is 10, Range of values is 48 to 57
  6387                           ; switch strategies available:
  6388                           ; Name         Instructions Cycles
  6389                           ; direct_byte           29     9 (fixed)
  6390                           ; simple_byte           31    16 (average)
  6391                           ; jumptable            263     9 (fixed)
  6392                           ;	Chosen strategy is direct_byte
  6393  023C  0855               	movf	_FAN_SPEED1_1s,w
  6394  023D  3ED0               	addlw	-48
  6395  023E  1C03               	skipc
  6396  023F  2A9B               	goto	i1l284
  6397  0240  0084               	movwf	4
  6398  0241  300A               	movlw	10
  6399  0242  0204               	subwf	4,w
  6400  0243  1803               	skipnc
  6401  0244  2A9B               	goto	i1l284
  6402  0245  3190               	movlp	high i1S10961
  6403  0246  3504               	lslf	4,w
  6404  0247  3E14               	addlw	low i1S10961
  6405  0248  0082               	movwf	2
  6406                           
  6407                           ;two_dimmmer_1+fan.c: 446: break;
  6408  0249  2A9B               	goto	i1l284
  6409  024A                     i1l5935:	
  6410                           ;two_dimmmer_1+fan.c: 450: {
  6411                           ;two_dimmmer_1+fan.c: 451: case '0':
  6412                           
  6413                           ;two_dimmmer_1+fan.c: 449: switch(FAN_SPEED1_1s)
  6414                           
  6415                           ;two_dimmmer_1+fan.c: 447: case '9':
  6416                           
  6417                           
  6418                           ;two_dimmmer_1+fan.c: 452: TMR1H=0xEE; TMR1L=0xD0; T1CONbits.TMR1ON = 1; break;
  6419  024A  30EE               	movlw	238
  6420  024B                     L44:	
  6421  024B  0097               	movwf	23	;volatile
  6422  024C  30D0               	movlw	208
  6423  024D  2A71               	goto	L4
  6424  024E                     i1l5939:	
  6425                           ;two_dimmmer_1+fan.c: 453: case '1':
  6426                           
  6427                           
  6428                           ;two_dimmmer_1+fan.c: 454: TMR1H=0xF0; TMR1L=0x60; T1CONbits.TMR1ON = 1; break;
  6429  024E  30F0               	movlw	240
  6430  024F                     L45:	
  6431  024F  0097               	movwf	23	;volatile
  6432  0250  3060               	movlw	96
  6433  0251  2A71               	goto	L4
  6434  0252                     i1l5943:	
  6435                           ;two_dimmmer_1+fan.c: 455: case '2':
  6436                           
  6437                           
  6438                           ;two_dimmmer_1+fan.c: 456: TMR1H=0xF1; TMR1L=0xF0; T1CONbits.TMR1ON = 1; break;
  6439  0252  30F1               	movlw	241
  6440  0253                     L46:	
  6441  0253  0097               	movwf	23	;volatile
  6442  0254  30F0               	movlw	240
  6443  0255  2A71               	goto	L4
  6444  0256                     i1l5947:	
  6445                           ;two_dimmmer_1+fan.c: 457: case '3':
  6446                           
  6447                           
  6448                           ;two_dimmmer_1+fan.c: 458: TMR1H=0xF3; TMR1L=0x80; T1CONbits.TMR1ON = 1; break;
  6449  0256  30F3               	movlw	243
  6450  0257                     L47:	
  6451  0257  0097               	movwf	23	;volatile
  6452  0258  3080               	movlw	128
  6453  0259  2A71               	goto	L4
  6454  025A                     i1l5951:	
  6455                           ;two_dimmmer_1+fan.c: 459: case '4':
  6456                           
  6457                           
  6458                           ;two_dimmmer_1+fan.c: 460: TMR1H=0xF5; TMR1L=0x10; T1CONbits.TMR1ON = 1; break;
  6459  025A  30F5               	movlw	245
  6460  025B                     L48:	
  6461  025B  0097               	movwf	23	;volatile
  6462  025C  3010               	movlw	16
  6463  025D  2A71               	goto	L4
  6464  025E                     i1l5955:	
  6465                           ;two_dimmmer_1+fan.c: 461: case '5':
  6466                           
  6467                           
  6468                           ;two_dimmmer_1+fan.c: 462: TMR1H=0xF6; TMR1L=0xA0; T1CONbits.TMR1ON = 1; break;
  6469  025E  30F6               	movlw	246
  6470  025F                     L49:	
  6471  025F  0097               	movwf	23	;volatile
  6472  0260  30A0               	movlw	160
  6473  0261  2A71               	goto	L4
  6474  0262                     i1l5959:	
  6475                           ;two_dimmmer_1+fan.c: 463: case '6':
  6476                           
  6477                           
  6478                           ;two_dimmmer_1+fan.c: 464: TMR1H=0xF8; TMR1L=0x30; T1CONbits.TMR1ON = 1; break;
  6479  0262  30F8               	movlw	248
  6480  0263                     L50:	
  6481  0263  0097               	movwf	23	;volatile
  6482  0264  3030               	movlw	48
  6483  0265  2A71               	goto	L4
  6484  0266                     i1l5963:	
  6485                           ;two_dimmmer_1+fan.c: 465: case '7':
  6486                           
  6487                           
  6488                           ;two_dimmmer_1+fan.c: 466: TMR1H=0xF9; TMR1L=0xC0; T1CONbits.TMR1ON = 1; break;
  6489  0266  30F9               	movlw	249
  6490  0267                     L51:	
  6491  0267  0097               	movwf	23	;volatile
  6492  0268  30C0               	movlw	192
  6493  0269  2A71               	goto	L4
  6494  026A                     i1l5967:	
  6495                           ;two_dimmmer_1+fan.c: 467: case '8':
  6496                           
  6497                           
  6498                           ;two_dimmmer_1+fan.c: 468: TMR1H=0xFB; TMR1L=0x50; T1CONbits.TMR1ON = 1; break;
  6499  026A  30FB               	movlw	251
  6500  026B                     L52:	
  6501  026B  0097               	movwf	23	;volatile
  6502  026C  3050               	movlw	80
  6503  026D  2A71               	goto	L4
  6504  026E                     i1l5971:	
  6505                           ;two_dimmmer_1+fan.c: 469: case '9':
  6506                           
  6507                           
  6508                           ;two_dimmmer_1+fan.c: 470: TMR1H=0xFC; TMR1L=0xE0; T1CONbits.TMR1ON = 1; break;
  6509  026E  30FC               	movlw	252
  6510  026F                     L22:	
  6511  026F  0097               	movwf	23	;volatile
  6512  0270  30E0               	movlw	224
  6513  0271                     L4:	
  6514  0271  0096               	movwf	22	;volatile
  6515  0272                     i1l5973:	
  6516  0272  1418               	bsf	24,0	;volatile
  6517                           
  6518                           ;two_dimmmer_1+fan.c: 473: }
  6519                           
  6520                           ;two_dimmmer_1+fan.c: 472: break;
  6521                           
  6522                           ;two_dimmmer_1+fan.c: 471: default:
  6523  0273  2A9B               	goto	i1l284
  6524  0274                     i1l5977:	
  6525                           
  6526                           ; Switch on 2 bytes has been partitioned into a top level switch of size 1, and 1 sub-sw
      +                          itches
  6527                           ; Switch size 1, requested type "space"
  6528                           ; Number of cases is 1, Range of values is 0 to 0
  6529                           ; switch strategies available:
  6530                           ; Name         Instructions Cycles
  6531                           ; simple_byte            4     3 (average)
  6532                           ; direct_byte            8     6 (fixed)
  6533                           ; jumptable            260     6 (fixed)
  6534                           ;	Chosen strategy is simple_byte
  6535  0274  0020               	movlb	0	; select bank0
  6536  0275  0856               	movf	_FAN_SPEED1_1s+1,w
  6537  0276  3A00               	xorlw	0	; case 0
  6538  0277  1903               	skipnz
  6539  0278  2A7A               	goto	i1l10963
  6540  0279  2A9B               	goto	i1l284
  6541  027A                     i1l10963:	
  6542                           
  6543                           ; Switch size 1, requested type "space"
  6544                           ; Number of cases is 10, Range of values is 48 to 57
  6545                           ; switch strategies available:
  6546                           ; Name         Instructions Cycles
  6547                           ; direct_byte           29     9 (fixed)
  6548                           ; simple_byte           31    16 (average)
  6549                           ; jumptable            263     9 (fixed)
  6550                           ;	Chosen strategy is direct_byte
  6551  027A  0855               	movf	_FAN_SPEED1_1s,w
  6552  027B  3ED0               	addlw	-48
  6553  027C  1C03               	skipc
  6554  027D  2A9B               	goto	i1l284
  6555  027E  0084               	movwf	4
  6556  027F  300A               	movlw	10
  6557  0280  0204               	subwf	4,w
  6558  0281  1803               	skipnc
  6559  0282  2A9B               	goto	i1l284
  6560  0283  3190               	movlp	high i1S10965
  6561  0284  3504               	lslf	4,w
  6562  0285  3E28               	addlw	low i1S10965
  6563  0286  0082               	movwf	2
  6564                           
  6565                           ;two_dimmmer_1+fan.c: 477: }
  6566                           
  6567                           ;two_dimmmer_1+fan.c: 476: break;
  6568                           
  6569                           ;two_dimmmer_1+fan.c: 475: default:
  6570                           
  6571                           ;two_dimmmer_1+fan.c: 474: break;
  6572  0287  2A9B               	goto	i1l284
  6573  0288                     i1l5981:	
  6574                           
  6575                           ; Switch on 2 bytes has been partitioned into a top level switch of size 1, and 1 sub-sw
      +                          itches
  6576                           ; Switch size 1, requested type "space"
  6577                           ; Number of cases is 1, Range of values is 0 to 0
  6578                           ; switch strategies available:
  6579                           ; Name         Instructions Cycles
  6580                           ; simple_byte            4     3 (average)
  6581                           ; direct_byte            8     6 (fixed)
  6582                           ; jumptable            260     6 (fixed)
  6583                           ;	Chosen strategy is simple_byte
  6584  0288  0021               	movlb	1	; select bank1
  6585  0289  086B               	movf	(_FAN_SPEED1_10s+1)^(0+128),w
  6586  028A  3A00               	xorlw	0	; case 0
  6587  028B  1903               	skipnz
  6588  028C  2A8E               	goto	i1l10967
  6589  028D  2A9B               	goto	i1l284
  6590  028E                     i1l10967:	
  6591                           
  6592                           ; Switch size 1, requested type "space"
  6593                           ; Number of cases is 10, Range of values is 48 to 57
  6594                           ; switch strategies available:
  6595                           ; Name         Instructions Cycles
  6596                           ; direct_byte           29     9 (fixed)
  6597                           ; simple_byte           31    16 (average)
  6598                           ; jumptable            263     9 (fixed)
  6599                           ;	Chosen strategy is direct_byte
  6600  028E  086A               	movf	_FAN_SPEED1_10s^(0+128),w
  6601  028F  3ED0               	addlw	-48
  6602  0290  1C03               	skipc
  6603  0291  2A9B               	goto	i1l284
  6604  0292  0084               	movwf	4
  6605  0293  300A               	movlw	10
  6606  0294  0204               	subwf	4,w
  6607  0295  1803               	skipnc
  6608  0296  2A9B               	goto	i1l284
  6609  0297  3190               	movlp	high i1S10969
  6610  0298  3504               	lslf	4,w
  6611  0299  3E3C               	addlw	low i1S10969
  6612  029A  0082               	movwf	2
  6613  029B                     i1l284:	
  6614                           
  6615                           ;two_dimmmer_1+fan.c: 478: }
  6616                           ;two_dimmmer_1+fan.c: 479: PIR1bits.CCP1IF = 0;
  6617  029B  0020               	movlb	0	; select bank0
  6618  029C  1111               	bcf	17,2	;volatile
  6619  029D                     i1l283:	
  6620                           
  6621                           ;two_dimmmer_1+fan.c: 480: }
  6622                           ;two_dimmmer_1+fan.c: 481: if(PIR3bits.CCP3IF == 1)
  6623  029D  1E13               	btfss	19,4	;volatile
  6624  029E  2CB1               	goto	i1l428
  6625                           
  6626                           ;two_dimmmer_1+fan.c: 482: {
  6627                           ;two_dimmmer_1+fan.c: 483: PIR3bits.CCP3IF=0;
  6628  029F  1213               	bcf	19,4	;volatile
  6629                           
  6630                           ;two_dimmmer_1+fan.c: 485: if(FAN_FLAG2==1 && ak==1)
  6631  02A0  0021               	movlb	1	; select bank1
  6632  02A1  0360               	decf	_FAN_FLAG2^(0+128),w
  6633  02A2  0461               	iorwf	(_FAN_FLAG2+1)^(0+128),w
  6634  02A3  1D03               	btfss	3,2
  6635  02A4  2CAF               	goto	i1l429
  6636  02A5  0020               	movlb	0	; select bank0
  6637  02A6  0357               	decf	_ak,w
  6638  02A7  0458               	iorwf	_ak+1,w
  6639  02A8  1903               	btfsc	3,2
  6640  02A9  2C9C               	goto	i1l6443
  6641  02AA  2CAF               	goto	i1l429
  6642  02AB                     i1l5991:	
  6643                           ;two_dimmmer_1+fan.c: 492: {
  6644                           ;two_dimmmer_1+fan.c: 493: case '0':
  6645                           
  6646                           ;two_dimmmer_1+fan.c: 491: switch(FAN_SPEED2_1s)
  6647                           
  6648                           ;two_dimmmer_1+fan.c: 488: {
  6649                           ;two_dimmmer_1+fan.c: 489: case '0':
  6650                           
  6651                           ;two_dimmmer_1+fan.c: 486: {
  6652                           ;two_dimmmer_1+fan.c: 487: switch(FAN_SPEED2_10s)
  6653                           
  6654                           
  6655                           ;two_dimmmer_1+fan.c: 494: TMR3H=0x7B; TMR3L=0x30; T3CONbits.TMR3ON = 1; break;
  6656  02AB  307B               	movlw	123
  6657  02AC  2C73               	goto	L96
  6658  02AD                     i1l5995:	
  6659                           ;two_dimmmer_1+fan.c: 495: case '1':
  6660                           
  6661                           
  6662                           ;two_dimmmer_1+fan.c: 496: TMR3H=0x7C; TMR3L=0xC0; T3CONbits.TMR3ON = 1; break;
  6663  02AD  307C               	movlw	124
  6664  02AE  2C78               	goto	L97
  6665  02AF                     i1l5999:	
  6666                           ;two_dimmmer_1+fan.c: 497: case '2':
  6667                           
  6668                           
  6669                           ;two_dimmmer_1+fan.c: 498: TMR3H=0x7D; TMR3L=0x88; T3CONbits.TMR3ON = 1; break;
  6670  02AF  307D               	movlw	125
  6671  02B0  0028               	movlb	8	; select bank8
  6672  02B1  0092               	movwf	18	;volatile
  6673  02B2  3088               	movlw	136
  6674  02B3  2C85               	goto	L5
  6675  02B4                     i1l6003:	
  6676                           ;two_dimmmer_1+fan.c: 499: case '3':
  6677                           
  6678                           
  6679                           ;two_dimmmer_1+fan.c: 500: TMR3H=0x7F; TMR3L=0x18; T3CONbits.TMR3ON = 1; break;
  6680  02B4  307F               	movlw	127
  6681  02B5  0028               	movlb	8	; select bank8
  6682  02B6  0092               	movwf	18	;volatile
  6683  02B7  3018               	movlw	24
  6684  02B8  2C85               	goto	L5
  6685  02B9                     i1l6007:	
  6686                           ;two_dimmmer_1+fan.c: 501: case '4':
  6687                           
  6688                           
  6689                           ;two_dimmmer_1+fan.c: 502: TMR3H=0x80; TMR3L=0xA8; T3CONbits.TMR3ON = 1; break;
  6690  02B9  3080               	movlw	128
  6691  02BA  2C14               	goto	L152
  6692  02BB                     i1l6011:	
  6693                           ;two_dimmmer_1+fan.c: 503: case '5':
  6694                           
  6695                           
  6696                           ;two_dimmmer_1+fan.c: 504: TMR3H=0x81; TMR3L=0x70; T3CONbits.TMR3ON = 1; break;
  6697  02BB  3081               	movlw	129
  6698  02BC  2C19               	goto	L84
  6699  02BD                     i1l6015:	
  6700                           ;two_dimmmer_1+fan.c: 505: case '6':
  6701                           
  6702                           
  6703                           ;two_dimmmer_1+fan.c: 506: TMR3H=0x83; TMR3L=0x00; T3CONbits.TMR3ON = 1; break;
  6704  02BD  3083               	movlw	131
  6705  02BE  2C23               	goto	L85
  6706  02BF                     i1l6021:	
  6707                           ;two_dimmmer_1+fan.c: 507: case '7':
  6708                           
  6709                           
  6710                           ;two_dimmmer_1+fan.c: 508: TMR3H=0x83; TMR3L=0xC8; T3CONbits.TMR3ON = 1; break;
  6711  02BF  3083               	movlw	131
  6712  02C0  0028               	movlb	8	; select bank8
  6713  02C1  0092               	movwf	18	;volatile
  6714  02C2  30C8               	movlw	200
  6715  02C3  2C85               	goto	L5
  6716  02C4                     i1l6025:	
  6717                           ;two_dimmmer_1+fan.c: 509: case '8':
  6718                           
  6719  02C4  2AE5               	goto	i1l6045
  6720  02C5                     i1l6029:	
  6721                           ;two_dimmmer_1+fan.c: 511: case '9':
  6722                           
  6723                           ;two_dimmmer_1+fan.c: 510: TMR3H=0x87; TMR3L=0xB0; T3CONbits.TMR3ON = 1; break;
  6724                           
  6725                           
  6726                           ;two_dimmmer_1+fan.c: 512: TMR3H=0x85; TMR3L=0x58; T3CONbits.TMR3ON = 1; break;
  6727  02C5  3085               	movlw	133
  6728  02C6  0028               	movlb	8	; select bank8
  6729  02C7  0092               	movwf	18	;volatile
  6730  02C8  3058               	movlw	88
  6731  02C9  2C85               	goto	L5
  6732  02CA                     i1l6035:	
  6733                           ;two_dimmmer_1+fan.c: 515: }
  6734                           
  6735                           ;two_dimmmer_1+fan.c: 514: break;
  6736                           
  6737                           ;two_dimmmer_1+fan.c: 513: default:
  6738                           
  6739                           
  6740                           ; Switch on 2 bytes has been partitioned into a top level switch of size 1, and 1 sub-sw
      +                          itches
  6741                           ; Switch size 1, requested type "space"
  6742                           ; Number of cases is 1, Range of values is 0 to 0
  6743                           ; switch strategies available:
  6744                           ; Name         Instructions Cycles
  6745                           ; simple_byte            4     3 (average)
  6746                           ; direct_byte            8     6 (fixed)
  6747                           ; jumptable            260     6 (fixed)
  6748                           ;	Chosen strategy is simple_byte
  6749  02CA  0020               	movlb	0	; select bank0
  6750  02CB  0854               	movf	_FAN_SPEED2_1s+1,w
  6751  02CC  3A00               	xorlw	0	; case 0
  6752  02CD  1903               	skipnz
  6753  02CE  2AD0               	goto	i1l10971
  6754  02CF  2CAF               	goto	i1l429
  6755  02D0                     i1l10971:	
  6756                           
  6757                           ; Switch size 1, requested type "space"
  6758                           ; Number of cases is 10, Range of values is 48 to 57
  6759                           ; switch strategies available:
  6760                           ; Name         Instructions Cycles
  6761                           ; direct_byte           29     9 (fixed)
  6762                           ; simple_byte           31    16 (average)
  6763                           ; jumptable            263     9 (fixed)
  6764                           ;	Chosen strategy is direct_byte
  6765  02D0  0853               	movf	_FAN_SPEED2_1s,w
  6766  02D1  3ED0               	addlw	-48
  6767  02D2  1C03               	skipc
  6768  02D3  2CAF               	goto	i1l429
  6769  02D4  0084               	movwf	4
  6770  02D5  300A               	movlw	10
  6771  02D6  0204               	subwf	4,w
  6772  02D7  1803               	skipnc
  6773  02D8  2CAF               	goto	i1l429
  6774  02D9  3190               	movlp	high i1S10973
  6775  02DA  3504               	lslf	4,w
  6776  02DB  3E50               	addlw	low i1S10973
  6777  02DC  0082               	movwf	2
  6778                           
  6779                           ;two_dimmmer_1+fan.c: 516: break;
  6780  02DD  2CAF               	goto	i1l429
  6781  02DE                     i1l6037:	
  6782                           ;two_dimmmer_1+fan.c: 520: {
  6783                           ;two_dimmmer_1+fan.c: 521: case '0':
  6784                           
  6785                           ;two_dimmmer_1+fan.c: 519: switch(FAN_SPEED2_1s)
  6786                           
  6787                           ;two_dimmmer_1+fan.c: 517: case '1':
  6788                           
  6789                           
  6790                           ;two_dimmmer_1+fan.c: 522: TMR3H=0x86; TMR3L=0x20; T3CONbits.TMR3ON = 1; break;
  6791  02DE  3086               	movlw	134
  6792  02DF  2C2D               	goto	L87
  6793  02E0                     i1l6041:	
  6794                           ;two_dimmmer_1+fan.c: 523: case '1':
  6795                           
  6796                           
  6797                           ;two_dimmmer_1+fan.c: 524: TMR3H=0x86; TMR3L=0xE8; T3CONbits.TMR3ON = 1; break;
  6798  02E0  3086               	movlw	134
  6799  02E1  0028               	movlb	8	; select bank8
  6800  02E2  0092               	movwf	18	;volatile
  6801  02E3  30E8               	movlw	232
  6802  02E4  2C85               	goto	L5
  6803  02E5                     i1l6045:	
  6804                           ;two_dimmmer_1+fan.c: 525: case '2':
  6805                           
  6806                           
  6807                           ;two_dimmmer_1+fan.c: 526: TMR3H=0x87; TMR3L=0xB0; T3CONbits.TMR3ON = 1; break;
  6808  02E5  3087               	movlw	135
  6809  02E6  2C32               	goto	L88
  6810  02E7                     i1l6049:	
  6811                           ;two_dimmmer_1+fan.c: 527: case '3':
  6812                           
  6813                           
  6814                           ;two_dimmmer_1+fan.c: 528: TMR3H=0x88; TMR3L=0x78; T3CONbits.TMR3ON = 1; break;
  6815  02E7  3088               	movlw	136
  6816  02E8  2C37               	goto	L154
  6817  02E9                     i1l6053:	
  6818                           ;two_dimmmer_1+fan.c: 529: case '4':
  6819                           
  6820                           
  6821                           ;two_dimmmer_1+fan.c: 530: TMR3H=0x89; TMR3L=0x40; T3CONbits.TMR3ON = 1; break;
  6822  02E9  3089               	movlw	137
  6823  02EA  2C3C               	goto	L89
  6824  02EB                     i1l6057:	
  6825                           ;two_dimmmer_1+fan.c: 531: case '5':
  6826                           
  6827                           
  6828                           ;two_dimmmer_1+fan.c: 532: TMR3H=0x8A; TMR3L=0x08; T3CONbits.TMR3ON = 1; break;
  6829  02EB  308A               	movlw	138
  6830  02EC  0028               	movlb	8	; select bank8
  6831  02ED  0092               	movwf	18	;volatile
  6832  02EE  3008               	movlw	8
  6833  02EF  2C85               	goto	L5
  6834  02F0                     i1l6061:	
  6835                           ;two_dimmmer_1+fan.c: 533: case '6':
  6836                           
  6837                           
  6838                           ;two_dimmmer_1+fan.c: 534: TMR3H=0x8A; TMR3L=0xD0; T3CONbits.TMR3ON = 1; break;
  6839  02F0  308A               	movlw	138
  6840  02F1  2C55               	goto	L90
  6841  02F2                     i1l6065:	
  6842                           ;two_dimmmer_1+fan.c: 535: case '7':
  6843                           
  6844                           
  6845                           ;two_dimmmer_1+fan.c: 536: TMR3H=0x8B; TMR3L=0x98; T3CONbits.TMR3ON = 1; break;
  6846  02F2  308B               	movlw	139
  6847  02F3  0028               	movlb	8	; select bank8
  6848  02F4  0092               	movwf	18	;volatile
  6849  02F5  3098               	movlw	152
  6850  02F6  2C85               	goto	L5
  6851  02F7                     i1l6069:	
  6852                           ;two_dimmmer_1+fan.c: 537: case '8':
  6853                           
  6854                           
  6855                           ;two_dimmmer_1+fan.c: 538: TMR3H=0x8C; TMR3L=0x60; T3CONbits.TMR3ON = 1; break;
  6856  02F7  308C               	movlw	140
  6857  02F8  2C5A               	goto	L91
  6858  02F9                     i1l6073:	
  6859                           ;two_dimmmer_1+fan.c: 539: case '9':
  6860                           
  6861                           
  6862                           ;two_dimmmer_1+fan.c: 540: TMR3H=0x8D; TMR3L=0x28; T3CONbits.TMR3ON = 1; break;
  6863  02F9  308D               	movlw	141
  6864  02FA  0028               	movlb	8	; select bank8
  6865  02FB  0092               	movwf	18	;volatile
  6866  02FC  3028               	movlw	40
  6867  02FD  2C85               	goto	L5
  6868  02FE                     i1l6079:	
  6869                           ;two_dimmmer_1+fan.c: 543: }
  6870                           
  6871                           ;two_dimmmer_1+fan.c: 542: break;
  6872                           
  6873                           ;two_dimmmer_1+fan.c: 541: default:
  6874                           
  6875                           
  6876                           ; Switch on 2 bytes has been partitioned into a top level switch of size 1, and 1 sub-sw
      +                          itches
  6877                           ; Switch size 1, requested type "space"
  6878                           ; Number of cases is 1, Range of values is 0 to 0
  6879                           ; switch strategies available:
  6880                           ; Name         Instructions Cycles
  6881                           ; simple_byte            4     3 (average)
  6882                           ; direct_byte            8     6 (fixed)
  6883                           ; jumptable            260     6 (fixed)
  6884                           ;	Chosen strategy is simple_byte
  6885  02FE  0020               	movlb	0	; select bank0
  6886  02FF  0854               	movf	_FAN_SPEED2_1s+1,w
  6887  0300  3A00               	xorlw	0	; case 0
  6888  0301  1903               	skipnz
  6889  0302  2B04               	goto	i1l10975
  6890  0303  2CAF               	goto	i1l429
  6891  0304                     i1l10975:	
  6892                           
  6893                           ; Switch size 1, requested type "space"
  6894                           ; Number of cases is 10, Range of values is 48 to 57
  6895                           ; switch strategies available:
  6896                           ; Name         Instructions Cycles
  6897                           ; direct_byte           29     9 (fixed)
  6898                           ; simple_byte           31    16 (average)
  6899                           ; jumptable            263     9 (fixed)
  6900                           ;	Chosen strategy is direct_byte
  6901  0304  0853               	movf	_FAN_SPEED2_1s,w
  6902  0305  3ED0               	addlw	-48
  6903  0306  1C03               	skipc
  6904  0307  2CAF               	goto	i1l429
  6905  0308  0084               	movwf	4
  6906  0309  300A               	movlw	10
  6907  030A  0204               	subwf	4,w
  6908  030B  1803               	skipnc
  6909  030C  2CAF               	goto	i1l429
  6910  030D  3190               	movlp	high i1S10977
  6911  030E  3504               	lslf	4,w
  6912  030F  3E64               	addlw	low i1S10977
  6913  0310  0082               	movwf	2
  6914                           
  6915                           ;two_dimmmer_1+fan.c: 544: break;
  6916  0311  2CAF               	goto	i1l429
  6917  0312                     i1l6081:	
  6918                           ;two_dimmmer_1+fan.c: 548: {
  6919                           ;two_dimmmer_1+fan.c: 549: case '0':
  6920                           
  6921                           ;two_dimmmer_1+fan.c: 547: switch(FAN_SPEED2_1s)
  6922                           
  6923                           ;two_dimmmer_1+fan.c: 545: case '2':
  6924                           
  6925                           
  6926                           ;two_dimmmer_1+fan.c: 550: TMR3H=0x8D; TMR3L=0xF0; T3CONbits.TMR3ON = 1; break;
  6927  0312  308D               	movlw	141
  6928  0313  2C5F               	goto	L92
  6929  0314                     i1l6085:	
  6930                           ;two_dimmmer_1+fan.c: 551: case '1':
  6931                           
  6932                           
  6933                           ;two_dimmmer_1+fan.c: 552: TMR3H=0x8E; TMR3L=0xB8; T3CONbits.TMR3ON = 1; break;
  6934  0314  308E               	movlw	142
  6935  0315  0028               	movlb	8	; select bank8
  6936  0316  0092               	movwf	18	;volatile
  6937  0317  30B8               	movlw	184
  6938  0318  2C85               	goto	L5
  6939  0319                     i1l6089:	
  6940                           ;two_dimmmer_1+fan.c: 553: case '2':
  6941                           
  6942                           
  6943                           ;two_dimmmer_1+fan.c: 554: TMR3H=0x8F; TMR3L=0x80; T3CONbits.TMR3ON = 1; break;
  6944  0319  308F               	movlw	143
  6945  031A  2C64               	goto	L93
  6946  031B                     i1l6093:	
  6947                           ;two_dimmmer_1+fan.c: 555: case '3':
  6948                           
  6949                           
  6950                           ;two_dimmmer_1+fan.c: 556: TMR3H=0x90; TMR3L=0x48; T3CONbits.TMR3ON = 1; break;
  6951  031B  3090               	movlw	144
  6952  031C  0028               	movlb	8	; select bank8
  6953  031D  0092               	movwf	18	;volatile
  6954  031E  3048               	movlw	72
  6955  031F  2C85               	goto	L5
  6956  0320                     i1l6097:	
  6957                           ;two_dimmmer_1+fan.c: 557: case '4':
  6958                           
  6959                           
  6960                           ;two_dimmmer_1+fan.c: 558: TMR3H=0x91; TMR3L=0x10; T3CONbits.TMR3ON = 1; break;
  6961  0320  3091               	movlw	145
  6962  0321  2C69               	goto	L94
  6963  0322                     i1l6101:	
  6964                           ;two_dimmmer_1+fan.c: 559: case '5':
  6965                           
  6966                           
  6967                           ;two_dimmmer_1+fan.c: 560: TMR3H=0x91; TMR3L=0xD8; T3CONbits.TMR3ON = 1; break;
  6968  0322  3091               	movlw	145
  6969  0323  0028               	movlb	8	; select bank8
  6970  0324  0092               	movwf	18	;volatile
  6971  0325  30D8               	movlw	216
  6972  0326  2C85               	goto	L5
  6973  0327                     i1l6105:	
  6974                           ;two_dimmmer_1+fan.c: 561: case '6':
  6975                           
  6976                           
  6977                           ;two_dimmmer_1+fan.c: 562: TMR3H=0x92; TMR3L=0xA0; T3CONbits.TMR3ON = 1; break;
  6978  0327  3092               	movlw	146
  6979  0328  2C6E               	goto	L95
  6980  0329                     i1l6109:	
  6981                           ;two_dimmmer_1+fan.c: 563: case '7':
  6982                           
  6983                           
  6984                           ;two_dimmmer_1+fan.c: 564: TMR3H=0x93; TMR3L=0x68; T3CONbits.TMR3ON = 1; break;
  6985  0329  3093               	movlw	147
  6986  032A  0028               	movlb	8	; select bank8
  6987  032B  0092               	movwf	18	;volatile
  6988  032C  3068               	movlw	104
  6989  032D  2C85               	goto	L5
  6990  032E                     i1l6113:	
  6991                           ;two_dimmmer_1+fan.c: 565: case '8':
  6992                           
  6993                           
  6994                           ;two_dimmmer_1+fan.c: 566: TMR3H=0x94; TMR3L=0x30; T3CONbits.TMR3ON = 1; break;
  6995  032E  3094               	movlw	148
  6996  032F  2C73               	goto	L96
  6997  0330                     i1l6117:	
  6998                           ;two_dimmmer_1+fan.c: 567: case '9':
  6999                           
  7000                           
  7001                           ;two_dimmmer_1+fan.c: 568: TMR3H=0x94; TMR3L=0xF8; T3CONbits.TMR3ON = 1; break;
  7002  0330  3094               	movlw	148
  7003  0331  0028               	movlb	8	; select bank8
  7004  0332  0092               	movwf	18	;volatile
  7005  0333  30F8               	movlw	248
  7006  0334  2C85               	goto	L5
  7007  0335                     i1l6123:	
  7008                           ;two_dimmmer_1+fan.c: 571: }
  7009                           
  7010                           ;two_dimmmer_1+fan.c: 570: break;
  7011                           
  7012                           ;two_dimmmer_1+fan.c: 569: default:
  7013                           
  7014                           
  7015                           ; Switch on 2 bytes has been partitioned into a top level switch of size 1, and 1 sub-sw
      +                          itches
  7016                           ; Switch size 1, requested type "space"
  7017                           ; Number of cases is 1, Range of values is 0 to 0
  7018                           ; switch strategies available:
  7019                           ; Name         Instructions Cycles
  7020                           ; simple_byte            4     3 (average)
  7021                           ; direct_byte            8     6 (fixed)
  7022                           ; jumptable            260     6 (fixed)
  7023                           ;	Chosen strategy is simple_byte
  7024  0335  0020               	movlb	0	; select bank0
  7025  0336  0854               	movf	_FAN_SPEED2_1s+1,w
  7026  0337  3A00               	xorlw	0	; case 0
  7027  0338  1903               	skipnz
  7028  0339  2B3B               	goto	i1l10979
  7029  033A  2CAF               	goto	i1l429
  7030  033B                     i1l10979:	
  7031                           
  7032                           ; Switch size 1, requested type "space"
  7033                           ; Number of cases is 10, Range of values is 48 to 57
  7034                           ; switch strategies available:
  7035                           ; Name         Instructions Cycles
  7036                           ; direct_byte           29     9 (fixed)
  7037                           ; simple_byte           31    16 (average)
  7038                           ; jumptable            263     9 (fixed)
  7039                           ;	Chosen strategy is direct_byte
  7040  033B  0853               	movf	_FAN_SPEED2_1s,w
  7041  033C  3ED0               	addlw	-48
  7042  033D  1C03               	skipc
  7043  033E  2CAF               	goto	i1l429
  7044  033F  0084               	movwf	4
  7045  0340  300A               	movlw	10
  7046  0341  0204               	subwf	4,w
  7047  0342  1803               	skipnc
  7048  0343  2CAF               	goto	i1l429
  7049  0344  3190               	movlp	high i1S10981
  7050  0345  3504               	lslf	4,w
  7051  0346  3E78               	addlw	low i1S10981
  7052  0347  0082               	movwf	2
  7053                           
  7054                           ;two_dimmmer_1+fan.c: 572: break;
  7055  0348  2CAF               	goto	i1l429
  7056  0349                     i1l6125:	
  7057                           ;two_dimmmer_1+fan.c: 576: {
  7058                           ;two_dimmmer_1+fan.c: 577: case '0':
  7059                           
  7060                           ;two_dimmmer_1+fan.c: 575: switch(FAN_SPEED2_1s)
  7061                           
  7062                           ;two_dimmmer_1+fan.c: 573: case '3':
  7063                           
  7064                           
  7065                           ;two_dimmmer_1+fan.c: 578: TMR3H=0x95; TMR3L=0xC0; T3CONbits.TMR3ON = 1; break;
  7066  0349  3095               	movlw	149
  7067  034A  2C78               	goto	L97
  7068  034B                     i1l6129:	
  7069                           ;two_dimmmer_1+fan.c: 579: case '1':
  7070                           
  7071                           
  7072                           ;two_dimmmer_1+fan.c: 580: TMR3H=0x97; TMR3L=0x50; T3CONbits.TMR3ON = 1; break;
  7073  034B  3097               	movlw	151
  7074  034C  2C7D               	goto	L98
  7075  034D                     i1l6133:	
  7076                           ;two_dimmmer_1+fan.c: 581: case '2':
  7077                           
  7078                           
  7079                           ;two_dimmmer_1+fan.c: 582: TMR3H=0x98; TMR3L=0xE0; T3CONbits.TMR3ON = 1; break;
  7080  034D  3098               	movlw	152
  7081  034E  2C82               	goto	L68
  7082  034F                     i1l6137:	
  7083                           ;two_dimmmer_1+fan.c: 583: case '3':
  7084                           
  7085                           
  7086                           ;two_dimmmer_1+fan.c: 584: TMR3H=0x9A; TMR3L=0x70; T3CONbits.TMR3ON = 1; break;
  7087  034F  309A               	movlw	154
  7088  0350  2C19               	goto	L84
  7089  0351                     i1l6141:	
  7090                           ;two_dimmmer_1+fan.c: 585: case '4':
  7091                           
  7092                           
  7093                           ;two_dimmmer_1+fan.c: 586: TMR3H=0x9C; TMR3L=0x00; T3CONbits.TMR3ON = 1; break;
  7094  0351  309C               	movlw	156
  7095  0352  2C23               	goto	L85
  7096  0353                     i1l6147:	
  7097                           ;two_dimmmer_1+fan.c: 587: case '5':
  7098                           
  7099                           
  7100                           ;two_dimmmer_1+fan.c: 588: TMR3H=0x9D; TMR3L=0x90; T3CONbits.TMR3ON = 1; break;
  7101  0353  309D               	movlw	157
  7102  0354  2C28               	goto	L86
  7103  0355                     i1l6151:	
  7104                           ;two_dimmmer_1+fan.c: 589: case '6':
  7105                           
  7106                           
  7107                           ;two_dimmmer_1+fan.c: 590: TMR3H=0x9F; TMR3L=0x20; T3CONbits.TMR3ON = 1; break;
  7108  0355  309F               	movlw	159
  7109  0356  2C2D               	goto	L87
  7110  0357                     i1l6155:	
  7111                           ;two_dimmmer_1+fan.c: 591: case '7':
  7112                           
  7113                           
  7114                           ;two_dimmmer_1+fan.c: 592: TMR3H=0xA0; TMR3L=0xB0; T3CONbits.TMR3ON = 1; break;
  7115  0357  30A0               	movlw	160
  7116  0358  2C32               	goto	L88
  7117  0359                     i1l6159:	
  7118                           ;two_dimmmer_1+fan.c: 593: case '8':
  7119                           
  7120                           
  7121                           ;two_dimmmer_1+fan.c: 594: TMR3H=0xA2; TMR3L=0x40; T3CONbits.TMR3ON = 1; break;
  7122  0359  30A2               	movlw	162
  7123  035A  2C3C               	goto	L89
  7124  035B                     i1l6163:	
  7125                           ;two_dimmmer_1+fan.c: 595: case '9':
  7126                           
  7127                           
  7128                           ;two_dimmmer_1+fan.c: 596: TMR3H=0xA3; TMR3L=0xD0; T3CONbits.TMR3ON = 1; break;
  7129  035B  30A3               	movlw	163
  7130  035C  2C55               	goto	L90
  7131  035D                     i1l6169:	
  7132                           ;two_dimmmer_1+fan.c: 599: }
  7133                           
  7134                           ;two_dimmmer_1+fan.c: 598: break;
  7135                           
  7136                           ;two_dimmmer_1+fan.c: 597: default:
  7137                           
  7138                           
  7139                           ; Switch on 2 bytes has been partitioned into a top level switch of size 1, and 1 sub-sw
      +                          itches
  7140                           ; Switch size 1, requested type "space"
  7141                           ; Number of cases is 1, Range of values is 0 to 0
  7142                           ; switch strategies available:
  7143                           ; Name         Instructions Cycles
  7144                           ; simple_byte            4     3 (average)
  7145                           ; direct_byte            8     6 (fixed)
  7146                           ; jumptable            260     6 (fixed)
  7147                           ;	Chosen strategy is simple_byte
  7148  035D  0020               	movlb	0	; select bank0
  7149  035E  0854               	movf	_FAN_SPEED2_1s+1,w
  7150  035F  3A00               	xorlw	0	; case 0
  7151  0360  1903               	skipnz
  7152  0361  2B63               	goto	i1l10983
  7153  0362  2CAF               	goto	i1l429
  7154  0363                     i1l10983:	
  7155                           
  7156                           ; Switch size 1, requested type "space"
  7157                           ; Number of cases is 10, Range of values is 48 to 57
  7158                           ; switch strategies available:
  7159                           ; Name         Instructions Cycles
  7160                           ; direct_byte           29     9 (fixed)
  7161                           ; simple_byte           31    16 (average)
  7162                           ; jumptable            263     9 (fixed)
  7163                           ;	Chosen strategy is direct_byte
  7164  0363  0853               	movf	_FAN_SPEED2_1s,w
  7165  0364  3ED0               	addlw	-48
  7166  0365  1C03               	skipc
  7167  0366  2CAF               	goto	i1l429
  7168  0367  0084               	movwf	4
  7169  0368  300A               	movlw	10
  7170  0369  0204               	subwf	4,w
  7171  036A  1803               	skipnc
  7172  036B  2CAF               	goto	i1l429
  7173  036C  3190               	movlp	high i1S10985
  7174  036D  3504               	lslf	4,w
  7175  036E  3E8C               	addlw	low i1S10985
  7176  036F  0082               	movwf	2
  7177                           
  7178                           ;two_dimmmer_1+fan.c: 600: break;
  7179  0370  2CAF               	goto	i1l429
  7180  0371                     i1l6171:	
  7181                           ;two_dimmmer_1+fan.c: 604: {
  7182                           ;two_dimmmer_1+fan.c: 605: case '0':
  7183                           
  7184                           ;two_dimmmer_1+fan.c: 603: switch(FAN_SPEED2_1s)
  7185                           
  7186                           ;two_dimmmer_1+fan.c: 601: case '4':
  7187                           
  7188                           
  7189                           ;two_dimmmer_1+fan.c: 606: TMR3H=0xA5; TMR3L=0x60; T3CONbits.TMR3ON = 1; break;
  7190  0371  30A5               	movlw	165
  7191  0372  2C5A               	goto	L91
  7192  0373                     i1l6175:	
  7193                           ;two_dimmmer_1+fan.c: 607: case '1':
  7194                           
  7195                           
  7196                           ;two_dimmmer_1+fan.c: 608: TMR3H=0xA6; TMR3L=0xF0; T3CONbits.TMR3ON = 1; break;
  7197  0373  30A6               	movlw	166
  7198  0374  2C5F               	goto	L92
  7199  0375                     i1l6179:	
  7200                           ;two_dimmmer_1+fan.c: 609: case '2':
  7201                           
  7202                           
  7203                           ;two_dimmmer_1+fan.c: 610: TMR3H=0xA8; TMR3L=0x80; T3CONbits.TMR3ON = 1; break;
  7204  0375  30A8               	movlw	168
  7205  0376  2C64               	goto	L93
  7206  0377                     i1l6183:	
  7207                           ;two_dimmmer_1+fan.c: 611: case '3':
  7208                           
  7209                           
  7210                           ;two_dimmmer_1+fan.c: 612: TMR3H=0xAA; TMR3L=0x10; T3CONbits.TMR3ON = 1; break;
  7211  0377  30AA               	movlw	170
  7212  0378  2C69               	goto	L94
  7213  0379                     i1l6187:	
  7214                           ;two_dimmmer_1+fan.c: 613: case '4':
  7215                           
  7216                           
  7217                           ;two_dimmmer_1+fan.c: 614: TMR3H=0xAB; TMR3L=0xA0; T3CONbits.TMR3ON = 1; break;
  7218  0379  30AB               	movlw	171
  7219  037A  2C6E               	goto	L95
  7220  037B                     i1l6191:	
  7221                           ;two_dimmmer_1+fan.c: 615: case '5':
  7222                           
  7223                           
  7224                           ;two_dimmmer_1+fan.c: 616: TMR3H=0xAD; TMR3L=0x30; T3CONbits.TMR3ON = 1; break;
  7225  037B  30AD               	movlw	173
  7226  037C  2C73               	goto	L96
  7227  037D                     i1l6195:	
  7228                           ;two_dimmmer_1+fan.c: 617: case '6':
  7229                           
  7230                           
  7231                           ;two_dimmmer_1+fan.c: 618: TMR3H=0xAE; TMR3L=0xC0; T3CONbits.TMR3ON = 1; break;
  7232  037D  30AE               	movlw	174
  7233  037E  2C78               	goto	L97
  7234  037F                     i1l6199:	
  7235                           ;two_dimmmer_1+fan.c: 619: case '7':
  7236                           
  7237                           
  7238                           ;two_dimmmer_1+fan.c: 620: TMR3H=0xB0; TMR3L=0x50; T3CONbits.TMR3ON = 1; break;
  7239  037F  30B0               	movlw	176
  7240  0380  2C7D               	goto	L98
  7241  0381                     i1l6203:	
  7242                           ;two_dimmmer_1+fan.c: 621: case '8':
  7243                           
  7244                           
  7245                           ;two_dimmmer_1+fan.c: 622: TMR3H=0xB1; TMR3L=0xE0; T3CONbits.TMR3ON = 1; break;
  7246  0381  30B1               	movlw	177
  7247  0382  2C82               	goto	L68
  7248  0383                     i1l6207:	
  7249                           ;two_dimmmer_1+fan.c: 623: case '9':
  7250                           
  7251                           
  7252                           ;two_dimmmer_1+fan.c: 624: TMR3H=0xB3; TMR3L=0x70; T3CONbits.TMR3ON = 1; break;
  7253  0383  30B3               	movlw	179
  7254  0384  2C19               	goto	L84
  7255  0385                     i1l6213:	
  7256                           ;two_dimmmer_1+fan.c: 627: }
  7257                           
  7258                           ;two_dimmmer_1+fan.c: 626: break;
  7259                           
  7260                           ;two_dimmmer_1+fan.c: 625: default:
  7261                           
  7262                           
  7263                           ; Switch on 2 bytes has been partitioned into a top level switch of size 1, and 1 sub-sw
      +                          itches
  7264                           ; Switch size 1, requested type "space"
  7265                           ; Number of cases is 1, Range of values is 0 to 0
  7266                           ; switch strategies available:
  7267                           ; Name         Instructions Cycles
  7268                           ; simple_byte            4     3 (average)
  7269                           ; direct_byte            8     6 (fixed)
  7270                           ; jumptable            260     6 (fixed)
  7271                           ;	Chosen strategy is simple_byte
  7272  0385  0020               	movlb	0	; select bank0
  7273  0386  0854               	movf	_FAN_SPEED2_1s+1,w
  7274  0387  3A00               	xorlw	0	; case 0
  7275  0388  1903               	skipnz
  7276  0389  2B8B               	goto	i1l10987
  7277  038A  2CAF               	goto	i1l429
  7278  038B                     i1l10987:	
  7279                           
  7280                           ; Switch size 1, requested type "space"
  7281                           ; Number of cases is 10, Range of values is 48 to 57
  7282                           ; switch strategies available:
  7283                           ; Name         Instructions Cycles
  7284                           ; direct_byte           29     9 (fixed)
  7285                           ; simple_byte           31    16 (average)
  7286                           ; jumptable            263     9 (fixed)
  7287                           ;	Chosen strategy is direct_byte
  7288  038B  0853               	movf	_FAN_SPEED2_1s,w
  7289  038C  3ED0               	addlw	-48
  7290  038D  1C03               	skipc
  7291  038E  2CAF               	goto	i1l429
  7292  038F  0084               	movwf	4
  7293  0390  300A               	movlw	10
  7294  0391  0204               	subwf	4,w
  7295  0392  1803               	skipnc
  7296  0393  2CAF               	goto	i1l429
  7297  0394  3190               	movlp	high i1S10989
  7298  0395  3504               	lslf	4,w
  7299  0396  3EA0               	addlw	low i1S10989
  7300  0397  0082               	movwf	2
  7301                           
  7302                           ;two_dimmmer_1+fan.c: 628: break;
  7303  0398  2CAF               	goto	i1l429
  7304  0399                     i1l6215:	
  7305                           ;two_dimmmer_1+fan.c: 632: {
  7306                           ;two_dimmmer_1+fan.c: 633: case '0':
  7307                           
  7308                           ;two_dimmmer_1+fan.c: 631: switch(FAN_SPEED2_1s)
  7309                           
  7310                           ;two_dimmmer_1+fan.c: 629: case '5':
  7311                           
  7312                           
  7313                           ;two_dimmmer_1+fan.c: 634: TMR3H=0xB5; TMR3L=0x00; T3CONbits.TMR3ON = 1; break;
  7314  0399  30B5               	movlw	181
  7315  039A  2C23               	goto	L85
  7316  039B                     i1l6221:	
  7317                           ;two_dimmmer_1+fan.c: 635: case '1':
  7318                           
  7319                           
  7320                           ;two_dimmmer_1+fan.c: 636: TMR3H=0xB6; TMR3L=0x90; T3CONbits.TMR3ON = 1; break;
  7321  039B  30B6               	movlw	182
  7322  039C  2C28               	goto	L86
  7323  039D                     i1l6225:	
  7324                           ;two_dimmmer_1+fan.c: 637: case '2':
  7325                           
  7326                           
  7327                           ;two_dimmmer_1+fan.c: 638: TMR3H=0xB8; TMR3L=0x20; T3CONbits.TMR3ON = 1; break;
  7328  039D  30B8               	movlw	184
  7329  039E  2C2D               	goto	L87
  7330  039F                     i1l6229:	
  7331                           ;two_dimmmer_1+fan.c: 639: case '3':
  7332                           
  7333                           
  7334                           ;two_dimmmer_1+fan.c: 640: TMR3H=0xB9; TMR3L=0xB0; T3CONbits.TMR3ON = 1; break;
  7335  039F  30B9               	movlw	185
  7336  03A0  2C32               	goto	L88
  7337  03A1                     i1l6233:	
  7338                           ;two_dimmmer_1+fan.c: 641: case '4':
  7339                           
  7340                           
  7341                           ;two_dimmmer_1+fan.c: 642: TMR3H=0xBB; TMR3L=0x40; T3CONbits.TMR3ON = 1; break;
  7342  03A1  30BB               	movlw	187
  7343  03A2  2C3C               	goto	L89
  7344  03A3                     i1l6237:	
  7345                           ;two_dimmmer_1+fan.c: 643: case '5':
  7346                           
  7347                           
  7348                           ;two_dimmmer_1+fan.c: 644: TMR3H=0xBC; TMR3L=0xD0; T3CONbits.TMR3ON = 1; break;
  7349  03A3  30BC               	movlw	188
  7350  03A4  2C55               	goto	L90
  7351  03A5                     i1l6241:	
  7352                           ;two_dimmmer_1+fan.c: 645: case '6':
  7353                           
  7354                           
  7355                           ;two_dimmmer_1+fan.c: 646: TMR3H=0xBE; TMR3L=0x60; T3CONbits.TMR3ON = 1; break;
  7356  03A5  30BE               	movlw	190
  7357  03A6  2C5A               	goto	L91
  7358  03A7                     i1l6245:	
  7359                           ;two_dimmmer_1+fan.c: 647: case '7':
  7360                           
  7361                           
  7362                           ;two_dimmmer_1+fan.c: 648: TMR3H=0xBF; TMR3L=0xF0; T3CONbits.TMR3ON = 1; break;
  7363  03A7  30BF               	movlw	191
  7364  03A8  2C5F               	goto	L92
  7365  03A9                     i1l6249:	
  7366                           ;two_dimmmer_1+fan.c: 649: case '8':
  7367                           
  7368                           
  7369                           ;two_dimmmer_1+fan.c: 650: TMR3H=0xC1; TMR3L=0x80; T3CONbits.TMR3ON = 1; break;
  7370  03A9  30C1               	movlw	193
  7371  03AA  2C64               	goto	L93
  7372  03AB                     i1l6253:	
  7373                           ;two_dimmmer_1+fan.c: 651: case '9':
  7374                           
  7375                           
  7376                           ;two_dimmmer_1+fan.c: 652: TMR3H=0xC3; TMR3L=0x10; T3CONbits.TMR3ON = 1; break;
  7377  03AB  30C3               	movlw	195
  7378  03AC  2C69               	goto	L94
  7379  03AD                     i1l6259:	
  7380                           ;two_dimmmer_1+fan.c: 655: }
  7381                           
  7382                           ;two_dimmmer_1+fan.c: 654: break;
  7383                           
  7384                           ;two_dimmmer_1+fan.c: 653: default:
  7385                           
  7386                           
  7387                           ; Switch on 2 bytes has been partitioned into a top level switch of size 1, and 1 sub-sw
      +                          itches
  7388                           ; Switch size 1, requested type "space"
  7389                           ; Number of cases is 1, Range of values is 0 to 0
  7390                           ; switch strategies available:
  7391                           ; Name         Instructions Cycles
  7392                           ; simple_byte            4     3 (average)
  7393                           ; direct_byte            8     6 (fixed)
  7394                           ; jumptable            260     6 (fixed)
  7395                           ;	Chosen strategy is simple_byte
  7396  03AD  0020               	movlb	0	; select bank0
  7397  03AE  0854               	movf	_FAN_SPEED2_1s+1,w
  7398  03AF  3A00               	xorlw	0	; case 0
  7399  03B0  1903               	skipnz
  7400  03B1  2BB3               	goto	i1l10991
  7401  03B2  2CAF               	goto	i1l429
  7402  03B3                     i1l10991:	
  7403                           
  7404                           ; Switch size 1, requested type "space"
  7405                           ; Number of cases is 10, Range of values is 48 to 57
  7406                           ; switch strategies available:
  7407                           ; Name         Instructions Cycles
  7408                           ; direct_byte           29     9 (fixed)
  7409                           ; simple_byte           31    16 (average)
  7410                           ; jumptable            263     9 (fixed)
  7411                           ;	Chosen strategy is direct_byte
  7412  03B3  0853               	movf	_FAN_SPEED2_1s,w
  7413  03B4  3ED0               	addlw	-48
  7414  03B5  1C03               	skipc
  7415  03B6  2CAF               	goto	i1l429
  7416  03B7  0084               	movwf	4
  7417  03B8  300A               	movlw	10
  7418  03B9  0204               	subwf	4,w
  7419  03BA  1803               	skipnc
  7420  03BB  2CAF               	goto	i1l429
  7421  03BC  3190               	movlp	high i1S10993
  7422  03BD  3504               	lslf	4,w
  7423  03BE  3EB4               	addlw	low i1S10993
  7424  03BF  0082               	movwf	2
  7425                           
  7426                           ;two_dimmmer_1+fan.c: 656: break;
  7427  03C0  2CAF               	goto	i1l429
  7428  03C1                     i1l6261:	
  7429                           ;two_dimmmer_1+fan.c: 660: {
  7430                           ;two_dimmmer_1+fan.c: 661: case '0':
  7431                           
  7432                           ;two_dimmmer_1+fan.c: 659: switch(FAN_SPEED2_1s)
  7433                           
  7434                           ;two_dimmmer_1+fan.c: 657: case '6':
  7435                           
  7436                           
  7437                           ;two_dimmmer_1+fan.c: 662: TMR3H=0xC4; TMR3L=0xA0; T3CONbits.TMR3ON = 1; break;
  7438  03C1  30C4               	movlw	196
  7439  03C2  2C6E               	goto	L95
  7440  03C3                     i1l6265:	
  7441                           ;two_dimmmer_1+fan.c: 663: case '1':
  7442                           
  7443                           
  7444                           ;two_dimmmer_1+fan.c: 664: TMR3H=0xC6; TMR3L=0x30; T3CONbits.TMR3ON = 1; break;
  7445  03C3  30C6               	movlw	198
  7446  03C4  2C73               	goto	L96
  7447  03C5                     i1l6269:	
  7448                           ;two_dimmmer_1+fan.c: 665: case '2':
  7449                           
  7450                           
  7451                           ;two_dimmmer_1+fan.c: 666: TMR3H=0xC7; TMR3L=0xC0; T3CONbits.TMR3ON = 1; break;
  7452  03C5  30C7               	movlw	199
  7453  03C6  2C78               	goto	L97
  7454  03C7                     i1l6273:	
  7455                           ;two_dimmmer_1+fan.c: 667: case '3':
  7456                           
  7457                           
  7458                           ;two_dimmmer_1+fan.c: 668: TMR3H=0xC9; TMR3L=0x50; T3CONbits.TMR3ON = 1; break;
  7459  03C7  30C9               	movlw	201
  7460  03C8  2C7D               	goto	L98
  7461  03C9                     i1l6277:	
  7462                           ;two_dimmmer_1+fan.c: 669: case '4':
  7463                           
  7464                           
  7465                           ;two_dimmmer_1+fan.c: 670: TMR3H=0xCA; TMR3L=0xE0; T3CONbits.TMR3ON = 1; break;
  7466  03C9  30CA               	movlw	202
  7467  03CA  2C82               	goto	L68
  7468  03CB                     i1l6281:	
  7469                           ;two_dimmmer_1+fan.c: 671: case '5':
  7470                           
  7471                           
  7472                           ;two_dimmmer_1+fan.c: 672: TMR3H=0xCC; TMR3L=0x70; T3CONbits.TMR3ON = 1; break;
  7473  03CB  30CC               	movlw	204
  7474  03CC  2C19               	goto	L84
  7475  03CD                     i1l6285:	
  7476                           ;two_dimmmer_1+fan.c: 673: case '6':
  7477                           
  7478                           
  7479                           ;two_dimmmer_1+fan.c: 674: TMR3H=0xCE; TMR3L=0x00; T3CONbits.TMR3ON = 1; break;
  7480  03CD  30CE               	movlw	206
  7481  03CE  2C23               	goto	L85
  7482  03CF                     i1l6291:	
  7483                           ;two_dimmmer_1+fan.c: 675: case '7':
  7484                           
  7485                           
  7486                           ;two_dimmmer_1+fan.c: 676: TMR3H=0xCF; TMR3L=0x90; T3CONbits.TMR3ON = 1; break;
  7487  03CF  30CF               	movlw	207
  7488  03D0  2C28               	goto	L86
  7489  03D1                     i1l6295:	
  7490                           ;two_dimmmer_1+fan.c: 677: case '8':
  7491                           
  7492                           
  7493                           ;two_dimmmer_1+fan.c: 678: TMR3H=0xD1; TMR3L=0x20; T3CONbits.TMR3ON = 1; break;
  7494  03D1  30D1               	movlw	209
  7495  03D2  2C2D               	goto	L87
  7496  03D3                     i1l6299:	
  7497                           ;two_dimmmer_1+fan.c: 679: case '9':
  7498                           
  7499                           
  7500                           ;two_dimmmer_1+fan.c: 680: TMR3H=0xD2; TMR3L=0xB0; T3CONbits.TMR3ON = 1; break;
  7501  03D3  30D2               	movlw	210
  7502  03D4  2C32               	goto	L88
  7503  03D5                     i1l6305:	
  7504                           ;two_dimmmer_1+fan.c: 683: }
  7505                           
  7506                           ;two_dimmmer_1+fan.c: 682: break;
  7507                           
  7508                           ;two_dimmmer_1+fan.c: 681: default:
  7509                           
  7510                           
  7511                           ; Switch on 2 bytes has been partitioned into a top level switch of size 1, and 1 sub-sw
      +                          itches
  7512                           ; Switch size 1, requested type "space"
  7513                           ; Number of cases is 1, Range of values is 0 to 0
  7514                           ; switch strategies available:
  7515                           ; Name         Instructions Cycles
  7516                           ; simple_byte            4     3 (average)
  7517                           ; direct_byte            8     6 (fixed)
  7518                           ; jumptable            260     6 (fixed)
  7519                           ;	Chosen strategy is simple_byte
  7520  03D5  0020               	movlb	0	; select bank0
  7521  03D6  0854               	movf	_FAN_SPEED2_1s+1,w
  7522  03D7  3A00               	xorlw	0	; case 0
  7523  03D8  1903               	skipnz
  7524  03D9  2BDB               	goto	i1l10995
  7525  03DA  2CAF               	goto	i1l429
  7526  03DB                     i1l10995:	
  7527                           
  7528                           ; Switch size 1, requested type "space"
  7529                           ; Number of cases is 10, Range of values is 48 to 57
  7530                           ; switch strategies available:
  7531                           ; Name         Instructions Cycles
  7532                           ; direct_byte           29     9 (fixed)
  7533                           ; simple_byte           31    16 (average)
  7534                           ; jumptable            263     9 (fixed)
  7535                           ;	Chosen strategy is direct_byte
  7536  03DB  0853               	movf	_FAN_SPEED2_1s,w
  7537  03DC  3ED0               	addlw	-48
  7538  03DD  1C03               	skipc
  7539  03DE  2CAF               	goto	i1l429
  7540  03DF  0084               	movwf	4
  7541  03E0  300A               	movlw	10
  7542  03E1  0204               	subwf	4,w
  7543  03E2  1803               	skipnc
  7544  03E3  2CAF               	goto	i1l429
  7545  03E4  3190               	movlp	high i1S10997
  7546  03E5  3504               	lslf	4,w
  7547  03E6  3EC8               	addlw	low i1S10997
  7548  03E7  0082               	movwf	2
  7549                           
  7550                           ;two_dimmmer_1+fan.c: 684: break;
  7551  03E8  2CAF               	goto	i1l429
  7552  03E9                     i1l6307:	
  7553                           ;two_dimmmer_1+fan.c: 688: {
  7554                           ;two_dimmmer_1+fan.c: 689: case '0':
  7555                           
  7556                           ;two_dimmmer_1+fan.c: 687: switch(FAN_SPEED2_1s)
  7557                           
  7558                           ;two_dimmmer_1+fan.c: 685: case '7':
  7559                           
  7560                           
  7561                           ;two_dimmmer_1+fan.c: 690: TMR3H=0xD4; TMR3L=0x40; T3CONbits.TMR3ON = 1; break;
  7562  03E9  30D4               	movlw	212
  7563  03EA  2C3C               	goto	L89
  7564  03EB                     i1l6311:	
  7565                           ;two_dimmmer_1+fan.c: 691: case '1':
  7566                           
  7567                           
  7568                           ;two_dimmmer_1+fan.c: 692: TMR3H=0xD5; TMR3L=0xD0; T3CONbits.TMR3ON = 1; break;
  7569  03EB  30D5               	movlw	213
  7570  03EC  2C55               	goto	L90
  7571  03ED                     i1l6315:	
  7572                           ;two_dimmmer_1+fan.c: 693: case '2':
  7573                           
  7574                           
  7575                           ;two_dimmmer_1+fan.c: 694: TMR3H=0xD7; TMR3L=0x60; T3CONbits.TMR3ON = 1; break;
  7576  03ED  30D7               	movlw	215
  7577  03EE  2C5A               	goto	L91
  7578  03EF                     i1l6319:	
  7579                           ;two_dimmmer_1+fan.c: 695: case '3':
  7580                           
  7581                           
  7582                           ;two_dimmmer_1+fan.c: 696: TMR3H=0xD8; TMR3L=0xF0; T3CONbits.TMR3ON = 1; break;
  7583  03EF  30D8               	movlw	216
  7584  03F0  2C5F               	goto	L92
  7585  03F1                     i1l6323:	
  7586                           ;two_dimmmer_1+fan.c: 697: case '4':
  7587                           
  7588                           
  7589                           ;two_dimmmer_1+fan.c: 698: TMR3H=0xDA; TMR3L=0x80; T3CONbits.TMR3ON = 1; break;
  7590  03F1  30DA               	movlw	218
  7591  03F2  2C64               	goto	L93
  7592  03F3                     i1l6327:	
  7593                           ;two_dimmmer_1+fan.c: 699: case '5':
  7594                           
  7595                           
  7596                           ;two_dimmmer_1+fan.c: 700: TMR3H=0xDC; TMR3L=0x10; T3CONbits.TMR3ON = 1; break;
  7597  03F3  30DC               	movlw	220
  7598  03F4  2C69               	goto	L94
  7599  03F5                     i1l6331:	
  7600                           ;two_dimmmer_1+fan.c: 701: case '6':
  7601                           
  7602                           
  7603                           ;two_dimmmer_1+fan.c: 702: TMR3H=0xDD; TMR3L=0xA0; T3CONbits.TMR3ON = 1; break;
  7604  03F5  30DD               	movlw	221
  7605  03F6  2C6E               	goto	L95
  7606  03F7                     i1l6335:	
  7607                           ;two_dimmmer_1+fan.c: 703: case '7':
  7608                           
  7609                           
  7610                           ;two_dimmmer_1+fan.c: 704: TMR3H=0xDF; TMR3L=0x30; T3CONbits.TMR3ON = 1; break;
  7611  03F7  30DF               	movlw	223
  7612  03F8  2C73               	goto	L96
  7613  03F9                     i1l6339:	
  7614                           ;two_dimmmer_1+fan.c: 705: case '8':
  7615                           
  7616                           
  7617                           ;two_dimmmer_1+fan.c: 706: TMR3H=0xE0; TMR3L=0xC0; T3CONbits.TMR3ON = 1; break;
  7618  03F9  30E0               	movlw	224
  7619  03FA  2C78               	goto	L97
  7620  03FB                     i1l6343:	
  7621                           ;two_dimmmer_1+fan.c: 707: case '9':
  7622                           
  7623                           
  7624                           ;two_dimmmer_1+fan.c: 708: TMR3H=0xE2; TMR3L=0x50; T3CONbits.TMR3ON = 1; break;
  7625  03FB  30E2               	movlw	226
  7626  03FC  2C7D               	goto	L98
  7627  03FD                     i1l6349:	
  7628                           ;two_dimmmer_1+fan.c: 711: }
  7629                           
  7630                           ;two_dimmmer_1+fan.c: 710: break;
  7631                           
  7632                           ;two_dimmmer_1+fan.c: 709: default:
  7633                           
  7634                           
  7635                           ; Switch on 2 bytes has been partitioned into a top level switch of size 1, and 1 sub-sw
      +                          itches
  7636                           ; Switch size 1, requested type "space"
  7637                           ; Number of cases is 1, Range of values is 0 to 0
  7638                           ; switch strategies available:
  7639                           ; Name         Instructions Cycles
  7640                           ; simple_byte            4     3 (average)
  7641                           ; direct_byte            8     6 (fixed)
  7642                           ; jumptable            260     6 (fixed)
  7643                           ;	Chosen strategy is simple_byte
  7644  03FD  0020               	movlb	0	; select bank0
  7645  03FE  0854               	movf	_FAN_SPEED2_1s+1,w
  7646  03FF  3A00               	xorlw	0	; case 0
  7647  0400  1903               	skipnz
  7648  0401  2C03               	goto	i1l10999
  7649  0402  2CAF               	goto	i1l429
  7650  0403                     i1l10999:	
  7651                           
  7652                           ; Switch size 1, requested type "space"
  7653                           ; Number of cases is 10, Range of values is 48 to 57
  7654                           ; switch strategies available:
  7655                           ; Name         Instructions Cycles
  7656                           ; direct_byte           29     9 (fixed)
  7657                           ; simple_byte           31    16 (average)
  7658                           ; jumptable            263     9 (fixed)
  7659                           ;	Chosen strategy is direct_byte
  7660  0403  0853               	movf	_FAN_SPEED2_1s,w
  7661  0404  3ED0               	addlw	-48
  7662  0405  1C03               	skipc
  7663  0406  2CAF               	goto	i1l429
  7664  0407  0084               	movwf	4
  7665  0408  300A               	movlw	10
  7666  0409  0204               	subwf	4,w
  7667  040A  1803               	skipnc
  7668  040B  2CAF               	goto	i1l429
  7669  040C  3190               	movlp	high i1S11001
  7670  040D  3504               	lslf	4,w
  7671  040E  3EDC               	addlw	low i1S11001
  7672  040F  0082               	movwf	2
  7673                           
  7674                           ;two_dimmmer_1+fan.c: 712: break;
  7675  0410  2CAF               	goto	i1l429
  7676  0411                     i1l6351:	
  7677                           ;two_dimmmer_1+fan.c: 716: {
  7678                           ;two_dimmmer_1+fan.c: 717: case '0':
  7679                           
  7680                           ;two_dimmmer_1+fan.c: 715: switch(FAN_SPEED2_1s)
  7681                           
  7682                           ;two_dimmmer_1+fan.c: 713: case '8':
  7683                           
  7684                           
  7685                           ;two_dimmmer_1+fan.c: 718: TMR3H=0xE3; TMR3L=0xE0; T3CONbits.TMR3ON = 1; break;
  7686  0411  30E3               	movlw	227
  7687  0412  2C82               	goto	L68
  7688  0413                     i1l6355:	
  7689                           ;two_dimmmer_1+fan.c: 719: case '1':
  7690                           
  7691                           
  7692                           ;two_dimmmer_1+fan.c: 720: TMR3H=0xE4; TMR3L=0xA8; T3CONbits.TMR3ON = 1; break;
  7693  0413  30E4               	movlw	228
  7694  0414                     L152:	
  7695  0414  0028               	movlb	8	; select bank8
  7696  0415  0092               	movwf	18	;volatile
  7697  0416  30A8               	movlw	168
  7698  0417  2C85               	goto	L5
  7699  0418                     i1l6359:	
  7700                           ;two_dimmmer_1+fan.c: 721: case '2':
  7701                           
  7702                           
  7703                           ;two_dimmmer_1+fan.c: 722: TMR3H=0xE5; TMR3L=0x70; T3CONbits.TMR3ON = 1; break;
  7704  0418  30E5               	movlw	229
  7705  0419                     L84:	
  7706  0419  0028               	movlb	8	; select bank8
  7707  041A  0092               	movwf	18	;volatile
  7708  041B  3070               	movlw	112
  7709  041C  2C85               	goto	L5
  7710  041D                     i1l6363:	
  7711                           ;two_dimmmer_1+fan.c: 723: case '3':
  7712                           
  7713                           
  7714                           ;two_dimmmer_1+fan.c: 724: TMR3H=0xE6; TMR3L=0x38; T3CONbits.TMR3ON = 1; break;
  7715  041D  30E6               	movlw	230
  7716  041E  0028               	movlb	8	; select bank8
  7717  041F  0092               	movwf	18	;volatile
  7718  0420  3038               	movlw	56
  7719  0421  2C85               	goto	L5
  7720  0422                     i1l6367:	
  7721                           ;two_dimmmer_1+fan.c: 725: case '4':
  7722                           
  7723                           
  7724                           ;two_dimmmer_1+fan.c: 726: TMR3H=0xE7; TMR3L=0x00; T3CONbits.TMR3ON = 1; break;
  7725  0422  30E7               	movlw	231
  7726  0423                     L85:	
  7727  0423  0028               	movlb	8	; select bank8
  7728  0424  0092               	movwf	18	;volatile
  7729  0425  0191               	clrf	17	;volatile
  7730  0426  2C86               	goto	i1l6435
  7731  0427                     i1l6373:	
  7732                           ;two_dimmmer_1+fan.c: 727: case '5':
  7733                           
  7734                           
  7735                           ;two_dimmmer_1+fan.c: 728: TMR3H=0xE8; TMR3L=0x90; T3CONbits.TMR3ON = 1; break;
  7736  0427  30E8               	movlw	232
  7737  0428                     L86:	
  7738  0428  0028               	movlb	8	; select bank8
  7739  0429  0092               	movwf	18	;volatile
  7740  042A  3090               	movlw	144
  7741  042B  2C85               	goto	L5
  7742  042C                     i1l6377:	
  7743                           ;two_dimmmer_1+fan.c: 729: case '6':
  7744                           
  7745                           
  7746                           ;two_dimmmer_1+fan.c: 730: TMR3H=0xEA; TMR3L=0x20; T3CONbits.TMR3ON = 1; break;
  7747  042C  30EA               	movlw	234
  7748  042D                     L87:	
  7749  042D  0028               	movlb	8	; select bank8
  7750  042E  0092               	movwf	18	;volatile
  7751  042F  3020               	movlw	32
  7752  0430  2C85               	goto	L5
  7753  0431                     i1l6381:	
  7754                           ;two_dimmmer_1+fan.c: 731: case '7':
  7755                           
  7756                           
  7757                           ;two_dimmmer_1+fan.c: 732: TMR3H=0xEB; TMR3L=0xB0; T3CONbits.TMR3ON = 1; break;
  7758  0431  30EB               	movlw	235
  7759  0432                     L88:	
  7760  0432  0028               	movlb	8	; select bank8
  7761  0433  0092               	movwf	18	;volatile
  7762  0434  30B0               	movlw	176
  7763  0435  2C85               	goto	L5
  7764  0436                     i1l6385:	
  7765                           ;two_dimmmer_1+fan.c: 733: case '8':
  7766                           
  7767                           
  7768                           ;two_dimmmer_1+fan.c: 734: TMR3H=0xEC; TMR3L=0x78; T3CONbits.TMR3ON = 1; break;
  7769  0436  30EC               	movlw	236
  7770  0437                     L154:	
  7771  0437  0028               	movlb	8	; select bank8
  7772  0438  0092               	movwf	18	;volatile
  7773  0439  3078               	movlw	120
  7774  043A  2C85               	goto	L5
  7775  043B                     i1l6389:	
  7776                           ;two_dimmmer_1+fan.c: 735: case '9':
  7777                           
  7778                           
  7779                           ;two_dimmmer_1+fan.c: 736: TMR3H=0xED; TMR3L=0x40; T3CONbits.TMR3ON = 1; break;
  7780  043B  30ED               	movlw	237
  7781  043C                     L89:	
  7782  043C  0028               	movlb	8	; select bank8
  7783  043D  0092               	movwf	18	;volatile
  7784  043E  3040               	movlw	64
  7785  043F  2C85               	goto	L5
  7786  0440                     i1l6395:	
  7787                           ;two_dimmmer_1+fan.c: 739: }
  7788                           
  7789                           ;two_dimmmer_1+fan.c: 738: break;
  7790                           
  7791                           ;two_dimmmer_1+fan.c: 737: default:
  7792                           
  7793                           
  7794                           ; Switch on 2 bytes has been partitioned into a top level switch of size 1, and 1 sub-sw
      +                          itches
  7795                           ; Switch size 1, requested type "space"
  7796                           ; Number of cases is 1, Range of values is 0 to 0
  7797                           ; switch strategies available:
  7798                           ; Name         Instructions Cycles
  7799                           ; simple_byte            4     3 (average)
  7800                           ; direct_byte            8     6 (fixed)
  7801                           ; jumptable            260     6 (fixed)
  7802                           ;	Chosen strategy is simple_byte
  7803  0440  0020               	movlb	0	; select bank0
  7804  0441  0854               	movf	_FAN_SPEED2_1s+1,w
  7805  0442  3A00               	xorlw	0	; case 0
  7806  0443  1903               	skipnz
  7807  0444  2C46               	goto	i1l11003
  7808  0445  2CAF               	goto	i1l429
  7809  0446                     i1l11003:	
  7810                           
  7811                           ; Switch size 1, requested type "space"
  7812                           ; Number of cases is 10, Range of values is 48 to 57
  7813                           ; switch strategies available:
  7814                           ; Name         Instructions Cycles
  7815                           ; direct_byte           29     9 (fixed)
  7816                           ; simple_byte           31    16 (average)
  7817                           ; jumptable            263     9 (fixed)
  7818                           ;	Chosen strategy is direct_byte
  7819  0446  0853               	movf	_FAN_SPEED2_1s,w
  7820  0447  3ED0               	addlw	-48
  7821  0448  1C03               	skipc
  7822  0449  2CAF               	goto	i1l429
  7823  044A  0084               	movwf	4
  7824  044B  300A               	movlw	10
  7825  044C  0204               	subwf	4,w
  7826  044D  1803               	skipnc
  7827  044E  2CAF               	goto	i1l429
  7828  044F  3191               	movlp	high i1S11005
  7829  0450  3504               	lslf	4,w
  7830  0451  3E00               	addlw	low i1S11005
  7831  0452  0082               	movwf	2
  7832                           
  7833                           ;two_dimmmer_1+fan.c: 740: break;
  7834  0453  2CAF               	goto	i1l429
  7835  0454                     i1l6397:	
  7836                           ;two_dimmmer_1+fan.c: 744: {
  7837                           ;two_dimmmer_1+fan.c: 745: case '0':
  7838                           
  7839                           ;two_dimmmer_1+fan.c: 743: switch(FAN_SPEED2_1s)
  7840                           
  7841                           ;two_dimmmer_1+fan.c: 741: case '9':
  7842                           
  7843                           
  7844                           ;two_dimmmer_1+fan.c: 746: TMR3H=0xEE; TMR3L=0xD0; T3CONbits.TMR3ON = 1; break;
  7845  0454  30EE               	movlw	238
  7846  0455                     L90:	
  7847  0455  0028               	movlb	8	; select bank8
  7848  0456  0092               	movwf	18	;volatile
  7849  0457  30D0               	movlw	208
  7850  0458  2C85               	goto	L5
  7851  0459                     i1l6401:	
  7852                           ;two_dimmmer_1+fan.c: 747: case '1':
  7853                           
  7854                           
  7855                           ;two_dimmmer_1+fan.c: 748: TMR3H=0xF0; TMR3L=0x60; T3CONbits.TMR3ON = 1; break;
  7856  0459  30F0               	movlw	240
  7857  045A                     L91:	
  7858  045A  0028               	movlb	8	; select bank8
  7859  045B  0092               	movwf	18	;volatile
  7860  045C  3060               	movlw	96
  7861  045D  2C85               	goto	L5
  7862  045E                     i1l6405:	
  7863                           ;two_dimmmer_1+fan.c: 749: case '2':
  7864                           
  7865                           
  7866                           ;two_dimmmer_1+fan.c: 750: TMR3H=0xF1; TMR3L=0xF0; T3CONbits.TMR3ON = 1; break;
  7867  045E  30F1               	movlw	241
  7868  045F                     L92:	
  7869  045F  0028               	movlb	8	; select bank8
  7870  0460  0092               	movwf	18	;volatile
  7871  0461  30F0               	movlw	240
  7872  0462  2C85               	goto	L5
  7873  0463                     i1l6409:	
  7874                           ;two_dimmmer_1+fan.c: 751: case '3':
  7875                           
  7876                           
  7877                           ;two_dimmmer_1+fan.c: 752: TMR3H=0xF3; TMR3L=0x80; T3CONbits.TMR3ON = 1; break;
  7878  0463  30F3               	movlw	243
  7879  0464                     L93:	
  7880  0464  0028               	movlb	8	; select bank8
  7881  0465  0092               	movwf	18	;volatile
  7882  0466  3080               	movlw	128
  7883  0467  2C85               	goto	L5
  7884  0468                     i1l6413:	
  7885                           ;two_dimmmer_1+fan.c: 753: case '4':
  7886                           
  7887                           
  7888                           ;two_dimmmer_1+fan.c: 754: TMR3H=0xF5; TMR3L=0x10; T3CONbits.TMR3ON = 1; break;
  7889  0468  30F5               	movlw	245
  7890  0469                     L94:	
  7891  0469  0028               	movlb	8	; select bank8
  7892  046A  0092               	movwf	18	;volatile
  7893  046B  3010               	movlw	16
  7894  046C  2C85               	goto	L5
  7895  046D                     i1l6417:	
  7896                           ;two_dimmmer_1+fan.c: 755: case '5':
  7897                           
  7898                           
  7899                           ;two_dimmmer_1+fan.c: 756: TMR3H=0xF6; TMR3L=0xA0; T3CONbits.TMR3ON = 1; break;
  7900  046D  30F6               	movlw	246
  7901  046E                     L95:	
  7902  046E  0028               	movlb	8	; select bank8
  7903  046F  0092               	movwf	18	;volatile
  7904  0470  30A0               	movlw	160
  7905  0471  2C85               	goto	L5
  7906  0472                     i1l6421:	
  7907                           ;two_dimmmer_1+fan.c: 757: case '6':
  7908                           
  7909                           
  7910                           ;two_dimmmer_1+fan.c: 758: TMR3H=0xF8; TMR3L=0x30; T3CONbits.TMR3ON = 1; break;
  7911  0472  30F8               	movlw	248
  7912  0473                     L96:	
  7913  0473  0028               	movlb	8	; select bank8
  7914  0474  0092               	movwf	18	;volatile
  7915  0475  3030               	movlw	48
  7916  0476  2C85               	goto	L5
  7917  0477                     i1l6425:	
  7918                           ;two_dimmmer_1+fan.c: 759: case '7':
  7919                           
  7920                           
  7921                           ;two_dimmmer_1+fan.c: 760: TMR3H=0xF9; TMR3L=0xC0; T3CONbits.TMR3ON = 1; break;
  7922  0477  30F9               	movlw	249
  7923  0478                     L97:	
  7924  0478  0028               	movlb	8	; select bank8
  7925  0479  0092               	movwf	18	;volatile
  7926  047A  30C0               	movlw	192
  7927  047B  2C85               	goto	L5
  7928  047C                     i1l6429:	
  7929                           ;two_dimmmer_1+fan.c: 761: case '8':
  7930                           
  7931                           
  7932                           ;two_dimmmer_1+fan.c: 762: TMR3H=0xFB; TMR3L=0x50; T3CONbits.TMR3ON = 1; break;
  7933  047C  30FB               	movlw	251
  7934  047D                     L98:	
  7935  047D  0028               	movlb	8	; select bank8
  7936  047E  0092               	movwf	18	;volatile
  7937  047F  3050               	movlw	80
  7938  0480  2C85               	goto	L5
  7939  0481                     i1l6433:	
  7940                           ;two_dimmmer_1+fan.c: 763: case '9':
  7941                           
  7942                           
  7943                           ;two_dimmmer_1+fan.c: 764: TMR3H=0xFC; TMR3L=0xE0; T3CONbits.TMR3ON = 1; break;
  7944  0481  30FC               	movlw	252
  7945  0482                     L68:	
  7946  0482  0028               	movlb	8	; select bank8
  7947  0483  0092               	movwf	18	;volatile
  7948  0484  30E0               	movlw	224
  7949  0485                     L5:	
  7950  0485  0091               	movwf	17	;volatile
  7951  0486                     i1l6435:	
  7952  0486  1413               	bsf	19,0	;volatile
  7953                           
  7954                           ;two_dimmmer_1+fan.c: 767: }
  7955                           
  7956                           ;two_dimmmer_1+fan.c: 766: break;
  7957                           
  7958                           ;two_dimmmer_1+fan.c: 765: default:
  7959  0487  2CAF               	goto	i1l429
  7960  0488                     i1l6439:	
  7961                           
  7962                           ; Switch on 2 bytes has been partitioned into a top level switch of size 1, and 1 sub-sw
      +                          itches
  7963                           ; Switch size 1, requested type "space"
  7964                           ; Number of cases is 1, Range of values is 0 to 0
  7965                           ; switch strategies available:
  7966                           ; Name         Instructions Cycles
  7967                           ; simple_byte            4     3 (average)
  7968                           ; direct_byte            8     6 (fixed)
  7969                           ; jumptable            260     6 (fixed)
  7970                           ;	Chosen strategy is simple_byte
  7971  0488  0020               	movlb	0	; select bank0
  7972  0489  0854               	movf	_FAN_SPEED2_1s+1,w
  7973  048A  3A00               	xorlw	0	; case 0
  7974  048B  1903               	skipnz
  7975  048C  2C8E               	goto	i1l11007
  7976  048D  2CAF               	goto	i1l429
  7977  048E                     i1l11007:	
  7978                           
  7979                           ; Switch size 1, requested type "space"
  7980                           ; Number of cases is 10, Range of values is 48 to 57
  7981                           ; switch strategies available:
  7982                           ; Name         Instructions Cycles
  7983                           ; direct_byte           29     9 (fixed)
  7984                           ; simple_byte           31    16 (average)
  7985                           ; jumptable            263     9 (fixed)
  7986                           ;	Chosen strategy is direct_byte
  7987  048E  0853               	movf	_FAN_SPEED2_1s,w
  7988  048F  3ED0               	addlw	-48
  7989  0490  1C03               	skipc
  7990  0491  2CAF               	goto	i1l429
  7991  0492  0084               	movwf	4
  7992  0493  300A               	movlw	10
  7993  0494  0204               	subwf	4,w
  7994  0495  1803               	skipnc
  7995  0496  2CAF               	goto	i1l429
  7996  0497  3191               	movlp	high i1S11009
  7997  0498  3504               	lslf	4,w
  7998  0499  3E14               	addlw	low i1S11009
  7999  049A  0082               	movwf	2
  8000                           
  8001                           ;two_dimmmer_1+fan.c: 771: }
  8002                           
  8003                           ;two_dimmmer_1+fan.c: 770: break;
  8004                           
  8005                           ;two_dimmmer_1+fan.c: 769: default:
  8006                           
  8007                           ;two_dimmmer_1+fan.c: 768: break;
  8008  049B  2CAF               	goto	i1l429
  8009  049C                     i1l6443:	
  8010                           
  8011                           ; Switch on 2 bytes has been partitioned into a top level switch of size 1, and 1 sub-sw
      +                          itches
  8012                           ; Switch size 1, requested type "space"
  8013                           ; Number of cases is 1, Range of values is 0 to 0
  8014                           ; switch strategies available:
  8015                           ; Name         Instructions Cycles
  8016                           ; simple_byte            4     3 (average)
  8017                           ; direct_byte            8     6 (fixed)
  8018                           ; jumptable            260     6 (fixed)
  8019                           ;	Chosen strategy is simple_byte
  8020  049C  0021               	movlb	1	; select bank1
  8021  049D  0869               	movf	(_FAN_SPEED2_10s+1)^(0+128),w
  8022  049E  3A00               	xorlw	0	; case 0
  8023  049F  1903               	skipnz
  8024  04A0  2CA2               	goto	i1l11011
  8025  04A1  2CAF               	goto	i1l429
  8026  04A2                     i1l11011:	
  8027                           
  8028                           ; Switch size 1, requested type "space"
  8029                           ; Number of cases is 10, Range of values is 48 to 57
  8030                           ; switch strategies available:
  8031                           ; Name         Instructions Cycles
  8032                           ; direct_byte           29     9 (fixed)
  8033                           ; simple_byte           31    16 (average)
  8034                           ; jumptable            263     9 (fixed)
  8035                           ;	Chosen strategy is direct_byte
  8036  04A2  0868               	movf	_FAN_SPEED2_10s^(0+128),w
  8037  04A3  3ED0               	addlw	-48
  8038  04A4  1C03               	skipc
  8039  04A5  2CAF               	goto	i1l429
  8040  04A6  0084               	movwf	4
  8041  04A7  300A               	movlw	10
  8042  04A8  0204               	subwf	4,w
  8043  04A9  1803               	skipnc
  8044  04AA  2CAF               	goto	i1l429
  8045  04AB  3191               	movlp	high i1S11013
  8046  04AC  3504               	lslf	4,w
  8047  04AD  3E28               	addlw	low i1S11013
  8048  04AE  0082               	movwf	2
  8049  04AF                     i1l429:	
  8050                           
  8051                           ;two_dimmmer_1+fan.c: 772: }
  8052                           ;two_dimmmer_1+fan.c: 773: PIR3bits.CCP3IF = 0;
  8053  04AF  0020               	movlb	0	; select bank0
  8054  04B0  1213               	bcf	19,4	;volatile
  8055  04B1                     i1l428:	
  8056                           
  8057                           ;two_dimmmer_1+fan.c: 774: }
  8058                           ;two_dimmmer_1+fan.c: 776: if(PIR4bits.CCP9IF == 1)
  8059  04B1  1F14               	btfss	20,6	;volatile
  8060  04B2  2EC4               	goto	i1l718
  8061                           
  8062                           ;two_dimmmer_1+fan.c: 777: {
  8063                           ;two_dimmmer_1+fan.c: 778: PIR4bits.CCP9IF=0;
  8064  04B3  1314               	bcf	20,6	;volatile
  8065                           
  8066                           ;two_dimmmer_1+fan.c: 780: if(FAN_FLAG3==1 && tk==1)
  8067  04B4  0021               	movlb	1	; select bank1
  8068  04B5  035E               	decf	_FAN_FLAG3^(0+128),w
  8069  04B6  045F               	iorwf	(_FAN_FLAG3+1)^(0+128),w
  8070  04B7  1D03               	btfss	3,2
  8071  04B8  2EC2               	goto	i1l574
  8072  04B9  037A               	decf	_tk,w
  8073  04BA  047B               	iorwf	_tk+1,w
  8074  04BB  1903               	btfsc	3,2
  8075  04BC  2EAF               	goto	i1l6905
  8076  04BD  2EC2               	goto	i1l574
  8077  04BE                     i1l6453:	
  8078                           ;two_dimmmer_1+fan.c: 787: {
  8079                           ;two_dimmmer_1+fan.c: 788: case '0':
  8080                           
  8081                           ;two_dimmmer_1+fan.c: 786: switch(FAN_SPEED3_1s)
  8082                           
  8083                           ;two_dimmmer_1+fan.c: 783: {
  8084                           ;two_dimmmer_1+fan.c: 784: case '0':
  8085                           
  8086                           ;two_dimmmer_1+fan.c: 781: {
  8087                           ;two_dimmmer_1+fan.c: 782: switch(FAN_SPEED3_10s)
  8088                           
  8089                           
  8090                           ;two_dimmmer_1+fan.c: 789: TMR5H=0x7B; TMR5L=0x30; T5CONbits.TMR5ON = 1; break;
  8091  04BE  307B               	movlw	123
  8092  04BF  2E86               	goto	L142
  8093  04C0                     i1l6457:	
  8094                           ;two_dimmmer_1+fan.c: 790: case '1':
  8095                           
  8096                           
  8097                           ;two_dimmmer_1+fan.c: 791: TMR5H=0x7C; TMR5L=0xC0; T5CONbits.TMR5ON = 1; break;
  8098  04C0  307C               	movlw	124
  8099  04C1  2E8B               	goto	L143
  8100  04C2                     i1l6461:	
  8101                           ;two_dimmmer_1+fan.c: 792: case '2':
  8102                           
  8103                           
  8104                           ;two_dimmmer_1+fan.c: 793: TMR5H=0x7D; TMR5L=0x88; T5CONbits.TMR5ON = 1; break;
  8105  04C2  307D               	movlw	125
  8106  04C3  0028               	movlb	8	; select bank8
  8107  04C4  0099               	movwf	25	;volatile
  8108  04C5  3088               	movlw	136
  8109  04C6  2E98               	goto	L6
  8110  04C7                     i1l6465:	
  8111                           ;two_dimmmer_1+fan.c: 794: case '3':
  8112                           
  8113                           
  8114                           ;two_dimmmer_1+fan.c: 795: TMR5H=0x7F; TMR5L=0x18; T5CONbits.TMR5ON = 1; break;
  8115  04C7  307F               	movlw	127
  8116  04C8  0028               	movlb	8	; select bank8
  8117  04C9  0099               	movwf	25	;volatile
  8118  04CA  3018               	movlw	24
  8119  04CB  2E98               	goto	L6
  8120  04CC                     i1l6469:	
  8121                           ;two_dimmmer_1+fan.c: 796: case '4':
  8122                           
  8123                           
  8124                           ;two_dimmmer_1+fan.c: 797: TMR5H=0x80; TMR5L=0xA8; T5CONbits.TMR5ON = 1; break;
  8125  04CC  3080               	movlw	128
  8126  04CD  2E27               	goto	L157
  8127  04CE                     i1l6473:	
  8128                           ;two_dimmmer_1+fan.c: 798: case '5':
  8129                           
  8130                           
  8131                           ;two_dimmmer_1+fan.c: 799: TMR5H=0x81; TMR5L=0x70; T5CONbits.TMR5ON = 1; break;
  8132  04CE  3081               	movlw	129
  8133  04CF  2E2C               	goto	L130
  8134  04D0                     i1l6477:	
  8135                           ;two_dimmmer_1+fan.c: 800: case '6':
  8136                           
  8137                           
  8138                           ;two_dimmmer_1+fan.c: 801: TMR5H=0x83; TMR5L=0x00; T5CONbits.TMR5ON = 1; break;
  8139  04D0  3083               	movlw	131
  8140  04D1  2E36               	goto	L131
  8141  04D2                     i1l6483:	
  8142                           ;two_dimmmer_1+fan.c: 802: case '7':
  8143                           
  8144                           
  8145                           ;two_dimmmer_1+fan.c: 803: TMR5H=0x83; TMR5L=0xC8; T5CONbits.TMR5ON = 1; break;
  8146  04D2  3083               	movlw	131
  8147  04D3  0028               	movlb	8	; select bank8
  8148  04D4  0099               	movwf	25	;volatile
  8149  04D5  30C8               	movlw	200
  8150  04D6  2E98               	goto	L6
  8151  04D7                     i1l6487:	
  8152                           ;two_dimmmer_1+fan.c: 804: case '8':
  8153                           
  8154  04D7  2CF8               	goto	i1l6507
  8155  04D8                     i1l6491:	
  8156                           ;two_dimmmer_1+fan.c: 806: case '9':
  8157                           
  8158                           ;two_dimmmer_1+fan.c: 805: TMR5H=0x87; TMR5L=0xB0; T5CONbits.TMR5ON = 1; break;
  8159                           
  8160                           
  8161                           ;two_dimmmer_1+fan.c: 807: TMR5H=0x85; TMR5L=0x58; T5CONbits.TMR5ON = 1; break;
  8162  04D8  3085               	movlw	133
  8163  04D9  0028               	movlb	8	; select bank8
  8164  04DA  0099               	movwf	25	;volatile
  8165  04DB  3058               	movlw	88
  8166  04DC  2E98               	goto	L6
  8167  04DD                     i1l6497:	
  8168                           ;two_dimmmer_1+fan.c: 810: }
  8169                           
  8170                           ;two_dimmmer_1+fan.c: 809: break;
  8171                           
  8172                           ;two_dimmmer_1+fan.c: 808: default:
  8173                           
  8174                           
  8175                           ; Switch on 2 bytes has been partitioned into a top level switch of size 1, and 1 sub-sw
      +                          itches
  8176                           ; Switch size 1, requested type "space"
  8177                           ; Number of cases is 1, Range of values is 0 to 0
  8178                           ; switch strategies available:
  8179                           ; Name         Instructions Cycles
  8180                           ; simple_byte            4     3 (average)
  8181                           ; direct_byte            8     6 (fixed)
  8182                           ; jumptable            260     6 (fixed)
  8183                           ;	Chosen strategy is simple_byte
  8184  04DD  0020               	movlb	0	; select bank0
  8185  04DE  0852               	movf	_FAN_SPEED3_1s+1,w
  8186  04DF  3A00               	xorlw	0	; case 0
  8187  04E0  1903               	skipnz
  8188  04E1  2CE3               	goto	i1l11015
  8189  04E2  2EC2               	goto	i1l574
  8190  04E3                     i1l11015:	
  8191                           
  8192                           ; Switch size 1, requested type "space"
  8193                           ; Number of cases is 10, Range of values is 48 to 57
  8194                           ; switch strategies available:
  8195                           ; Name         Instructions Cycles
  8196                           ; direct_byte           29     9 (fixed)
  8197                           ; simple_byte           31    16 (average)
  8198                           ; jumptable            263     9 (fixed)
  8199                           ;	Chosen strategy is direct_byte
  8200  04E3  0851               	movf	_FAN_SPEED3_1s,w
  8201  04E4  3ED0               	addlw	-48
  8202  04E5  1C03               	skipc
  8203  04E6  2EC2               	goto	i1l574
  8204  04E7  0084               	movwf	4
  8205  04E8  300A               	movlw	10
  8206  04E9  0204               	subwf	4,w
  8207  04EA  1803               	skipnc
  8208  04EB  2EC2               	goto	i1l574
  8209  04EC  3191               	movlp	high i1S11017
  8210  04ED  3504               	lslf	4,w
  8211  04EE  3E3C               	addlw	low i1S11017
  8212  04EF  0082               	movwf	2
  8213                           
  8214                           ;two_dimmmer_1+fan.c: 811: break;
  8215  04F0  2EC2               	goto	i1l574
  8216  04F1                     i1l6499:	
  8217                           ;two_dimmmer_1+fan.c: 815: {
  8218                           ;two_dimmmer_1+fan.c: 816: case '0':
  8219                           
  8220                           ;two_dimmmer_1+fan.c: 814: switch(FAN_SPEED3_1s)
  8221                           
  8222                           ;two_dimmmer_1+fan.c: 812: case '1':
  8223                           
  8224                           
  8225                           ;two_dimmmer_1+fan.c: 817: TMR5H=0x86; TMR5L=0x20; T5CONbits.TMR5ON = 1; break;
  8226  04F1  3086               	movlw	134
  8227  04F2  2E40               	goto	L133
  8228  04F3                     i1l6503:	
  8229                           ;two_dimmmer_1+fan.c: 818: case '1':
  8230                           
  8231                           
  8232                           ;two_dimmmer_1+fan.c: 819: TMR5H=0x86; TMR5L=0xE8; T5CONbits.TMR5ON = 1; break;
  8233  04F3  3086               	movlw	134
  8234  04F4  0028               	movlb	8	; select bank8
  8235  04F5  0099               	movwf	25	;volatile
  8236  04F6  30E8               	movlw	232
  8237  04F7  2E98               	goto	L6
  8238  04F8                     i1l6507:	
  8239                           ;two_dimmmer_1+fan.c: 820: case '2':
  8240                           
  8241                           
  8242                           ;two_dimmmer_1+fan.c: 821: TMR5H=0x87; TMR5L=0xB0; T5CONbits.TMR5ON = 1; break;
  8243  04F8  3087               	movlw	135
  8244  04F9  2E45               	goto	L134
  8245  04FA                     i1l6511:	
  8246                           ;two_dimmmer_1+fan.c: 822: case '3':
  8247                           
  8248                           
  8249                           ;two_dimmmer_1+fan.c: 823: TMR5H=0x88; TMR5L=0x78; T5CONbits.TMR5ON = 1; break;
  8250  04FA  3088               	movlw	136
  8251  04FB  2E4A               	goto	L159
  8252  04FC                     i1l6515:	
  8253                           ;two_dimmmer_1+fan.c: 824: case '4':
  8254                           
  8255                           
  8256                           ;two_dimmmer_1+fan.c: 825: TMR5H=0x89; TMR5L=0x40; T5CONbits.TMR5ON = 1; break;
  8257  04FC  3089               	movlw	137
  8258  04FD  2E4F               	goto	L135
  8259  04FE                     i1l6519:	
  8260                           ;two_dimmmer_1+fan.c: 826: case '5':
  8261                           
  8262                           
  8263                           ;two_dimmmer_1+fan.c: 827: TMR5H=0x8A; TMR5L=0x08; T5CONbits.TMR5ON = 1; break;
  8264  04FE  308A               	movlw	138
  8265  04FF  0028               	movlb	8	; select bank8
  8266  0500  0099               	movwf	25	;volatile
  8267  0501  3008               	movlw	8
  8268  0502  2E98               	goto	L6
  8269  0503                     i1l6523:	
  8270                           ;two_dimmmer_1+fan.c: 828: case '6':
  8271                           
  8272                           
  8273                           ;two_dimmmer_1+fan.c: 829: TMR5H=0x8A; TMR5L=0xD0; T5CONbits.TMR5ON = 1; break;
  8274  0503  308A               	movlw	138
  8275  0504  2E68               	goto	L136
  8276  0505                     i1l6527:	
  8277                           ;two_dimmmer_1+fan.c: 830: case '7':
  8278                           
  8279                           
  8280                           ;two_dimmmer_1+fan.c: 831: TMR5H=0x8B; TMR5L=0x98; T5CONbits.TMR5ON = 1; break;
  8281  0505  308B               	movlw	139
  8282  0506  0028               	movlb	8	; select bank8
  8283  0507  0099               	movwf	25	;volatile
  8284  0508  3098               	movlw	152
  8285  0509  2E98               	goto	L6
  8286  050A                     i1l6531:	
  8287                           ;two_dimmmer_1+fan.c: 832: case '8':
  8288                           
  8289                           
  8290                           ;two_dimmmer_1+fan.c: 833: TMR5H=0x8C; TMR5L=0x60; T5CONbits.TMR5ON = 1; break;
  8291  050A  308C               	movlw	140
  8292  050B  2E6D               	goto	L137
  8293  050C                     i1l6535:	
  8294                           ;two_dimmmer_1+fan.c: 834: case '9':
  8295                           
  8296                           
  8297                           ;two_dimmmer_1+fan.c: 835: TMR5H=0x8D; TMR5L=0x28; T5CONbits.TMR5ON = 1; break;
  8298  050C  308D               	movlw	141
  8299  050D  0028               	movlb	8	; select bank8
  8300  050E  0099               	movwf	25	;volatile
  8301  050F  3028               	movlw	40
  8302  0510  2E98               	goto	L6
  8303  0511                     i1l6541:	
  8304                           ;two_dimmmer_1+fan.c: 838: }
  8305                           
  8306                           ;two_dimmmer_1+fan.c: 837: break;
  8307                           
  8308                           ;two_dimmmer_1+fan.c: 836: default:
  8309                           
  8310                           
  8311                           ; Switch on 2 bytes has been partitioned into a top level switch of size 1, and 1 sub-sw
      +                          itches
  8312                           ; Switch size 1, requested type "space"
  8313                           ; Number of cases is 1, Range of values is 0 to 0
  8314                           ; switch strategies available:
  8315                           ; Name         Instructions Cycles
  8316                           ; simple_byte            4     3 (average)
  8317                           ; direct_byte            8     6 (fixed)
  8318                           ; jumptable            260     6 (fixed)
  8319                           ;	Chosen strategy is simple_byte
  8320  0511  0020               	movlb	0	; select bank0
  8321  0512  0852               	movf	_FAN_SPEED3_1s+1,w
  8322  0513  3A00               	xorlw	0	; case 0
  8323  0514  1903               	skipnz
  8324  0515  2D17               	goto	i1l11019
  8325  0516  2EC2               	goto	i1l574
  8326  0517                     i1l11019:	
  8327                           
  8328                           ; Switch size 1, requested type "space"
  8329                           ; Number of cases is 10, Range of values is 48 to 57
  8330                           ; switch strategies available:
  8331                           ; Name         Instructions Cycles
  8332                           ; direct_byte           29     9 (fixed)
  8333                           ; simple_byte           31    16 (average)
  8334                           ; jumptable            263     9 (fixed)
  8335                           ;	Chosen strategy is direct_byte
  8336  0517  0851               	movf	_FAN_SPEED3_1s,w
  8337  0518  3ED0               	addlw	-48
  8338  0519  1C03               	skipc
  8339  051A  2EC2               	goto	i1l574
  8340  051B  0084               	movwf	4
  8341  051C  300A               	movlw	10
  8342  051D  0204               	subwf	4,w
  8343  051E  1803               	skipnc
  8344  051F  2EC2               	goto	i1l574
  8345  0520  3191               	movlp	high i1S11021
  8346  0521  3504               	lslf	4,w
  8347  0522  3E50               	addlw	low i1S11021
  8348  0523  0082               	movwf	2
  8349                           
  8350                           ;two_dimmmer_1+fan.c: 839: break;
  8351  0524  2EC2               	goto	i1l574
  8352  0525                     i1l6543:	
  8353                           ;two_dimmmer_1+fan.c: 843: {
  8354                           ;two_dimmmer_1+fan.c: 844: case '0':
  8355                           
  8356                           ;two_dimmmer_1+fan.c: 842: switch(FAN_SPEED3_1s)
  8357                           
  8358                           ;two_dimmmer_1+fan.c: 840: case '2':
  8359                           
  8360                           
  8361                           ;two_dimmmer_1+fan.c: 845: TMR5H=0x8D; TMR5L=0xF0; T5CONbits.TMR5ON = 1; break;
  8362  0525  308D               	movlw	141
  8363  0526  2E72               	goto	L138
  8364  0527                     i1l6547:	
  8365                           ;two_dimmmer_1+fan.c: 846: case '1':
  8366                           
  8367                           
  8368                           ;two_dimmmer_1+fan.c: 847: TMR5H=0x8E; TMR5L=0xB8; T5CONbits.TMR5ON = 1; break;
  8369  0527  308E               	movlw	142
  8370  0528  0028               	movlb	8	; select bank8
  8371  0529  0099               	movwf	25	;volatile
  8372  052A  30B8               	movlw	184
  8373  052B  2E98               	goto	L6
  8374  052C                     i1l6551:	
  8375                           ;two_dimmmer_1+fan.c: 848: case '2':
  8376                           
  8377                           
  8378                           ;two_dimmmer_1+fan.c: 849: TMR5H=0x8F; TMR5L=0x80; T5CONbits.TMR5ON = 1; break;
  8379  052C  308F               	movlw	143
  8380  052D  2E77               	goto	L139
  8381  052E                     i1l6555:	
  8382                           ;two_dimmmer_1+fan.c: 850: case '3':
  8383                           
  8384                           
  8385                           ;two_dimmmer_1+fan.c: 851: TMR5H=0x90; TMR5L=0x48; T5CONbits.TMR5ON = 1; break;
  8386  052E  3090               	movlw	144
  8387  052F  0028               	movlb	8	; select bank8
  8388  0530  0099               	movwf	25	;volatile
  8389  0531  3048               	movlw	72
  8390  0532  2E98               	goto	L6
  8391  0533                     i1l6559:	
  8392                           ;two_dimmmer_1+fan.c: 852: case '4':
  8393                           
  8394                           
  8395                           ;two_dimmmer_1+fan.c: 853: TMR5H=0x91; TMR5L=0x10; T5CONbits.TMR5ON = 1; break;
  8396  0533  3091               	movlw	145
  8397  0534  2E7C               	goto	L140
  8398  0535                     i1l6563:	
  8399                           ;two_dimmmer_1+fan.c: 854: case '5':
  8400                           
  8401                           
  8402                           ;two_dimmmer_1+fan.c: 855: TMR5H=0x91; TMR5L=0xD8; T5CONbits.TMR5ON = 1; break;
  8403  0535  3091               	movlw	145
  8404  0536  0028               	movlb	8	; select bank8
  8405  0537  0099               	movwf	25	;volatile
  8406  0538  30D8               	movlw	216
  8407  0539  2E98               	goto	L6
  8408  053A                     i1l6567:	
  8409                           ;two_dimmmer_1+fan.c: 856: case '6':
  8410                           
  8411                           
  8412                           ;two_dimmmer_1+fan.c: 857: TMR5H=0x92; TMR5L=0xA0; T5CONbits.TMR5ON = 1; break;
  8413  053A  3092               	movlw	146
  8414  053B  2E81               	goto	L141
  8415  053C                     i1l6571:	
  8416                           ;two_dimmmer_1+fan.c: 858: case '7':
  8417                           
  8418                           
  8419                           ;two_dimmmer_1+fan.c: 859: TMR5H=0x93; TMR5L=0x68; T5CONbits.TMR5ON = 1; break;
  8420  053C  3093               	movlw	147
  8421  053D  0028               	movlb	8	; select bank8
  8422  053E  0099               	movwf	25	;volatile
  8423  053F  3068               	movlw	104
  8424  0540  2E98               	goto	L6
  8425  0541                     i1l6575:	
  8426                           ;two_dimmmer_1+fan.c: 860: case '8':
  8427                           
  8428                           
  8429                           ;two_dimmmer_1+fan.c: 861: TMR5H=0x94; TMR5L=0x30; T5CONbits.TMR5ON = 1; break;
  8430  0541  3094               	movlw	148
  8431  0542  2E86               	goto	L142
  8432  0543                     i1l6579:	
  8433                           ;two_dimmmer_1+fan.c: 862: case '9':
  8434                           
  8435                           
  8436                           ;two_dimmmer_1+fan.c: 863: TMR5H=0x94; TMR5L=0xF8; T5CONbits.TMR5ON = 1; break;
  8437  0543  3094               	movlw	148
  8438  0544  0028               	movlb	8	; select bank8
  8439  0545  0099               	movwf	25	;volatile
  8440  0546  30F8               	movlw	248
  8441  0547  2E98               	goto	L6
  8442  0548                     i1l6585:	
  8443                           ;two_dimmmer_1+fan.c: 866: }
  8444                           
  8445                           ;two_dimmmer_1+fan.c: 865: break;
  8446                           
  8447                           ;two_dimmmer_1+fan.c: 864: default:
  8448                           
  8449                           
  8450                           ; Switch on 2 bytes has been partitioned into a top level switch of size 1, and 1 sub-sw
      +                          itches
  8451                           ; Switch size 1, requested type "space"
  8452                           ; Number of cases is 1, Range of values is 0 to 0
  8453                           ; switch strategies available:
  8454                           ; Name         Instructions Cycles
  8455                           ; simple_byte            4     3 (average)
  8456                           ; direct_byte            8     6 (fixed)
  8457                           ; jumptable            260     6 (fixed)
  8458                           ;	Chosen strategy is simple_byte
  8459  0548  0020               	movlb	0	; select bank0
  8460  0549  0852               	movf	_FAN_SPEED3_1s+1,w
  8461  054A  3A00               	xorlw	0	; case 0
  8462  054B  1903               	skipnz
  8463  054C  2D4E               	goto	i1l11023
  8464  054D  2EC2               	goto	i1l574
  8465  054E                     i1l11023:	
  8466                           
  8467                           ; Switch size 1, requested type "space"
  8468                           ; Number of cases is 10, Range of values is 48 to 57
  8469                           ; switch strategies available:
  8470                           ; Name         Instructions Cycles
  8471                           ; direct_byte           29     9 (fixed)
  8472                           ; simple_byte           31    16 (average)
  8473                           ; jumptable            263     9 (fixed)
  8474                           ;	Chosen strategy is direct_byte
  8475  054E  0851               	movf	_FAN_SPEED3_1s,w
  8476  054F  3ED0               	addlw	-48
  8477  0550  1C03               	skipc
  8478  0551  2EC2               	goto	i1l574
  8479  0552  0084               	movwf	4
  8480  0553  300A               	movlw	10
  8481  0554  0204               	subwf	4,w
  8482  0555  1803               	skipnc
  8483  0556  2EC2               	goto	i1l574
  8484  0557  3191               	movlp	high i1S11025
  8485  0558  3504               	lslf	4,w
  8486  0559  3E64               	addlw	low i1S11025
  8487  055A  0082               	movwf	2
  8488                           
  8489                           ;two_dimmmer_1+fan.c: 867: break;
  8490  055B  2EC2               	goto	i1l574
  8491  055C                     i1l6587:	
  8492                           ;two_dimmmer_1+fan.c: 871: {
  8493                           ;two_dimmmer_1+fan.c: 872: case '0':
  8494                           
  8495                           ;two_dimmmer_1+fan.c: 870: switch(FAN_SPEED3_1s)
  8496                           
  8497                           ;two_dimmmer_1+fan.c: 868: case '3':
  8498                           
  8499                           
  8500                           ;two_dimmmer_1+fan.c: 873: TMR5H=0x95; TMR5L=0xC0; T5CONbits.TMR5ON = 1; break;
  8501  055C  3095               	movlw	149
  8502  055D  2E8B               	goto	L143
  8503  055E                     i1l6591:	
  8504                           ;two_dimmmer_1+fan.c: 874: case '1':
  8505                           
  8506                           
  8507                           ;two_dimmmer_1+fan.c: 875: TMR5H=0x97; TMR5L=0x50; T5CONbits.TMR5ON = 1; break;
  8508  055E  3097               	movlw	151
  8509  055F  2E90               	goto	L144
  8510  0560                     i1l6595:	
  8511                           ;two_dimmmer_1+fan.c: 876: case '2':
  8512                           
  8513                           
  8514                           ;two_dimmmer_1+fan.c: 877: TMR5H=0x98; TMR5L=0xE0; T5CONbits.TMR5ON = 1; break;
  8515  0560  3098               	movlw	152
  8516  0561  2E95               	goto	L114
  8517  0562                     i1l6599:	
  8518                           ;two_dimmmer_1+fan.c: 878: case '3':
  8519                           
  8520                           
  8521                           ;two_dimmmer_1+fan.c: 879: TMR5H=0x9A; TMR5L=0x70; T5CONbits.TMR5ON = 1; break;
  8522  0562  309A               	movlw	154
  8523  0563  2E2C               	goto	L130
  8524  0564                     i1l6603:	
  8525                           ;two_dimmmer_1+fan.c: 880: case '4':
  8526                           
  8527                           
  8528                           ;two_dimmmer_1+fan.c: 881: TMR5H=0x9C; TMR5L=0x00; T5CONbits.TMR5ON = 1; break;
  8529  0564  309C               	movlw	156
  8530  0565  2E36               	goto	L131
  8531  0566                     i1l6609:	
  8532                           ;two_dimmmer_1+fan.c: 882: case '5':
  8533                           
  8534                           
  8535                           ;two_dimmmer_1+fan.c: 883: TMR5H=0x9D; TMR5L=0x90; T5CONbits.TMR5ON = 1; break;
  8536  0566  309D               	movlw	157
  8537  0567  2E3B               	goto	L132
  8538  0568                     i1l6613:	
  8539                           ;two_dimmmer_1+fan.c: 884: case '6':
  8540                           
  8541                           
  8542                           ;two_dimmmer_1+fan.c: 885: TMR5H=0x9F; TMR5L=0x20; T5CONbits.TMR5ON = 1; break;
  8543  0568  309F               	movlw	159
  8544  0569  2E40               	goto	L133
  8545  056A                     i1l6617:	
  8546                           ;two_dimmmer_1+fan.c: 886: case '7':
  8547                           
  8548                           
  8549                           ;two_dimmmer_1+fan.c: 887: TMR5H=0xA0; TMR5L=0xB0; T5CONbits.TMR5ON = 1; break;
  8550  056A  30A0               	movlw	160
  8551  056B  2E45               	goto	L134
  8552  056C                     i1l6621:	
  8553                           ;two_dimmmer_1+fan.c: 888: case '8':
  8554                           
  8555                           
  8556                           ;two_dimmmer_1+fan.c: 889: TMR5H=0xA2; TMR5L=0x40; T5CONbits.TMR5ON = 1; break;
  8557  056C  30A2               	movlw	162
  8558  056D  2E4F               	goto	L135
  8559  056E                     i1l6625:	
  8560                           ;two_dimmmer_1+fan.c: 890: case '9':
  8561                           
  8562                           
  8563                           ;two_dimmmer_1+fan.c: 891: TMR5H=0xA3; TMR5L=0xD0; T5CONbits.TMR5ON = 1; break;
  8564  056E  30A3               	movlw	163
  8565  056F  2E68               	goto	L136
  8566  0570                     i1l6631:	
  8567                           ;two_dimmmer_1+fan.c: 894: }
  8568                           
  8569                           ;two_dimmmer_1+fan.c: 893: break;
  8570                           
  8571                           ;two_dimmmer_1+fan.c: 892: default:
  8572                           
  8573                           
  8574                           ; Switch on 2 bytes has been partitioned into a top level switch of size 1, and 1 sub-sw
      +                          itches
  8575                           ; Switch size 1, requested type "space"
  8576                           ; Number of cases is 1, Range of values is 0 to 0
  8577                           ; switch strategies available:
  8578                           ; Name         Instructions Cycles
  8579                           ; simple_byte            4     3 (average)
  8580                           ; direct_byte            8     6 (fixed)
  8581                           ; jumptable            260     6 (fixed)
  8582                           ;	Chosen strategy is simple_byte
  8583  0570  0020               	movlb	0	; select bank0
  8584  0571  0852               	movf	_FAN_SPEED3_1s+1,w
  8585  0572  3A00               	xorlw	0	; case 0
  8586  0573  1903               	skipnz
  8587  0574  2D76               	goto	i1l11027
  8588  0575  2EC2               	goto	i1l574
  8589  0576                     i1l11027:	
  8590                           
  8591                           ; Switch size 1, requested type "space"
  8592                           ; Number of cases is 10, Range of values is 48 to 57
  8593                           ; switch strategies available:
  8594                           ; Name         Instructions Cycles
  8595                           ; direct_byte           29     9 (fixed)
  8596                           ; simple_byte           31    16 (average)
  8597                           ; jumptable            263     9 (fixed)
  8598                           ;	Chosen strategy is direct_byte
  8599  0576  0851               	movf	_FAN_SPEED3_1s,w
  8600  0577  3ED0               	addlw	-48
  8601  0578  1C03               	skipc
  8602  0579  2EC2               	goto	i1l574
  8603  057A  0084               	movwf	4
  8604  057B  300A               	movlw	10
  8605  057C  0204               	subwf	4,w
  8606  057D  1803               	skipnc
  8607  057E  2EC2               	goto	i1l574
  8608  057F  3191               	movlp	high i1S11029
  8609  0580  3504               	lslf	4,w
  8610  0581  3E78               	addlw	low i1S11029
  8611  0582  0082               	movwf	2
  8612                           
  8613                           ;two_dimmmer_1+fan.c: 895: break;
  8614  0583  2EC2               	goto	i1l574
  8615  0584                     i1l6633:	
  8616                           ;two_dimmmer_1+fan.c: 899: {
  8617                           ;two_dimmmer_1+fan.c: 900: case '0':
  8618                           
  8619                           ;two_dimmmer_1+fan.c: 898: switch(FAN_SPEED3_1s)
  8620                           
  8621                           ;two_dimmmer_1+fan.c: 896: case '4':
  8622                           
  8623                           
  8624                           ;two_dimmmer_1+fan.c: 901: TMR5H=0xA5; TMR5L=0x60; T5CONbits.TMR5ON = 1; break;
  8625  0584  30A5               	movlw	165
  8626  0585  2E6D               	goto	L137
  8627  0586                     i1l6637:	
  8628                           ;two_dimmmer_1+fan.c: 902: case '1':
  8629                           
  8630                           
  8631                           ;two_dimmmer_1+fan.c: 903: TMR5H=0xA6; TMR5L=0xF0; T5CONbits.TMR5ON = 1; break;
  8632  0586  30A6               	movlw	166
  8633  0587  2E72               	goto	L138
  8634  0588                     i1l6641:	
  8635                           ;two_dimmmer_1+fan.c: 904: case '2':
  8636                           
  8637                           
  8638                           ;two_dimmmer_1+fan.c: 905: TMR5H=0xA8; TMR5L=0x80; T5CONbits.TMR5ON = 1; break;
  8639  0588  30A8               	movlw	168
  8640  0589  2E77               	goto	L139
  8641  058A                     i1l6645:	
  8642                           ;two_dimmmer_1+fan.c: 906: case '3':
  8643                           
  8644                           
  8645                           ;two_dimmmer_1+fan.c: 907: TMR5H=0xAA; TMR5L=0x10; T5CONbits.TMR5ON = 1; break;
  8646  058A  30AA               	movlw	170
  8647  058B  2E7C               	goto	L140
  8648  058C                     i1l6649:	
  8649                           ;two_dimmmer_1+fan.c: 908: case '4':
  8650                           
  8651                           
  8652                           ;two_dimmmer_1+fan.c: 909: TMR5H=0xAB; TMR5L=0xA0; T5CONbits.TMR5ON = 1; break;
  8653  058C  30AB               	movlw	171
  8654  058D  2E81               	goto	L141
  8655  058E                     i1l6653:	
  8656                           ;two_dimmmer_1+fan.c: 910: case '5':
  8657                           
  8658                           
  8659                           ;two_dimmmer_1+fan.c: 911: TMR5H=0xAD; TMR5L=0x30; T5CONbits.TMR5ON = 1; break;
  8660  058E  30AD               	movlw	173
  8661  058F  2E86               	goto	L142
  8662  0590                     i1l6657:	
  8663                           ;two_dimmmer_1+fan.c: 912: case '6':
  8664                           
  8665                           
  8666                           ;two_dimmmer_1+fan.c: 913: TMR5H=0xAE; TMR5L=0xC0; T5CONbits.TMR5ON = 1; break;
  8667  0590  30AE               	movlw	174
  8668  0591  2E8B               	goto	L143
  8669  0592                     i1l6661:	
  8670                           ;two_dimmmer_1+fan.c: 914: case '7':
  8671                           
  8672                           
  8673                           ;two_dimmmer_1+fan.c: 915: TMR5H=0xB0; TMR5L=0x50; T5CONbits.TMR5ON = 1; break;
  8674  0592  30B0               	movlw	176
  8675  0593  2E90               	goto	L144
  8676  0594                     i1l6665:	
  8677                           ;two_dimmmer_1+fan.c: 916: case '8':
  8678                           
  8679                           
  8680                           ;two_dimmmer_1+fan.c: 917: TMR5H=0xB1; TMR5L=0xE0; T5CONbits.TMR5ON = 1; break;
  8681  0594  30B1               	movlw	177
  8682  0595  2E95               	goto	L114
  8683  0596                     i1l6669:	
  8684                           ;two_dimmmer_1+fan.c: 918: case '9':
  8685                           
  8686                           
  8687                           ;two_dimmmer_1+fan.c: 919: TMR5H=0xB3; TMR5L=0x70; T5CONbits.TMR5ON = 1; break;
  8688  0596  30B3               	movlw	179
  8689  0597  2E2C               	goto	L130
  8690  0598                     i1l6675:	
  8691                           ;two_dimmmer_1+fan.c: 922: }
  8692                           
  8693                           ;two_dimmmer_1+fan.c: 921: break;
  8694                           
  8695                           ;two_dimmmer_1+fan.c: 920: default:
  8696                           
  8697                           
  8698                           ; Switch on 2 bytes has been partitioned into a top level switch of size 1, and 1 sub-sw
      +                          itches
  8699                           ; Switch size 1, requested type "space"
  8700                           ; Number of cases is 1, Range of values is 0 to 0
  8701                           ; switch strategies available:
  8702                           ; Name         Instructions Cycles
  8703                           ; simple_byte            4     3 (average)
  8704                           ; direct_byte            8     6 (fixed)
  8705                           ; jumptable            260     6 (fixed)
  8706                           ;	Chosen strategy is simple_byte
  8707  0598  0020               	movlb	0	; select bank0
  8708  0599  0852               	movf	_FAN_SPEED3_1s+1,w
  8709  059A  3A00               	xorlw	0	; case 0
  8710  059B  1903               	skipnz
  8711  059C  2D9E               	goto	i1l11031
  8712  059D  2EC2               	goto	i1l574
  8713  059E                     i1l11031:	
  8714                           
  8715                           ; Switch size 1, requested type "space"
  8716                           ; Number of cases is 10, Range of values is 48 to 57
  8717                           ; switch strategies available:
  8718                           ; Name         Instructions Cycles
  8719                           ; direct_byte           29     9 (fixed)
  8720                           ; simple_byte           31    16 (average)
  8721                           ; jumptable            263     9 (fixed)
  8722                           ;	Chosen strategy is direct_byte
  8723  059E  0851               	movf	_FAN_SPEED3_1s,w
  8724  059F  3ED0               	addlw	-48
  8725  05A0  1C03               	skipc
  8726  05A1  2EC2               	goto	i1l574
  8727  05A2  0084               	movwf	4
  8728  05A3  300A               	movlw	10
  8729  05A4  0204               	subwf	4,w
  8730  05A5  1803               	skipnc
  8731  05A6  2EC2               	goto	i1l574
  8732  05A7  3191               	movlp	high i1S11033
  8733  05A8  3504               	lslf	4,w
  8734  05A9  3E8C               	addlw	low i1S11033
  8735  05AA  0082               	movwf	2
  8736                           
  8737                           ;two_dimmmer_1+fan.c: 923: break;
  8738  05AB  2EC2               	goto	i1l574
  8739  05AC                     i1l6677:	
  8740                           ;two_dimmmer_1+fan.c: 927: {
  8741                           ;two_dimmmer_1+fan.c: 928: case '0':
  8742                           
  8743                           ;two_dimmmer_1+fan.c: 926: switch(FAN_SPEED3_1s)
  8744                           
  8745                           ;two_dimmmer_1+fan.c: 924: case '5':
  8746                           
  8747                           
  8748                           ;two_dimmmer_1+fan.c: 929: TMR5H=0xB5; TMR5L=0x00; T5CONbits.TMR5ON = 1; break;
  8749  05AC  30B5               	movlw	181
  8750  05AD  2E36               	goto	L131
  8751  05AE                     i1l6683:	
  8752                           ;two_dimmmer_1+fan.c: 930: case '1':
  8753                           
  8754                           
  8755                           ;two_dimmmer_1+fan.c: 931: TMR5H=0xB6; TMR5L=0x90; T5CONbits.TMR5ON = 1; break;
  8756  05AE  30B6               	movlw	182
  8757  05AF  2E3B               	goto	L132
  8758  05B0                     i1l6687:	
  8759                           ;two_dimmmer_1+fan.c: 932: case '2':
  8760                           
  8761                           
  8762                           ;two_dimmmer_1+fan.c: 933: TMR5H=0xB8; TMR5L=0x20; T5CONbits.TMR5ON = 1; break;
  8763  05B0  30B8               	movlw	184
  8764  05B1  2E40               	goto	L133
  8765  05B2                     i1l6691:	
  8766                           ;two_dimmmer_1+fan.c: 934: case '3':
  8767                           
  8768                           
  8769                           ;two_dimmmer_1+fan.c: 935: TMR5H=0xB9; TMR5L=0xB0; T5CONbits.TMR5ON = 1; break;
  8770  05B2  30B9               	movlw	185
  8771  05B3  2E45               	goto	L134
  8772  05B4                     i1l6695:	
  8773                           ;two_dimmmer_1+fan.c: 936: case '4':
  8774                           
  8775                           
  8776                           ;two_dimmmer_1+fan.c: 937: TMR5H=0xBB; TMR5L=0x40; T5CONbits.TMR5ON = 1; break;
  8777  05B4  30BB               	movlw	187
  8778  05B5  2E4F               	goto	L135
  8779  05B6                     i1l6699:	
  8780                           ;two_dimmmer_1+fan.c: 938: case '5':
  8781                           
  8782                           
  8783                           ;two_dimmmer_1+fan.c: 939: TMR5H=0xBC; TMR5L=0xD0; T5CONbits.TMR5ON = 1; break;
  8784  05B6  30BC               	movlw	188
  8785  05B7  2E68               	goto	L136
  8786  05B8                     i1l6703:	
  8787                           ;two_dimmmer_1+fan.c: 940: case '6':
  8788                           
  8789                           
  8790                           ;two_dimmmer_1+fan.c: 941: TMR5H=0xBE; TMR5L=0x60; T5CONbits.TMR5ON = 1; break;
  8791  05B8  30BE               	movlw	190
  8792  05B9  2E6D               	goto	L137
  8793  05BA                     i1l6707:	
  8794                           ;two_dimmmer_1+fan.c: 942: case '7':
  8795                           
  8796                           
  8797                           ;two_dimmmer_1+fan.c: 943: TMR5H=0xBF; TMR5L=0xF0; T5CONbits.TMR5ON = 1; break;
  8798  05BA  30BF               	movlw	191
  8799  05BB  2E72               	goto	L138
  8800  05BC                     i1l6711:	
  8801                           ;two_dimmmer_1+fan.c: 944: case '8':
  8802                           
  8803                           
  8804                           ;two_dimmmer_1+fan.c: 945: TMR5H=0xC1; TMR5L=0x80; T5CONbits.TMR5ON = 1; break;
  8805  05BC  30C1               	movlw	193
  8806  05BD  2E77               	goto	L139
  8807  05BE                     i1l6715:	
  8808                           ;two_dimmmer_1+fan.c: 946: case '9':
  8809                           
  8810                           
  8811                           ;two_dimmmer_1+fan.c: 947: TMR5H=0xC3; TMR5L=0x10; T5CONbits.TMR5ON = 1; break;
  8812  05BE  30C3               	movlw	195
  8813  05BF  2E7C               	goto	L140
  8814  05C0                     i1l6721:	
  8815                           ;two_dimmmer_1+fan.c: 950: }
  8816                           
  8817                           ;two_dimmmer_1+fan.c: 949: break;
  8818                           
  8819                           ;two_dimmmer_1+fan.c: 948: default:
  8820                           
  8821                           
  8822                           ; Switch on 2 bytes has been partitioned into a top level switch of size 1, and 1 sub-sw
      +                          itches
  8823                           ; Switch size 1, requested type "space"
  8824                           ; Number of cases is 1, Range of values is 0 to 0
  8825                           ; switch strategies available:
  8826                           ; Name         Instructions Cycles
  8827                           ; simple_byte            4     3 (average)
  8828                           ; direct_byte            8     6 (fixed)
  8829                           ; jumptable            260     6 (fixed)
  8830                           ;	Chosen strategy is simple_byte
  8831  05C0  0020               	movlb	0	; select bank0
  8832  05C1  0852               	movf	_FAN_SPEED3_1s+1,w
  8833  05C2  3A00               	xorlw	0	; case 0
  8834  05C3  1903               	skipnz
  8835  05C4  2DC6               	goto	i1l11035
  8836  05C5  2EC2               	goto	i1l574
  8837  05C6                     i1l11035:	
  8838                           
  8839                           ; Switch size 1, requested type "space"
  8840                           ; Number of cases is 10, Range of values is 48 to 57
  8841                           ; switch strategies available:
  8842                           ; Name         Instructions Cycles
  8843                           ; direct_byte           29     9 (fixed)
  8844                           ; simple_byte           31    16 (average)
  8845                           ; jumptable            263     9 (fixed)
  8846                           ;	Chosen strategy is direct_byte
  8847  05C6  0851               	movf	_FAN_SPEED3_1s,w
  8848  05C7  3ED0               	addlw	-48
  8849  05C8  1C03               	skipc
  8850  05C9  2EC2               	goto	i1l574
  8851  05CA  0084               	movwf	4
  8852  05CB  300A               	movlw	10
  8853  05CC  0204               	subwf	4,w
  8854  05CD  1803               	skipnc
  8855  05CE  2EC2               	goto	i1l574
  8856  05CF  3191               	movlp	high i1S11037
  8857  05D0  3504               	lslf	4,w
  8858  05D1  3EA0               	addlw	low i1S11037
  8859  05D2  0082               	movwf	2
  8860                           
  8861                           ;two_dimmmer_1+fan.c: 951: break;
  8862  05D3  2EC2               	goto	i1l574
  8863  05D4                     i1l6723:	
  8864                           ;two_dimmmer_1+fan.c: 955: {
  8865                           ;two_dimmmer_1+fan.c: 956: case '0':
  8866                           
  8867                           ;two_dimmmer_1+fan.c: 954: switch(FAN_SPEED3_1s)
  8868                           
  8869                           ;two_dimmmer_1+fan.c: 952: case '6':
  8870                           
  8871                           
  8872                           ;two_dimmmer_1+fan.c: 957: TMR5H=0xC4; TMR5L=0xA0; T5CONbits.TMR5ON = 1; break;
  8873  05D4  30C4               	movlw	196
  8874  05D5  2E81               	goto	L141
  8875  05D6                     i1l6727:	
  8876                           ;two_dimmmer_1+fan.c: 958: case '1':
  8877                           
  8878                           
  8879                           ;two_dimmmer_1+fan.c: 959: TMR5H=0xC6; TMR5L=0x30; T5CONbits.TMR5ON = 1; break;
  8880  05D6  30C6               	movlw	198
  8881  05D7  2E86               	goto	L142
  8882  05D8                     i1l6731:	
  8883                           ;two_dimmmer_1+fan.c: 960: case '2':
  8884                           
  8885                           
  8886                           ;two_dimmmer_1+fan.c: 961: TMR5H=0xC7; TMR5L=0xC0; T5CONbits.TMR5ON = 1; break;
  8887  05D8  30C7               	movlw	199
  8888  05D9  2E8B               	goto	L143
  8889  05DA                     i1l6735:	
  8890                           ;two_dimmmer_1+fan.c: 962: case '3':
  8891                           
  8892                           
  8893                           ;two_dimmmer_1+fan.c: 963: TMR5H=0xC9; TMR5L=0x50; T5CONbits.TMR5ON = 1; break;
  8894  05DA  30C9               	movlw	201
  8895  05DB  2E90               	goto	L144
  8896  05DC                     i1l6739:	
  8897                           ;two_dimmmer_1+fan.c: 964: case '4':
  8898                           
  8899                           
  8900                           ;two_dimmmer_1+fan.c: 965: TMR5H=0xCA; TMR5L=0xE0; T5CONbits.TMR5ON = 1; break;
  8901  05DC  30CA               	movlw	202
  8902  05DD  2E95               	goto	L114
  8903  05DE                     i1l6743:	
  8904                           ;two_dimmmer_1+fan.c: 966: case '5':
  8905                           
  8906                           
  8907                           ;two_dimmmer_1+fan.c: 967: TMR5H=0xCC; TMR5L=0x70; T5CONbits.TMR5ON = 1; break;
  8908  05DE  30CC               	movlw	204
  8909  05DF  2E2C               	goto	L130
  8910  05E0                     i1l6747:	
  8911                           ;two_dimmmer_1+fan.c: 968: case '6':
  8912                           
  8913                           
  8914                           ;two_dimmmer_1+fan.c: 969: TMR5H=0xCE; TMR5L=0x00; T5CONbits.TMR5ON = 1; break;
  8915  05E0  30CE               	movlw	206
  8916  05E1  2E36               	goto	L131
  8917  05E2                     i1l6753:	
  8918                           ;two_dimmmer_1+fan.c: 970: case '7':
  8919                           
  8920                           
  8921                           ;two_dimmmer_1+fan.c: 971: TMR5H=0xCF; TMR5L=0x90; T5CONbits.TMR5ON = 1; break;
  8922  05E2  30CF               	movlw	207
  8923  05E3  2E3B               	goto	L132
  8924  05E4                     i1l6757:	
  8925                           ;two_dimmmer_1+fan.c: 972: case '8':
  8926                           
  8927                           
  8928                           ;two_dimmmer_1+fan.c: 973: TMR5H=0xD1; TMR5L=0x20; T5CONbits.TMR5ON = 1; break;
  8929  05E4  30D1               	movlw	209
  8930  05E5  2E40               	goto	L133
  8931  05E6                     i1l6761:	
  8932                           ;two_dimmmer_1+fan.c: 974: case '9':
  8933                           
  8934                           
  8935                           ;two_dimmmer_1+fan.c: 975: TMR5H=0xD2; TMR5L=0xB0; T5CONbits.TMR5ON = 1; break;
  8936  05E6  30D2               	movlw	210
  8937  05E7  2E45               	goto	L134
  8938  05E8                     i1l6767:	
  8939                           ;two_dimmmer_1+fan.c: 978: }
  8940                           
  8941                           ;two_dimmmer_1+fan.c: 977: break;
  8942                           
  8943                           ;two_dimmmer_1+fan.c: 976: default:
  8944                           
  8945                           
  8946                           ; Switch on 2 bytes has been partitioned into a top level switch of size 1, and 1 sub-sw
      +                          itches
  8947                           ; Switch size 1, requested type "space"
  8948                           ; Number of cases is 1, Range of values is 0 to 0
  8949                           ; switch strategies available:
  8950                           ; Name         Instructions Cycles
  8951                           ; simple_byte            4     3 (average)
  8952                           ; direct_byte            8     6 (fixed)
  8953                           ; jumptable            260     6 (fixed)
  8954                           ;	Chosen strategy is simple_byte
  8955  05E8  0020               	movlb	0	; select bank0
  8956  05E9  0852               	movf	_FAN_SPEED3_1s+1,w
  8957  05EA  3A00               	xorlw	0	; case 0
  8958  05EB  1903               	skipnz
  8959  05EC  2DEE               	goto	i1l11039
  8960  05ED  2EC2               	goto	i1l574
  8961  05EE                     i1l11039:	
  8962                           
  8963                           ; Switch size 1, requested type "space"
  8964                           ; Number of cases is 10, Range of values is 48 to 57
  8965                           ; switch strategies available:
  8966                           ; Name         Instructions Cycles
  8967                           ; direct_byte           29     9 (fixed)
  8968                           ; simple_byte           31    16 (average)
  8969                           ; jumptable            263     9 (fixed)
  8970                           ;	Chosen strategy is direct_byte
  8971  05EE  0851               	movf	_FAN_SPEED3_1s,w
  8972  05EF  3ED0               	addlw	-48
  8973  05F0  1C03               	skipc
  8974  05F1  2EC2               	goto	i1l574
  8975  05F2  0084               	movwf	4
  8976  05F3  300A               	movlw	10
  8977  05F4  0204               	subwf	4,w
  8978  05F5  1803               	skipnc
  8979  05F6  2EC2               	goto	i1l574
  8980  05F7  3191               	movlp	high i1S11041
  8981  05F8  3504               	lslf	4,w
  8982  05F9  3EB4               	addlw	low i1S11041
  8983  05FA  0082               	movwf	2
  8984                           
  8985                           ;two_dimmmer_1+fan.c: 979: break;
  8986  05FB  2EC2               	goto	i1l574
  8987  05FC                     i1l6769:	
  8988                           ;two_dimmmer_1+fan.c: 983: {
  8989                           ;two_dimmmer_1+fan.c: 984: case '0':
  8990                           
  8991                           ;two_dimmmer_1+fan.c: 982: switch(FAN_SPEED3_1s)
  8992                           
  8993                           ;two_dimmmer_1+fan.c: 980: case '7':
  8994                           
  8995                           
  8996                           ;two_dimmmer_1+fan.c: 985: TMR5H=0xD4; TMR5L=0x40; T5CONbits.TMR5ON = 1; break;
  8997  05FC  30D4               	movlw	212
  8998  05FD  2E4F               	goto	L135
  8999  05FE                     i1l6773:	
  9000                           ;two_dimmmer_1+fan.c: 986: case '1':
  9001                           
  9002                           
  9003                           ;two_dimmmer_1+fan.c: 987: TMR5H=0xD5; TMR5L=0xD0; T5CONbits.TMR5ON = 1; break;
  9004  05FE  30D5               	movlw	213
  9005  05FF  2E68               	goto	L136
  9006  0600                     i1l6777:	
  9007                           ;two_dimmmer_1+fan.c: 988: case '2':
  9008                           
  9009                           
  9010                           ;two_dimmmer_1+fan.c: 989: TMR5H=0xD7; TMR5L=0x60; T5CONbits.TMR5ON = 1; break;
  9011  0600  30D7               	movlw	215
  9012  0601  2E6D               	goto	L137
  9013  0602                     i1l6781:	
  9014                           ;two_dimmmer_1+fan.c: 990: case '3':
  9015                           
  9016                           
  9017                           ;two_dimmmer_1+fan.c: 991: TMR5H=0xD8; TMR5L=0xF0; T5CONbits.TMR5ON = 1; break;
  9018  0602  30D8               	movlw	216
  9019  0603  2E72               	goto	L138
  9020  0604                     i1l6785:	
  9021                           ;two_dimmmer_1+fan.c: 992: case '4':
  9022                           
  9023                           
  9024                           ;two_dimmmer_1+fan.c: 993: TMR5H=0xDA; TMR5L=0x80; T5CONbits.TMR5ON = 1; break;
  9025  0604  30DA               	movlw	218
  9026  0605  2E77               	goto	L139
  9027  0606                     i1l6789:	
  9028                           ;two_dimmmer_1+fan.c: 994: case '5':
  9029                           
  9030                           
  9031                           ;two_dimmmer_1+fan.c: 995: TMR5H=0xDC; TMR5L=0x10; T5CONbits.TMR5ON = 1; break;
  9032  0606  30DC               	movlw	220
  9033  0607  2E7C               	goto	L140
  9034  0608                     i1l6793:	
  9035                           ;two_dimmmer_1+fan.c: 996: case '6':
  9036                           
  9037                           
  9038                           ;two_dimmmer_1+fan.c: 997: TMR5H=0xDD; TMR5L=0xA0; T5CONbits.TMR5ON = 1; break;
  9039  0608  30DD               	movlw	221
  9040  0609  2E81               	goto	L141
  9041  060A                     i1l6797:	
  9042                           ;two_dimmmer_1+fan.c: 998: case '7':
  9043                           
  9044                           
  9045                           ;two_dimmmer_1+fan.c: 999: TMR5H=0xDF; TMR5L=0x30; T5CONbits.TMR5ON = 1; break;
  9046  060A  30DF               	movlw	223
  9047  060B  2E86               	goto	L142
  9048  060C                     i1l6801:	
  9049                           ;two_dimmmer_1+fan.c: 1000: case '8':
  9050                           
  9051                           
  9052                           ;two_dimmmer_1+fan.c: 1001: TMR5H=0xE0; TMR5L=0xC0; T5CONbits.TMR5ON = 1; break;
  9053  060C  30E0               	movlw	224
  9054  060D  2E8B               	goto	L143
  9055  060E                     i1l6805:	
  9056                           ;two_dimmmer_1+fan.c: 1002: case '9':
  9057                           
  9058                           
  9059                           ;two_dimmmer_1+fan.c: 1003: TMR5H=0xE2; TMR5L=0x50; T5CONbits.TMR5ON = 1; break;
  9060  060E  30E2               	movlw	226
  9061  060F  2E90               	goto	L144
  9062  0610                     i1l6811:	
  9063                           ;two_dimmmer_1+fan.c: 1006: }
  9064                           
  9065                           ;two_dimmmer_1+fan.c: 1005: break;
  9066                           
  9067                           ;two_dimmmer_1+fan.c: 1004: default:
  9068                           
  9069                           
  9070                           ; Switch on 2 bytes has been partitioned into a top level switch of size 1, and 1 sub-sw
      +                          itches
  9071                           ; Switch size 1, requested type "space"
  9072                           ; Number of cases is 1, Range of values is 0 to 0
  9073                           ; switch strategies available:
  9074                           ; Name         Instructions Cycles
  9075                           ; simple_byte            4     3 (average)
  9076                           ; direct_byte            8     6 (fixed)
  9077                           ; jumptable            260     6 (fixed)
  9078                           ;	Chosen strategy is simple_byte
  9079  0610  0020               	movlb	0	; select bank0
  9080  0611  0852               	movf	_FAN_SPEED3_1s+1,w
  9081  0612  3A00               	xorlw	0	; case 0
  9082  0613  1903               	skipnz
  9083  0614  2E16               	goto	i1l11043
  9084  0615  2EC2               	goto	i1l574
  9085  0616                     i1l11043:	
  9086                           
  9087                           ; Switch size 1, requested type "space"
  9088                           ; Number of cases is 10, Range of values is 48 to 57
  9089                           ; switch strategies available:
  9090                           ; Name         Instructions Cycles
  9091                           ; direct_byte           29     9 (fixed)
  9092                           ; simple_byte           31    16 (average)
  9093                           ; jumptable            263     9 (fixed)
  9094                           ;	Chosen strategy is direct_byte
  9095  0616  0851               	movf	_FAN_SPEED3_1s,w
  9096  0617  3ED0               	addlw	-48
  9097  0618  1C03               	skipc
  9098  0619  2EC2               	goto	i1l574
  9099  061A  0084               	movwf	4
  9100  061B  300A               	movlw	10
  9101  061C  0204               	subwf	4,w
  9102  061D  1803               	skipnc
  9103  061E  2EC2               	goto	i1l574
  9104  061F  3191               	movlp	high i1S11045
  9105  0620  3504               	lslf	4,w
  9106  0621  3EC8               	addlw	low i1S11045
  9107  0622  0082               	movwf	2
  9108                           
  9109                           ;two_dimmmer_1+fan.c: 1007: break;
  9110  0623  2EC2               	goto	i1l574
  9111  0624                     i1l6813:	
  9112                           ;two_dimmmer_1+fan.c: 1011: {
  9113                           ;two_dimmmer_1+fan.c: 1012: case '0':
  9114                           
  9115                           ;two_dimmmer_1+fan.c: 1010: switch(FAN_SPEED3_1s)
  9116                           
  9117                           ;two_dimmmer_1+fan.c: 1008: case '8':
  9118                           
  9119                           
  9120                           ;two_dimmmer_1+fan.c: 1013: TMR5H=0xE3; TMR5L=0xE0; T5CONbits.TMR5ON = 1; break;
  9121  0624  30E3               	movlw	227
  9122  0625  2E95               	goto	L114
  9123  0626                     i1l6817:	
  9124                           ;two_dimmmer_1+fan.c: 1014: case '1':
  9125                           
  9126                           
  9127                           ;two_dimmmer_1+fan.c: 1015: TMR5H=0xE4; TMR5L=0xA8; T5CONbits.TMR5ON = 1; break;
  9128  0626  30E4               	movlw	228
  9129  0627                     L157:	
  9130  0627  0028               	movlb	8	; select bank8
  9131  0628  0099               	movwf	25	;volatile
  9132  0629  30A8               	movlw	168
  9133  062A  2E98               	goto	L6
  9134  062B                     i1l6821:	
  9135                           ;two_dimmmer_1+fan.c: 1016: case '2':
  9136                           
  9137                           
  9138                           ;two_dimmmer_1+fan.c: 1017: TMR5H=0xE5; TMR5L=0x70; T5CONbits.TMR5ON = 1; break;
  9139  062B  30E5               	movlw	229
  9140  062C                     L130:	
  9141  062C  0028               	movlb	8	; select bank8
  9142  062D  0099               	movwf	25	;volatile
  9143  062E  3070               	movlw	112
  9144  062F  2E98               	goto	L6
  9145  0630                     i1l6825:	
  9146                           ;two_dimmmer_1+fan.c: 1018: case '3':
  9147                           
  9148                           
  9149                           ;two_dimmmer_1+fan.c: 1019: TMR5H=0xE6; TMR5L=0x38; T5CONbits.TMR5ON = 1; break;
  9150  0630  30E6               	movlw	230
  9151  0631  0028               	movlb	8	; select bank8
  9152  0632  0099               	movwf	25	;volatile
  9153  0633  3038               	movlw	56
  9154  0634  2E98               	goto	L6
  9155  0635                     i1l6829:	
  9156                           ;two_dimmmer_1+fan.c: 1020: case '4':
  9157                           
  9158                           
  9159                           ;two_dimmmer_1+fan.c: 1021: TMR5H=0xE7; TMR5L=0x00; T5CONbits.TMR5ON = 1; break;
  9160  0635  30E7               	movlw	231
  9161  0636                     L131:	
  9162  0636  0028               	movlb	8	; select bank8
  9163  0637  0099               	movwf	25	;volatile
  9164  0638  0198               	clrf	24	;volatile
  9165  0639  2E99               	goto	i1l6897
  9166  063A                     i1l6835:	
  9167                           ;two_dimmmer_1+fan.c: 1022: case '5':
  9168                           
  9169                           
  9170                           ;two_dimmmer_1+fan.c: 1023: TMR5H=0xE8; TMR5L=0x90; T5CONbits.TMR5ON = 1; break;
  9171  063A  30E8               	movlw	232
  9172  063B                     L132:	
  9173  063B  0028               	movlb	8	; select bank8
  9174  063C  0099               	movwf	25	;volatile
  9175  063D  3090               	movlw	144
  9176  063E  2E98               	goto	L6
  9177  063F                     i1l6839:	
  9178                           ;two_dimmmer_1+fan.c: 1024: case '6':
  9179                           
  9180                           
  9181                           ;two_dimmmer_1+fan.c: 1025: TMR5H=0xEA; TMR5L=0x20; T5CONbits.TMR5ON = 1; break;
  9182  063F  30EA               	movlw	234
  9183  0640                     L133:	
  9184  0640  0028               	movlb	8	; select bank8
  9185  0641  0099               	movwf	25	;volatile
  9186  0642  3020               	movlw	32
  9187  0643  2E98               	goto	L6
  9188  0644                     i1l6843:	
  9189                           ;two_dimmmer_1+fan.c: 1026: case '7':
  9190                           
  9191                           
  9192                           ;two_dimmmer_1+fan.c: 1027: TMR5H=0xEB; TMR5L=0xB0; T5CONbits.TMR5ON = 1; break;
  9193  0644  30EB               	movlw	235
  9194  0645                     L134:	
  9195  0645  0028               	movlb	8	; select bank8
  9196  0646  0099               	movwf	25	;volatile
  9197  0647  30B0               	movlw	176
  9198  0648  2E98               	goto	L6
  9199  0649                     i1l6847:	
  9200                           ;two_dimmmer_1+fan.c: 1028: case '8':
  9201                           
  9202                           
  9203                           ;two_dimmmer_1+fan.c: 1029: TMR5H=0xEC; TMR5L=0x78; T5CONbits.TMR5ON = 1; break;
  9204  0649  30EC               	movlw	236
  9205  064A                     L159:	
  9206  064A  0028               	movlb	8	; select bank8
  9207  064B  0099               	movwf	25	;volatile
  9208  064C  3078               	movlw	120
  9209  064D  2E98               	goto	L6
  9210  064E                     i1l6851:	
  9211                           ;two_dimmmer_1+fan.c: 1030: case '9':
  9212                           
  9213                           
  9214                           ;two_dimmmer_1+fan.c: 1031: TMR5H=0xED; TMR5L=0x40; T5CONbits.TMR5ON = 1; break;
  9215  064E  30ED               	movlw	237
  9216  064F                     L135:	
  9217  064F  0028               	movlb	8	; select bank8
  9218  0650  0099               	movwf	25	;volatile
  9219  0651  3040               	movlw	64
  9220  0652  2E98               	goto	L6
  9221  0653                     i1l6857:	
  9222                           ;two_dimmmer_1+fan.c: 1034: }
  9223                           
  9224                           ;two_dimmmer_1+fan.c: 1033: break;
  9225                           
  9226                           ;two_dimmmer_1+fan.c: 1032: default:
  9227                           
  9228                           
  9229                           ; Switch on 2 bytes has been partitioned into a top level switch of size 1, and 1 sub-sw
      +                          itches
  9230                           ; Switch size 1, requested type "space"
  9231                           ; Number of cases is 1, Range of values is 0 to 0
  9232                           ; switch strategies available:
  9233                           ; Name         Instructions Cycles
  9234                           ; simple_byte            4     3 (average)
  9235                           ; direct_byte            8     6 (fixed)
  9236                           ; jumptable            260     6 (fixed)
  9237                           ;	Chosen strategy is simple_byte
  9238  0653  0020               	movlb	0	; select bank0
  9239  0654  0852               	movf	_FAN_SPEED3_1s+1,w
  9240  0655  3A00               	xorlw	0	; case 0
  9241  0656  1903               	skipnz
  9242  0657  2E59               	goto	i1l11047
  9243  0658  2EC2               	goto	i1l574
  9244  0659                     i1l11047:	
  9245                           
  9246                           ; Switch size 1, requested type "space"
  9247                           ; Number of cases is 10, Range of values is 48 to 57
  9248                           ; switch strategies available:
  9249                           ; Name         Instructions Cycles
  9250                           ; direct_byte           29     9 (fixed)
  9251                           ; simple_byte           31    16 (average)
  9252                           ; jumptable            263     9 (fixed)
  9253                           ;	Chosen strategy is direct_byte
  9254  0659  0851               	movf	_FAN_SPEED3_1s,w
  9255  065A  3ED0               	addlw	-48
  9256  065B  1C03               	skipc
  9257  065C  2EC2               	goto	i1l574
  9258  065D  0084               	movwf	4
  9259  065E  300A               	movlw	10
  9260  065F  0204               	subwf	4,w
  9261  0660  1803               	skipnc
  9262  0661  2EC2               	goto	i1l574
  9263  0662  3191               	movlp	high i1S11049
  9264  0663  3504               	lslf	4,w
  9265  0664  3EDC               	addlw	low i1S11049
  9266  0665  0082               	movwf	2
  9267                           
  9268                           ;two_dimmmer_1+fan.c: 1035: break;
  9269  0666  2EC2               	goto	i1l574
  9270  0667                     i1l6859:	
  9271                           ;two_dimmmer_1+fan.c: 1039: {
  9272                           ;two_dimmmer_1+fan.c: 1040: case '0':
  9273                           
  9274                           ;two_dimmmer_1+fan.c: 1038: switch(FAN_SPEED3_1s)
  9275                           
  9276                           ;two_dimmmer_1+fan.c: 1036: case '9':
  9277                           
  9278                           
  9279                           ;two_dimmmer_1+fan.c: 1041: TMR5H=0xEE; TMR5L=0xD0; T5CONbits.TMR5ON = 1; break;
  9280  0667  30EE               	movlw	238
  9281  0668                     L136:	
  9282  0668  0028               	movlb	8	; select bank8
  9283  0669  0099               	movwf	25	;volatile
  9284  066A  30D0               	movlw	208
  9285  066B  2E98               	goto	L6
  9286  066C                     i1l6863:	
  9287                           ;two_dimmmer_1+fan.c: 1042: case '1':
  9288                           
  9289                           
  9290                           ;two_dimmmer_1+fan.c: 1043: TMR5H=0xF0; TMR5L=0x60; T5CONbits.TMR5ON = 1; break;
  9291  066C  30F0               	movlw	240
  9292  066D                     L137:	
  9293  066D  0028               	movlb	8	; select bank8
  9294  066E  0099               	movwf	25	;volatile
  9295  066F  3060               	movlw	96
  9296  0670  2E98               	goto	L6
  9297  0671                     i1l6867:	
  9298                           ;two_dimmmer_1+fan.c: 1044: case '2':
  9299                           
  9300                           
  9301                           ;two_dimmmer_1+fan.c: 1045: TMR5H=0xF1; TMR5L=0xF0; T5CONbits.TMR5ON = 1; break;
  9302  0671  30F1               	movlw	241
  9303  0672                     L138:	
  9304  0672  0028               	movlb	8	; select bank8
  9305  0673  0099               	movwf	25	;volatile
  9306  0674  30F0               	movlw	240
  9307  0675  2E98               	goto	L6
  9308  0676                     i1l6871:	
  9309                           ;two_dimmmer_1+fan.c: 1046: case '3':
  9310                           
  9311                           
  9312                           ;two_dimmmer_1+fan.c: 1047: TMR5H=0xF3; TMR5L=0x80; T5CONbits.TMR5ON = 1; break;
  9313  0676  30F3               	movlw	243
  9314  0677                     L139:	
  9315  0677  0028               	movlb	8	; select bank8
  9316  0678  0099               	movwf	25	;volatile
  9317  0679  3080               	movlw	128
  9318  067A  2E98               	goto	L6
  9319  067B                     i1l6875:	
  9320                           ;two_dimmmer_1+fan.c: 1048: case '4':
  9321                           
  9322                           
  9323                           ;two_dimmmer_1+fan.c: 1049: TMR5H=0xF5; TMR5L=0x10; T5CONbits.TMR5ON = 1; break;
  9324  067B  30F5               	movlw	245
  9325  067C                     L140:	
  9326  067C  0028               	movlb	8	; select bank8
  9327  067D  0099               	movwf	25	;volatile
  9328  067E  3010               	movlw	16
  9329  067F  2E98               	goto	L6
  9330  0680                     i1l6879:	
  9331                           ;two_dimmmer_1+fan.c: 1050: case '5':
  9332                           
  9333                           
  9334                           ;two_dimmmer_1+fan.c: 1051: TMR5H=0xF6; TMR5L=0xA0; T5CONbits.TMR5ON = 1; break;
  9335  0680  30F6               	movlw	246
  9336  0681                     L141:	
  9337  0681  0028               	movlb	8	; select bank8
  9338  0682  0099               	movwf	25	;volatile
  9339  0683  30A0               	movlw	160
  9340  0684  2E98               	goto	L6
  9341  0685                     i1l6883:	
  9342                           ;two_dimmmer_1+fan.c: 1052: case '6':
  9343                           
  9344                           
  9345                           ;two_dimmmer_1+fan.c: 1053: TMR5H=0xF8; TMR5L=0x30; T5CONbits.TMR5ON = 1; break;
  9346  0685  30F8               	movlw	248
  9347  0686                     L142:	
  9348  0686  0028               	movlb	8	; select bank8
  9349  0687  0099               	movwf	25	;volatile
  9350  0688  3030               	movlw	48
  9351  0689  2E98               	goto	L6
  9352  068A                     i1l6887:	
  9353                           ;two_dimmmer_1+fan.c: 1054: case '7':
  9354                           
  9355                           
  9356                           ;two_dimmmer_1+fan.c: 1055: TMR5H=0xF9; TMR5L=0xC0; T5CONbits.TMR5ON = 1; break;
  9357  068A  30F9               	movlw	249
  9358  068B                     L143:	
  9359  068B  0028               	movlb	8	; select bank8
  9360  068C  0099               	movwf	25	;volatile
  9361  068D  30C0               	movlw	192
  9362  068E  2E98               	goto	L6
  9363  068F                     i1l6891:	
  9364                           ;two_dimmmer_1+fan.c: 1056: case '8':
  9365                           
  9366                           
  9367                           ;two_dimmmer_1+fan.c: 1057: TMR5H=0xFB; TMR5L=0x50; T5CONbits.TMR5ON = 1; break;
  9368  068F  30FB               	movlw	251
  9369  0690                     L144:	
  9370  0690  0028               	movlb	8	; select bank8
  9371  0691  0099               	movwf	25	;volatile
  9372  0692  3050               	movlw	80
  9373  0693  2E98               	goto	L6
  9374  0694                     i1l6895:	
  9375                           ;two_dimmmer_1+fan.c: 1058: case '9':
  9376                           
  9377                           
  9378                           ;two_dimmmer_1+fan.c: 1059: TMR5H=0xFC; TMR5L=0xE0; T5CONbits.TMR5ON = 1; break;
  9379  0694  30FC               	movlw	252
  9380  0695                     L114:	
  9381  0695  0028               	movlb	8	; select bank8
  9382  0696  0099               	movwf	25	;volatile
  9383  0697  30E0               	movlw	224
  9384  0698                     L6:	
  9385  0698  0098               	movwf	24	;volatile
  9386  0699                     i1l6897:	
  9387  0699  141A               	bsf	26,0	;volatile
  9388                           
  9389                           ;two_dimmmer_1+fan.c: 1062: }
  9390                           
  9391                           ;two_dimmmer_1+fan.c: 1061: break;
  9392                           
  9393                           ;two_dimmmer_1+fan.c: 1060: default:
  9394  069A  2EC2               	goto	i1l574
  9395  069B                     i1l6901:	
  9396                           
  9397                           ; Switch on 2 bytes has been partitioned into a top level switch of size 1, and 1 sub-sw
      +                          itches
  9398                           ; Switch size 1, requested type "space"
  9399                           ; Number of cases is 1, Range of values is 0 to 0
  9400                           ; switch strategies available:
  9401                           ; Name         Instructions Cycles
  9402                           ; simple_byte            4     3 (average)
  9403                           ; direct_byte            8     6 (fixed)
  9404                           ; jumptable            260     6 (fixed)
  9405                           ;	Chosen strategy is simple_byte
  9406  069B  0020               	movlb	0	; select bank0
  9407  069C  0852               	movf	_FAN_SPEED3_1s+1,w
  9408  069D  3A00               	xorlw	0	; case 0
  9409  069E  1903               	skipnz
  9410  069F  2EA1               	goto	i1l11051
  9411  06A0  2EC2               	goto	i1l574
  9412  06A1                     i1l11051:	
  9413                           
  9414                           ; Switch size 1, requested type "space"
  9415                           ; Number of cases is 10, Range of values is 48 to 57
  9416                           ; switch strategies available:
  9417                           ; Name         Instructions Cycles
  9418                           ; direct_byte           29     9 (fixed)
  9419                           ; simple_byte           31    16 (average)
  9420                           ; jumptable            263     9 (fixed)
  9421                           ;	Chosen strategy is direct_byte
  9422  06A1  0851               	movf	_FAN_SPEED3_1s,w
  9423  06A2  3ED0               	addlw	-48
  9424  06A3  1C03               	skipc
  9425  06A4  2EC2               	goto	i1l574
  9426  06A5  0084               	movwf	4
  9427  06A6  300A               	movlw	10
  9428  06A7  0204               	subwf	4,w
  9429  06A8  1803               	skipnc
  9430  06A9  2EC2               	goto	i1l574
  9431  06AA  3192               	movlp	high i1S11053
  9432  06AB  3504               	lslf	4,w
  9433  06AC  3E00               	addlw	low i1S11053
  9434  06AD  0082               	movwf	2
  9435                           
  9436                           ;two_dimmmer_1+fan.c: 1066: }
  9437                           
  9438                           ;two_dimmmer_1+fan.c: 1065: break;
  9439                           
  9440                           ;two_dimmmer_1+fan.c: 1064: default:
  9441                           
  9442                           ;two_dimmmer_1+fan.c: 1063: break;
  9443  06AE  2EC2               	goto	i1l574
  9444  06AF                     i1l6905:	
  9445                           
  9446                           ; Switch on 2 bytes has been partitioned into a top level switch of size 1, and 1 sub-sw
      +                          itches
  9447                           ; Switch size 1, requested type "space"
  9448                           ; Number of cases is 1, Range of values is 0 to 0
  9449                           ; switch strategies available:
  9450                           ; Name         Instructions Cycles
  9451                           ; simple_byte            4     3 (average)
  9452                           ; direct_byte            8     6 (fixed)
  9453                           ; jumptable            260     6 (fixed)
  9454                           ;	Chosen strategy is simple_byte
  9455  06AF  0021               	movlb	1	; select bank1
  9456  06B0  0867               	movf	(_FAN_SPEED3_10s+1)^(0+128),w
  9457  06B1  3A00               	xorlw	0	; case 0
  9458  06B2  1903               	skipnz
  9459  06B3  2EB5               	goto	i1l11055
  9460  06B4  2EC2               	goto	i1l574
  9461  06B5                     i1l11055:	
  9462                           
  9463                           ; Switch size 1, requested type "space"
  9464                           ; Number of cases is 10, Range of values is 48 to 57
  9465                           ; switch strategies available:
  9466                           ; Name         Instructions Cycles
  9467                           ; direct_byte           29     9 (fixed)
  9468                           ; simple_byte           31    16 (average)
  9469                           ; jumptable            263     9 (fixed)
  9470                           ;	Chosen strategy is direct_byte
  9471  06B5  0866               	movf	_FAN_SPEED3_10s^(0+128),w
  9472  06B6  3ED0               	addlw	-48
  9473  06B7  1C03               	skipc
  9474  06B8  2EC2               	goto	i1l574
  9475  06B9  0084               	movwf	4
  9476  06BA  300A               	movlw	10
  9477  06BB  0204               	subwf	4,w
  9478  06BC  1803               	skipnc
  9479  06BD  2EC2               	goto	i1l574
  9480  06BE  3192               	movlp	high i1S11057
  9481  06BF  3504               	lslf	4,w
  9482  06C0  3E14               	addlw	low i1S11057
  9483  06C1  0082               	movwf	2
  9484  06C2                     i1l574:	
  9485                           
  9486                           ;two_dimmmer_1+fan.c: 1067: }
  9487                           ;two_dimmmer_1+fan.c: 1068: PIR4bits.CCP9IF = 0;
  9488  06C2  0020               	movlb	0	; select bank0
  9489  06C3  1314               	bcf	20,6	;volatile
  9490  06C4                     i1l718:	
  9491  06C4  0871               	movf	??_isr+1,w
  9492  06C5  00FF               	movwf	127
  9493  06C6  107E               	bcf	126,0	;clear compiler interrupt flag (level 1)
  9494  06C7  0009               	retfie
  9495  06C8                     __end_of_isr:	
  9496  007E                     btemp	set	126	;btemp
  9497  007E                     int$flags	set	126
  9498  007E                     wtemp0	set	126
  9499                           
  9500                           	psect	swtext1
  9501  07EC                     __pswtext1:	
  9502  07EC                     i1S10929:	
  9503  07EC  3180  28B7         	ljmp	i1l5529
  9504  07EE  3180  28B9         	ljmp	i1l5533
  9505  07F0  3180  28BB         	ljmp	i1l5537
  9506  07F2  3180  28BF         	ljmp	i1l5541
  9507  07F4  3180  28C3         	ljmp	i1l5545
  9508  07F6  3180  28C5         	ljmp	i1l5549
  9509  07F8  3180  28C7         	ljmp	i1l5553
  9510  07FA  3180  28C9         	ljmp	i1l5559
  9511  07FC  3180  28CD         	ljmp	i1l5563
  9512  07FE  3180  28CE         	ljmp	i1l5567
  9513                           
  9514                           	psect	swtext2
  9515  0800                     __pswtext2:	
  9516  0800                     i1S10933:	
  9517  0800  3180  28E6         	ljmp	i1l5575
  9518  0802  3180  28E8         	ljmp	i1l5579
  9519  0804  3180  28EC         	ljmp	i1l5583
  9520  0806  3180  28EE         	ljmp	i1l5587
  9521  0808  3180  28F0         	ljmp	i1l5591
  9522  080A  3180  28F2         	ljmp	i1l5595
  9523  080C  3180  28F6         	ljmp	i1l5599
  9524  080E  3180  28F8         	ljmp	i1l5603
  9525  0810  3180  28FC         	ljmp	i1l5607
  9526  0812  3180  28FE         	ljmp	i1l5611
  9527                           
  9528                           	psect	swtext3
  9529  0814                     __pswtext3:	
  9530  0814                     i1S10937:	
  9531  0814  3181  2916         	ljmp	i1l5619
  9532  0816  3181  2918         	ljmp	i1l5623
  9533  0818  3181  291C         	ljmp	i1l5627
  9534  081A  3181  291E         	ljmp	i1l5631
  9535  081C  3181  2922         	ljmp	i1l5635
  9536  081E  3181  2924         	ljmp	i1l5639
  9537  0820  3181  2928         	ljmp	i1l5643
  9538  0822  3181  292A         	ljmp	i1l5647
  9539  0824  3181  292E         	ljmp	i1l5651
  9540  0826  3181  2930         	ljmp	i1l5655
  9541                           
  9542                           	psect	swtext4
  9543  0828                     __pswtext4:	
  9544  0828                     i1S10941:	
  9545  0828  3181  2948         	ljmp	i1l5663
  9546  082A  3181  294A         	ljmp	i1l5667
  9547  082C  3181  294C         	ljmp	i1l5671
  9548  082E  3181  294E         	ljmp	i1l5675
  9549  0830  3181  2950         	ljmp	i1l5679
  9550  0832  3181  2952         	ljmp	i1l5685
  9551  0834  3181  2954         	ljmp	i1l5689
  9552  0836  3181  2956         	ljmp	i1l5693
  9553  0838  3181  2958         	ljmp	i1l5697
  9554  083A  3181  295A         	ljmp	i1l5701
  9555                           
  9556                           	psect	swtext5
  9557  083C                     __pswtext5:	
  9558  083C                     i1S10945:	
  9559  083C  3181  2970         	ljmp	i1l5709
  9560  083E  3181  2972         	ljmp	i1l5713
  9561  0840  3181  2974         	ljmp	i1l5717
  9562  0842  3181  2976         	ljmp	i1l5721
  9563  0844  3181  2978         	ljmp	i1l5725
  9564  0846  3181  297A         	ljmp	i1l5729
  9565  0848  3181  297C         	ljmp	i1l5733
  9566  084A  3181  297E         	ljmp	i1l5737
  9567  084C  3181  2980         	ljmp	i1l5741
  9568  084E  3181  2982         	ljmp	i1l5745
  9569                           
  9570                           	psect	swtext6
  9571  0850                     __pswtext6:	
  9572  0850                     i1S10949:	
  9573  0850  3181  2998         	ljmp	i1l5753
  9574  0852  3181  299A         	ljmp	i1l5759
  9575  0854  3181  299C         	ljmp	i1l5763
  9576  0856  3181  299E         	ljmp	i1l5767
  9577  0858  3181  29A0         	ljmp	i1l5771
  9578  085A  3181  29A2         	ljmp	i1l5775
  9579  085C  3181  29A4         	ljmp	i1l5779
  9580  085E  3181  29A6         	ljmp	i1l5783
  9581  0860  3181  29A8         	ljmp	i1l5787
  9582  0862  3181  29AA         	ljmp	i1l5791
  9583                           
  9584                           	psect	swtext7
  9585  0864                     __pswtext7:	
  9586  0864                     i1S10953:	
  9587  0864  3181  29C0         	ljmp	i1l5799
  9588  0866  3181  29C2         	ljmp	i1l5803
  9589  0868  3181  29C4         	ljmp	i1l5807
  9590  086A  3181  29C6         	ljmp	i1l5811
  9591  086C  3181  29C8         	ljmp	i1l5815
  9592  086E  3181  29CA         	ljmp	i1l5819
  9593  0870  3181  29CC         	ljmp	i1l5823
  9594  0872  3181  29CE         	ljmp	i1l5829
  9595  0874  3181  29D0         	ljmp	i1l5833
  9596  0876  3181  29D2         	ljmp	i1l5837
  9597                           
  9598                           	psect	swtext8
  9599  1000                     __pswtext8:	
  9600  1000                     i1S10957:	
  9601  1000  3181  29E8         	ljmp	i1l5845
  9602  1002  3181  29EA         	ljmp	i1l5849
  9603  1004  3181  29EC         	ljmp	i1l5853
  9604  1006  3181  29EE         	ljmp	i1l5857
  9605  1008  3181  29F0         	ljmp	i1l5861
  9606  100A  3181  29F2         	ljmp	i1l5865
  9607  100C  3181  29F4         	ljmp	i1l5869
  9608  100E  3181  29F6         	ljmp	i1l5873
  9609  1010  3181  29F8         	ljmp	i1l5877
  9610  1012  3181  29FA         	ljmp	i1l5881
  9611                           
  9612                           	psect	swtext9
  9613  1014                     __pswtext9:	
  9614  1014                     i1S10961:	
  9615  1014  3182  2A10         	ljmp	i1l5889
  9616  1016  3182  2A12         	ljmp	i1l5893
  9617  1018  3182  2A16         	ljmp	i1l5897
  9618  101A  3182  2A1A         	ljmp	i1l5901
  9619  101C  3182  2A1E         	ljmp	i1l5905
  9620  101E  3182  2A22         	ljmp	i1l5911
  9621  1020  3182  2A26         	ljmp	i1l5915
  9622  1022  3182  2A2A         	ljmp	i1l5919
  9623  1024  3182  2A2E         	ljmp	i1l5923
  9624  1026  3182  2A32         	ljmp	i1l5927
  9625                           
  9626                           	psect	swtext10
  9627  1028                     __pswtext10:	
  9628  1028                     i1S10965:	
  9629  1028  3182  2A4A         	ljmp	i1l5935
  9630  102A  3182  2A4E         	ljmp	i1l5939
  9631  102C  3182  2A52         	ljmp	i1l5943
  9632  102E  3182  2A56         	ljmp	i1l5947
  9633  1030  3182  2A5A         	ljmp	i1l5951
  9634  1032  3182  2A5E         	ljmp	i1l5955
  9635  1034  3182  2A62         	ljmp	i1l5959
  9636  1036  3182  2A66         	ljmp	i1l5963
  9637  1038  3182  2A6A         	ljmp	i1l5967
  9638  103A  3182  2A6E         	ljmp	i1l5971
  9639                           
  9640                           	psect	swtext11
  9641  103C                     __pswtext11:	
  9642  103C                     i1S10969:	
  9643  103C  3180  28D2         	ljmp	i1l5573
  9644  103E  3181  2902         	ljmp	i1l5617
  9645  1040  3181  2934         	ljmp	i1l5661
  9646  1042  3181  295C         	ljmp	i1l5707
  9647  1044  3181  2984         	ljmp	i1l5751
  9648  1046  3181  29AC         	ljmp	i1l5797
  9649  1048  3181  29D4         	ljmp	i1l5843
  9650  104A  3181  29FC         	ljmp	i1l5887
  9651  104C  3182  2A36         	ljmp	i1l5933
  9652  104E  3182  2A74         	ljmp	i1l5977
  9653                           
  9654                           	psect	swtext12
  9655  1050                     __pswtext12:	
  9656  1050                     i1S10973:	
  9657  1050  3182  2AAB         	ljmp	i1l5991
  9658  1052  3182  2AAD         	ljmp	i1l5995
  9659  1054  3182  2AAF         	ljmp	i1l5999
  9660  1056  3182  2AB4         	ljmp	i1l6003
  9661  1058  3182  2AB9         	ljmp	i1l6007
  9662  105A  3182  2ABB         	ljmp	i1l6011
  9663  105C  3182  2ABD         	ljmp	i1l6015
  9664  105E  3182  2ABF         	ljmp	i1l6021
  9665  1060  3182  2AC4         	ljmp	i1l6025
  9666  1062  3182  2AC5         	ljmp	i1l6029
  9667                           
  9668                           	psect	swtext13
  9669  1064                     __pswtext13:	
  9670  1064                     i1S10977:	
  9671  1064  3182  2ADE         	ljmp	i1l6037
  9672  1066  3182  2AE0         	ljmp	i1l6041
  9673  1068  3182  2AE5         	ljmp	i1l6045
  9674  106A  3182  2AE7         	ljmp	i1l6049
  9675  106C  3182  2AE9         	ljmp	i1l6053
  9676  106E  3182  2AEB         	ljmp	i1l6057
  9677  1070  3182  2AF0         	ljmp	i1l6061
  9678  1072  3182  2AF2         	ljmp	i1l6065
  9679  1074  3182  2AF7         	ljmp	i1l6069
  9680  1076  3182  2AF9         	ljmp	i1l6073
  9681                           
  9682                           	psect	swtext14
  9683  1078                     __pswtext14:	
  9684  1078                     i1S10981:	
  9685  1078  3183  2B12         	ljmp	i1l6081
  9686  107A  3183  2B14         	ljmp	i1l6085
  9687  107C  3183  2B19         	ljmp	i1l6089
  9688  107E  3183  2B1B         	ljmp	i1l6093
  9689  1080  3183  2B20         	ljmp	i1l6097
  9690  1082  3183  2B22         	ljmp	i1l6101
  9691  1084  3183  2B27         	ljmp	i1l6105
  9692  1086  3183  2B29         	ljmp	i1l6109
  9693  1088  3183  2B2E         	ljmp	i1l6113
  9694  108A  3183  2B30         	ljmp	i1l6117
  9695                           
  9696                           	psect	swtext15
  9697  108C                     __pswtext15:	
  9698  108C                     i1S10985:	
  9699  108C  3183  2B49         	ljmp	i1l6125
  9700  108E  3183  2B4B         	ljmp	i1l6129
  9701  1090  3183  2B4D         	ljmp	i1l6133
  9702  1092  3183  2B4F         	ljmp	i1l6137
  9703  1094  3183  2B51         	ljmp	i1l6141
  9704  1096  3183  2B53         	ljmp	i1l6147
  9705  1098  3183  2B55         	ljmp	i1l6151
  9706  109A  3183  2B57         	ljmp	i1l6155
  9707  109C  3183  2B59         	ljmp	i1l6159
  9708  109E  3183  2B5B         	ljmp	i1l6163
  9709                           
  9710                           	psect	swtext16
  9711  10A0                     __pswtext16:	
  9712  10A0                     i1S10989:	
  9713  10A0  3183  2B71         	ljmp	i1l6171
  9714  10A2  3183  2B73         	ljmp	i1l6175
  9715  10A4  3183  2B75         	ljmp	i1l6179
  9716  10A6  3183  2B77         	ljmp	i1l6183
  9717  10A8  3183  2B79         	ljmp	i1l6187
  9718  10AA  3183  2B7B         	ljmp	i1l6191
  9719  10AC  3183  2B7D         	ljmp	i1l6195
  9720  10AE  3183  2B7F         	ljmp	i1l6199
  9721  10B0  3183  2B81         	ljmp	i1l6203
  9722  10B2  3183  2B83         	ljmp	i1l6207
  9723                           
  9724                           	psect	swtext17
  9725  10B4                     __pswtext17:	
  9726  10B4                     i1S10993:	
  9727  10B4  3183  2B99         	ljmp	i1l6215
  9728  10B6  3183  2B9B         	ljmp	i1l6221
  9729  10B8  3183  2B9D         	ljmp	i1l6225
  9730  10BA  3183  2B9F         	ljmp	i1l6229
  9731  10BC  3183  2BA1         	ljmp	i1l6233
  9732  10BE  3183  2BA3         	ljmp	i1l6237
  9733  10C0  3183  2BA5         	ljmp	i1l6241
  9734  10C2  3183  2BA7         	ljmp	i1l6245
  9735  10C4  3183  2BA9         	ljmp	i1l6249
  9736  10C6  3183  2BAB         	ljmp	i1l6253
  9737                           
  9738                           	psect	swtext18
  9739  10C8                     __pswtext18:	
  9740  10C8                     i1S10997:	
  9741  10C8  3183  2BC1         	ljmp	i1l6261
  9742  10CA  3183  2BC3         	ljmp	i1l6265
  9743  10CC  3183  2BC5         	ljmp	i1l6269
  9744  10CE  3183  2BC7         	ljmp	i1l6273
  9745  10D0  3183  2BC9         	ljmp	i1l6277
  9746  10D2  3183  2BCB         	ljmp	i1l6281
  9747  10D4  3183  2BCD         	ljmp	i1l6285
  9748  10D6  3183  2BCF         	ljmp	i1l6291
  9749  10D8  3183  2BD1         	ljmp	i1l6295
  9750  10DA  3183  2BD3         	ljmp	i1l6299
  9751                           
  9752                           	psect	swtext19
  9753  10DC                     __pswtext19:	
  9754  10DC                     i1S11001:	
  9755  10DC  3183  2BE9         	ljmp	i1l6307
  9756  10DE  3183  2BEB         	ljmp	i1l6311
  9757  10E0  3183  2BED         	ljmp	i1l6315
  9758  10E2  3183  2BEF         	ljmp	i1l6319
  9759  10E4  3183  2BF1         	ljmp	i1l6323
  9760  10E6  3183  2BF3         	ljmp	i1l6327
  9761  10E8  3183  2BF5         	ljmp	i1l6331
  9762  10EA  3183  2BF7         	ljmp	i1l6335
  9763  10EC  3183  2BF9         	ljmp	i1l6339
  9764  10EE  3183  2BFB         	ljmp	i1l6343
  9765                           
  9766                           	psect	swtext20
  9767  1100                     __pswtext20:	
  9768  1100                     i1S11005:	
  9769  1100  3184  2C11         	ljmp	i1l6351
  9770  1102  3184  2C13         	ljmp	i1l6355
  9771  1104  3184  2C18         	ljmp	i1l6359
  9772  1106  3184  2C1D         	ljmp	i1l6363
  9773  1108  3184  2C22         	ljmp	i1l6367
  9774  110A  3184  2C27         	ljmp	i1l6373
  9775  110C  3184  2C2C         	ljmp	i1l6377
  9776  110E  3184  2C31         	ljmp	i1l6381
  9777  1110  3184  2C36         	ljmp	i1l6385
  9778  1112  3184  2C3B         	ljmp	i1l6389
  9779                           
  9780                           	psect	swtext21
  9781  1114                     __pswtext21:	
  9782  1114                     i1S11009:	
  9783  1114  3184  2C54         	ljmp	i1l6397
  9784  1116  3184  2C59         	ljmp	i1l6401
  9785  1118  3184  2C5E         	ljmp	i1l6405
  9786  111A  3184  2C63         	ljmp	i1l6409
  9787  111C  3184  2C68         	ljmp	i1l6413
  9788  111E  3184  2C6D         	ljmp	i1l6417
  9789  1120  3184  2C72         	ljmp	i1l6421
  9790  1122  3184  2C77         	ljmp	i1l6425
  9791  1124  3184  2C7C         	ljmp	i1l6429
  9792  1126  3184  2C81         	ljmp	i1l6433
  9793                           
  9794                           	psect	swtext22
  9795  1128                     __pswtext22:	
  9796  1128                     i1S11013:	
  9797  1128  3182  2ACA         	ljmp	i1l6035
  9798  112A  3182  2AFE         	ljmp	i1l6079
  9799  112C  3183  2B35         	ljmp	i1l6123
  9800  112E  3183  2B5D         	ljmp	i1l6169
  9801  1130  3183  2B85         	ljmp	i1l6213
  9802  1132  3183  2BAD         	ljmp	i1l6259
  9803  1134  3183  2BD5         	ljmp	i1l6305
  9804  1136  3183  2BFD         	ljmp	i1l6349
  9805  1138  3184  2C40         	ljmp	i1l6395
  9806  113A  3184  2C88         	ljmp	i1l6439
  9807                           
  9808                           	psect	swtext23
  9809  113C                     __pswtext23:	
  9810  113C                     i1S11017:	
  9811  113C  3184  2CBE         	ljmp	i1l6453
  9812  113E  3184  2CC0         	ljmp	i1l6457
  9813  1140  3184  2CC2         	ljmp	i1l6461
  9814  1142  3184  2CC7         	ljmp	i1l6465
  9815  1144  3184  2CCC         	ljmp	i1l6469
  9816  1146  3184  2CCE         	ljmp	i1l6473
  9817  1148  3184  2CD0         	ljmp	i1l6477
  9818  114A  3184  2CD2         	ljmp	i1l6483
  9819  114C  3184  2CD7         	ljmp	i1l6487
  9820  114E  3184  2CD8         	ljmp	i1l6491
  9821                           
  9822                           	psect	swtext24
  9823  1150                     __pswtext24:	
  9824  1150                     i1S11021:	
  9825  1150  3184  2CF1         	ljmp	i1l6499
  9826  1152  3184  2CF3         	ljmp	i1l6503
  9827  1154  3184  2CF8         	ljmp	i1l6507
  9828  1156  3184  2CFA         	ljmp	i1l6511
  9829  1158  3184  2CFC         	ljmp	i1l6515
  9830  115A  3184  2CFE         	ljmp	i1l6519
  9831  115C  3185  2D03         	ljmp	i1l6523
  9832  115E  3185  2D05         	ljmp	i1l6527
  9833  1160  3185  2D0A         	ljmp	i1l6531
  9834  1162  3185  2D0C         	ljmp	i1l6535
  9835                           
  9836                           	psect	swtext25
  9837  1164                     __pswtext25:	
  9838  1164                     i1S11025:	
  9839  1164  3185  2D25         	ljmp	i1l6543
  9840  1166  3185  2D27         	ljmp	i1l6547
  9841  1168  3185  2D2C         	ljmp	i1l6551
  9842  116A  3185  2D2E         	ljmp	i1l6555
  9843  116C  3185  2D33         	ljmp	i1l6559
  9844  116E  3185  2D35         	ljmp	i1l6563
  9845  1170  3185  2D3A         	ljmp	i1l6567
  9846  1172  3185  2D3C         	ljmp	i1l6571
  9847  1174  3185  2D41         	ljmp	i1l6575
  9848  1176  3185  2D43         	ljmp	i1l6579
  9849                           
  9850                           	psect	swtext26
  9851  1178                     __pswtext26:	
  9852  1178                     i1S11029:	
  9853  1178  3185  2D5C         	ljmp	i1l6587
  9854  117A  3185  2D5E         	ljmp	i1l6591
  9855  117C  3185  2D60         	ljmp	i1l6595
  9856  117E  3185  2D62         	ljmp	i1l6599
  9857  1180  3185  2D64         	ljmp	i1l6603
  9858  1182  3185  2D66         	ljmp	i1l6609
  9859  1184  3185  2D68         	ljmp	i1l6613
  9860  1186  3185  2D6A         	ljmp	i1l6617
  9861  1188  3185  2D6C         	ljmp	i1l6621
  9862  118A  3185  2D6E         	ljmp	i1l6625
  9863                           
  9864                           	psect	swtext27
  9865  118C                     __pswtext27:	
  9866  118C                     i1S11033:	
  9867  118C  3185  2D84         	ljmp	i1l6633
  9868  118E  3185  2D86         	ljmp	i1l6637
  9869  1190  3185  2D88         	ljmp	i1l6641
  9870  1192  3185  2D8A         	ljmp	i1l6645
  9871  1194  3185  2D8C         	ljmp	i1l6649
  9872  1196  3185  2D8E         	ljmp	i1l6653
  9873  1198  3185  2D90         	ljmp	i1l6657
  9874  119A  3185  2D92         	ljmp	i1l6661
  9875  119C  3185  2D94         	ljmp	i1l6665
  9876  119E  3185  2D96         	ljmp	i1l6669
  9877                           
  9878                           	psect	swtext28
  9879  11A0                     __pswtext28:	
  9880  11A0                     i1S11037:	
  9881  11A0  3185  2DAC         	ljmp	i1l6677
  9882  11A2  3185  2DAE         	ljmp	i1l6683
  9883  11A4  3185  2DB0         	ljmp	i1l6687
  9884  11A6  3185  2DB2         	ljmp	i1l6691
  9885  11A8  3185  2DB4         	ljmp	i1l6695
  9886  11AA  3185  2DB6         	ljmp	i1l6699
  9887  11AC  3185  2DB8         	ljmp	i1l6703
  9888  11AE  3185  2DBA         	ljmp	i1l6707
  9889  11B0  3185  2DBC         	ljmp	i1l6711
  9890  11B2  3185  2DBE         	ljmp	i1l6715
  9891                           
  9892                           	psect	swtext29
  9893  11B4                     __pswtext29:	
  9894  11B4                     i1S11041:	
  9895  11B4  3185  2DD4         	ljmp	i1l6723
  9896  11B6  3185  2DD6         	ljmp	i1l6727
  9897  11B8  3185  2DD8         	ljmp	i1l6731
  9898  11BA  3185  2DDA         	ljmp	i1l6735
  9899  11BC  3185  2DDC         	ljmp	i1l6739
  9900  11BE  3185  2DDE         	ljmp	i1l6743
  9901  11C0  3185  2DE0         	ljmp	i1l6747
  9902  11C2  3185  2DE2         	ljmp	i1l6753
  9903  11C4  3185  2DE4         	ljmp	i1l6757
  9904  11C6  3185  2DE6         	ljmp	i1l6761
  9905                           
  9906                           	psect	swtext30
  9907  11C8                     __pswtext30:	
  9908  11C8                     i1S11045:	
  9909  11C8  3185  2DFC         	ljmp	i1l6769
  9910  11CA  3185  2DFE         	ljmp	i1l6773
  9911  11CC  3186  2E00         	ljmp	i1l6777
  9912  11CE  3186  2E02         	ljmp	i1l6781
  9913  11D0  3186  2E04         	ljmp	i1l6785
  9914  11D2  3186  2E06         	ljmp	i1l6789
  9915  11D4  3186  2E08         	ljmp	i1l6793
  9916  11D6  3186  2E0A         	ljmp	i1l6797
  9917  11D8  3186  2E0C         	ljmp	i1l6801
  9918  11DA  3186  2E0E         	ljmp	i1l6805
  9919                           
  9920                           	psect	swtext31
  9921  11DC                     __pswtext31:	
  9922  11DC                     i1S11049:	
  9923  11DC  3186  2E24         	ljmp	i1l6813
  9924  11DE  3186  2E26         	ljmp	i1l6817
  9925  11E0  3186  2E2B         	ljmp	i1l6821
  9926  11E2  3186  2E30         	ljmp	i1l6825
  9927  11E4  3186  2E35         	ljmp	i1l6829
  9928  11E6  3186  2E3A         	ljmp	i1l6835
  9929  11E8  3186  2E3F         	ljmp	i1l6839
  9930  11EA  3186  2E44         	ljmp	i1l6843
  9931  11EC  3186  2E49         	ljmp	i1l6847
  9932  11EE  3186  2E4E         	ljmp	i1l6851
  9933                           
  9934                           	psect	swtext32
  9935  1200                     __pswtext32:	
  9936  1200                     i1S11053:	
  9937  1200  3186  2E67         	ljmp	i1l6859
  9938  1202  3186  2E6C         	ljmp	i1l6863
  9939  1204  3186  2E71         	ljmp	i1l6867
  9940  1206  3186  2E76         	ljmp	i1l6871
  9941  1208  3186  2E7B         	ljmp	i1l6875
  9942  120A  3186  2E80         	ljmp	i1l6879
  9943  120C  3186  2E85         	ljmp	i1l6883
  9944  120E  3186  2E8A         	ljmp	i1l6887
  9945  1210  3186  2E8F         	ljmp	i1l6891
  9946  1212  3186  2E94         	ljmp	i1l6895
  9947                           
  9948                           	psect	swtext33
  9949  1214                     __pswtext33:	
  9950  1214                     i1S11057:	
  9951  1214  3184  2CDD         	ljmp	i1l6497
  9952  1216  3185  2D11         	ljmp	i1l6541
  9953  1218  3185  2D48         	ljmp	i1l6585
  9954  121A  3185  2D70         	ljmp	i1l6631
  9955  121C  3185  2D98         	ljmp	i1l6675
  9956  121E  3185  2DC0         	ljmp	i1l6721
  9957  1220  3185  2DE8         	ljmp	i1l6767
  9958  1222  3186  2E10         	ljmp	i1l6811
  9959  1224  3186  2E53         	ljmp	i1l6857
  9960  1226  3186  2E9B         	ljmp	i1l6901


Data Sizes:
    Strings     12
    Constant    0
    Data        120
    BSS         43
    Persistent  0
    Stack       0

Auto Spaces:
    Space          Size  Autos    Used
    COMMON           14     10      12
    BANK0            80     37      66
    BANK1            80     16      76
    BANK2            80      0      72
    BANK3            80      0       0
    BANK4            80      0       0
    BANK5            80      0       0
    BANK6            80      0       0
    BANK7            80      0       0
    BANK8            80      0       0
    BANK9            32      0       0

Pointer List with Targets:

    atoi@s	PTR const unsigned char  size(1) Largest target is 2
		 -> ACTION@FanSpeedString(BANK0[2]), ACTION@SwNumString(BANK0[2]), 

    writeUART@str2Write	PTR unsigned char  size(1) Largest target is 26
		 -> st(BANK1[26]), 


Critical Paths under _main in COMMON

    _ACTION->_atoi
    _atoi->___wmul

Critical Paths under _isr in COMMON

    None.

Critical Paths under _main in BANK0

    _main->_ACTION
    _ACTION->_atoi

Critical Paths under _isr in BANK0

    None.

Critical Paths under _main in BANK1

    None.

Critical Paths under _isr in BANK1

    None.

Critical Paths under _main in BANK2

    None.

Critical Paths under _isr in BANK2

    None.

Critical Paths under _main in BANK3

    None.

Critical Paths under _isr in BANK3

    None.

Critical Paths under _main in BANK4

    None.

Critical Paths under _isr in BANK4

    None.

Critical Paths under _main in BANK5

    None.

Critical Paths under _isr in BANK5

    None.

Critical Paths under _main in BANK6

    None.

Critical Paths under _isr in BANK6

    None.

Critical Paths under _main in BANK7

    None.

Critical Paths under _isr in BANK7

    None.

Critical Paths under _main in BANK8

    None.

Critical Paths under _isr in BANK8

    None.

Critical Paths under _main in BANK9

    None.

Critical Paths under _isr in BANK9

    None.

Call Graph Tables:

 ---------------------------------------------------------------------------------
 (Depth) Function   	        Calls       Base Space   Used Autos Params    Refs
 ---------------------------------------------------------------------------------
 (0) _main                                                22    22      0    5494
                                             31 BANK0      6     6      0
                                              0 BANK1     16    16      0
                             _ACTION
                         _copy_frame
                     _periperal_init
                        _pin_manager
                          _writeUART
 ---------------------------------------------------------------------------------
 (1) _pin_manager                                          0     0      0       0
 ---------------------------------------------------------------------------------
 (1) _periperal_init                                       0     0      0       0
                    _CCP1_Initialize
                    _CCP3_Initialize
                    _CCP9_Initialize
                  _EUSART_Initialize
                    _TMR1_Initialize
                    _TMR2_Initialize
                    _TMR3_Initialize
                    _TMR4_Initialize
                    _TMR5_Initialize
                    _TMR6_Initialize
 ---------------------------------------------------------------------------------
 (2) _TMR6_Initialize                                      0     0      0       0
 ---------------------------------------------------------------------------------
 (2) _TMR5_Initialize                                      0     0      0       0
 ---------------------------------------------------------------------------------
 (2) _TMR4_Initialize                                      0     0      0       0
 ---------------------------------------------------------------------------------
 (2) _TMR3_Initialize                                      0     0      0       0
 ---------------------------------------------------------------------------------
 (2) _TMR2_Initialize                                      0     0      0       0
 ---------------------------------------------------------------------------------
 (2) _TMR1_Initialize                                      0     0      0       0
 ---------------------------------------------------------------------------------
 (2) _EUSART_Initialize                                    0     0      0       0
 ---------------------------------------------------------------------------------
 (2) _CCP9_Initialize                                      0     0      0       0
 ---------------------------------------------------------------------------------
 (2) _CCP3_Initialize                                      0     0      0       0
 ---------------------------------------------------------------------------------
 (2) _CCP1_Initialize                                      0     0      0       0
 ---------------------------------------------------------------------------------
 (1) _copy_frame                                           9     5      4     461
                                              2 COMMON     5     1      4
                                              0 BANK0      4     4      0
 ---------------------------------------------------------------------------------
 (1) _ACTION                                              25    19      6    3803
                                              6 BANK0     25    19      6
                               _atoi
                          _writeUART
 ---------------------------------------------------------------------------------
 (1) _writeUART                                            4     4      0     401
                                              2 COMMON     4     4      0
 ---------------------------------------------------------------------------------
 (2) _atoi                                                 8     6      2     759
                                              8 COMMON     2     0      2
                                              0 BANK0      6     6      0
                             ___wmul
                            _isdigit
 ---------------------------------------------------------------------------------
 (3) _isdigit                                              2     2      0      99
                                              2 COMMON     2     2      0
 ---------------------------------------------------------------------------------
 (3) ___wmul                                               6     2      4     266
                                              2 COMMON     6     2      4
 ---------------------------------------------------------------------------------
 Estimated maximum stack depth 3
 ---------------------------------------------------------------------------------
 (Depth) Function   	        Calls       Base Space   Used Autos Params    Refs
 ---------------------------------------------------------------------------------
 (4) _isr                                                  2     2      0       0
                                              0 COMMON     2     2      0
 ---------------------------------------------------------------------------------
 Estimated maximum stack depth 4
 ---------------------------------------------------------------------------------

 Call Graph Graphs:

 _main (ROOT)
   _ACTION
     _atoi
       ___wmul
       _isdigit
     _writeUART
   _copy_frame
   _periperal_init
     _CCP1_Initialize
     _CCP3_Initialize
     _CCP9_Initialize
     _EUSART_Initialize
     _TMR1_Initialize
     _TMR2_Initialize
     _TMR3_Initialize
     _TMR4_Initialize
     _TMR5_Initialize
     _TMR6_Initialize
   _pin_manager
   _writeUART

 _isr (ROOT)

 Address spaces:
Name               Size   Autos  Total    Cost      Usage
BIGRAM             2F0      0       0       0        0.0%
NULL                 0      0       0       0        0.0%
CODE                 0      0       0       0        0.0%
BITCOMMON            E      0       0       1        0.0%
BITSFR0              0      0       0       1        0.0%
SFR0                 0      0       0       1        0.0%
COMMON               E      A       C       2       85.7%
BITSFR1              0      0       0       2        0.0%
SFR1                 0      0       0       2        0.0%
BITSFR2              0      0       0       3        0.0%
SFR2                 0      0       0       3        0.0%
STACK                0      0       0       3        0.0%
BITSFR3              0      0       0       4        0.0%
SFR3                 0      0       0       4        0.0%
ABS                  0      0      E2       4        0.0%
BITBANK0            50      0       0       5        0.0%
BITSFR4              0      0       0       5        0.0%
SFR4                 0      0       0       5        0.0%
BANK0               50     25      42       6       82.5%
BITSFR5              0      0       0       6        0.0%
SFR5                 0      0       0       6        0.0%
BITBANK1            50      0       0       7        0.0%
BITSFR6              0      0       0       7        0.0%
SFR6                 0      0       0       7        0.0%
BANK1               50     10      4C       8       95.0%
BITSFR7              0      0       0       8        0.0%
SFR7                 0      0       0       8        0.0%
BITBANK2            50      0       0       9        0.0%
BITSFR8              0      0       0       9        0.0%
SFR8                 0      0       0       9        0.0%
BANK2               50      0      48      10       90.0%
BITSFR9              0      0       0      10        0.0%
SFR9                 0      0       0      10        0.0%
BITBANK3            50      0       0      11        0.0%
BITSFR10             0      0       0      11        0.0%
SFR10                0      0       0      11        0.0%
BANK3               50      0       0      12        0.0%
BITSFR11             0      0       0      12        0.0%
SFR11                0      0       0      12        0.0%
BITBANK4            50      0       0      13        0.0%
BITSFR12             0      0       0      13        0.0%
SFR12                0      0       0      13        0.0%
BANK4               50      0       0      14        0.0%
BITSFR13             0      0       0      14        0.0%
SFR13                0      0       0      14        0.0%
BITBANK5            50      0       0      15        0.0%
BITSFR14             0      0       0      15        0.0%
SFR14                0      0       0      15        0.0%
BANK5               50      0       0      16        0.0%
BITSFR15             0      0       0      16        0.0%
SFR15                0      0       0      16        0.0%
BITBANK6            50      0       0      17        0.0%
BITSFR16             0      0       0      17        0.0%
SFR16                0      0       0      17        0.0%
BANK6               50      0       0      18        0.0%
BITSFR17             0      0       0      18        0.0%
SFR17                0      0       0      18        0.0%
BITBANK7            50      0       0      19        0.0%
BITSFR18             0      0       0      19        0.0%
SFR18                0      0       0      19        0.0%
BANK7               50      0       0      20        0.0%
BITSFR19             0      0       0      20        0.0%
SFR19                0      0       0      20        0.0%
BITBANK8            50      0       0      21        0.0%
BITSFR20             0      0       0      21        0.0%
SFR20                0      0       0      21        0.0%
BANK8               50      0       0      22        0.0%
BITSFR21             0      0       0      22        0.0%
SFR21                0      0       0      22        0.0%
BITBANK9            20      0       0      23        0.0%
BITSFR22             0      0       0      23        0.0%
SFR22                0      0       0      23        0.0%
BANK9               20      0       0      24        0.0%
BITSFR23             0      0       0      24        0.0%
SFR23                0      0       0      24        0.0%
BITSFR24             0      0       0      25        0.0%
SFR24                0      0       0      25        0.0%
DATA                 0      0      E2      25        0.0%
BITSFR25             0      0       0      26        0.0%
SFR25                0      0       0      26        0.0%
BITSFR26             0      0       0      27        0.0%
SFR26                0      0       0      27        0.0%
BITSFR27             0      0       0      28        0.0%
SFR27                0      0       0      28        0.0%
BITSFR28             0      0       0      29        0.0%
SFR28                0      0       0      29        0.0%
BITSFR29             0      0       0      30        0.0%
SFR29                0      0       0      30        0.0%
BITSFR30             0      0       0      31        0.0%
SFR30                0      0       0      31        0.0%
BITSFR31             0      0       0      32        0.0%
SFR31                0      0       0      32        0.0%


Microchip Technology PIC Macro Assembler V1.45 build -152302408 
Symbol Table                                                                                   Fri Aug 17 19:03:42 2018

   __size_of_periperal_init 001E                           _i 005B                           pc 0002  
               __CFG_CP$OFF 0000                          _M1 004D                          _M2 004B  
                        _M3 0049                          _M4 0047                          _M5 0045  
                        _ak 0057                          _pk 0059                          _tk 007A  
                        _st 00B4         ___wmul@multiplicand 0074     __end_of_CCP1_Initialize 124E  
                       l800 0BE0                         l803 0BFB                         l808 089B  
                       l792 0B5C                         l849 08B4                         l769 07BB  
                       l778 09D4                         l796 0B9E                         _GIE 005F  
                       _RA2 0062                         _RA3 0063                         _RA5 0065  
                       _RE0 0080                         _RE1 0081                         _RF0 1460  
                       _RE2 0082                         _RF1 1461                         _RF2 1462  
                       _RE4 0084                         _RF3 1463                         _RE5 0085  
                       _RF5 1465                         _RF7 1467                         _PR2 001B  
                       _PR4 0416                         _PR6 041D                         _man 0060  
                       _isr 0004             _TMR2_Initialize 126D                __CFG_BORV$LO 0000  
                       wreg 0009                __CFG_FOSC$HS 0000                __CFG_LVP$OFF 0000  
                      l9001 0723                        l9011 0755                        l9007 072A  
                      l9017 0765                        l9009 072E                        l9211 0B7D  
                      l9203 0B61                        l9131 09D0                        ?_isr 0070  
                      l9133 09DB                        l9135 09E1                        l9217 0BA3  
                      l9209 0B7A                        l9081 07E8                        l9147 0A24  
                      l9229 0BBF                        l9157 0A60                        l9237 0BE5  
                      l9501 0F19                        l9413 0E02                        l9325 0CAE  
                      l9317 0C92                        l9167 0A9B                        l9335 0CCF  
                      l9343 0CF1                        l9177 0AD6                        l9521 0F50  
                      l9505 0F1F                        l9409 0DFB                        l9345 0CF7  
                      l9195 0B38                        l9443 0E72                        l9371 0D5D  
                      l9363 0D4C                        l9291 0C45                        l9197 0B3B  
                      l9189 0B20                        l9541 0F89                        l9525 0F58  
                      l9461 0EA9                        l9357 0D2E                        l9365 0D4F  
                      l9447 0E7B                        l9391 0DC5                        l9561 0FC0  
                      l9545 0F8F                        l9481 0EE0                        l9465 0EAF  
                      l9377 0D98                        l9395 0DCE                        l9581 0FF9  
                      l9565 0FC8                        l9485 0EE8                        l8855 08AE  
                      l8875 1234                        l8991 0701                        STR_1 1236  
                      l8993 070D                        l8985 0896                        l8989 0708  
                      u3000 0BBC                        u3225 0D2C                        u3235 0D4A  
                      u3085 0C6F                        u2815 07C5                        u2920 0B36  
                      u2840 09D9                        u3707 0E34                        _PEIE 005E  
                      u2685 08B5                        u3717 0E42                        u2695 08BA  
                      u3807 0A38                        u3727 0E50                        u2960 0B78  
                      u3817 0A47                        u3737 0E5E                        u3907 0ACC  
                      u3827 0A56                        u3747 0E6C                        u3667 0C02  
                      _RCIF 008D                        u3917 0ADE                        u3837 0A68  
                      u3757 09EF                        u3677 0CFB                        u3927 0AE9  
                      u3847 0A73                        u3767 09FE                        u3687 0D07  
                      u3937 0AF8                        u3857 0A82                        u3777 0A0D  
                      u3697 0D13                        u3947 0B07                        u3867 0A91  
                      u3787 0A1C                        u3957 0B16                        u3877 0AA3  
                      u3797 0A2D                        u3887 0AAE                        u3897 0ABD  
                      _TMR2 001A                        _TMR4 0415                        _TMR6 041C  
                      _WPUE 0210                        _WPUG 048D                __CFG_WRT$OFF 0000  
         ACTION@SwNumString 0037                        _atoi 06FF           writeUART@Tx_count 0073  
                      _main 0BFC                        _copy 0120                        _name 0144  
                      fsr0h 0005                        fsr1h 0007                        indf0 0000  
                      fsr0l 0004                        indf1 0001                        fsr1l 0006  
                      btemp 007E                        start 06C8               __CFG_IESO$OFF 0000  
           _TMR3_Initialize 1263                       ??_isr 0070                main@end_flag 00D8  
                     l10925 0BEA                       ?_atoi 0078     __end_of_CCP3_Initialize 128B  
                     ?_main 0070               __CFG_WDTE$OFF 0000                       _T1CON 0018  
                     _T2CON 001C                       _T3CON 0413                       _T4CON 0417  
                     _T5CON 041A                       _T6CON 041E                       i1l253 0010  
                     i1l262 004A                       i1l271 0069                       i1l256 0016  
                     i1l265 004F                       i1l282 00A9                       i1l283 029D  
                     i1l259 0044                       i1l428 04B1                       i1l284 029B  
                     i1l276 007F                       i1l268 0055                       i1l429 04AF  
                     i1l278 0096                       i1l574 06C2                       i1l718 06C4  
                     _TMR1H 0017                       _TMR3H 0412                       _TMR1L 0016  
                     _TMR3L 0411                       _TMR5H 0419                       _TMR5L 0418  
           _TMR4_Initialize 1294              __CFG_FCMEN$OFF 0000             __end_of_isdigit 1236  
                     atoi@a 0023                       atoi@s 0025                       main@k 00DC  
               copy_frame@k 0022     __end_of_TMR1_Initialize 1259              __CFG_BOREN$OFF 0000  
                     status 0003                       wtemp0 007E             _TMR5_Initialize 1259  
            __CFG_MCLRE$OFF 0000             __initialization 06CA                __end_of_atoi 076A  
              __end_of_main 1000     __end_of_TMR2_Initialize 1277              __CFG_LPBOR$OFF 0000  
                    ??_atoi 0020                      ??_main 003F            ?_CCP1_Initialize 0070  
              ?_pin_manager 0070             _TMR6_Initialize 128B             ACTION@sw_status 0027  
           _CCP9_Initialize 1277                      _ACTION 0937                      _CCPR1H 0292  
                    _CCPR3H 0312                      _CCPR1L 0291                      _CCPR3L 0311  
                    _CCPR9H 061B                      _CCPR9L 061A          ACTION@speed_bitLow 0029  
                    _ANSELA 018C                      _ANSELE 0190                      _ANSELF 040C  
                    _ANSELG 040D                      _T1GCON 0019                      _T3GCON 0414  
                    _T5GCON 041B                      _RC1REG 0199                      _RC1STA 019D  
                    i1l6011 02BB                      i1l6003 02B4     __end_of_TMR3_Initialize 126D  
                    i1l6101 0322                      i1l6021 02BF                      i1l6015 02BD  
                    i1l6007 02B9                      i1l6113 032E                      i1l6105 0327  
                    i1l6041 02E0                      i1l6025 02C4                      i1l6203 0381  
                    i1l6123 0335                      i1l6035 02CA                      i1l6221 039B  
                    i1l6213 0385                      i1l6141 0351                      i1l6133 034D  
                    i1l6125 0349                      i1l6117 0330                      i1l6109 0329  
                    i1l6061 02F0                      i1l6053 02E9                      i1l6045 02E5  
                    i1l6037 02DE                      i1l6029 02C5                      i1l6311 03EB  
                    i1l6215 0399                      i1l6207 0383                      i1l6151 0355  
                    i1l6401 0459                      i1l6305 03D5                      i1l6241 03A5  
                    i1l6233 03A1                      i1l6225 039D                      i1l6137 034F  
                    i1l6129 034B                      i1l6081 0312                      i1l6073 02F9  
                    i1l6065 02F2                      i1l6057 02EB                      i1l6049 02E7  
                    i1l6331 03F5                      i1l6323 03F1                      i1l6315 03ED  
                    i1l6307 03E9                      i1l6171 0371                      i1l6163 035B  
                    i1l6155 0357                      i1l6147 0353                      i1l5611 00FE  
                    i1l5603 00F8                      i1l5515 00A3                      i1l6421 0472  
                    i1l6413 0468                      i1l6405 045E                      i1l6261 03C1  
                    i1l6253 03AB                      i1l6245 03A7                      i1l6237 03A3  
                    i1l6229 039F                      i1l6093 031B                      i1l6085 0314  
                    i1l6069 02F7                      i1l5701 015A                      i1l5541 00BF  
                    i1l5533 00B9                      i1l6511 04FA                      i1l6503 04F3  
                    i1l6351 0411                      i1l6343 03FB                      i1l6335 03F7  
                    i1l6327 03F3                      i1l6319 03EF                      i1l6191 037B  
                    i1l6183 0377                      i1l6175 0373                      i1l6159 0359  
                    i1l6079 02FE                      i1l5631 011E                      i1l5623 0118  
                    i1l5607 00FC                      i1l5447 0019                      i1l6433 0481  
                    i1l6425 0477                      i1l6417 046D                      i1l6409 0463  
                    i1l6281 03CB                      i1l6273 03C7                      i1l6265 03C3  
                    i1l6249 03A9                      i1l6169 035D                      i1l6097 0320  
                    i1l6089 0319                      i1l5721 0176                      i1l5713 0172  
                    i1l5617 0102                      i1l5553 00C7                      i1l5545 00C3  
                    i1l5537 00BB                      i1l5529 00B7                      i1l5473 0061  
                    i1l6603 0564                      i1l6531 050A                      i1l6523 0503  
                    i1l6515 04FC                      i1l6507 04F8                      i1l6435 0486  
                    i1l6363 041D                      i1l6355 0413                      i1l6339 03F9  
                    i1l6291 03CF                      i1l6259 03AD                      i1l6195 037D  
                    i1l6187 0379                      i1l6179 0375                      i1l6443 049C  
                    i1l5811 01C6                      i1l5803 01C2                      i1l5707 015C  
                    i1l5651 012E                      i1l5643 0128                      i1l5635 0122  
                    i1l5627 011C                      i1l5619 0116                      i1l5563 00CD  
                    i1l5483 0075                      i1l5467 005B                      i1l6621 056C  
                    i1l6613 0568                      i1l6541 0511                      i1l6461 04C2  
                    i1l6453 04BE                      i1l6429 047C                      i1l6381 0431  
                    i1l6373 0427                      i1l6349 03FD                      i1l6285 03CD  
                    i1l6277 03C9                      i1l6269 03C5                      i1l5901 021A  
                    i1l5741 0180                      i1l5733 017C                      i1l5725 0178  
                    i1l5717 0174                      i1l5709 0170                      i1l5661 0134  
                    i1l5549 00C5                      i1l5573 00D2                      i1l6711 05BC  
                    i1l6703 05B8                      i1l6631 0570                      i1l6551 052C  
                    i1l6543 0525                      i1l6535 050C                      i1l6527 0505  
                    i1l6519 04FE                      i1l6439 0488                      i1l6367 0422  
                    i1l6359 0418                      i1l6295 03D1                      i1l6199 037F  
                    i1l5911 0222                      i1l5823 01CC                      i1l5815 01C8  
                    i1l5807 01C4                      i1l5751 0184                      i1l5671 014C  
                    i1l5663 0148                      i1l5655 0130                      i1l5647 012A  
                    i1l5639 0124                      i1l5591 00F0                      i1l5583 00EC  
                    i1l5575 00E6                      i1l5567 00CE                      i1l5559 00C9  
                    i1l6801 060C                      i1l6721 05C0                      i1l6641 0588  
                    i1l6633 0584                      i1l6625 056E                      i1l6617 056A  
                    i1l6609 0566                      i1l6473 04CE                      i1l6465 04C7  
                    i1l6457 04C0                      i1l6385 0436                      i1l6377 042C  
                    i1l5905 021E                      i1l5833 01D0                      i1l5753 0198  
                    i1l5745 0182                      i1l5737 017E                      i1l5729 017A  
                    i1l6811 0610                      i1l6731 05D8                      i1l6723 05D4  
                    i1l6715 05BE                      i1l6707 05BA                      i1l6571 053C  
                    i1l6563 0535                      i1l6555 052E                      i1l6547 0527  
                    i1l6491 04D8                      i1l6483 04D2                      i1l6395 0440  
                    i1l6299 03D3                      i1l5923 022E                      i1l5915 0226  
                    i1l5819 01CA                      i1l5843 01D4                      i1l5771 01A0  
                    i1l5763 019C                      i1l5675 014E                      i1l5667 014A  
                    i1l5595 00F2                      i1l5587 00EE                      i1l5579 00E8  
                    i1l5499 008C                      i1l6901 069B                      i1l6821 062B  
                    i1l6813 0624                      i1l6805 060E                      i1l6661 0592  
                    i1l6653 058E                      i1l6645 058A                      i1l6637 0586  
                    i1l6477 04D0                      i1l6469 04CC                      i1l6397 0454  
                    i1l6389 043B                      i1l5933 0236                      i1l5861 01F0  
                    i1l5853 01EC                      i1l5845 01E8                      i1l5837 01D2  
                    i1l5829 01CE                      i1l5693 0156                      i1l5685 0152  
                    i1l6743 05DE                      i1l6735 05DA                      i1l6727 05D6  
                    i1l6591 055E                      i1l6575 0541                      i1l6567 053A  
                    i1l6559 0533                      i1l6487 04D7                      i1l5951 025A  
                    i1l5943 0252                      i1l5935 024A                      i1l5927 0232  
                    i1l5919 022A                      i1l5791 01AA                      i1l5783 01A6  
                    i1l5775 01A2                      i1l5767 019E                      i1l5759 019A  
                    i1l5679 0150                      i1l5599 00F6                      i1l6825 0630  
                    i1l6817 0626                      i1l6761 05E6                      i1l6753 05E2  
                    i1l6665 0594                      i1l6657 0590                      i1l6649 058C  
                    i1l6585 0548                      i1l6497 04DD                      i1l6905 06AF  
                    i1l5881 01FA                      i1l5873 01F6                      i1l5865 01F2  
                    i1l5857 01EE                      i1l5849 01EA                      i1l5697 0158  
                    i1l5689 0154                      i1l6851 064E                      i1l6843 0644  
                    i1l6835 063A                      i1l6747 05E0                      i1l6739 05DC  
                    i1l6691 05B2                      i1l6683 05AE                      i1l6675 0598  
                    i1l6595 0560                      i1l6587 055C                      i1l6579 0543  
                    i1l6499 04F1                      i1l5971 026E                      i1l5963 0266  
                    i1l5955 025E                      i1l5947 0256                      i1l5939 024E  
                    i1l5787 01A8                      i1l5779 01A4                      i1l6829 0635  
                    i1l6781 0602                      i1l6773 05FE                      i1l6757 05E4  
                    i1l6677 05AC                      i1l6669 0596                      i1l5973 0272  
                    i1l5893 0212                      i1l5877 01F8                      i1l5869 01F4  
                    i1l5797 01AC                      i1l5981 0288                      i1l6871 0676  
                    i1l6863 066C                      i1l6847 0649                      i1l6839 063F  
                    i1l6767 05E8                      i1l6695 05B4                      i1l6687 05B0  
                    i1l6599 0562                      i1l5991 02AB                      i1l5967 026A  
                    i1l5959 0262                      i1l5887 01FC                      i1l5799 01C0  
                    i1l6857 0653                      i1l6793 0608                      i1l6785 0604  
                    i1l6777 0600                      i1l6769 05FC                      i1l5977 0274  
                    i1l5897 0216                      i1l5889 0210                      i1l6891 068F  
                    i1l6883 0685                      i1l6875 067B                      i1l6867 0671  
                    i1l6859 0667                      i1l6699 05B6                      i1l5995 02AD  
                    i1l6797 060A                      i1l6789 0606                      i1l6895 0694  
                    i1l6887 068A                      i1l6879 0680                      i1l5999 02AF  
                    i1l6897 0699                      u175_25 0037                      _TX1REG 019A  
                    _TX1STA 019E              _FAN_SPEED1_10s 00EA              _FAN_SPEED2_10s 00E8  
            _FAN_SPEED3_10s 00E6              __CFG_PWRTE$OFF 0000              _periperal_init 08C7  
                    ___wmul 08AC      main@RX_CHK_FLAG_start1 00CE      main@RX_CHK_FLAG_start2 00D0  
   __end_of_TMR4_Initialize 129D          writeUART@str2Write 0075            ?_CCP3_Initialize 0070  
              copy_frame@sw 0020        ACTION@Switch_Num_10s 0034                   ??_isdigit 0072  
          ?_TMR1_Initialize 0070     __end_of_TMR5_Initialize 1263     __end_of__initialization 06FB  
    __end_of_periperal_init 08E5              __pcstackCOMMON 0070        ACTION@child_lock_num 0032  
              __pidataBANK0 0002                __pidataBANK1 0909                __pidataBANK2 076A  
          ?_TMR2_Initialize 0070     __end_of_TMR6_Initialize 1294     __end_of_CCP9_Initialize 1281  
                   ?_ACTION 0026                  __pbssBANK0 0045                  __pbssBANK1 00DE  
          ?_TMR3_Initialize 0070             __CFG_VCAPEN$OFF 0000                  _child_LOCK 00A0  
           ?_periperal_init 0070                  __pmaintext 0BFC       ACTION@response_starts 003B  
                   ?___wmul 0072                  __pintentry 0004                     i1S11001 10DC  
                   i1S11021 1150                     i1S11013 1128                     i1S11005 1100  
                   i1S11041 11B4                     i1S11033 118C                     i1S11025 1164  
                   i1S11017 113C                     i1S11009 1114                     i1S11053 1200  
                   i1S11045 11C8                     i1S11037 11A0                     i1S11029 1178  
                   i1S11057 1214                     i1S11049 11DC                     _CCP1CON 0293  
                   i1S10941 0828                     i1S10933 0800                     _CCP3CON 0313  
                   i1S10961 1014                     i1S10953 0864                     i1S10945 083C  
                   i1S10937 0814                     i1S10929 07EC                     i1S10981 1078  
                   i1S10973 1050                     i1S10965 1028                     i1S10957 1000  
                   i1S10949 0850                     i1S10993 10B4                     i1S10985 108C  
                   i1S10977 1064                     i1S10969 103C                     i1S10997 10C8  
                   i1S10989 10A0                     _CCP9CON 061C         ACTION@speed_bitHigh 0028  
          ?_TMR4_Initialize 0070                     i1l11011 04A2                     i1l11003 0446  
                   i1l11031 059E                     i1l11023 054E                     i1l11015 04E3  
                   i1l11007 048E                     i1l11051 06A1                     i1l11043 0616  
                   i1l11035 05C6                     i1l11027 0576                     i1l11019 0517  
                   i1l11055 06B5                     i1l11047 0659                     i1l11039 05EE  
                   i1l10931 0108                     i1l10951 01DA                     i1l10943 018A  
                   i1l10935 013A                     i1l10927 00D8                     i1l10971 02D0  
                   i1l10963 027A                     i1l10955 0202                     i1l10947 01B2  
                   i1l10939 0162                     i1l10991 03B3                     i1l10983 0363  
                   i1l10975 0304                     i1l10967 028E                     i1l10959 023C  
                   i1l10995 03DB                     i1l10987 038B                     i1l10979 033B  
                   i1l10999 0403                     _SP1BRGH 019C                     _SP1BRGL 019B  
      __size_of_pin_manager 0024                  __pswtext10 1028                  __pswtext11 103C  
                __pswtext20 1100                  __pswtext12 1050                  __pswtext21 1114  
                __pswtext13 1064                  __pswtext30 11C8                  __pswtext22 1128  
                __pswtext14 1078                  __pswtext31 11DC                  __pswtext23 113C  
                __pswtext15 108C                  __pswtext32 1200                  __pswtext24 1150  
                __pswtext16 10A0                  __pswtext33 1214                  __pswtext25 1164  
                __pswtext17 10B4                  __pswtext26 1178                  __pswtext18 10C8  
                __pswtext27 118C                  __pswtext19 10DC                  __pswtext28 11A0  
                __pswtext29 11B4             __size_of_ACTION 02C5                     _TX_FLAG 00E4  
          ?_TMR5_Initialize 0070                  _copy_frame 07B2          __size_of_writeUART 0019  
              ACTION@parent 002A                   _FAN_FLAG1 00E2                   _FAN_FLAG2 00E0  
                 _FAN_FLAG3 00DE             __size_of___wmul 001B             __CFG_STVREN$OFF 0000  
          ?_TMR6_Initialize 0070                     _dimmer1 005F                     _dimmer2 005E  
                   _dimmer3 005D                     __ptext1 08E5                     __ptext2 08C7  
                   __ptext3 128B                     __ptext4 1259                     __ptext5 1294  
                   __ptext6 1263                     __ptext7 126D                     __ptext8 124E  
                   __ptext9 087D                   _T1CONbits 0018            ?_CCP9_Initialize 0070  
                 _T2CONbits 001C                     _isdigit 1228                __size_of_isr 06C4  
                 _T3CONbits 0413                   _T4CONbits 0417                   _COPY_FLAG 004F  
                 _T5CONbits 041A                   _T6CONbits 041E                     clrloop0 12A4  
      end_of_initialization 06FB               copy_frame@end 0074                     init_ram 129D  
                   initloop 129E           _EUSART_Initialize 087D              ACTION@FanSpeed 002E  
        ?_EUSART_Initialize 0070              main@start_flag 00D6         ??_EUSART_Initialize 0072  
         __end_of_writeUART 08AC                   _TRISAbits 008C                   _TRISCbits 008E  
                 _TRISEbits 0090                   _TRISFbits 030C                   _TRISGbits 030D  
  __size_of_CCP1_Initialize 000C              __end_of_ACTION 0BFC   __end_of_EUSART_Initialize 0893  
               ?_copy_frame 0072              ACTION@children 0030              __end_of___wmul 08C7  
      main@RX_CHK_FLAG_end1 00D2        main@RX_CHK_FLAG_end2 00D4         start_initialization 06CA  
               __end_of_isr 06C8                    ??_ACTION 002C    __size_of_CCP3_Initialize 000A  
          ??_periperal_init 0072               _FAN_SPEED1_1s 0055               _FAN_SPEED2_1s 0053  
             _FAN_SPEED3_1s 0051    __size_of_TMR1_Initialize 000B                    ??___wmul 0076  
               __pdataBANK0 0060                 __pdataBANK1 00A0                 __pdataBANK2 0120  
       ACTION@Switch_Num_1s 0026         __size_of_copy_frame 003A                 __pbssCOMMON 007A  
                 ___latbits 0002               __pcstackBANK0 0020               __pcstackBANK1 00CE  
  __size_of_TMR2_Initialize 000A  __size_of_EUSART_Initialize 0016           ??_CCP1_Initialize 0072  
  __size_of_TMR3_Initialize 000A                   __pswtext1 07EC                   __pswtext2 0800  
                 __pswtext3 0814                   __pswtext4 0828                   __pswtext5 083C  
                 __pswtext6 0850                   __pswtext7 0864                   __pswtext8 1000  
                 __pswtext9 1014               ??_pin_manager 0072                 ACTION@SwNum 0039  
      ACTION@finalFrameStat 002B                    _BAUD1CON 019F                    ?_isdigit 0070  
  __size_of_TMR4_Initialize 0009        ACTION@FanSpeedString 0035              ___wmul@product 0076  
                 clear_ram0 12A3           ??_CCP3_Initialize 0072                    _PIE1bits 0091  
                  _PIE3bits 0093                    _PIE4bits 0094                    _PIR1bits 0011  
                  _PIR3bits 0013                    _PIR4bits 0014    __size_of_TMR5_Initialize 000A  
         ??_TMR1_Initialize 0072           ___wmul@multiplier 0072                   main@k_753 00DA  
                 _writeUART 0893    __size_of_TMR6_Initialize 0009         __end_of_pin_manager 0909  
  __size_of_CCP9_Initialize 000A                ??_copy_frame 0076           ??_TMR2_Initialize 0072  
           copy_frame@start 0072         ACTION@switch_status 003D           ??_TMR3_Initialize 0072  
               _isdigit$979 0072          __end_of_copy_frame 07EC            __size_of_isdigit 000E  
                ?_writeUART 0070                    __ptext10 1277                    __ptext11 1281  
                  __ptext12 1242                    __ptext13 07B2                    __ptext14 0937  
                  __ptext15 0893                    __ptext16 06FF                    __ptext17 1228  
                  __ptext18 08AC           ??_TMR4_Initialize 0072               __size_of_atoi 006B  
             __size_of_main 0404                  _RC1STAbits 019D                    int$flags 007E  
                  atoi@sign 0022           ??_TMR5_Initialize 0072                 _pin_manager 08E5  
           _CCP1_Initialize 1242                    isdigit@c 0073                    intlevel1 0000  
         ??_TMR6_Initialize 0072           __CFG_CLKOUTEN$OFF 0000           ??_CCP9_Initialize 0072  
             __pstringtext1 1236               __pstringtext2 0000                 ??_writeUART 0072  
           _CCP3_Initialize 1281                  _TX1STAbits 019E             _TMR1_Initialize 124E  
