

Microchip Technology PIC LITE Macro Assembler V1.45 build -152302408 
                                                                                               Wed Jul 25 13:13:48 2018

Microchip Technology Omniscient Code Generator v1.45 (Free mode) build 201711160504
     1                           	processor	16F1526
     2                           	opt	pw 120
     3                           	opt	lm
     4                           	psect	idataBANK0,global,class=CODE,delta=2
     5                           	psect	idataBANK1,global,class=CODE,delta=2
     6                           	psect	idataBANK2,global,class=CODE,delta=2
     7                           	psect	cinit,global,class=CODE,merge=1,delta=2
     8                           	psect	bssCOMMON,global,class=COMMON,space=1,delta=1
     9                           	psect	bssBANK0,global,class=BANK0,space=1,delta=1
    10                           	psect	dataBANK0,global,class=BANK0,space=1,delta=1
    11                           	psect	bssBANK1,global,class=BANK1,space=1,delta=1
    12                           	psect	dataBANK1,global,class=BANK1,space=1,delta=1
    13                           	psect	dataBANK2,global,class=BANK2,space=1,delta=1
    14                           	psect	inittext,global,class=CODE,delta=2
    15                           	psect	clrtext,global,class=CODE,delta=2
    16                           	psect	cstackBANK1,global,class=BANK1,space=1,delta=1
    17                           	psect	cstackCOMMON,global,class=COMMON,space=1,delta=1
    18                           	psect	cstackBANK0,global,class=BANK0,space=1,delta=1
    19                           	psect	maintext,global,class=CODE,merge=1,split=1,delta=2
    20                           	psect	text1,local,class=CODE,merge=1,delta=2
    21                           	psect	text2,local,class=CODE,merge=1,delta=2
    22                           	psect	text3,local,class=CODE,merge=1,delta=2
    23                           	psect	text4,local,class=CODE,merge=1,delta=2
    24                           	psect	text5,local,class=CODE,merge=1,delta=2
    25                           	psect	text6,local,class=CODE,merge=1,delta=2
    26                           	psect	text7,local,class=CODE,merge=1,delta=2
    27                           	psect	text8,local,class=CODE,merge=1,delta=2
    28                           	psect	text9,local,class=CODE,merge=1,delta=2
    29                           	psect	text10,local,class=CODE,merge=1,delta=2
    30                           	psect	text11,local,class=CODE,merge=1,delta=2
    31                           	psect	text12,local,class=CODE,merge=1,delta=2
    32                           	psect	text13,local,class=CODE,merge=1,delta=2
    33                           	psect	text14,local,class=CODE,merge=1,delta=2
    34                           	psect	text15,local,class=CODE,merge=1,delta=2
    35                           	psect	text16,local,class=CODE,merge=1,delta=2,group=1
    36                           	psect	text17,local,class=CODE,merge=1,delta=2,group=1
    37                           	psect	text18,local,class=CODE,merge=1,delta=2,group=1
    38                           	psect	intentry,global,class=CODE,delta=2
    39                           	psect	swtext1,local,class=CONST,delta=2
    40                           	psect	swtext2,local,class=CONST,delta=2
    41                           	psect	swtext3,local,class=CONST,delta=2
    42                           	psect	swtext4,local,class=CONST,delta=2
    43                           	psect	swtext5,local,class=CONST,delta=2
    44                           	psect	swtext6,local,class=CONST,delta=2
    45                           	psect	swtext7,local,class=CONST,delta=2
    46                           	psect	swtext8,local,class=CONST,delta=2
    47                           	psect	swtext9,local,class=CONST,delta=2
    48                           	psect	swtext10,local,class=CONST,delta=2
    49                           	psect	swtext11,local,class=CONST,delta=2
    50                           	psect	swtext12,local,class=CONST,delta=2
    51                           	psect	swtext13,local,class=CONST,delta=2
    52                           	psect	swtext14,local,class=CONST,delta=2
    53                           	psect	swtext15,local,class=CONST,delta=2
    54                           	psect	swtext16,local,class=CONST,delta=2
    55                           	psect	swtext17,local,class=CONST,delta=2
    56                           	psect	swtext18,local,class=CONST,delta=2
    57                           	psect	swtext19,local,class=CONST,delta=2
    58                           	psect	swtext20,local,class=CONST,delta=2
    59                           	psect	swtext21,local,class=CONST,delta=2
    60                           	psect	swtext22,local,class=CONST,delta=2
    61                           	psect	swtext23,local,class=CONST,delta=2
    62                           	psect	swtext24,local,class=CONST,delta=2
    63                           	psect	swtext25,local,class=CONST,delta=2
    64                           	psect	swtext26,local,class=CONST,delta=2
    65                           	psect	swtext27,local,class=CONST,delta=2
    66                           	psect	swtext28,local,class=CONST,delta=2
    67                           	psect	swtext29,local,class=CONST,delta=2
    68                           	psect	swtext30,local,class=CONST,delta=2
    69                           	psect	swtext31,local,class=CONST,delta=2
    70                           	psect	swtext32,local,class=CONST,delta=2
    71                           	psect	swtext33,local,class=CONST,delta=2
    72                           	dabs	1,0x7E,2
    73  0000                     
    74                           ; Version 1.45
    75                           ; Generated 16/11/2017 GMT
    76                           ; 
    77                           ; Copyright © 2017, Microchip Technology Inc. and its subsidiaries ("Microchip")
    78                           ; All rights reserved.
    79                           ; 
    80                           ; This software is developed by Microchip Technology Inc. and its subsidiaries ("Microch
      +                          ip").
    81                           ; 
    82                           ; Redistribution and use in source and binary forms, with or without modification, are
    83                           ; permitted provided that the following conditions are met:
    84                           ; 
    85                           ;     1. Redistributions of source code must retain the above copyright notice, this lis
      +                          t of
    86                           ;        conditions and the following disclaimer.
    87                           ; 
    88                           ;     2. Redistributions in binary form must reproduce the above copyright notice, this 
      +                          list
    89                           ;        of conditions and the following disclaimer in the documentation and/or other
    90                           ;        materials provided with the distribution.
    91                           ; 
    92                           ;     3. Microchip's name may not be used to endorse or promote products derived from th
      +                          is
    93                           ;        software without specific prior written permission.
    94                           ; 
    95                           ; THIS SOFTWARE IS PROVIDED BY MICROCHIP "AS IS" AND ANY EXPRESS OR IMPLIED WARRANTIES,
    96                           ; INCLUDING, BUT NOT LIMITED TO, THE IMPLIED WARRANTIES OF MERCHANTABILITY AND FITNESS F
      +                          OR
    97                           ; PURPOSE ARE DISCLAIMED.  IN NO EVENT SHALL MICROCHIP BE LIABLE FOR ANY DIRECT, INDIREC
      +                          T,
    98                           ; INCIDENTAL, SPECIAL, EXEMPLARY, OR CONSEQUENTIAL DAMAGES (INCLUDING BUT NOT LIMITED TO
    99                           ; PROCUREMENT OF SUBSTITUTE GOODS OR SERVICES; LOSS OF USE, DATA OR PROFITS; OR BUSINESS
   100                           ; INTERRUPTION) HOWSOEVER CAUSED AND ON ANY THEORY OF LIABILITY, WHETHER IN CONTRACT, ST
      +                          RICT
   101                           ; LIABILITY, OR TORT (INCLUDING NEGLIGENCE OR OTHERWISE) ARISING IN ANY WAY OUT OF THE U
      +                          SE OF
   102                           ; THIS SOFTWARE, EVEN IF ADVISED OF THE POSSIBILITY OF SUCH DAMAGE.
   103                           ; 
   104                           ; 
   105                           ; Code-generator required, PIC16F1526 Definitions
   106                           ; 
   107                           ; SFR Addresses
   108  0000                     	;# 
   109  0001                     	;# 
   110  0002                     	;# 
   111  0003                     	;# 
   112  0004                     	;# 
   113  0005                     	;# 
   114  0006                     	;# 
   115  0007                     	;# 
   116  0008                     	;# 
   117  0009                     	;# 
   118  000A                     	;# 
   119  000B                     	;# 
   120  000C                     	;# 
   121  000D                     	;# 
   122  000E                     	;# 
   123  000F                     	;# 
   124  0010                     	;# 
   125  0011                     	;# 
   126  0012                     	;# 
   127  0013                     	;# 
   128  0014                     	;# 
   129  0015                     	;# 
   130  0016                     	;# 
   131  0016                     	;# 
   132  0017                     	;# 
   133  0018                     	;# 
   134  0019                     	;# 
   135  001A                     	;# 
   136  001B                     	;# 
   137  001C                     	;# 
   138  008C                     	;# 
   139  008D                     	;# 
   140  008E                     	;# 
   141  008F                     	;# 
   142  0090                     	;# 
   143  0091                     	;# 
   144  0092                     	;# 
   145  0093                     	;# 
   146  0094                     	;# 
   147  0095                     	;# 
   148  0096                     	;# 
   149  0097                     	;# 
   150  0099                     	;# 
   151  009A                     	;# 
   152  009B                     	;# 
   153  009B                     	;# 
   154  009C                     	;# 
   155  009D                     	;# 
   156  009E                     	;# 
   157  010C                     	;# 
   158  010D                     	;# 
   159  010E                     	;# 
   160  010F                     	;# 
   161  0110                     	;# 
   162  0116                     	;# 
   163  0117                     	;# 
   164  011D                     	;# 
   165  018C                     	;# 
   166  018D                     	;# 
   167  018F                     	;# 
   168  0190                     	;# 
   169  0191                     	;# 
   170  0191                     	;# 
   171  0192                     	;# 
   172  0193                     	;# 
   173  0193                     	;# 
   174  0194                     	;# 
   175  0195                     	;# 
   176  0196                     	;# 
   177  0197                     	;# 
   178  0199                     	;# 
   179  0199                     	;# 
   180  0199                     	;# 
   181  019A                     	;# 
   182  019A                     	;# 
   183  019A                     	;# 
   184  019B                     	;# 
   185  019B                     	;# 
   186  019B                     	;# 
   187  019B                     	;# 
   188  019B                     	;# 
   189  019C                     	;# 
   190  019C                     	;# 
   191  019C                     	;# 
   192  019D                     	;# 
   193  019D                     	;# 
   194  019D                     	;# 
   195  019E                     	;# 
   196  019E                     	;# 
   197  019E                     	;# 
   198  019F                     	;# 
   199  019F                     	;# 
   200  019F                     	;# 
   201  020D                     	;# 
   202  020F                     	;# 
   203  0210                     	;# 
   204  0211                     	;# 
   205  0211                     	;# 
   206  0212                     	;# 
   207  0212                     	;# 
   208  0213                     	;# 
   209  0213                     	;# 
   210  0214                     	;# 
   211  0214                     	;# 
   212  0215                     	;# 
   213  0215                     	;# 
   214  0215                     	;# 
   215  0216                     	;# 
   216  0216                     	;# 
   217  0217                     	;# 
   218  0217                     	;# 
   219  0219                     	;# 
   220  021A                     	;# 
   221  021B                     	;# 
   222  021C                     	;# 
   223  021D                     	;# 
   224  021E                     	;# 
   225  021F                     	;# 
   226  028C                     	;# 
   227  028D                     	;# 
   228  0291                     	;# 
   229  0291                     	;# 
   230  0292                     	;# 
   231  0293                     	;# 
   232  0298                     	;# 
   233  0298                     	;# 
   234  0299                     	;# 
   235  029A                     	;# 
   236  029D                     	;# 
   237  029E                     	;# 
   238  029F                     	;# 
   239  030C                     	;# 
   240  030D                     	;# 
   241  0311                     	;# 
   242  0311                     	;# 
   243  0312                     	;# 
   244  0313                     	;# 
   245  0318                     	;# 
   246  0318                     	;# 
   247  0319                     	;# 
   248  031A                     	;# 
   249  031C                     	;# 
   250  031C                     	;# 
   251  031D                     	;# 
   252  031E                     	;# 
   253  038C                     	;# 
   254  038D                     	;# 
   255  0394                     	;# 
   256  0395                     	;# 
   257  0396                     	;# 
   258  040C                     	;# 
   259  040D                     	;# 
   260  0411                     	;# 
   261  0411                     	;# 
   262  0412                     	;# 
   263  0413                     	;# 
   264  0414                     	;# 
   265  0415                     	;# 
   266  0416                     	;# 
   267  0417                     	;# 
   268  0418                     	;# 
   269  0418                     	;# 
   270  0419                     	;# 
   271  041A                     	;# 
   272  041B                     	;# 
   273  041C                     	;# 
   274  041D                     	;# 
   275  041E                     	;# 
   276  048D                     	;# 
   277  0491                     	;# 
   278  0491                     	;# 
   279  0492                     	;# 
   280  0492                     	;# 
   281  0493                     	;# 
   282  0493                     	;# 
   283  0493                     	;# 
   284  0494                     	;# 
   285  0494                     	;# 
   286  0495                     	;# 
   287  0495                     	;# 
   288  0496                     	;# 
   289  0496                     	;# 
   290  0497                     	;# 
   291  0497                     	;# 
   292  0595                     	;# 
   293  0596                     	;# 
   294  0597                     	;# 
   295  059C                     	;# 
   296  059D                     	;# 
   297  059E                     	;# 
   298  0611                     	;# 
   299  0611                     	;# 
   300  0612                     	;# 
   301  0613                     	;# 
   302  0614                     	;# 
   303  0614                     	;# 
   304  0615                     	;# 
   305  0616                     	;# 
   306  0617                     	;# 
   307  0617                     	;# 
   308  0618                     	;# 
   309  0619                     	;# 
   310  061A                     	;# 
   311  061A                     	;# 
   312  061B                     	;# 
   313  061C                     	;# 
   314  061D                     	;# 
   315  061D                     	;# 
   316  061E                     	;# 
   317  061F                     	;# 
   318  0FE4                     	;# 
   319  0FE5                     	;# 
   320  0FE6                     	;# 
   321  0FE7                     	;# 
   322  0FE8                     	;# 
   323  0FE9                     	;# 
   324  0FEA                     	;# 
   325  0FEB                     	;# 
   326  0FED                     	;# 
   327  0FEE                     	;# 
   328  0FEF                     	;# 
   329                           
   330                           	psect	idataBANK0
   331  07FC                     __pidataBANK0:	
   332                           
   333                           ;initializer for _man
   334  07FC  3401               	retlw	1
   335  07FD  3400               	retlw	0
   336                           
   337                           	psect	idataBANK1
   338  0B91                     __pidataBANK1:	
   339                           
   340                           ;initializer for _child_LOCK
   341  0B91  3430               	retlw	48
   342  0B92  3430               	retlw	48
   343  0B93  3430               	retlw	48
   344  0B94  3430               	retlw	48
   345  0B95  3430               	retlw	48
   346                           
   347                           ;initializer for _st
   348  0B96  3454               	retlw	84
   349  0B97  3430               	retlw	48
   350  0B98  3430               	retlw	48
   351  0B99  3430               	retlw	48
   352  0B9A  3430               	retlw	48
   353  0B9B  3430               	retlw	48
   354  0B9C  3430               	retlw	48
   355  0B9D  3430               	retlw	48
   356  0B9E  3430               	retlw	48
   357  0B9F  3430               	retlw	48
   358  0BA0  3430               	retlw	48
   359  0BA1  3430               	retlw	48
   360  0BA2  3430               	retlw	48
   361  0BA3  3430               	retlw	48
   362  0BA4  3430               	retlw	48
   363  0BA5  3430               	retlw	48
   364  0BA6  3430               	retlw	48
   365  0BA7  3430               	retlw	48
   366  0BA8  3430               	retlw	48
   367  0BA9  3430               	retlw	48
   368  0BAA  3430               	retlw	48
   369  0BAB  3430               	retlw	48
   370  0BAC  3400               	retlw	0
   371  0BAD  3400               	retlw	0
   372  0BAE  3400               	retlw	0
   373  0BAF  3400               	retlw	0
   374                           
   375                           	psect	idataBANK2
   376  075A                     __pidataBANK2:	
   377                           
   378                           ;initializer for _copy
   379  075A  3424               	retlw	36
   380  075B  3400               	retlw	0
   381  075C  3400               	retlw	0
   382  075D  3400               	retlw	0
   383  075E  3400               	retlw	0
   384  075F  3400               	retlw	0
   385  0760  3400               	retlw	0
   386  0761  3400               	retlw	0
   387  0762  3400               	retlw	0
   388  0763  3400               	retlw	0
   389  0764  3400               	retlw	0
   390  0765  3400               	retlw	0
   391  0766  3400               	retlw	0
   392  0767  3400               	retlw	0
   393  0768  3400               	retlw	0
   394  0769  3400               	retlw	0
   395  076A  3400               	retlw	0
   396  076B  3400               	retlw	0
   397  076C  3400               	retlw	0
   398  076D  3400               	retlw	0
   399  076E  3400               	retlw	0
   400  076F  3400               	retlw	0
   401  0770  3400               	retlw	0
   402  0771  3400               	retlw	0
   403  0772  3400               	retlw	0
   404  0773  3400               	retlw	0
   405  0774  3400               	retlw	0
   406  0775  3400               	retlw	0
   407  0776  3400               	retlw	0
   408  0777  3400               	retlw	0
   409  0778  3400               	retlw	0
   410  0779  3400               	retlw	0
   411  077A  3400               	retlw	0
   412  077B  3400               	retlw	0
   413  077C  3400               	retlw	0
   414  077D  3400               	retlw	0
   415                           
   416                           ;initializer for _name
   417  077E  3461               	retlw	97
   418  077F  3400               	retlw	0
   419  0780  3400               	retlw	0
   420  0781  3400               	retlw	0
   421  0782  3400               	retlw	0
   422  0783  3400               	retlw	0
   423  0784  3400               	retlw	0
   424  0785  3400               	retlw	0
   425  0786  3400               	retlw	0
   426  0787  3400               	retlw	0
   427  0788  3400               	retlw	0
   428  0789  3400               	retlw	0
   429  078A  3400               	retlw	0
   430  078B  3400               	retlw	0
   431  078C  3400               	retlw	0
   432  078D  3400               	retlw	0
   433  078E  3400               	retlw	0
   434  078F  3400               	retlw	0
   435  0790  3400               	retlw	0
   436  0791  3400               	retlw	0
   437  0792  3400               	retlw	0
   438  0793  3400               	retlw	0
   439  0794  3400               	retlw	0
   440  0795  3400               	retlw	0
   441  0796  3400               	retlw	0
   442  0797  3400               	retlw	0
   443  0798  3400               	retlw	0
   444  0799  3400               	retlw	0
   445  079A  3400               	retlw	0
   446  079B  3400               	retlw	0
   447  079C  3400               	retlw	0
   448  079D  3400               	retlw	0
   449  079E  3400               	retlw	0
   450  079F  3400               	retlw	0
   451  07A0  3400               	retlw	0
   452  07A1  3400               	retlw	0
   453  001A                     _TMR2	set	26
   454  001C                     _T2CON	set	28
   455  0019                     _T1GCON	set	25
   456  0018                     _T1CON	set	24
   457  0016                     _TMR1L	set	22
   458  0017                     _TMR1H	set	23
   459  0014                     _PIR4bits	set	20
   460  0013                     _PIR3bits	set	19
   461  001B                     _PR2	set	27
   462  0018                     _T1CONbits	set	24
   463  001C                     _T2CONbits	set	28
   464  0011                     _PIR1bits	set	17
   465  005E                     _PEIE	set	94
   466  005F                     _GIE	set	95
   467  0062                     _RA2	set	98
   468  0063                     _RA3	set	99
   469  0085                     _RE5	set	133
   470  008D                     _RCIF	set	141
   471  008E                     _TRISCbits	set	142
   472  008C                     _TRISAbits	set	140
   473  0090                     _TRISEbits	set	144
   474  0094                     _PIE4bits	set	148
   475  0093                     _PIE3bits	set	147
   476  0091                     _PIE1bits	set	145
   477  018C                     _ANSELA	set	396
   478  0190                     _ANSELE	set	400
   479  019C                     _SP1BRGH	set	412
   480  019B                     _SP1BRGL	set	411
   481  019E                     _TX1STA	set	414
   482  019D                     _RC1STA	set	413
   483  019F                     _BAUD1CON	set	415
   484  019E                     _TX1STAbits	set	414
   485  0199                     _RC1REG	set	409
   486  019A                     _TX1REG	set	410
   487  019D                     _RC1STAbits	set	413
   488  0210                     _WPUE	set	528
   489  0291                     _CCPR1L	set	657
   490  0292                     _CCPR1H	set	658
   491  0293                     _CCP1CON	set	659
   492  1463                     _RF3	set	5219
   493  1465                     _RF5	set	5221
   494  1467                     _RF7	set	5223
   495  1461                     _RF1	set	5217
   496  1460                     _RF0	set	5216
   497  030C                     _TRISFbits	set	780
   498  030D                     _TRISGbits	set	781
   499  0312                     _CCPR3H	set	786
   500  0311                     _CCPR3L	set	785
   501  0313                     _CCP3CON	set	787
   502  040C                     _ANSELF	set	1036
   503  040D                     _ANSELG	set	1037
   504  041C                     _TMR6	set	1052
   505  041E                     _T6CON	set	1054
   506  0415                     _TMR4	set	1045
   507  0417                     _T4CON	set	1047
   508  041B                     _T5GCON	set	1051
   509  041A                     _T5CON	set	1050
   510  0414                     _T3GCON	set	1044
   511  0413                     _T3CON	set	1043
   512  0418                     _TMR5L	set	1048
   513  0419                     _TMR5H	set	1049
   514  0411                     _TMR3L	set	1041
   515  0412                     _TMR3H	set	1042
   516  041A                     _T5CONbits	set	1050
   517  041D                     _PR6	set	1053
   518  041E                     _T6CONbits	set	1054
   519  0413                     _T3CONbits	set	1043
   520  0416                     _PR4	set	1046
   521  0417                     _T4CONbits	set	1047
   522  048D                     _WPUG	set	1165
   523  061A                     _CCPR9L	set	1562
   524  061B                     _CCPR9H	set	1563
   525  061C                     _CCP9CON	set	1564
   526                           
   527                           ; #config settings
   528  0000                     
   529                           	psect	cinit
   530  06BA                     start_initialization:	
   531  06BA                     __initialization:	
   532                           
   533                           ; Initialize objects allocated to BANK0
   534  06BA  3187  27FC  3186   	fcall	__pidataBANK0	;fetch initializer
   535  06BD  00E0               	movwf	__pdataBANK0& (0+127)
   536  06BE  3187  27FD  3186   	fcall	__pidataBANK0+1	;fetch initializer
   537  06C1  00E1               	movwf	(__pdataBANK0+1)& (0+127)
   538                           
   539                           ; Initialize objects allocated to BANK1
   540  06C2  3091               	movlw	low __pidataBANK1
   541  06C3  0084               	movwf	4
   542  06C4  308B               	movlw	(high __pidataBANK1)| (0+128)
   543  06C5  0085               	movwf	5
   544  06C6  30A0               	movlw	low __pdataBANK1
   545  06C7  0086               	movwf	6
   546  06C8  3000               	movlw	high __pdataBANK1
   547  06C9  0087               	movwf	7
   548  06CA  301F               	movlw	31
   549  06CB  318B  231D  3186   	fcall	init_ram
   550                           
   551                           ; Initialize objects allocated to BANK2
   552  06CE  305A               	movlw	low __pidataBANK2
   553  06CF  0084               	movwf	4
   554  06D0  3087               	movlw	(high __pidataBANK2)| (0+128)
   555  06D1  0085               	movwf	5
   556  06D2  3020               	movlw	low __pdataBANK2
   557  06D3  0086               	movwf	6
   558  06D4  3001               	movlw	high __pdataBANK2
   559  06D5  0087               	movwf	7
   560  06D6  3048               	movlw	72
   561  06D7  318B  231D  3186   	fcall	init_ram
   562                           
   563                           ; Clear objects allocated to COMMON
   564  06DA  01FA               	clrf	__pbssCOMMON& (0+127)
   565  06DB  01FB               	clrf	(__pbssCOMMON+1)& (0+127)
   566                           
   567                           ; Clear objects allocated to BANK0
   568  06DC  3045               	movlw	low __pbssBANK0
   569  06DD  0084               	movwf	4
   570  06DE  3000               	movlw	high __pbssBANK0
   571  06DF  0085               	movwf	5
   572  06E0  301B               	movlw	27
   573  06E1  318B  2323  3186   	fcall	clear_ram0
   574                           
   575                           ; Clear objects allocated to BANK1
   576  06E4  30CF               	movlw	low __pbssBANK1
   577  06E5  0084               	movwf	4
   578  06E6  3000               	movlw	high __pbssBANK1
   579  06E7  0085               	movwf	5
   580  06E8  300E               	movlw	14
   581  06E9  318B  2323         	fcall	clear_ram0
   582  06EB                     end_of_initialization:	
   583                           ;End of C runtime variable initialization code
   584                           
   585  06EB                     __end_of__initialization:	
   586  06EB  107E               	bcf	int$flags,0	;clear compiler interrupt flag (level 1)
   587  06EC  0020               	movlb	0
   588  06ED  318D  2D1B         	ljmp	_main	;jump to C main() function
   589                           
   590                           	psect	bssCOMMON
   591  007A                     __pbssCOMMON:	
   592  007A                     _FAN_SPEED2_10s:	
   593  007A                     	ds	2
   594                           
   595                           	psect	bssBANK0
   596  0045                     __pbssBANK0:	
   597  0045                     _M3:	
   598  0045                     	ds	2
   599  0047                     _M2:	
   600  0047                     	ds	2
   601  0049                     _M1:	
   602  0049                     	ds	2
   603  004B                     _COPY_FLAG:	
   604  004B                     	ds	2
   605  004D                     _FAN_SPEED3_1s:	
   606  004D                     	ds	2
   607  004F                     _FAN_SPEED2_1s:	
   608  004F                     	ds	2
   609  0051                     _FAN_SPEED1_1s:	
   610  0051                     	ds	2
   611  0053                     _FAN_SPEED1_10s:	
   612  0053                     	ds	2
   613  0055                     _tk:	
   614  0055                     	ds	2
   615  0057                     _ak:	
   616  0057                     	ds	2
   617  0059                     _pk:	
   618  0059                     	ds	2
   619  005B                     _i:	
   620  005B                     	ds	2
   621  005D                     _dimmer3:	
   622  005D                     	ds	1
   623  005E                     _dimmer2:	
   624  005E                     	ds	1
   625  005F                     _dimmer1:	
   626  005F                     	ds	1
   627                           
   628                           	psect	dataBANK0
   629  0060                     __pdataBANK0:	
   630  0060                     _man:	
   631  0060                     	ds	2
   632                           
   633                           	psect	bssBANK1
   634  00CF                     __pbssBANK1:	
   635  00CF                     _M5:	
   636  00CF                     	ds	2
   637  00D1                     _M4:	
   638  00D1                     	ds	2
   639  00D3                     _FAN_FLAG3:	
   640  00D3                     	ds	2
   641  00D5                     _FAN_FLAG2:	
   642  00D5                     	ds	2
   643  00D7                     _FAN_FLAG1:	
   644  00D7                     	ds	2
   645  00D9                     _TX_FLAG:	
   646  00D9                     	ds	2
   647  00DB                     _FAN_SPEED3_10s:	
   648  00DB                     	ds	2
   649                           
   650                           	psect	dataBANK1
   651  00A0                     __pdataBANK1:	
   652  00A0                     _child_LOCK:	
   653  00A0                     	ds	5
   654  00A5                     _st:	
   655  00A5                     	ds	26
   656                           
   657                           	psect	dataBANK2
   658  0120                     __pdataBANK2:	
   659  0120                     _copy:	
   660  0120                     	ds	36
   661  0144                     _name:	
   662  0144                     	ds	36
   663                           
   664                           	psect	inittext
   665  0B1D                     init_ram:	
   666  0B1D  00FE               	movwf	126
   667  0B1E                     initloop:	
   668  0B1E  0012               	moviw fsr0++
   669  0B1F  001E               	movwi fsr1++
   670  0B20  0BFE               	decfsz	126,f
   671  0B21  2B1E               	goto	initloop
   672  0B22  3400               	retlw	0
   673                           
   674                           	psect	clrtext
   675  0B23                     clear_ram0:	
   676                           ;	Called with FSR0 containing the base address, and
   677                           ;	WREG with the size to clear
   678                           
   679  0B23  0064               	clrwdt	;clear the watchdog before getting into this loop
   680  0B24                     clrloop0:	
   681  0B24  0180               	clrf	0	;clear RAM location pointed to by FSR
   682  0B25  3101               	addfsr 0,1
   683  0B26  0B89               	decfsz	9,f	;Have we reached the end of clearing yet?
   684  0B27  2B24               	goto	clrloop0	;have we reached the end yet?
   685  0B28  3400               	retlw	0	;all done for this memory range, return
   686                           
   687                           	psect	cstackBANK1
   688  00BF                     __pcstackBANK1:	
   689  00BF                     main@RX_CHK_FLAG_start1:	
   690                           
   691                           ; 2 bytes @ 0x0
   692  00BF                     	ds	2
   693  00C1                     main@RX_CHK_FLAG_start2:	
   694                           
   695                           ; 2 bytes @ 0x2
   696  00C1                     	ds	2
   697  00C3                     main@RX_CHK_FLAG_end1:	
   698                           
   699                           ; 2 bytes @ 0x4
   700  00C3                     	ds	2
   701  00C5                     main@RX_CHK_FLAG_end2:	
   702                           
   703                           ; 2 bytes @ 0x6
   704  00C5                     	ds	2
   705  00C7                     main@start_flag:	
   706                           
   707                           ; 2 bytes @ 0x8
   708  00C7                     	ds	2
   709  00C9                     main@end_flag:	
   710                           
   711                           ; 2 bytes @ 0xA
   712  00C9                     	ds	2
   713  00CB                     main@k_746:	
   714                           
   715                           ; 2 bytes @ 0xC
   716  00CB                     	ds	2
   717  00CD                     main@k:	
   718                           
   719                           ; 2 bytes @ 0xE
   720  00CD                     	ds	2
   721                           
   722                           	psect	cstackCOMMON
   723  0070                     __pcstackCOMMON:	
   724  0070                     ?_isdigit:	
   725  0070                     ?_EUSART_Initialize:	
   726                           ; 1 bit 
   727                           
   728  0070                     ?_CCP1_Initialize:	
   729                           ; 1 bytes @ 0x0
   730                           
   731  0070                     ?_CCP3_Initialize:	
   732                           ; 1 bytes @ 0x0
   733                           
   734  0070                     ?_CCP9_Initialize:	
   735                           ; 1 bytes @ 0x0
   736                           
   737  0070                     ?_TMR1_Initialize:	
   738                           ; 1 bytes @ 0x0
   739                           
   740  0070                     ?_TMR3_Initialize:	
   741                           ; 1 bytes @ 0x0
   742                           
   743  0070                     ?_TMR2_Initialize:	
   744                           ; 1 bytes @ 0x0
   745                           
   746  0070                     ?_TMR4_Initialize:	
   747                           ; 1 bytes @ 0x0
   748                           
   749  0070                     ?_TMR5_Initialize:	
   750                           ; 1 bytes @ 0x0
   751                           
   752  0070                     ?_TMR6_Initialize:	
   753                           ; 1 bytes @ 0x0
   754                           
   755  0070                     ?_pin_manager:	
   756                           ; 1 bytes @ 0x0
   757                           
   758  0070                     ?_writeUART:	
   759                           ; 1 bytes @ 0x0
   760                           
   761  0070                     ?_isr:	
   762                           ; 1 bytes @ 0x0
   763                           
   764  0070                     ??_isr:	
   765                           ; 1 bytes @ 0x0
   766                           
   767  0070                     ?_periperal_init:	
   768                           ; 1 bytes @ 0x0
   769                           
   770  0070                     ?_main:	
   771                           ; 1 bytes @ 0x0
   772                           
   773                           
   774                           ; 1 bytes @ 0x0
   775  0070                     	ds	2
   776  0072                     ??_EUSART_Initialize:	
   777  0072                     ??_CCP1_Initialize:	
   778                           ; 1 bytes @ 0x2
   779                           
   780  0072                     ??_CCP3_Initialize:	
   781                           ; 1 bytes @ 0x2
   782                           
   783  0072                     ??_CCP9_Initialize:	
   784                           ; 1 bytes @ 0x2
   785                           
   786  0072                     ??_TMR1_Initialize:	
   787                           ; 1 bytes @ 0x2
   788                           
   789  0072                     ??_TMR3_Initialize:	
   790                           ; 1 bytes @ 0x2
   791                           
   792  0072                     ??_TMR2_Initialize:	
   793                           ; 1 bytes @ 0x2
   794                           
   795  0072                     ??_TMR4_Initialize:	
   796                           ; 1 bytes @ 0x2
   797                           
   798  0072                     ??_TMR5_Initialize:	
   799                           ; 1 bytes @ 0x2
   800                           
   801  0072                     ??_TMR6_Initialize:	
   802                           ; 1 bytes @ 0x2
   803                           
   804  0072                     ??_pin_manager:	
   805                           ; 1 bytes @ 0x2
   806                           
   807  0072                     ?_copy_frame:	
   808                           ; 1 bytes @ 0x2
   809                           
   810  0072                     ??_writeUART:	
   811                           ; 1 bytes @ 0x2
   812                           
   813  0072                     ??_isdigit:	
   814                           ; 1 bytes @ 0x2
   815                           
   816  0072                     ??_periperal_init:	
   817                           ; 1 bytes @ 0x2
   818                           
   819  0072                     ?___wmul:	
   820                           ; 1 bytes @ 0x2
   821                           
   822  0072                     _isdigit$972:	
   823                           ; 2 bytes @ 0x2
   824                           
   825  0072                     copy_frame@start:	
   826                           ; 1 bytes @ 0x2
   827                           
   828  0072                     ___wmul@multiplier:	
   829                           ; 2 bytes @ 0x2
   830                           
   831                           
   832                           ; 2 bytes @ 0x2
   833  0072                     	ds	1
   834  0073                     isdigit@c:	
   835  0073                     writeUART@Tx_count:	
   836                           ; 1 bytes @ 0x3
   837                           
   838                           
   839                           ; 2 bytes @ 0x3
   840  0073                     	ds	1
   841  0074                     copy_frame@end:	
   842  0074                     ___wmul@multiplicand:	
   843                           ; 2 bytes @ 0x4
   844                           
   845                           
   846                           ; 2 bytes @ 0x4
   847  0074                     	ds	1
   848  0075                     writeUART@str2Write:	
   849                           
   850                           ; 1 bytes @ 0x5
   851  0075                     	ds	1
   852  0076                     ??_copy_frame:	
   853  0076                     ??___wmul:	
   854                           ; 1 bytes @ 0x6
   855                           
   856  0076                     ___wmul@product:	
   857                           ; 1 bytes @ 0x6
   858                           
   859                           
   860                           ; 2 bytes @ 0x6
   861  0076                     	ds	2
   862  0078                     ?_atoi:	
   863                           
   864                           ; 2 bytes @ 0x8
   865  0078                     	ds	2
   866                           
   867                           	psect	cstackBANK0
   868  0020                     __pcstackBANK0:	
   869  0020                     ??_atoi:	
   870  0020                     copy_frame@sw:	
   871                           ; 1 bytes @ 0x0
   872                           
   873                           
   874                           ; 2 bytes @ 0x0
   875  0020                     	ds	2
   876  0022                     atoi@sign:	
   877  0022                     copy_frame@k:	
   878                           ; 1 bytes @ 0x2
   879                           
   880                           
   881                           ; 2 bytes @ 0x2
   882  0022                     	ds	1
   883  0023                     atoi@a:	
   884                           
   885                           ; 2 bytes @ 0x3
   886  0023                     	ds	2
   887  0025                     atoi@s:	
   888                           
   889                           ; 1 bytes @ 0x5
   890  0025                     	ds	1
   891  0026                     ?_ACTION:	
   892  0026                     ACTION@Switch_Num_1s:	
   893                           ; 1 bytes @ 0x6
   894                           
   895                           
   896                           ; 1 bytes @ 0x6
   897  0026                     	ds	1
   898  0027                     ACTION@sw_status:	
   899                           
   900                           ; 1 bytes @ 0x7
   901  0027                     	ds	1
   902  0028                     ACTION@speed_bitHigh:	
   903                           
   904                           ; 1 bytes @ 0x8
   905  0028                     	ds	1
   906  0029                     ACTION@speed_bitLow:	
   907                           
   908                           ; 1 bytes @ 0x9
   909  0029                     	ds	1
   910  002A                     ACTION@parent:	
   911                           
   912                           ; 1 bytes @ 0xA
   913  002A                     	ds	1
   914  002B                     ACTION@finalFrameStat:	
   915                           
   916                           ; 1 bytes @ 0xB
   917  002B                     	ds	1
   918  002C                     ??_ACTION:	
   919                           
   920                           ; 1 bytes @ 0xC
   921  002C                     	ds	2
   922  002E                     ACTION@FanSpeed:	
   923                           
   924                           ; 2 bytes @ 0xE
   925  002E                     	ds	2
   926  0030                     ACTION@children:	
   927                           
   928                           ; 2 bytes @ 0x10
   929  0030                     	ds	2
   930  0032                     ACTION@child_lock_num:	
   931                           
   932                           ; 2 bytes @ 0x12
   933  0032                     	ds	2
   934  0034                     ACTION@Switch_Num_10s:	
   935                           
   936                           ; 1 bytes @ 0x14
   937  0034                     	ds	1
   938  0035                     ACTION@FanSpeedString:	
   939                           
   940                           ; 2 bytes @ 0x15
   941  0035                     	ds	2
   942  0037                     ACTION@SwNumString:	
   943                           
   944                           ; 2 bytes @ 0x17
   945  0037                     	ds	2
   946  0039                     ACTION@SwNum:	
   947                           
   948                           ; 2 bytes @ 0x19
   949  0039                     	ds	2
   950  003B                     ACTION@response_starts:	
   951                           
   952                           ; 2 bytes @ 0x1B
   953  003B                     	ds	2
   954  003D                     ACTION@switch_status:	
   955                           
   956                           ; 2 bytes @ 0x1D
   957  003D                     	ds	2
   958  003F                     ??_main:	
   959                           
   960                           ; 1 bytes @ 0x1F
   961  003F                     	ds	6
   962                           
   963                           	psect	maintext
   964  0D1B                     __pmaintext:	
   965 ;;
   966 ;;Main: autosize = 0, tempsize = 6, incstack = 0, save=0
   967 ;;
   968 ;; *************** function _main *****************
   969 ;; Defined at:
   970 ;;		line 1102 in file "final_3_dimer.c"
   971 ;; Parameters:    Size  Location     Type
   972 ;;		None
   973 ;; Auto vars:     Size  Location     Type
   974 ;;  k               2   12[BANK1 ] int 
   975 ;;  k               2   14[BANK1 ] int 
   976 ;;  end_flag        2   10[BANK1 ] int 
   977 ;;  start_flag      2    8[BANK1 ] int 
   978 ;;  RX_CHK_FLAG_    2    6[BANK1 ] int 
   979 ;;  RX_CHK_FLAG_    2    4[BANK1 ] int 
   980 ;;  RX_CHK_FLAG_    2    2[BANK1 ] int 
   981 ;;  RX_CHK_FLAG_    2    0[BANK1 ] int 
   982 ;; Return value:  Size  Location     Type
   983 ;;                  1    wreg      void 
   984 ;; Registers used:
   985 ;;		wreg, fsr0l, fsr0h, fsr1l, fsr1h, status,2, status,0, pclath, cstack
   986 ;; Tracked objects:
   987 ;;		On entry : B1F/0
   988 ;;		On exit  : 0/0
   989 ;;		Unchanged: 0/0
   990 ;; Data sizes:     COMMON   BANK0   BANK1   BANK2   BANK3   BANK4   BANK5   BANK6   BANK7   BANK8   BANK9
   991 ;;      Params:         0       0       0       0       0       0       0       0       0       0       0
   992 ;;      Locals:         0       0      16       0       0       0       0       0       0       0       0
   993 ;;      Temps:          0       6       0       0       0       0       0       0       0       0       0
   994 ;;      Totals:         0       6      16       0       0       0       0       0       0       0       0
   995 ;;Total ram usage:       22 bytes
   996 ;; Hardware stack levels required when called:    4
   997 ;; This function calls:
   998 ;;		_ACTION
   999 ;;		_copy_frame
  1000 ;;		_periperal_init
  1001 ;;		_pin_manager
  1002 ;;		_writeUART
  1003 ;; This function is called by:
  1004 ;;		Startup code after reset
  1005 ;; This function uses a non-reentrant model
  1006 ;;
  1007                           
  1008                           
  1009                           ;psect for function _main
  1010  0D1B                     _main:	
  1011                           
  1012                           ;final_3_dimer.c: 1103: _delay((unsigned long)((2000)*(16000000/4000.0)));
  1013                           
  1014                           ;incstack = 0
  1015                           ; Regs used in _main: [wreg-fsr1h+status,2+status,0+pclath+cstack]
  1016  0D1B  3029               	movlw	41
  1017  0D1C  0020               	movlb	0	; select bank0
  1018  0D1D  00C0               	movwf	??_main+1
  1019  0D1E  3096               	movlw	150
  1020  0D1F  00BF               	movwf	??_main
  1021  0D20  307F               	movlw	127
  1022  0D21                     u2957:	
  1023  0D21  0B89               	decfsz	9,f
  1024  0D22  2D21               	goto	u2957
  1025  0D23  0BBF               	decfsz	??_main,f
  1026  0D24  2D21               	goto	u2957
  1027  0D25  0BC0               	decfsz	??_main+1,f
  1028  0D26  2D21               	goto	u2957
  1029                           
  1030                           ;final_3_dimer.c: 1105: int RX_CHK_FLAG_start1 = 0 ,RX_CHK_FLAG_start2 = 0, start_flag=0
      +                          ;
  1031  0D27  0021               	movlb	1	; select bank1
  1032  0D28  01BF               	clrf	main@RX_CHK_FLAG_start1^(0+128)
  1033  0D29  01C0               	clrf	(main@RX_CHK_FLAG_start1+1)^(0+128)
  1034  0D2A  01C1               	clrf	main@RX_CHK_FLAG_start2^(0+128)
  1035  0D2B  01C2               	clrf	(main@RX_CHK_FLAG_start2+1)^(0+128)
  1036  0D2C  01C7               	clrf	main@start_flag^(0+128)
  1037  0D2D  01C8               	clrf	(main@start_flag+1)^(0+128)
  1038                           
  1039                           ;final_3_dimer.c: 1106: int RX_CHK_FLAG_end1 = 0, RX_CHK_FLAG_end2 = 0, end_flag=0;
  1040  0D2E  01C3               	clrf	main@RX_CHK_FLAG_end1^(0+128)
  1041  0D2F  01C4               	clrf	(main@RX_CHK_FLAG_end1+1)^(0+128)
  1042  0D30  01C5               	clrf	main@RX_CHK_FLAG_end2^(0+128)
  1043  0D31  01C6               	clrf	(main@RX_CHK_FLAG_end2+1)^(0+128)
  1044  0D32  01C9               	clrf	main@end_flag^(0+128)
  1045  0D33  01CA               	clrf	(main@end_flag+1)^(0+128)
  1046                           
  1047                           ;final_3_dimer.c: 1108: pin_manager();
  1048  0D34  3187  27DC  318D   	fcall	_pin_manager
  1049                           
  1050                           ;final_3_dimer.c: 1109: periperal_init();
  1051  0D37  318B  2373  318D   	fcall	_periperal_init
  1052                           
  1053                           ;final_3_dimer.c: 1111: RF0 = 0; RF1 = 0; RE5 = 1; RA3 = 1; RA2 = 1;
  1054  0D3A  0025               	movlb	5	; select bank5
  1055  0D3B  100C               	bcf	12,0	;volatile
  1056  0D3C  108C               	bcf	12,1	;volatile
  1057  0D3D  0020               	movlb	0	; select bank0
  1058  0D3E  1690               	bsf	16,5	;volatile
  1059  0D3F  158C               	bsf	12,3	;volatile
  1060  0D40  150C               	bsf	12,2	;volatile
  1061                           
  1062                           ;final_3_dimer.c: 1112: M1=1; M2=1; M3=1; M4=1; M5=1;
  1063  0D41  3001               	movlw	1
  1064  0D42  00C9               	movwf	_M1
  1065  0D43  3000               	movlw	0
  1066  0D44  00CA               	movwf	_M1+1
  1067  0D45  3001               	movlw	1
  1068  0D46  00C7               	movwf	_M2
  1069  0D47  3000               	movlw	0
  1070  0D48  00C8               	movwf	_M2+1
  1071  0D49  3001               	movlw	1
  1072  0D4A  00C5               	movwf	_M3
  1073  0D4B  3000               	movlw	0
  1074  0D4C  00C6               	movwf	_M3+1
  1075  0D4D  3001               	movlw	1
  1076  0D4E  0021               	movlb	1	; select bank1
  1077  0D4F  00D1               	movwf	_M4^(0+128)
  1078  0D50  3000               	movlw	0
  1079  0D51  00D2               	movwf	(_M4^(0+128)+1)
  1080  0D52  3001               	movlw	1
  1081  0D53  00CF               	movwf	_M5^(0+128)
  1082  0D54  3000               	movlw	0
  1083  0D55  00D0               	movwf	(_M5^(0+128)+1)
  1084                           
  1085                           ;final_3_dimer.c: 1114: st[0]='%';
  1086  0D56  3025               	movlw	37
  1087  0D57  0020               	movlb	0	; select bank0
  1088  0D58  00BF               	movwf	??_main
  1089  0D59  083F               	movf	??_main,w
  1090  0D5A  0021               	movlb	1	; select bank1
  1091  0D5B  00A5               	movwf	_st^(0+128)
  1092                           
  1093                           ;final_3_dimer.c: 1115: st[21]='@';
  1094  0D5C  3040               	movlw	64
  1095  0D5D  0020               	movlb	0	; select bank0
  1096  0D5E  00BF               	movwf	??_main
  1097  0D5F  083F               	movf	??_main,w
  1098  0D60  0021               	movlb	1	; select bank1
  1099  0D61  00BA               	movwf	(_st^(0+128)+21)
  1100  0D62                     l8855:	
  1101                           ;final_3_dimer.c: 1117: while(1){
  1102                           
  1103                           
  1104                           ;final_3_dimer.c: 1119: if(TX_FLAG==1)
  1105  0D62  0021               	movlb	1	; select bank1
  1106  0D63  0359               	decf	_TX_FLAG^(0+128),w
  1107  0D64  045A               	iorwf	(_TX_FLAG+1)^(0+128),w
  1108  0D65  1D03               	btfss	3,2
  1109  0D66  2EB5               	goto	l8941
  1110                           
  1111                           ;final_3_dimer.c: 1120: {
  1112                           ;final_3_dimer.c: 1122: TX_FLAG=0; start_flag = 0; end_flag = 0;
  1113  0D67  01D9               	clrf	_TX_FLAG^(0+128)
  1114  0D68  01DA               	clrf	(_TX_FLAG+1)^(0+128)
  1115  0D69  01C7               	clrf	main@start_flag^(0+128)
  1116  0D6A  01C8               	clrf	(main@start_flag+1)^(0+128)
  1117  0D6B  01C9               	clrf	main@end_flag^(0+128)
  1118  0D6C  01CA               	clrf	(main@end_flag+1)^(0+128)
  1119                           
  1120                           ;final_3_dimer.c: 1124: if(name[0]=='%' && name[1]=='%' && name[14]=='@' && name[15]=='@
      +                          ')
  1121  0D6D  3025               	movlw	37
  1122  0D6E  0022               	movlb	2	; select bank2
  1123  0D6F  0644               	xorwf	_name^(0+256),w
  1124  0D70  1D03               	btfss	3,2
  1125  0D71  2E14               	goto	l8909
  1126  0D72  3025               	movlw	37
  1127  0D73  0645               	xorwf	(_name^(0+256)+1),w
  1128  0D74  1D03               	btfss	3,2
  1129  0D75  2E14               	goto	l8909
  1130  0D76  3040               	movlw	64
  1131  0D77  0652               	xorwf	(_name^(0+256)+14),w
  1132  0D78  1D03               	btfss	3,2
  1133  0D79  2E14               	goto	l8909
  1134  0D7A  3040               	movlw	64
  1135  0D7B  0653               	xorwf	(_name^(0+256)+15),w
  1136  0D7C  1D03               	btfss	3,2
  1137  0D7D  2E14               	goto	l8909
  1138                           
  1139                           ;final_3_dimer.c: 1125: {
  1140                           ;final_3_dimer.c: 1126: for(int k=0;k<16;k++)
  1141  0D7E  0021               	movlb	1	; select bank1
  1142  0D7F  01CD               	clrf	main@k^(0+128)
  1143  0D80  01CE               	clrf	(main@k+1)^(0+128)
  1144  0D81                     L3:	
  1145  0D81  084E               	movf	(main@k+1)^(0+128),w
  1146  0D82  3A80               	xorlw	128
  1147  0D83  0020               	movlb	0	; select bank0
  1148  0D84  00BF               	movwf	??_main
  1149  0D85  3080               	movlw	128
  1150  0D86  023F               	subwf	??_main,w
  1151  0D87  1D03               	skipz
  1152  0D88  2D8C               	goto	u2535
  1153  0D89  3010               	movlw	16
  1154  0D8A  0021               	movlb	1	; select bank1
  1155  0D8B  024D               	subwf	main@k^(0+128),w
  1156  0D8C                     u2535:	
  1157  0D8C  1803               	btfsc	3,0
  1158  0D8D  2E6C               	goto	l8929
  1159                           
  1160                           ;final_3_dimer.c: 1127: {
  1161                           ;final_3_dimer.c: 1128: if(name[k] == '%' && name[k+1] == '%' && start_flag == 0)
  1162  0D8E  0021               	movlb	1	; select bank1
  1163  0D8F  084D               	movf	main@k^(0+128),w
  1164  0D90  3E44               	addlw	(low (_name| (0+256)))& (0+255)
  1165  0D91  0086               	movwf	6
  1166  0D92  3001               	movlw	1	; select bank2/3
  1167  0D93  0087               	movwf	7
  1168  0D94  3025               	movlw	37
  1169  0D95  0601               	xorwf	1,w
  1170  0D96  1D03               	btfss	3,2
  1171  0D97  2DAF               	goto	l8881
  1172  0D98  084D               	movf	main@k^(0+128),w
  1173  0D99  3E01               	addlw	1
  1174  0D9A  3E44               	addlw	(low (_name| (0+256)))& (0+255)
  1175  0D9B  0086               	movwf	6
  1176  0D9C  3001               	movlw	1	; select bank2/3
  1177  0D9D  0087               	movwf	7
  1178  0D9E  3025               	movlw	37
  1179  0D9F  0601               	xorwf	1,w
  1180  0DA0  1D03               	btfss	3,2
  1181  0DA1  2DAF               	goto	l8881
  1182  0DA2  0847               	movf	main@start_flag^(0+128),w
  1183  0DA3  0448               	iorwf	(main@start_flag+1)^(0+128),w
  1184  0DA4  1D03               	btfss	3,2
  1185  0DA5  2DAF               	goto	l8881
  1186                           
  1187                           ;final_3_dimer.c: 1129: {
  1188                           ;final_3_dimer.c: 1130: RX_CHK_FLAG_start1 = k;
  1189  0DA6  084E               	movf	(main@k+1)^(0+128),w
  1190  0DA7  00C0               	movwf	(main@RX_CHK_FLAG_start1+1)^(0+128)
  1191  0DA8  084D               	movf	main@k^(0+128),w
  1192  0DA9  00BF               	movwf	main@RX_CHK_FLAG_start1^(0+128)
  1193                           
  1194                           ;final_3_dimer.c: 1131: start_flag = 1;
  1195  0DAA  3001               	movlw	1
  1196  0DAB  00C7               	movwf	main@start_flag^(0+128)
  1197  0DAC  3000               	movlw	0
  1198  0DAD  00C8               	movwf	(main@start_flag^(0+128)+1)
  1199                           
  1200                           ;final_3_dimer.c: 1132: }
  1201  0DAE  2E0E               	goto	l8907
  1202  0DAF                     l8881:	
  1203                           
  1204                           ;final_3_dimer.c: 1133: else if(name[k] == '%' && name[k+1] == '%' && start_flag == 1)
  1205  0DAF  084D               	movf	main@k^(0+128),w
  1206  0DB0  3E44               	addlw	(low (_name| (0+256)))& (0+255)
  1207  0DB1  0086               	movwf	6
  1208  0DB2  3001               	movlw	1	; select bank2/3
  1209  0DB3  0087               	movwf	7
  1210  0DB4  3025               	movlw	37
  1211  0DB5  0601               	xorwf	1,w
  1212  0DB6  1D03               	btfss	3,2
  1213  0DB7  2DCB               	goto	l8889
  1214  0DB8  084D               	movf	main@k^(0+128),w
  1215  0DB9  3E01               	addlw	1
  1216  0DBA  3E44               	addlw	(low (_name| (0+256)))& (0+255)
  1217  0DBB  0086               	movwf	6
  1218  0DBC  3001               	movlw	1	; select bank2/3
  1219  0DBD  0087               	movwf	7
  1220  0DBE  3025               	movlw	37
  1221  0DBF  0601               	xorwf	1,w
  1222  0DC0  1D03               	btfss	3,2
  1223  0DC1  2DCB               	goto	l8889
  1224  0DC2  0347               	decf	main@start_flag^(0+128),w
  1225  0DC3  0448               	iorwf	(main@start_flag+1)^(0+128),w
  1226  0DC4  1D03               	btfss	3,2
  1227  0DC5  2DCB               	goto	l8889
  1228                           
  1229                           ;final_3_dimer.c: 1134: {
  1230                           ;final_3_dimer.c: 1135: RX_CHK_FLAG_start2 = k;
  1231  0DC6  084E               	movf	(main@k+1)^(0+128),w
  1232  0DC7  00C2               	movwf	(main@RX_CHK_FLAG_start2+1)^(0+128)
  1233  0DC8  084D               	movf	main@k^(0+128),w
  1234  0DC9  00C1               	movwf	main@RX_CHK_FLAG_start2^(0+128)
  1235                           
  1236                           ;final_3_dimer.c: 1136: }
  1237  0DCA  2E0E               	goto	l8907
  1238  0DCB                     l8889:	
  1239                           
  1240                           ;final_3_dimer.c: 1137: else if(name[k] == '@' && name[k+1] == '@' && end_flag == 0)
  1241  0DCB  084D               	movf	main@k^(0+128),w
  1242  0DCC  3E44               	addlw	(low (_name| (0+256)))& (0+255)
  1243  0DCD  0086               	movwf	6
  1244  0DCE  3001               	movlw	1	; select bank2/3
  1245  0DCF  0087               	movwf	7
  1246  0DD0  3040               	movlw	64
  1247  0DD1  0601               	xorwf	1,w
  1248  0DD2  1D03               	btfss	3,2
  1249  0DD3  2DEC               	goto	l8899
  1250  0DD4  084D               	movf	main@k^(0+128),w
  1251  0DD5  3E01               	addlw	1
  1252  0DD6  3E44               	addlw	(low (_name| (0+256)))& (0+255)
  1253  0DD7  0086               	movwf	6
  1254  0DD8  3001               	movlw	1	; select bank2/3
  1255  0DD9  0087               	movwf	7
  1256  0DDA  3040               	movlw	64
  1257  0DDB  0601               	xorwf	1,w
  1258  0DDC  1D03               	btfss	3,2
  1259  0DDD  2DEC               	goto	l8899
  1260  0DDE  0849               	movf	main@end_flag^(0+128),w
  1261  0DDF  044A               	iorwf	(main@end_flag+1)^(0+128),w
  1262  0DE0  1D03               	btfss	3,2
  1263  0DE1  2DEC               	goto	l8899
  1264                           
  1265                           ;final_3_dimer.c: 1138: {
  1266                           ;final_3_dimer.c: 1139: RX_CHK_FLAG_end1 = k;
  1267  0DE2  084E               	movf	(main@k+1)^(0+128),w
  1268  0DE3  00C4               	movwf	(main@RX_CHK_FLAG_end1+1)^(0+128)
  1269  0DE4  084D               	movf	main@k^(0+128),w
  1270  0DE5  00C3               	movwf	main@RX_CHK_FLAG_end1^(0+128)
  1271                           
  1272                           ;final_3_dimer.c: 1140: end_flag = 1;
  1273  0DE6  3001               	movlw	1
  1274  0DE7  00C9               	movwf	main@end_flag^(0+128)
  1275  0DE8  3000               	movlw	0
  1276  0DE9  00CA               	movwf	(main@end_flag^(0+128)+1)
  1277                           
  1278                           ;final_3_dimer.c: 1141: COPY_FLAG=1;
  1279  0DEA  3001               	movlw	1
  1280  0DEB  2E09               	goto	L1
  1281  0DEC                     l8899:	
  1282                           ;final_3_dimer.c: 1143: }
  1283                           
  1284                           ;final_3_dimer.c: 1142: break;
  1285                           
  1286                           
  1287                           ;final_3_dimer.c: 1144: else if(name[k] == '@' && name[k+1] == '@' && end_flag == 1)
  1288  0DEC  0021               	movlb	1	; select bank1
  1289  0DED  084D               	movf	main@k^(0+128),w
  1290  0DEE  3E44               	addlw	(low (_name| (0+256)))& (0+255)
  1291  0DEF  0086               	movwf	6
  1292  0DF0  3001               	movlw	1	; select bank2/3
  1293  0DF1  0087               	movwf	7
  1294  0DF2  3040               	movlw	64
  1295  0DF3  0601               	xorwf	1,w
  1296  0DF4  1D03               	btfss	3,2
  1297  0DF5  2E0E               	goto	l8907
  1298  0DF6  084D               	movf	main@k^(0+128),w
  1299  0DF7  3E01               	addlw	1
  1300  0DF8  3E44               	addlw	(low (_name| (0+256)))& (0+255)
  1301  0DF9  0086               	movwf	6
  1302  0DFA  3001               	movlw	1	; select bank2/3
  1303  0DFB  0087               	movwf	7
  1304  0DFC  3040               	movlw	64
  1305  0DFD  0601               	xorwf	1,w
  1306  0DFE  1D03               	btfss	3,2
  1307  0DFF  2E0E               	goto	l8907
  1308  0E00  0349               	decf	main@end_flag^(0+128),w
  1309  0E01  044A               	iorwf	(main@end_flag+1)^(0+128),w
  1310  0E02  1D03               	btfss	3,2
  1311  0E03  2E0E               	goto	l8907
  1312                           
  1313                           ;final_3_dimer.c: 1145: {
  1314                           ;final_3_dimer.c: 1146: RX_CHK_FLAG_end2 = k;
  1315  0E04  084E               	movf	(main@k+1)^(0+128),w
  1316  0E05  00C6               	movwf	(main@RX_CHK_FLAG_end2+1)^(0+128)
  1317  0E06  084D               	movf	main@k^(0+128),w
  1318  0E07  00C5               	movwf	main@RX_CHK_FLAG_end2^(0+128)
  1319                           
  1320                           ;final_3_dimer.c: 1147: COPY_FLAG=2;
  1321  0E08  3002               	movlw	2
  1322  0E09                     L1:	
  1323  0E09  0020               	movlb	0	; select bank0
  1324  0E0A  00CB               	movwf	_COPY_FLAG
  1325  0E0B  3000               	movlw	0
  1326  0E0C  00CC               	movwf	_COPY_FLAG+1
  1327                           
  1328                           ;final_3_dimer.c: 1148: break;
  1329  0E0D  2E6C               	goto	l8929
  1330  0E0E                     l8907:	
  1331  0E0E  3001               	movlw	1
  1332  0E0F  0021               	movlb	1	; select bank1
  1333  0E10  07CD               	addwf	main@k^(0+128),f
  1334  0E11  3000               	movlw	0
  1335  0E12  3DCE               	addwfc	(main@k+1)^(0+128),f
  1336  0E13  2D81               	goto	L3
  1337  0E14                     l8909:	
  1338                           ;final_3_dimer.c: 1149: }
  1339                           ;final_3_dimer.c: 1150: }
  1340                           ;final_3_dimer.c: 1151: }
  1341                           
  1342                           
  1343                           ;final_3_dimer.c: 1152: else
  1344                           ;final_3_dimer.c: 1153: {
  1345                           ;final_3_dimer.c: 1154: _delay((unsigned long)((10)*(16000000/4000.0))); TX1REG='P'; _de
      +                          lay((unsigned long)((1)*(16000000/4000.0))); TX1REG='K'; _delay((unsigned long)((1)*(160
      +                          00000/4000.0)));
  1346  0E14  3034               	movlw	52
  1347  0E15  0020               	movlb	0	; select bank0
  1348  0E16  00BF               	movwf	??_main
  1349  0E17  30F1               	movlw	241
  1350  0E18                     u2967:	
  1351  0E18  0B89               	decfsz	9,f
  1352  0E19  2E18               	goto	u2967
  1353  0E1A  0BBF               	decfsz	??_main,f
  1354  0E1B  2E18               	goto	u2967
  1355  0E1C  3200               	nop2
  1356  0E1D  3050               	movlw	80
  1357  0E1E  0023               	movlb	3	; select bank3
  1358  0E1F  009A               	movwf	26	;volatile
  1359  0E20  3006               	movlw	6
  1360  0E21  0020               	movlb	0	; select bank0
  1361  0E22  00BF               	movwf	??_main
  1362  0E23  3030               	movlw	48
  1363  0E24                     u2977:	
  1364  0E24  0B89               	decfsz	9,f
  1365  0E25  2E24               	goto	u2977
  1366  0E26  0BBF               	decfsz	??_main,f
  1367  0E27  2E24               	goto	u2977
  1368  0E28  0000               	nop
  1369  0E29  304B               	movlw	75
  1370  0E2A  0023               	movlb	3	; select bank3
  1371  0E2B  009A               	movwf	26	;volatile
  1372  0E2C  3006               	movlw	6
  1373  0E2D  0020               	movlb	0	; select bank0
  1374  0E2E  00BF               	movwf	??_main
  1375  0E2F  3030               	movlw	48
  1376  0E30                     u2987:	
  1377  0E30  0B89               	decfsz	9,f
  1378  0E31  2E30               	goto	u2987
  1379  0E32  0BBF               	decfsz	??_main,f
  1380  0E33  2E30               	goto	u2987
  1381  0E34  0000               	nop
  1382                           
  1383                           ;final_3_dimer.c: 1155: i=0; RC1STAbits.SPEN=0; RC1STAbits.SPEN=1;
  1384  0E35  0020               	movlb	0	; select bank0
  1385  0E36  01DB               	clrf	_i
  1386  0E37  01DC               	clrf	_i+1
  1387  0E38  0023               	movlb	3	; select bank3
  1388  0E39  139D               	bcf	29,7	;volatile
  1389  0E3A  179D               	bsf	29,7	;volatile
  1390                           
  1391                           ;final_3_dimer.c: 1156: for(int k = 0; k< 15; k++)
  1392  0E3B  0021               	movlb	1	; select bank1
  1393  0E3C  01CB               	clrf	main@k_746^(0+128)
  1394  0E3D  01CC               	clrf	(main@k_746+1)^(0+128)
  1395  0E3E  084C               	movf	(main@k_746+1)^(0+128),w
  1396  0E3F  3A80               	xorlw	128
  1397  0E40  0020               	movlb	0	; select bank0
  1398  0E41  00BF               	movwf	??_main
  1399  0E42  3080               	movlw	128
  1400  0E43  023F               	subwf	??_main,w
  1401  0E44  1D03               	skipz
  1402  0E45  2E49               	goto	u2675
  1403  0E46  300F               	movlw	15
  1404  0E47  0021               	movlb	1	; select bank1
  1405  0E48  024B               	subwf	main@k_746^(0+128),w
  1406  0E49                     u2675:	
  1407  0E49  1803               	btfsc	3,0
  1408  0E4A  2E69               	goto	l8927
  1409  0E4B                     l8921:	
  1410                           
  1411                           ;final_3_dimer.c: 1157: {
  1412                           ;final_3_dimer.c: 1158: name[k] = '#';
  1413  0E4B  3023               	movlw	35
  1414  0E4C  0020               	movlb	0	; select bank0
  1415  0E4D  00BF               	movwf	??_main
  1416  0E4E  0021               	movlb	1	; select bank1
  1417  0E4F  084B               	movf	main@k_746^(0+128),w
  1418  0E50  3E44               	addlw	(low (_name| (0+256)))& (0+255)
  1419  0E51  0086               	movwf	6
  1420  0E52  3001               	movlw	1	; select bank2/3
  1421  0E53  0087               	movwf	7
  1422  0E54  0020               	movlb	0	; select bank0
  1423  0E55  083F               	movf	??_main,w
  1424  0E56  0081               	movwf	1
  1425  0E57  3001               	movlw	1
  1426  0E58  0021               	movlb	1	; select bank1
  1427  0E59  07CB               	addwf	main@k_746^(0+128),f
  1428  0E5A  3000               	movlw	0
  1429  0E5B  3DCC               	addwfc	(main@k_746+1)^(0+128),f
  1430  0E5C  084C               	movf	(main@k_746+1)^(0+128),w
  1431  0E5D  3A80               	xorlw	128
  1432  0E5E  0020               	movlb	0	; select bank0
  1433  0E5F  00BF               	movwf	??_main
  1434  0E60  3080               	movlw	128
  1435  0E61  023F               	subwf	??_main,w
  1436  0E62  1D03               	skipz
  1437  0E63  2E67               	goto	u2685
  1438  0E64  300F               	movlw	15
  1439  0E65  0021               	movlb	1	; select bank1
  1440  0E66  024B               	subwf	main@k_746^(0+128),w
  1441  0E67                     u2685:	
  1442  0E67  1C03               	skipc
  1443  0E68  2E4B               	goto	l8921
  1444  0E69                     l8927:	
  1445                           
  1446                           ;final_3_dimer.c: 1159: }
  1447                           ;final_3_dimer.c: 1162: COPY_FLAG=0;
  1448  0E69  0020               	movlb	0	; select bank0
  1449  0E6A  01CB               	clrf	_COPY_FLAG
  1450  0E6B  01CC               	clrf	_COPY_FLAG+1
  1451  0E6C                     l8929:	
  1452                           
  1453                           ;final_3_dimer.c: 1163: }
  1454                           ;final_3_dimer.c: 1166: if(COPY_FLAG==1)
  1455  0E6C  0020               	movlb	0	; select bank0
  1456  0E6D  034B               	decf	_COPY_FLAG,w
  1457  0E6E  044C               	iorwf	_COPY_FLAG+1,w
  1458  0E6F  1D03               	btfss	3,2
  1459  0E70  2E7A               	goto	l8935
  1460                           
  1461                           ;final_3_dimer.c: 1167: {
  1462                           ;final_3_dimer.c: 1168: copy_frame(RX_CHK_FLAG_start1,RX_CHK_FLAG_end1);
  1463  0E71  0021               	movlb	1	; select bank1
  1464  0E72  0840               	movf	(main@RX_CHK_FLAG_start1+1)^(0+128),w
  1465  0E73  00F3               	movwf	copy_frame@start+1
  1466  0E74  083F               	movf	main@RX_CHK_FLAG_start1^(0+128),w
  1467  0E75  00F2               	movwf	copy_frame@start
  1468  0E76  0844               	movf	(main@RX_CHK_FLAG_end1+1)^(0+128),w
  1469  0E77  00F5               	movwf	copy_frame@end+1
  1470  0E78  0843               	movf	main@RX_CHK_FLAG_end1^(0+128),w
  1471  0E79  2E88               	goto	L2
  1472  0E7A                     l8935:	
  1473                           ;final_3_dimer.c: 1171: }
  1474                           
  1475                           ;final_3_dimer.c: 1170: ACTION(copy[2], copy[3], copy[4], copy[5], copy[6], copy[7],copy
      +                          [8]);
  1476                           
  1477                           
  1478                           ;final_3_dimer.c: 1172: else if(COPY_FLAG==2)
  1479  0E7A  3002               	movlw	2
  1480  0E7B  0020               	movlb	0	; select bank0
  1481  0E7C  064B               	xorwf	_COPY_FLAG,w
  1482  0E7D  044C               	iorwf	_COPY_FLAG+1,w
  1483  0E7E  1D03               	btfss	3,2
  1484  0E7F  2EB5               	goto	l8941
  1485                           
  1486                           ;final_3_dimer.c: 1173: {
  1487                           ;final_3_dimer.c: 1174: copy_frame(RX_CHK_FLAG_start2,RX_CHK_FLAG_end2);
  1488  0E80  0021               	movlb	1	; select bank1
  1489  0E81  0842               	movf	(main@RX_CHK_FLAG_start2+1)^(0+128),w
  1490  0E82  00F3               	movwf	copy_frame@start+1
  1491  0E83  0841               	movf	main@RX_CHK_FLAG_start2^(0+128),w
  1492  0E84  00F2               	movwf	copy_frame@start
  1493  0E85  0846               	movf	(main@RX_CHK_FLAG_end2+1)^(0+128),w
  1494  0E86  00F5               	movwf	copy_frame@end+1
  1495  0E87  0845               	movf	main@RX_CHK_FLAG_end2^(0+128),w
  1496  0E88                     L2:	
  1497  0E88  00F4               	movwf	copy_frame@end
  1498  0E89  3187  27A2  318D   	fcall	_copy_frame
  1499                           
  1500                           ;final_3_dimer.c: 1175: ACTION(copy[2], copy[3], copy[4], copy[5], copy[6], copy[7],copy
      +                          [8]);
  1501  0E8C  0022               	movlb	2	; select bank2
  1502  0E8D  0823               	movf	(_copy^(0+256)+3),w
  1503  0E8E  0020               	movlb	0	; select bank0
  1504  0E8F  00BF               	movwf	??_main
  1505  0E90  083F               	movf	??_main,w
  1506  0E91  00A6               	movwf	ACTION@Switch_Num_1s
  1507  0E92  0022               	movlb	2	; select bank2
  1508  0E93  0824               	movf	(_copy^(0+256)+4),w
  1509  0E94  0020               	movlb	0	; select bank0
  1510  0E95  00C0               	movwf	??_main+1
  1511  0E96  0840               	movf	??_main+1,w
  1512  0E97  00A7               	movwf	ACTION@sw_status
  1513  0E98  0022               	movlb	2	; select bank2
  1514  0E99  0825               	movf	(_copy^(0+256)+5),w
  1515  0E9A  0020               	movlb	0	; select bank0
  1516  0E9B  00C1               	movwf	??_main+2
  1517  0E9C  0841               	movf	??_main+2,w
  1518  0E9D  00A8               	movwf	ACTION@speed_bitHigh
  1519  0E9E  0022               	movlb	2	; select bank2
  1520  0E9F  0826               	movf	(_copy^(0+256)+6),w
  1521  0EA0  0020               	movlb	0	; select bank0
  1522  0EA1  00C2               	movwf	??_main+3
  1523  0EA2  0842               	movf	??_main+3,w
  1524  0EA3  00A9               	movwf	ACTION@speed_bitLow
  1525  0EA4  0022               	movlb	2	; select bank2
  1526  0EA5  0827               	movf	(_copy^(0+256)+7),w
  1527  0EA6  0020               	movlb	0	; select bank0
  1528  0EA7  00C3               	movwf	??_main+4
  1529  0EA8  0843               	movf	??_main+4,w
  1530  0EA9  00AA               	movwf	ACTION@parent
  1531  0EAA  0022               	movlb	2	; select bank2
  1532  0EAB  0828               	movf	(_copy^(0+256)+8),w
  1533  0EAC  0020               	movlb	0	; select bank0
  1534  0EAD  00C4               	movwf	??_main+5
  1535  0EAE  0844               	movf	??_main+5,w
  1536  0EAF  00AB               	movwf	ACTION@finalFrameStat
  1537  0EB0  0022               	movlb	2	; select bank2
  1538  0EB1  0822               	movf	(_copy^(0+256)+2),w
  1539  0EB2  318B  23B0  318D   	fcall	_ACTION
  1540  0EB5                     l8941:	
  1541                           
  1542                           ;final_3_dimer.c: 1176: }
  1543                           ;final_3_dimer.c: 1177: }
  1544                           ;final_3_dimer.c: 1182: if(child_LOCK[1]==0 && RF7==0 && M1==0)
  1545  0EB5  0021               	movlb	1	; select bank1
  1546  0EB6  0821               	movf	(_child_LOCK^(0+128)+1),w
  1547  0EB7  1D03               	btfss	3,2
  1548  0EB8  2EED               	goto	l8961
  1549  0EB9  0025               	movlb	5	; select bank5
  1550  0EBA  1B8C               	btfsc	12,7	;volatile
  1551  0EBB  2EED               	goto	l8961
  1552  0EBC  0020               	movlb	0	; select bank0
  1553  0EBD  0849               	movf	_M1,w
  1554  0EBE  044A               	iorwf	_M1+1,w
  1555  0EBF  1D03               	btfss	3,2
  1556  0EC0  2EED               	goto	l8961
  1557                           
  1558                           ;final_3_dimer.c: 1183: {
  1559                           ;final_3_dimer.c: 1184: if(man==1)
  1560  0EC1  0360               	decf	_man,w
  1561  0EC2  0461               	iorwf	_man+1,w
  1562  0EC3  1D03               	btfss	3,2
  1563  0EC4  2EE5               	goto	l8957
  1564                           
  1565                           ;final_3_dimer.c: 1185: {
  1566                           ;final_3_dimer.c: 1186: st[1]='R'; st[2]='0'; st[3]='0'; st[4]='1'; writeUART(st+1); FAN
      +                          _FLAG1=0 ; RE5=1;
  1567  0EC5  3052               	movlw	82
  1568  0EC6  00BF               	movwf	??_main
  1569  0EC7  083F               	movf	??_main,w
  1570  0EC8  0021               	movlb	1	; select bank1
  1571  0EC9  00A6               	movwf	(_st^(0+128)+1)
  1572  0ECA  3030               	movlw	48
  1573  0ECB  0020               	movlb	0	; select bank0
  1574  0ECC  00BF               	movwf	??_main
  1575  0ECD  083F               	movf	??_main,w
  1576  0ECE  0021               	movlb	1	; select bank1
  1577  0ECF  00A7               	movwf	(_st^(0+128)+2)
  1578  0ED0  3030               	movlw	48
  1579  0ED1  0020               	movlb	0	; select bank0
  1580  0ED2  00BF               	movwf	??_main
  1581  0ED3  083F               	movf	??_main,w
  1582  0ED4  0021               	movlb	1	; select bank1
  1583  0ED5  00A8               	movwf	(_st^(0+128)+3)
  1584  0ED6  3031               	movlw	49
  1585  0ED7  0020               	movlb	0	; select bank0
  1586  0ED8  00BF               	movwf	??_main
  1587  0ED9  083F               	movf	??_main,w
  1588  0EDA  0021               	movlb	1	; select bank1
  1589  0EDB  00A9               	movwf	(_st^(0+128)+4)
  1590  0EDC  30A6               	movlw	(low ((_st| 0+1)))& (0+255)
  1591  0EDD  318B  233F  318D   	fcall	_writeUART
  1592  0EE0  0021               	movlb	1	; select bank1
  1593  0EE1  01D7               	clrf	_FAN_FLAG1^(0+128)
  1594  0EE2  01D8               	clrf	(_FAN_FLAG1+1)^(0+128)
  1595  0EE3  0020               	movlb	0	; select bank0
  1596  0EE4  1690               	bsf	16,5	;volatile
  1597  0EE5                     l8957:	
  1598                           
  1599                           ;final_3_dimer.c: 1187: }
  1600                           ;final_3_dimer.c: 1188: M1=1; man=1;
  1601  0EE5  3001               	movlw	1
  1602  0EE6  00C9               	movwf	_M1
  1603  0EE7  3000               	movlw	0
  1604  0EE8  00CA               	movwf	_M1+1
  1605  0EE9  3001               	movlw	1
  1606  0EEA  00E0               	movwf	_man
  1607  0EEB  3000               	movlw	0
  1608  0EEC  00E1               	movwf	_man+1
  1609  0EED                     l8961:	
  1610                           
  1611                           ;final_3_dimer.c: 1189: }
  1612                           ;final_3_dimer.c: 1192: if(child_LOCK[1]==0 && RF7==1 && M1==1)
  1613  0EED  0021               	movlb	1	; select bank1
  1614  0EEE  0821               	movf	(_child_LOCK^(0+128)+1),w
  1615  0EEF  1D03               	btfss	3,2
  1616  0EF0  2F23               	goto	l8981
  1617  0EF1  0025               	movlb	5	; select bank5
  1618  0EF2  1F8C               	btfss	12,7	;volatile
  1619  0EF3  2F23               	goto	l8981
  1620  0EF4  0020               	movlb	0	; select bank0
  1621  0EF5  0349               	decf	_M1,w
  1622  0EF6  044A               	iorwf	_M1+1,w
  1623  0EF7  1D03               	btfss	3,2
  1624  0EF8  2F23               	goto	l8981
  1625                           
  1626                           ;final_3_dimer.c: 1193: {
  1627                           ;final_3_dimer.c: 1195: if(man==1)
  1628  0EF9  0360               	decf	_man,w
  1629  0EFA  0461               	iorwf	_man+1,w
  1630  0EFB  1D03               	btfss	3,2
  1631  0EFC  2F1D               	goto	l8977
  1632                           
  1633                           ;final_3_dimer.c: 1196: {
  1634                           ;final_3_dimer.c: 1197: st[1]='R'; st[2]='1'; st[3]='0'; st[4]='1'; writeUART(st+1); FAN
      +                          _FLAG1=0 ; RE5=0;
  1635  0EFD  3052               	movlw	82
  1636  0EFE  00BF               	movwf	??_main
  1637  0EFF  083F               	movf	??_main,w
  1638  0F00  0021               	movlb	1	; select bank1
  1639  0F01  00A6               	movwf	(_st^(0+128)+1)
  1640  0F02  3031               	movlw	49
  1641  0F03  0020               	movlb	0	; select bank0
  1642  0F04  00BF               	movwf	??_main
  1643  0F05  083F               	movf	??_main,w
  1644  0F06  0021               	movlb	1	; select bank1
  1645  0F07  00A7               	movwf	(_st^(0+128)+2)
  1646  0F08  3030               	movlw	48
  1647  0F09  0020               	movlb	0	; select bank0
  1648  0F0A  00BF               	movwf	??_main
  1649  0F0B  083F               	movf	??_main,w
  1650  0F0C  0021               	movlb	1	; select bank1
  1651  0F0D  00A8               	movwf	(_st^(0+128)+3)
  1652  0F0E  3031               	movlw	49
  1653  0F0F  0020               	movlb	0	; select bank0
  1654  0F10  00BF               	movwf	??_main
  1655  0F11  083F               	movf	??_main,w
  1656  0F12  0021               	movlb	1	; select bank1
  1657  0F13  00A9               	movwf	(_st^(0+128)+4)
  1658  0F14  30A6               	movlw	(low ((_st| 0+1)))& (0+255)
  1659  0F15  318B  233F  318D   	fcall	_writeUART
  1660  0F18  0021               	movlb	1	; select bank1
  1661  0F19  01D7               	clrf	_FAN_FLAG1^(0+128)
  1662  0F1A  01D8               	clrf	(_FAN_FLAG1+1)^(0+128)
  1663  0F1B  0020               	movlb	0	; select bank0
  1664  0F1C  1290               	bcf	16,5	;volatile
  1665  0F1D                     l8977:	
  1666                           
  1667                           ;final_3_dimer.c: 1198: }
  1668                           ;final_3_dimer.c: 1199: M1=0; man=1;
  1669  0F1D  01C9               	clrf	_M1
  1670  0F1E  01CA               	clrf	_M1+1
  1671  0F1F  3001               	movlw	1
  1672  0F20  00E0               	movwf	_man
  1673  0F21  3000               	movlw	0
  1674  0F22  00E1               	movwf	_man+1
  1675  0F23                     l8981:	
  1676                           
  1677                           ;final_3_dimer.c: 1200: }
  1678                           ;final_3_dimer.c: 1202: if(child_LOCK[3]==0 && RF5==0 && M2==0)
  1679  0F23  0021               	movlb	1	; select bank1
  1680  0F24  0823               	movf	(_child_LOCK^(0+128)+3),w
  1681  0F25  1D03               	btfss	3,2
  1682  0F26  2F5B               	goto	l9001
  1683  0F27  0025               	movlb	5	; select bank5
  1684  0F28  1A8C               	btfsc	12,5	;volatile
  1685  0F29  2F5B               	goto	l9001
  1686  0F2A  0020               	movlb	0	; select bank0
  1687  0F2B  0847               	movf	_M2,w
  1688  0F2C  0448               	iorwf	_M2+1,w
  1689  0F2D  1D03               	btfss	3,2
  1690  0F2E  2F5B               	goto	l9001
  1691                           
  1692                           ;final_3_dimer.c: 1203: {
  1693                           ;final_3_dimer.c: 1204: if(man==1)
  1694  0F2F  0360               	decf	_man,w
  1695  0F30  0461               	iorwf	_man+1,w
  1696  0F31  1D03               	btfss	3,2
  1697  0F32  2F53               	goto	l8997
  1698                           
  1699                           ;final_3_dimer.c: 1205: {
  1700                           ;final_3_dimer.c: 1206: st[5]='R'; st[6]='0'; st[7]='0'; st[8]='2'; writeUART(st+5);FAN_
      +                          FLAG2=0 ; RA3=1;
  1701  0F33  3052               	movlw	82
  1702  0F34  00BF               	movwf	??_main
  1703  0F35  083F               	movf	??_main,w
  1704  0F36  0021               	movlb	1	; select bank1
  1705  0F37  00AA               	movwf	(_st^(0+128)+5)
  1706  0F38  3030               	movlw	48
  1707  0F39  0020               	movlb	0	; select bank0
  1708  0F3A  00BF               	movwf	??_main
  1709  0F3B  083F               	movf	??_main,w
  1710  0F3C  0021               	movlb	1	; select bank1
  1711  0F3D  00AB               	movwf	(_st^(0+128)+6)
  1712  0F3E  3030               	movlw	48
  1713  0F3F  0020               	movlb	0	; select bank0
  1714  0F40  00BF               	movwf	??_main
  1715  0F41  083F               	movf	??_main,w
  1716  0F42  0021               	movlb	1	; select bank1
  1717  0F43  00AC               	movwf	(_st^(0+128)+7)
  1718  0F44  3032               	movlw	50
  1719  0F45  0020               	movlb	0	; select bank0
  1720  0F46  00BF               	movwf	??_main
  1721  0F47  083F               	movf	??_main,w
  1722  0F48  0021               	movlb	1	; select bank1
  1723  0F49  00AD               	movwf	(_st^(0+128)+8)
  1724  0F4A  30AA               	movlw	(low ((_st| 0+5)))& (0+255)
  1725  0F4B  318B  233F  318D   	fcall	_writeUART
  1726  0F4E  0021               	movlb	1	; select bank1
  1727  0F4F  01D5               	clrf	_FAN_FLAG2^(0+128)
  1728  0F50  01D6               	clrf	(_FAN_FLAG2+1)^(0+128)
  1729  0F51  0020               	movlb	0	; select bank0
  1730  0F52  158C               	bsf	12,3	;volatile
  1731  0F53                     l8997:	
  1732                           
  1733                           ;final_3_dimer.c: 1207: }
  1734                           ;final_3_dimer.c: 1208: M2=1; man=1;
  1735  0F53  3001               	movlw	1
  1736  0F54  00C7               	movwf	_M2
  1737  0F55  3000               	movlw	0
  1738  0F56  00C8               	movwf	_M2+1
  1739  0F57  3001               	movlw	1
  1740  0F58  00E0               	movwf	_man
  1741  0F59  3000               	movlw	0
  1742  0F5A  00E1               	movwf	_man+1
  1743  0F5B                     l9001:	
  1744                           
  1745                           ;final_3_dimer.c: 1209: }
  1746                           ;final_3_dimer.c: 1211: if(child_LOCK[3]==0 && RF5==1 && M2==1)
  1747  0F5B  0021               	movlb	1	; select bank1
  1748  0F5C  0823               	movf	(_child_LOCK^(0+128)+3),w
  1749  0F5D  1D03               	btfss	3,2
  1750  0F5E  2F91               	goto	l9021
  1751  0F5F  0025               	movlb	5	; select bank5
  1752  0F60  1E8C               	btfss	12,5	;volatile
  1753  0F61  2F91               	goto	l9021
  1754  0F62  0020               	movlb	0	; select bank0
  1755  0F63  0347               	decf	_M2,w
  1756  0F64  0448               	iorwf	_M2+1,w
  1757  0F65  1D03               	btfss	3,2
  1758  0F66  2F91               	goto	l9021
  1759                           
  1760                           ;final_3_dimer.c: 1212: {
  1761                           ;final_3_dimer.c: 1213: if(man==1)
  1762  0F67  0360               	decf	_man,w
  1763  0F68  0461               	iorwf	_man+1,w
  1764  0F69  1D03               	btfss	3,2
  1765  0F6A  2F8B               	goto	l9017
  1766                           
  1767                           ;final_3_dimer.c: 1214: {
  1768                           ;final_3_dimer.c: 1215: st[5]='R'; st[6]='1'; st[7]='0'; st[8]='2'; writeUART(st+5); FAN
      +                          _FLAG2=0 ; RA3=0;
  1769  0F6B  3052               	movlw	82
  1770  0F6C  00BF               	movwf	??_main
  1771  0F6D  083F               	movf	??_main,w
  1772  0F6E  0021               	movlb	1	; select bank1
  1773  0F6F  00AA               	movwf	(_st^(0+128)+5)
  1774  0F70  3031               	movlw	49
  1775  0F71  0020               	movlb	0	; select bank0
  1776  0F72  00BF               	movwf	??_main
  1777  0F73  083F               	movf	??_main,w
  1778  0F74  0021               	movlb	1	; select bank1
  1779  0F75  00AB               	movwf	(_st^(0+128)+6)
  1780  0F76  3030               	movlw	48
  1781  0F77  0020               	movlb	0	; select bank0
  1782  0F78  00BF               	movwf	??_main
  1783  0F79  083F               	movf	??_main,w
  1784  0F7A  0021               	movlb	1	; select bank1
  1785  0F7B  00AC               	movwf	(_st^(0+128)+7)
  1786  0F7C  3032               	movlw	50
  1787  0F7D  0020               	movlb	0	; select bank0
  1788  0F7E  00BF               	movwf	??_main
  1789  0F7F  083F               	movf	??_main,w
  1790  0F80  0021               	movlb	1	; select bank1
  1791  0F81  00AD               	movwf	(_st^(0+128)+8)
  1792  0F82  30AA               	movlw	(low ((_st| 0+5)))& (0+255)
  1793  0F83  318B  233F  318D   	fcall	_writeUART
  1794  0F86  0021               	movlb	1	; select bank1
  1795  0F87  01D5               	clrf	_FAN_FLAG2^(0+128)
  1796  0F88  01D6               	clrf	(_FAN_FLAG2+1)^(0+128)
  1797  0F89  0020               	movlb	0	; select bank0
  1798  0F8A  118C               	bcf	12,3	;volatile
  1799  0F8B                     l9017:	
  1800                           
  1801                           ;final_3_dimer.c: 1216: }
  1802                           ;final_3_dimer.c: 1217: M2=0; man=1;
  1803  0F8B  01C7               	clrf	_M2
  1804  0F8C  01C8               	clrf	_M2+1
  1805  0F8D  3001               	movlw	1
  1806  0F8E  00E0               	movwf	_man
  1807  0F8F  3000               	movlw	0
  1808  0F90  00E1               	movwf	_man+1
  1809  0F91                     l9021:	
  1810                           
  1811                           ;final_3_dimer.c: 1218: }
  1812                           ;final_3_dimer.c: 1220: if(child_LOCK[5]==0 && RF3==0 && M3==0)
  1813  0F91  0021               	movlb	1	; select bank1
  1814  0F92  0825               	movf	(_child_LOCK^(0+128)+5),w
  1815  0F93  1D03               	btfss	3,2
  1816  0F94  2FC9               	goto	l9041
  1817  0F95  0025               	movlb	5	; select bank5
  1818  0F96  198C               	btfsc	12,3	;volatile
  1819  0F97  2FC9               	goto	l9041
  1820  0F98  0020               	movlb	0	; select bank0
  1821  0F99  0845               	movf	_M3,w
  1822  0F9A  0446               	iorwf	_M3+1,w
  1823  0F9B  1D03               	btfss	3,2
  1824  0F9C  2FC9               	goto	l9041
  1825                           
  1826                           ;final_3_dimer.c: 1221: {
  1827                           ;final_3_dimer.c: 1222: if(man==1)
  1828  0F9D  0360               	decf	_man,w
  1829  0F9E  0461               	iorwf	_man+1,w
  1830  0F9F  1D03               	btfss	3,2
  1831  0FA0  2FC1               	goto	l9037
  1832                           
  1833                           ;final_3_dimer.c: 1223: {
  1834                           ;final_3_dimer.c: 1224: st[9]='R'; st[10]='0'; st[11]='0'; st[12]='3'; writeUART(st+9); 
      +                          FAN_FLAG3=0 ;
  1835  0FA1  3052               	movlw	82
  1836  0FA2  00BF               	movwf	??_main
  1837  0FA3  083F               	movf	??_main,w
  1838  0FA4  0021               	movlb	1	; select bank1
  1839  0FA5  00AE               	movwf	(_st^(0+128)+9)
  1840  0FA6  3030               	movlw	48
  1841  0FA7  0020               	movlb	0	; select bank0
  1842  0FA8  00BF               	movwf	??_main
  1843  0FA9  083F               	movf	??_main,w
  1844  0FAA  0021               	movlb	1	; select bank1
  1845  0FAB  00AF               	movwf	(_st^(0+128)+10)
  1846  0FAC  3030               	movlw	48
  1847  0FAD  0020               	movlb	0	; select bank0
  1848  0FAE  00BF               	movwf	??_main
  1849  0FAF  083F               	movf	??_main,w
  1850  0FB0  0021               	movlb	1	; select bank1
  1851  0FB1  00B0               	movwf	(_st^(0+128)+11)
  1852  0FB2  3033               	movlw	51
  1853  0FB3  0020               	movlb	0	; select bank0
  1854  0FB4  00BF               	movwf	??_main
  1855  0FB5  083F               	movf	??_main,w
  1856  0FB6  0021               	movlb	1	; select bank1
  1857  0FB7  00B1               	movwf	(_st^(0+128)+12)
  1858  0FB8  30AE               	movlw	(low ((_st| 0+9)))& (0+255)
  1859  0FB9  318B  233F  318D   	fcall	_writeUART
  1860  0FBC  0021               	movlb	1	; select bank1
  1861  0FBD  01D3               	clrf	_FAN_FLAG3^(0+128)
  1862  0FBE  01D4               	clrf	(_FAN_FLAG3+1)^(0+128)
  1863                           
  1864                           ;final_3_dimer.c: 1225: RA2=1;
  1865  0FBF  0020               	movlb	0	; select bank0
  1866  0FC0  150C               	bsf	12,2	;volatile
  1867  0FC1                     l9037:	
  1868                           
  1869                           ;final_3_dimer.c: 1226: }
  1870                           ;final_3_dimer.c: 1227: M3=1;
  1871  0FC1  3001               	movlw	1
  1872  0FC2  00C5               	movwf	_M3
  1873  0FC3  3000               	movlw	0
  1874  0FC4  00C6               	movwf	_M3+1
  1875                           
  1876                           ;final_3_dimer.c: 1228: man=1;
  1877  0FC5  3001               	movlw	1
  1878  0FC6  00E0               	movwf	_man
  1879  0FC7  3000               	movlw	0
  1880  0FC8  00E1               	movwf	_man+1
  1881  0FC9                     l9041:	
  1882                           
  1883                           ;final_3_dimer.c: 1229: }
  1884                           ;final_3_dimer.c: 1231: if( child_LOCK[5]==0 && RF3==1 && M3==1)
  1885  0FC9  0021               	movlb	1	; select bank1
  1886  0FCA  0825               	movf	(_child_LOCK^(0+128)+5),w
  1887  0FCB  1D03               	btfss	3,2
  1888  0FCC  2D62               	goto	l8855
  1889  0FCD  0025               	movlb	5	; select bank5
  1890  0FCE  1D8C               	btfss	12,3	;volatile
  1891  0FCF  2D62               	goto	l8855
  1892  0FD0  0020               	movlb	0	; select bank0
  1893  0FD1  0345               	decf	_M3,w
  1894  0FD2  0446               	iorwf	_M3+1,w
  1895  0FD3  1D03               	btfss	3,2
  1896  0FD4  2D62               	goto	l8855
  1897                           
  1898                           ;final_3_dimer.c: 1232: {
  1899                           ;final_3_dimer.c: 1233: if(man==1)
  1900  0FD5  0360               	decf	_man,w
  1901  0FD6  0461               	iorwf	_man+1,w
  1902  0FD7  1D03               	btfss	3,2
  1903  0FD8  2FF9               	goto	l9057
  1904                           
  1905                           ;final_3_dimer.c: 1234: {
  1906                           ;final_3_dimer.c: 1235: st[9]='R'; st[10]='1'; st[11]='0'; st[12]='3'; writeUART(st+9); 
      +                          FAN_FLAG3=0 ;
  1907  0FD9  3052               	movlw	82
  1908  0FDA  00BF               	movwf	??_main
  1909  0FDB  083F               	movf	??_main,w
  1910  0FDC  0021               	movlb	1	; select bank1
  1911  0FDD  00AE               	movwf	(_st^(0+128)+9)
  1912  0FDE  3031               	movlw	49
  1913  0FDF  0020               	movlb	0	; select bank0
  1914  0FE0  00BF               	movwf	??_main
  1915  0FE1  083F               	movf	??_main,w
  1916  0FE2  0021               	movlb	1	; select bank1
  1917  0FE3  00AF               	movwf	(_st^(0+128)+10)
  1918  0FE4  3030               	movlw	48
  1919  0FE5  0020               	movlb	0	; select bank0
  1920  0FE6  00BF               	movwf	??_main
  1921  0FE7  083F               	movf	??_main,w
  1922  0FE8  0021               	movlb	1	; select bank1
  1923  0FE9  00B0               	movwf	(_st^(0+128)+11)
  1924  0FEA  3033               	movlw	51
  1925  0FEB  0020               	movlb	0	; select bank0
  1926  0FEC  00BF               	movwf	??_main
  1927  0FED  083F               	movf	??_main,w
  1928  0FEE  0021               	movlb	1	; select bank1
  1929  0FEF  00B1               	movwf	(_st^(0+128)+12)
  1930  0FF0  30AE               	movlw	(low ((_st| 0+9)))& (0+255)
  1931  0FF1  318B  233F  318D   	fcall	_writeUART
  1932  0FF4  0021               	movlb	1	; select bank1
  1933  0FF5  01D3               	clrf	_FAN_FLAG3^(0+128)
  1934  0FF6  01D4               	clrf	(_FAN_FLAG3+1)^(0+128)
  1935                           
  1936                           ;final_3_dimer.c: 1236: RA2=0;
  1937  0FF7  0020               	movlb	0	; select bank0
  1938  0FF8  110C               	bcf	12,2	;volatile
  1939  0FF9                     l9057:	
  1940                           
  1941                           ;final_3_dimer.c: 1237: }
  1942                           ;final_3_dimer.c: 1238: M3=0;
  1943  0FF9  01C5               	clrf	_M3
  1944  0FFA  01C6               	clrf	_M3+1
  1945                           
  1946                           ;final_3_dimer.c: 1239: man=1;
  1947  0FFB  3001               	movlw	1
  1948  0FFC  00E0               	movwf	_man
  1949  0FFD  3000               	movlw	0
  1950  0FFE  00E1               	movwf	_man+1
  1951  0FFF  2D62               	goto	l8855
  1952  1000                     __end_of_main:	
  1953                           
  1954                           	psect	text1
  1955  07DC                     __ptext1:	
  1956 ;; *************** function _pin_manager *****************
  1957 ;; Defined at:
  1958 ;;		line 1684 in file "final_3_dimer.c"
  1959 ;; Parameters:    Size  Location     Type
  1960 ;;		None
  1961 ;; Auto vars:     Size  Location     Type
  1962 ;;		None
  1963 ;; Return value:  Size  Location     Type
  1964 ;;                  1    wreg      void 
  1965 ;; Registers used:
  1966 ;;		status,2
  1967 ;; Tracked objects:
  1968 ;;		On entry : 0/0
  1969 ;;		On exit  : 0/0
  1970 ;;		Unchanged: 0/0
  1971 ;; Data sizes:     COMMON   BANK0   BANK1   BANK2   BANK3   BANK4   BANK5   BANK6   BANK7   BANK8   BANK9
  1972 ;;      Params:         0       0       0       0       0       0       0       0       0       0       0
  1973 ;;      Locals:         0       0       0       0       0       0       0       0       0       0       0
  1974 ;;      Temps:          0       0       0       0       0       0       0       0       0       0       0
  1975 ;;      Totals:         0       0       0       0       0       0       0       0       0       0       0
  1976 ;;Total ram usage:        0 bytes
  1977 ;; Hardware stack levels used:    1
  1978 ;; Hardware stack levels required when called:    1
  1979 ;; This function calls:
  1980 ;;		Nothing
  1981 ;; This function is called by:
  1982 ;;		_main
  1983 ;; This function uses a non-reentrant model
  1984 ;;
  1985                           
  1986                           
  1987                           ;psect for function _pin_manager
  1988  07DC                     _pin_manager:	
  1989                           
  1990                           ;final_3_dimer.c: 1689: ANSELG=0x00;
  1991                           
  1992                           ;incstack = 0
  1993                           ; Regs used in _pin_manager: [status,2]
  1994  07DC  0028               	movlb	8	; select bank8
  1995  07DD  018D               	clrf	13	;volatile
  1996                           
  1997                           ;final_3_dimer.c: 1690: TRISGbits.TRISG0=1;
  1998  07DE  0026               	movlb	6	; select bank6
  1999  07DF  140D               	bsf	13,0	;volatile
  2000                           
  2001                           ;final_3_dimer.c: 1692: WPUG = 0;
  2002  07E0  0029               	movlb	9	; select bank9
  2003  07E1  018D               	clrf	13	;volatile
  2004                           
  2005                           ;final_3_dimer.c: 1695: ANSELF=0x00;
  2006  07E2  0028               	movlb	8	; select bank8
  2007  07E3  018C               	clrf	12	;volatile
  2008                           
  2009                           ;final_3_dimer.c: 1696: TRISFbits.TRISF0=0;
  2010  07E4  0026               	movlb	6	; select bank6
  2011  07E5  100C               	bcf	12,0	;volatile
  2012                           
  2013                           ;final_3_dimer.c: 1697: TRISFbits.TRISF1=0;
  2014  07E6  108C               	bcf	12,1	;volatile
  2015                           
  2016                           ;final_3_dimer.c: 1698: TRISFbits.TRISF2=1;
  2017  07E7  150C               	bsf	12,2	;volatile
  2018                           
  2019                           ;final_3_dimer.c: 1699: TRISFbits.TRISF3=1;
  2020  07E8  158C               	bsf	12,3	;volatile
  2021                           
  2022                           ;final_3_dimer.c: 1701: TRISFbits.TRISF5=1;
  2023  07E9  168C               	bsf	12,5	;volatile
  2024                           
  2025                           ;final_3_dimer.c: 1703: TRISFbits.TRISF7=1;
  2026  07EA  178C               	bsf	12,7	;volatile
  2027                           
  2028                           ;final_3_dimer.c: 1706: WPUE=0x00;
  2029  07EB  0024               	movlb	4	; select bank4
  2030  07EC  0190               	clrf	16	;volatile
  2031                           
  2032                           ;final_3_dimer.c: 1707: ANSELE=0x00;
  2033  07ED  0023               	movlb	3	; select bank3
  2034  07EE  0190               	clrf	16	;volatile
  2035                           
  2036                           ;final_3_dimer.c: 1708: TRISEbits.TRISE3=1;
  2037  07EF  0021               	movlb	1	; select bank1
  2038  07F0  1590               	bsf	16,3	;volatile
  2039                           
  2040                           ;final_3_dimer.c: 1709: TRISEbits.TRISE5=0;
  2041  07F1  1290               	bcf	16,5	;volatile
  2042                           
  2043                           ;final_3_dimer.c: 1727: ANSELA = 0x00;
  2044  07F2  0023               	movlb	3	; select bank3
  2045  07F3  018C               	clrf	12	;volatile
  2046                           
  2047                           ;final_3_dimer.c: 1730: TRISAbits.TRISA2=0;
  2048  07F4  0021               	movlb	1	; select bank1
  2049  07F5  110C               	bcf	12,2	;volatile
  2050                           
  2051                           ;final_3_dimer.c: 1731: TRISAbits.TRISA3=0;
  2052  07F6  118C               	bcf	12,3	;volatile
  2053                           
  2054                           ;final_3_dimer.c: 1733: TRISAbits.TRISA5=1;
  2055  07F7  168C               	bsf	12,5	;volatile
  2056                           
  2057                           ;final_3_dimer.c: 1738: TRISCbits.TRISC2 = 1;
  2058  07F8  150E               	bsf	14,2	;volatile
  2059                           
  2060                           ;final_3_dimer.c: 1741: TRISCbits.TRISC6 = 0;
  2061  07F9  130E               	bcf	14,6	;volatile
  2062                           
  2063                           ;final_3_dimer.c: 1742: TRISCbits.TRISC7 = 1;
  2064  07FA  178E               	bsf	14,7	;volatile
  2065  07FB  0008               	return
  2066  07FC                     __end_of_pin_manager:	
  2067                           
  2068                           	psect	text2
  2069  0B73                     __ptext2:	
  2070 ;; *************** function _periperal_init *****************
  2071 ;; Defined at:
  2072 ;;		line 1085 in file "final_3_dimer.c"
  2073 ;; Parameters:    Size  Location     Type
  2074 ;;		None
  2075 ;; Auto vars:     Size  Location     Type
  2076 ;;		None
  2077 ;; Return value:  Size  Location     Type
  2078 ;;                  1    wreg      void 
  2079 ;; Registers used:
  2080 ;;		wreg, status,2, status,0, pclath, cstack
  2081 ;; Tracked objects:
  2082 ;;		On entry : 0/0
  2083 ;;		On exit  : 0/0
  2084 ;;		Unchanged: 0/0
  2085 ;; Data sizes:     COMMON   BANK0   BANK1   BANK2   BANK3   BANK4   BANK5   BANK6   BANK7   BANK8   BANK9
  2086 ;;      Params:         0       0       0       0       0       0       0       0       0       0       0
  2087 ;;      Locals:         0       0       0       0       0       0       0       0       0       0       0
  2088 ;;      Temps:          0       0       0       0       0       0       0       0       0       0       0
  2089 ;;      Totals:         0       0       0       0       0       0       0       0       0       0       0
  2090 ;;Total ram usage:        0 bytes
  2091 ;; Hardware stack levels used:    1
  2092 ;; Hardware stack levels required when called:    2
  2093 ;; This function calls:
  2094 ;;		_CCP1_Initialize
  2095 ;;		_CCP3_Initialize
  2096 ;;		_CCP9_Initialize
  2097 ;;		_EUSART_Initialize
  2098 ;;		_TMR1_Initialize
  2099 ;;		_TMR2_Initialize
  2100 ;;		_TMR3_Initialize
  2101 ;;		_TMR4_Initialize
  2102 ;;		_TMR5_Initialize
  2103 ;;		_TMR6_Initialize
  2104 ;; This function is called by:
  2105 ;;		_main
  2106 ;; This function uses a non-reentrant model
  2107 ;;
  2108                           
  2109                           
  2110                           ;psect for function _periperal_init
  2111  0B73                     _periperal_init:	
  2112                           
  2113                           ;final_3_dimer.c: 1087: EUSART_Initialize();
  2114                           
  2115                           ;incstack = 0
  2116                           ; Regs used in _periperal_init: [wreg+status,2+status,0+pclath+cstack]
  2117  0B73  318B  2329  318B   	fcall	_EUSART_Initialize
  2118                           
  2119                           ;final_3_dimer.c: 1088: CCP1_Initialize();
  2120  0B76  318A  22C2  318B   	fcall	_CCP1_Initialize
  2121                           
  2122                           ;final_3_dimer.c: 1089: CCP3_Initialize();
  2123  0B79  318B  2301  318B   	fcall	_CCP3_Initialize
  2124                           
  2125                           ;final_3_dimer.c: 1091: CCP9_Initialize();
  2126  0B7C  318A  22F7  318B   	fcall	_CCP9_Initialize
  2127                           
  2128                           ;final_3_dimer.c: 1093: TMR1_Initialize();
  2129  0B7F  318A  22CE  318B   	fcall	_TMR1_Initialize
  2130                           
  2131                           ;final_3_dimer.c: 1094: TMR3_Initialize();
  2132  0B82  318A  22E3  318B   	fcall	_TMR3_Initialize
  2133                           
  2134                           ;final_3_dimer.c: 1095: TMR2_Initialize();
  2135  0B85  318A  22ED  318B   	fcall	_TMR2_Initialize
  2136                           
  2137                           ;final_3_dimer.c: 1096: TMR4_Initialize();
  2138  0B88  318B  2314  318B   	fcall	_TMR4_Initialize
  2139                           
  2140                           ;final_3_dimer.c: 1097: TMR5_Initialize();
  2141  0B8B  318A  22D9  318B   	fcall	_TMR5_Initialize
  2142                           
  2143                           ;final_3_dimer.c: 1098: TMR6_Initialize();
  2144  0B8E  318B  230B         	fcall	_TMR6_Initialize
  2145  0B90  0008               	return
  2146  0B91                     __end_of_periperal_init:	
  2147                           
  2148                           	psect	text3
  2149  0B0B                     __ptext3:	
  2150 ;; *************** function _TMR6_Initialize *****************
  2151 ;; Defined at:
  2152 ;;		line 1533 in file "final_3_dimer.c"
  2153 ;; Parameters:    Size  Location     Type
  2154 ;;		None
  2155 ;; Auto vars:     Size  Location     Type
  2156 ;;		None
  2157 ;; Return value:  Size  Location     Type
  2158 ;;                  1    wreg      void 
  2159 ;; Registers used:
  2160 ;;		wreg, status,2
  2161 ;; Tracked objects:
  2162 ;;		On entry : 0/0
  2163 ;;		On exit  : 0/0
  2164 ;;		Unchanged: 0/0
  2165 ;; Data sizes:     COMMON   BANK0   BANK1   BANK2   BANK3   BANK4   BANK5   BANK6   BANK7   BANK8   BANK9
  2166 ;;      Params:         0       0       0       0       0       0       0       0       0       0       0
  2167 ;;      Locals:         0       0       0       0       0       0       0       0       0       0       0
  2168 ;;      Temps:          0       0       0       0       0       0       0       0       0       0       0
  2169 ;;      Totals:         0       0       0       0       0       0       0       0       0       0       0
  2170 ;;Total ram usage:        0 bytes
  2171 ;; Hardware stack levels used:    1
  2172 ;; Hardware stack levels required when called:    1
  2173 ;; This function calls:
  2174 ;;		Nothing
  2175 ;; This function is called by:
  2176 ;;		_periperal_init
  2177 ;; This function uses a non-reentrant model
  2178 ;;
  2179                           
  2180                           
  2181                           ;psect for function _TMR6_Initialize
  2182  0B0B                     _TMR6_Initialize:	
  2183                           
  2184                           ;final_3_dimer.c: 1538: T6CON = 0x08;
  2185                           
  2186                           ;incstack = 0
  2187                           ; Regs used in _TMR6_Initialize: [wreg+status,2]
  2188  0B0B  3008               	movlw	8
  2189  0B0C  0028               	movlb	8	; select bank8
  2190  0B0D  009E               	movwf	30	;volatile
  2191                           
  2192                           ;final_3_dimer.c: 1544: TMR6 = 0x00;
  2193  0B0E  019C               	clrf	28	;volatile
  2194                           
  2195                           ;final_3_dimer.c: 1547: PIR3bits.TMR6IF = 0;
  2196  0B0F  0020               	movlb	0	; select bank0
  2197  0B10  1193               	bcf	19,3	;volatile
  2198                           
  2199                           ;final_3_dimer.c: 1550: PIE3bits.TMR6IE = 1;
  2200  0B11  0021               	movlb	1	; select bank1
  2201  0B12  1593               	bsf	19,3	;volatile
  2202  0B13  0008               	return
  2203  0B14                     __end_of_TMR6_Initialize:	
  2204                           
  2205                           	psect	text4
  2206  0AD9                     __ptext4:	
  2207 ;; *************** function _TMR5_Initialize *****************
  2208 ;; Defined at:
  2209 ;;		line 1442 in file "final_3_dimer.c"
  2210 ;; Parameters:    Size  Location     Type
  2211 ;;		None
  2212 ;; Auto vars:     Size  Location     Type
  2213 ;;		None
  2214 ;; Return value:  Size  Location     Type
  2215 ;;                  1    wreg      void 
  2216 ;; Registers used:
  2217 ;;		status,2
  2218 ;; Tracked objects:
  2219 ;;		On entry : 0/0
  2220 ;;		On exit  : 0/0
  2221 ;;		Unchanged: 0/0
  2222 ;; Data sizes:     COMMON   BANK0   BANK1   BANK2   BANK3   BANK4   BANK5   BANK6   BANK7   BANK8   BANK9
  2223 ;;      Params:         0       0       0       0       0       0       0       0       0       0       0
  2224 ;;      Locals:         0       0       0       0       0       0       0       0       0       0       0
  2225 ;;      Temps:          0       0       0       0       0       0       0       0       0       0       0
  2226 ;;      Totals:         0       0       0       0       0       0       0       0       0       0       0
  2227 ;;Total ram usage:        0 bytes
  2228 ;; Hardware stack levels used:    1
  2229 ;; Hardware stack levels required when called:    1
  2230 ;; This function calls:
  2231 ;;		Nothing
  2232 ;; This function is called by:
  2233 ;;		_periperal_init
  2234 ;; This function uses a non-reentrant model
  2235 ;;
  2236                           
  2237                           
  2238                           ;psect for function _TMR5_Initialize
  2239  0AD9                     _TMR5_Initialize:	
  2240                           
  2241                           ;final_3_dimer.c: 1447: T5CON = 0x00;
  2242                           
  2243                           ;incstack = 0
  2244                           ; Regs used in _TMR5_Initialize: [status,2]
  2245  0AD9  0028               	movlb	8	; select bank8
  2246  0ADA  019A               	clrf	26	;volatile
  2247                           
  2248                           ;final_3_dimer.c: 1450: T5GCON = 0x00;
  2249  0ADB  019B               	clrf	27	;volatile
  2250                           
  2251                           ;final_3_dimer.c: 1453: TMR5H = 0x00;
  2252  0ADC  0199               	clrf	25	;volatile
  2253                           
  2254                           ;final_3_dimer.c: 1456: TMR5L = 0x00;
  2255  0ADD  0198               	clrf	24	;volatile
  2256                           
  2257                           ;final_3_dimer.c: 1459: PIR3bits.TMR5IF = 0;
  2258  0ADE  0020               	movlb	0	; select bank0
  2259  0ADF  1113               	bcf	19,2	;volatile
  2260                           
  2261                           ;final_3_dimer.c: 1462: PIE3bits.TMR5IE = 1;
  2262  0AE0  0021               	movlb	1	; select bank1
  2263  0AE1  1513               	bsf	19,2	;volatile
  2264  0AE2  0008               	return
  2265  0AE3                     __end_of_TMR5_Initialize:	
  2266                           
  2267                           	psect	text5
  2268  0B14                     __ptext5:	
  2269 ;; *************** function _TMR4_Initialize *****************
  2270 ;; Defined at:
  2271 ;;		line 1513 in file "final_3_dimer.c"
  2272 ;; Parameters:    Size  Location     Type
  2273 ;;		None
  2274 ;; Auto vars:     Size  Location     Type
  2275 ;;		None
  2276 ;; Return value:  Size  Location     Type
  2277 ;;                  1    wreg      void 
  2278 ;; Registers used:
  2279 ;;		wreg, status,2
  2280 ;; Tracked objects:
  2281 ;;		On entry : 0/0
  2282 ;;		On exit  : 0/0
  2283 ;;		Unchanged: 0/0
  2284 ;; Data sizes:     COMMON   BANK0   BANK1   BANK2   BANK3   BANK4   BANK5   BANK6   BANK7   BANK8   BANK9
  2285 ;;      Params:         0       0       0       0       0       0       0       0       0       0       0
  2286 ;;      Locals:         0       0       0       0       0       0       0       0       0       0       0
  2287 ;;      Temps:          0       0       0       0       0       0       0       0       0       0       0
  2288 ;;      Totals:         0       0       0       0       0       0       0       0       0       0       0
  2289 ;;Total ram usage:        0 bytes
  2290 ;; Hardware stack levels used:    1
  2291 ;; Hardware stack levels required when called:    1
  2292 ;; This function calls:
  2293 ;;		Nothing
  2294 ;; This function is called by:
  2295 ;;		_periperal_init
  2296 ;; This function uses a non-reentrant model
  2297 ;;
  2298                           
  2299                           
  2300                           ;psect for function _TMR4_Initialize
  2301  0B14                     _TMR4_Initialize:	
  2302                           
  2303                           ;final_3_dimer.c: 1518: T4CON = 0x08;
  2304                           
  2305                           ;incstack = 0
  2306                           ; Regs used in _TMR4_Initialize: [wreg+status,2]
  2307  0B14  3008               	movlw	8
  2308  0B15  0028               	movlb	8	; select bank8
  2309  0B16  0097               	movwf	23	;volatile
  2310                           
  2311                           ;final_3_dimer.c: 1524: TMR4 = 0x00;
  2312  0B17  0195               	clrf	21	;volatile
  2313                           
  2314                           ;final_3_dimer.c: 1527: PIR3bits.TMR4IF = 0;
  2315  0B18  0020               	movlb	0	; select bank0
  2316  0B19  1093               	bcf	19,1	;volatile
  2317                           
  2318                           ;final_3_dimer.c: 1530: PIE3bits.TMR4IE = 1;
  2319  0B1A  0021               	movlb	1	; select bank1
  2320  0B1B  1493               	bsf	19,1	;volatile
  2321  0B1C  0008               	return
  2322  0B1D                     __end_of_TMR4_Initialize:	
  2323                           
  2324                           	psect	text6
  2325  0AE3                     __ptext6:	
  2326 ;; *************** function _TMR3_Initialize *****************
  2327 ;; Defined at:
  2328 ;;		line 1410 in file "final_3_dimer.c"
  2329 ;; Parameters:    Size  Location     Type
  2330 ;;		None
  2331 ;; Auto vars:     Size  Location     Type
  2332 ;;		None
  2333 ;; Return value:  Size  Location     Type
  2334 ;;                  1    wreg      void 
  2335 ;; Registers used:
  2336 ;;		status,2
  2337 ;; Tracked objects:
  2338 ;;		On entry : 0/0
  2339 ;;		On exit  : 0/0
  2340 ;;		Unchanged: 0/0
  2341 ;; Data sizes:     COMMON   BANK0   BANK1   BANK2   BANK3   BANK4   BANK5   BANK6   BANK7   BANK8   BANK9
  2342 ;;      Params:         0       0       0       0       0       0       0       0       0       0       0
  2343 ;;      Locals:         0       0       0       0       0       0       0       0       0       0       0
  2344 ;;      Temps:          0       0       0       0       0       0       0       0       0       0       0
  2345 ;;      Totals:         0       0       0       0       0       0       0       0       0       0       0
  2346 ;;Total ram usage:        0 bytes
  2347 ;; Hardware stack levels used:    1
  2348 ;; Hardware stack levels required when called:    1
  2349 ;; This function calls:
  2350 ;;		Nothing
  2351 ;; This function is called by:
  2352 ;;		_periperal_init
  2353 ;; This function uses a non-reentrant model
  2354 ;;
  2355                           
  2356                           
  2357                           ;psect for function _TMR3_Initialize
  2358  0AE3                     _TMR3_Initialize:	
  2359                           
  2360                           ;final_3_dimer.c: 1415: T3CON = 0x00;
  2361                           
  2362                           ;incstack = 0
  2363                           ; Regs used in _TMR3_Initialize: [status,2]
  2364  0AE3  0028               	movlb	8	; select bank8
  2365  0AE4  0193               	clrf	19	;volatile
  2366                           
  2367                           ;final_3_dimer.c: 1418: T3GCON = 0x00;
  2368  0AE5  0194               	clrf	20	;volatile
  2369                           
  2370                           ;final_3_dimer.c: 1421: TMR3H = 0x00;
  2371  0AE6  0192               	clrf	18	;volatile
  2372                           
  2373                           ;final_3_dimer.c: 1424: TMR3L = 0x00;
  2374  0AE7  0191               	clrf	17	;volatile
  2375                           
  2376                           ;final_3_dimer.c: 1427: PIR3bits.TMR3IF = 0;
  2377  0AE8  0020               	movlb	0	; select bank0
  2378  0AE9  1013               	bcf	19,0	;volatile
  2379                           
  2380                           ;final_3_dimer.c: 1430: PIE3bits.TMR3IE = 1;
  2381  0AEA  0021               	movlb	1	; select bank1
  2382  0AEB  1413               	bsf	19,0	;volatile
  2383  0AEC  0008               	return
  2384  0AED                     __end_of_TMR3_Initialize:	
  2385                           
  2386                           	psect	text7
  2387  0AED                     __ptext7:	
  2388 ;; *************** function _TMR2_Initialize *****************
  2389 ;; Defined at:
  2390 ;;		line 1465 in file "final_3_dimer.c"
  2391 ;; Parameters:    Size  Location     Type
  2392 ;;		None
  2393 ;; Auto vars:     Size  Location     Type
  2394 ;;		None
  2395 ;; Return value:  Size  Location     Type
  2396 ;;                  1    wreg      void 
  2397 ;; Registers used:
  2398 ;;		wreg, status,2
  2399 ;; Tracked objects:
  2400 ;;		On entry : 0/0
  2401 ;;		On exit  : 0/0
  2402 ;;		Unchanged: 0/0
  2403 ;; Data sizes:     COMMON   BANK0   BANK1   BANK2   BANK3   BANK4   BANK5   BANK6   BANK7   BANK8   BANK9
  2404 ;;      Params:         0       0       0       0       0       0       0       0       0       0       0
  2405 ;;      Locals:         0       0       0       0       0       0       0       0       0       0       0
  2406 ;;      Temps:          0       0       0       0       0       0       0       0       0       0       0
  2407 ;;      Totals:         0       0       0       0       0       0       0       0       0       0       0
  2408 ;;Total ram usage:        0 bytes
  2409 ;; Hardware stack levels used:    1
  2410 ;; Hardware stack levels required when called:    1
  2411 ;; This function calls:
  2412 ;;		Nothing
  2413 ;; This function is called by:
  2414 ;;		_periperal_init
  2415 ;; This function uses a non-reentrant model
  2416 ;;
  2417                           
  2418                           
  2419                           ;psect for function _TMR2_Initialize
  2420  0AED                     _TMR2_Initialize:	
  2421                           
  2422                           ;final_3_dimer.c: 1470: T2CON = 0x08;
  2423                           
  2424                           ;incstack = 0
  2425                           ; Regs used in _TMR2_Initialize: [wreg+status,2]
  2426  0AED  3008               	movlw	8
  2427  0AEE  0020               	movlb	0	; select bank0
  2428  0AEF  009C               	movwf	28	;volatile
  2429                           
  2430                           ;final_3_dimer.c: 1476: TMR2 = 0x00;
  2431  0AF0  019A               	clrf	26	;volatile
  2432                           
  2433                           ;final_3_dimer.c: 1479: PIR1bits.TMR2IF = 0;
  2434  0AF1  1091               	bcf	17,1	;volatile
  2435                           
  2436                           ;final_3_dimer.c: 1482: PIE1bits.TMR2IE = 1;
  2437  0AF2  0021               	movlb	1	; select bank1
  2438  0AF3  1491               	bsf	17,1	;volatile
  2439                           
  2440                           ;final_3_dimer.c: 1483: GIE = 1;
  2441  0AF4  178B               	bsf	11,7	;volatile
  2442                           
  2443                           ;final_3_dimer.c: 1486: PEIE = 1;
  2444  0AF5  170B               	bsf	11,6	;volatile
  2445  0AF6  0008               	return
  2446  0AF7                     __end_of_TMR2_Initialize:	
  2447                           
  2448                           	psect	text8
  2449  0ACE                     __ptext8:	
  2450 ;; *************** function _TMR1_Initialize *****************
  2451 ;; Defined at:
  2452 ;;		line 1378 in file "final_3_dimer.c"
  2453 ;; Parameters:    Size  Location     Type
  2454 ;;		None
  2455 ;; Auto vars:     Size  Location     Type
  2456 ;;		None
  2457 ;; Return value:  Size  Location     Type
  2458 ;;                  1    wreg      void 
  2459 ;; Registers used:
  2460 ;;		status,2
  2461 ;; Tracked objects:
  2462 ;;		On entry : 0/0
  2463 ;;		On exit  : 0/0
  2464 ;;		Unchanged: 0/0
  2465 ;; Data sizes:     COMMON   BANK0   BANK1   BANK2   BANK3   BANK4   BANK5   BANK6   BANK7   BANK8   BANK9
  2466 ;;      Params:         0       0       0       0       0       0       0       0       0       0       0
  2467 ;;      Locals:         0       0       0       0       0       0       0       0       0       0       0
  2468 ;;      Temps:          0       0       0       0       0       0       0       0       0       0       0
  2469 ;;      Totals:         0       0       0       0       0       0       0       0       0       0       0
  2470 ;;Total ram usage:        0 bytes
  2471 ;; Hardware stack levels used:    1
  2472 ;; Hardware stack levels required when called:    1
  2473 ;; This function calls:
  2474 ;;		Nothing
  2475 ;; This function is called by:
  2476 ;;		_periperal_init
  2477 ;; This function uses a non-reentrant model
  2478 ;;
  2479                           
  2480                           
  2481                           ;psect for function _TMR1_Initialize
  2482  0ACE                     _TMR1_Initialize:	
  2483                           
  2484                           ;final_3_dimer.c: 1383: T1CON = 0x00;
  2485                           
  2486                           ;incstack = 0
  2487                           ; Regs used in _TMR1_Initialize: [status,2]
  2488  0ACE  0020               	movlb	0	; select bank0
  2489  0ACF  0198               	clrf	24	;volatile
  2490                           
  2491                           ;final_3_dimer.c: 1386: T1GCON = 0x00;
  2492  0AD0  0199               	clrf	25	;volatile
  2493                           
  2494                           ;final_3_dimer.c: 1389: TMR1H = 0x00;
  2495  0AD1  0197               	clrf	23	;volatile
  2496                           
  2497                           ;final_3_dimer.c: 1392: TMR1L = 0x00;
  2498  0AD2  0196               	clrf	22	;volatile
  2499                           
  2500                           ;final_3_dimer.c: 1395: PIR1bits.TMR1IF = 0;
  2501  0AD3  1011               	bcf	17,0	;volatile
  2502                           
  2503                           ;final_3_dimer.c: 1398: PIE1bits.TMR1IE = 1;
  2504  0AD4  0021               	movlb	1	; select bank1
  2505  0AD5  1411               	bsf	17,0	;volatile
  2506                           
  2507                           ;final_3_dimer.c: 1404: GIE = 1;
  2508  0AD6  178B               	bsf	11,7	;volatile
  2509                           
  2510                           ;final_3_dimer.c: 1407: PEIE = 1;
  2511  0AD7  170B               	bsf	11,6	;volatile
  2512  0AD8  0008               	return
  2513  0AD9                     __end_of_TMR1_Initialize:	
  2514                           
  2515                           	psect	text9
  2516  0B29                     __ptext9:	
  2517 ;; *************** function _EUSART_Initialize *****************
  2518 ;; Defined at:
  2519 ;;		line 1644 in file "final_3_dimer.c"
  2520 ;; Parameters:    Size  Location     Type
  2521 ;;		None
  2522 ;; Auto vars:     Size  Location     Type
  2523 ;;		None
  2524 ;; Return value:  Size  Location     Type
  2525 ;;                  1    wreg      void 
  2526 ;; Registers used:
  2527 ;;		wreg
  2528 ;; Tracked objects:
  2529 ;;		On entry : 0/0
  2530 ;;		On exit  : 0/0
  2531 ;;		Unchanged: 0/0
  2532 ;; Data sizes:     COMMON   BANK0   BANK1   BANK2   BANK3   BANK4   BANK5   BANK6   BANK7   BANK8   BANK9
  2533 ;;      Params:         0       0       0       0       0       0       0       0       0       0       0
  2534 ;;      Locals:         0       0       0       0       0       0       0       0       0       0       0
  2535 ;;      Temps:          0       0       0       0       0       0       0       0       0       0       0
  2536 ;;      Totals:         0       0       0       0       0       0       0       0       0       0       0
  2537 ;;Total ram usage:        0 bytes
  2538 ;; Hardware stack levels used:    1
  2539 ;; Hardware stack levels required when called:    1
  2540 ;; This function calls:
  2541 ;;		Nothing
  2542 ;; This function is called by:
  2543 ;;		_periperal_init
  2544 ;; This function uses a non-reentrant model
  2545 ;;
  2546                           
  2547                           
  2548                           ;psect for function _EUSART_Initialize
  2549  0B29                     _EUSART_Initialize:	
  2550                           
  2551                           ;final_3_dimer.c: 1647: PIE1bits.RC1IE = 0;
  2552                           
  2553                           ;incstack = 0
  2554                           ; Regs used in _EUSART_Initialize: [wreg]
  2555  0B29  0021               	movlb	1	; select bank1
  2556  0B2A  1291               	bcf	17,5	;volatile
  2557                           
  2558                           ;final_3_dimer.c: 1648: PIE1bits.TX1IE = 0;
  2559  0B2B  1211               	bcf	17,4	;volatile
  2560                           
  2561                           ;final_3_dimer.c: 1653: BAUD1CON = 0x0A;
  2562  0B2C  300A               	movlw	10
  2563  0B2D  0023               	movlb	3	; select bank3
  2564  0B2E  009F               	movwf	31	;volatile
  2565                           
  2566                           ;final_3_dimer.c: 1656: RC1STA = 0x90;
  2567  0B2F  3090               	movlw	144
  2568  0B30  009D               	movwf	29	;volatile
  2569                           
  2570                           ;final_3_dimer.c: 1659: TX1STA = 0x24;
  2571  0B31  3024               	movlw	36
  2572  0B32  009E               	movwf	30	;volatile
  2573                           
  2574                           ;final_3_dimer.c: 1664: SP1BRGL = 0xA0;
  2575  0B33  30A0               	movlw	160
  2576  0B34  009B               	movwf	27	;volatile
  2577                           
  2578                           ;final_3_dimer.c: 1666: SP1BRGH = 0x01;
  2579  0B35  3001               	movlw	1
  2580  0B36  009C               	movwf	28	;volatile
  2581                           
  2582                           ;final_3_dimer.c: 1669: GIE = 1;
  2583  0B37  178B               	bsf	11,7	;volatile
  2584                           
  2585                           ;final_3_dimer.c: 1672: PEIE = 1;
  2586  0B38  170B               	bsf	11,6	;volatile
  2587                           
  2588                           ;final_3_dimer.c: 1675: PIE1bits.RC1IE = 1;
  2589  0B39  0021               	movlb	1	; select bank1
  2590  0B3A  1691               	bsf	17,5	;volatile
  2591                           
  2592                           ;final_3_dimer.c: 1678: TX1STAbits.TXEN = 1;
  2593  0B3B  0023               	movlb	3	; select bank3
  2594  0B3C  169E               	bsf	30,5	;volatile
  2595                           
  2596                           ;final_3_dimer.c: 1681: RC1STAbits.SPEN = 1;
  2597  0B3D  179D               	bsf	29,7	;volatile
  2598  0B3E  0008               	return
  2599  0B3F                     __end_of_EUSART_Initialize:	
  2600                           
  2601                           	psect	text10
  2602  0AF7                     __ptext10:	
  2603 ;; *************** function _CCP9_Initialize *****************
  2604 ;; Defined at:
  2605 ;;		line 1624 in file "final_3_dimer.c"
  2606 ;; Parameters:    Size  Location     Type
  2607 ;;		None
  2608 ;; Auto vars:     Size  Location     Type
  2609 ;;		None
  2610 ;; Return value:  Size  Location     Type
  2611 ;;                  1    wreg      void 
  2612 ;; Registers used:
  2613 ;;		wreg, status,2
  2614 ;; Tracked objects:
  2615 ;;		On entry : 0/0
  2616 ;;		On exit  : 0/0
  2617 ;;		Unchanged: 0/0
  2618 ;; Data sizes:     COMMON   BANK0   BANK1   BANK2   BANK3   BANK4   BANK5   BANK6   BANK7   BANK8   BANK9
  2619 ;;      Params:         0       0       0       0       0       0       0       0       0       0       0
  2620 ;;      Locals:         0       0       0       0       0       0       0       0       0       0       0
  2621 ;;      Temps:          0       0       0       0       0       0       0       0       0       0       0
  2622 ;;      Totals:         0       0       0       0       0       0       0       0       0       0       0
  2623 ;;Total ram usage:        0 bytes
  2624 ;; Hardware stack levels used:    1
  2625 ;; Hardware stack levels required when called:    1
  2626 ;; This function calls:
  2627 ;;		Nothing
  2628 ;; This function is called by:
  2629 ;;		_periperal_init
  2630 ;; This function uses a non-reentrant model
  2631 ;;
  2632                           
  2633                           
  2634                           ;psect for function _CCP9_Initialize
  2635  0AF7                     _CCP9_Initialize:	
  2636                           
  2637                           ;final_3_dimer.c: 1629: CCP9CON = 0x84;
  2638                           
  2639                           ;incstack = 0
  2640                           ; Regs used in _CCP9_Initialize: [wreg+status,2]
  2641  0AF7  3084               	movlw	132
  2642  0AF8  002C               	movlb	12	; select bank12
  2643  0AF9  009C               	movwf	28	;volatile
  2644                           
  2645                           ;final_3_dimer.c: 1632: CCPR9H = 0x00;
  2646  0AFA  019B               	clrf	27	;volatile
  2647                           
  2648                           ;final_3_dimer.c: 1635: CCPR9L = 0x00;
  2649  0AFB  019A               	clrf	26	;volatile
  2650                           
  2651                           ;final_3_dimer.c: 1638: PIR4bits.CCP9IF = 0;
  2652  0AFC  0020               	movlb	0	; select bank0
  2653  0AFD  1314               	bcf	20,6	;volatile
  2654                           
  2655                           ;final_3_dimer.c: 1641: PIE4bits.CCP9IE = 0;
  2656  0AFE  0021               	movlb	1	; select bank1
  2657  0AFF  1314               	bcf	20,6	;volatile
  2658  0B00  0008               	return
  2659  0B01                     __end_of_CCP9_Initialize:	
  2660                           
  2661                           	psect	text11
  2662  0B01                     __ptext11:	
  2663 ;; *************** function _CCP3_Initialize *****************
  2664 ;; Defined at:
  2665 ;;		line 1578 in file "final_3_dimer.c"
  2666 ;; Parameters:    Size  Location     Type
  2667 ;;		None
  2668 ;; Auto vars:     Size  Location     Type
  2669 ;;		None
  2670 ;; Return value:  Size  Location     Type
  2671 ;;                  1    wreg      void 
  2672 ;; Registers used:
  2673 ;;		wreg, status,2
  2674 ;; Tracked objects:
  2675 ;;		On entry : 0/0
  2676 ;;		On exit  : 0/0
  2677 ;;		Unchanged: 0/0
  2678 ;; Data sizes:     COMMON   BANK0   BANK1   BANK2   BANK3   BANK4   BANK5   BANK6   BANK7   BANK8   BANK9
  2679 ;;      Params:         0       0       0       0       0       0       0       0       0       0       0
  2680 ;;      Locals:         0       0       0       0       0       0       0       0       0       0       0
  2681 ;;      Temps:          0       0       0       0       0       0       0       0       0       0       0
  2682 ;;      Totals:         0       0       0       0       0       0       0       0       0       0       0
  2683 ;;Total ram usage:        0 bytes
  2684 ;; Hardware stack levels used:    1
  2685 ;; Hardware stack levels required when called:    1
  2686 ;; This function calls:
  2687 ;;		Nothing
  2688 ;; This function is called by:
  2689 ;;		_periperal_init
  2690 ;; This function uses a non-reentrant model
  2691 ;;
  2692                           
  2693                           
  2694                           ;psect for function _CCP3_Initialize
  2695  0B01                     _CCP3_Initialize:	
  2696                           
  2697                           ;final_3_dimer.c: 1583: CCP3CON = 0x84;
  2698                           
  2699                           ;incstack = 0
  2700                           ; Regs used in _CCP3_Initialize: [wreg+status,2]
  2701  0B01  3084               	movlw	132
  2702  0B02  0026               	movlb	6	; select bank6
  2703  0B03  0093               	movwf	19	;volatile
  2704                           
  2705                           ;final_3_dimer.c: 1586: CCPR3L = 0x00;
  2706  0B04  0191               	clrf	17	;volatile
  2707                           
  2708                           ;final_3_dimer.c: 1589: CCPR3H = 0x00;
  2709  0B05  0192               	clrf	18	;volatile
  2710                           
  2711                           ;final_3_dimer.c: 1595: PIR3bits.CCP3IF = 0;
  2712  0B06  0020               	movlb	0	; select bank0
  2713  0B07  1213               	bcf	19,4	;volatile
  2714                           
  2715                           ;final_3_dimer.c: 1598: PIE3bits.CCP3IE = 0;
  2716  0B08  0021               	movlb	1	; select bank1
  2717  0B09  1213               	bcf	19,4	;volatile
  2718  0B0A  0008               	return
  2719  0B0B                     __end_of_CCP3_Initialize:	
  2720                           
  2721                           	psect	text12
  2722  0AC2                     __ptext12:	
  2723 ;; *************** function _CCP1_Initialize *****************
  2724 ;; Defined at:
  2725 ;;		line 1553 in file "final_3_dimer.c"
  2726 ;; Parameters:    Size  Location     Type
  2727 ;;		None
  2728 ;; Auto vars:     Size  Location     Type
  2729 ;;		None
  2730 ;; Return value:  Size  Location     Type
  2731 ;;                  1    wreg      void 
  2732 ;; Registers used:
  2733 ;;		wreg, status,2
  2734 ;; Tracked objects:
  2735 ;;		On entry : 0/0
  2736 ;;		On exit  : 0/0
  2737 ;;		Unchanged: 0/0
  2738 ;; Data sizes:     COMMON   BANK0   BANK1   BANK2   BANK3   BANK4   BANK5   BANK6   BANK7   BANK8   BANK9
  2739 ;;      Params:         0       0       0       0       0       0       0       0       0       0       0
  2740 ;;      Locals:         0       0       0       0       0       0       0       0       0       0       0
  2741 ;;      Temps:          0       0       0       0       0       0       0       0       0       0       0
  2742 ;;      Totals:         0       0       0       0       0       0       0       0       0       0       0
  2743 ;;Total ram usage:        0 bytes
  2744 ;; Hardware stack levels used:    1
  2745 ;; Hardware stack levels required when called:    1
  2746 ;; This function calls:
  2747 ;;		Nothing
  2748 ;; This function is called by:
  2749 ;;		_periperal_init
  2750 ;; This function uses a non-reentrant model
  2751 ;;
  2752                           
  2753                           
  2754                           ;psect for function _CCP1_Initialize
  2755  0AC2                     _CCP1_Initialize:	
  2756                           
  2757                           ;final_3_dimer.c: 1558: CCP1CON = 0x04;
  2758                           
  2759                           ;incstack = 0
  2760                           ; Regs used in _CCP1_Initialize: [wreg+status,2]
  2761  0AC2  3004               	movlw	4
  2762  0AC3  0025               	movlb	5	; select bank5
  2763  0AC4  0093               	movwf	19	;volatile
  2764                           
  2765                           ;final_3_dimer.c: 1562: CCPR1H = 0x00;
  2766  0AC5  0192               	clrf	18	;volatile
  2767                           
  2768                           ;final_3_dimer.c: 1565: CCPR1L = 0x00;
  2769  0AC6  0191               	clrf	17	;volatile
  2770                           
  2771                           ;final_3_dimer.c: 1568: PIR1bits.CCP1IF = 0;
  2772  0AC7  0020               	movlb	0	; select bank0
  2773  0AC8  1111               	bcf	17,2	;volatile
  2774                           
  2775                           ;final_3_dimer.c: 1571: PIE1bits.CCP1IE = 1;
  2776  0AC9  0021               	movlb	1	; select bank1
  2777  0ACA  1511               	bsf	17,2	;volatile
  2778                           
  2779                           ;final_3_dimer.c: 1572: GIE = 1;
  2780  0ACB  178B               	bsf	11,7	;volatile
  2781                           
  2782                           ;final_3_dimer.c: 1575: PEIE = 1;
  2783  0ACC  170B               	bsf	11,6	;volatile
  2784  0ACD  0008               	return
  2785  0ACE                     __end_of_CCP1_Initialize:	
  2786                           
  2787                           	psect	text13
  2788  07A2                     __ptext13:	
  2789 ;; *************** function _copy_frame *****************
  2790 ;; Defined at:
  2791 ;;		line 1245 in file "final_3_dimer.c"
  2792 ;; Parameters:    Size  Location     Type
  2793 ;;  start           2    2[COMMON] int 
  2794 ;;  end             2    4[COMMON] int 
  2795 ;; Auto vars:     Size  Location     Type
  2796 ;;  k               2    2[BANK0 ] int 
  2797 ;;  sw              2    0[BANK0 ] int 
  2798 ;; Return value:  Size  Location     Type
  2799 ;;                  1    wreg      void 
  2800 ;; Registers used:
  2801 ;;		wreg, fsr1l, fsr1h, status,2, status,0
  2802 ;; Tracked objects:
  2803 ;;		On entry : 0/0
  2804 ;;		On exit  : 0/0
  2805 ;;		Unchanged: 0/0
  2806 ;; Data sizes:     COMMON   BANK0   BANK1   BANK2   BANK3   BANK4   BANK5   BANK6   BANK7   BANK8   BANK9
  2807 ;;      Params:         4       0       0       0       0       0       0       0       0       0       0
  2808 ;;      Locals:         0       4       0       0       0       0       0       0       0       0       0
  2809 ;;      Temps:          1       0       0       0       0       0       0       0       0       0       0
  2810 ;;      Totals:         5       4       0       0       0       0       0       0       0       0       0
  2811 ;;Total ram usage:        9 bytes
  2812 ;; Hardware stack levels used:    1
  2813 ;; Hardware stack levels required when called:    1
  2814 ;; This function calls:
  2815 ;;		Nothing
  2816 ;; This function is called by:
  2817 ;;		_main
  2818 ;; This function uses a non-reentrant model
  2819 ;;
  2820                           
  2821                           
  2822                           ;psect for function _copy_frame
  2823  07A2                     _copy_frame:	
  2824                           
  2825                           ;final_3_dimer.c: 1246: int k=0,sw=0;
  2826                           
  2827                           ;incstack = 0
  2828                           ; Regs used in _copy_frame: [wreg+fsr1l+fsr1h+status,2+status,0]
  2829  07A2  0020               	movlb	0	; select bank0
  2830  07A3  01A2               	clrf	copy_frame@k
  2831  07A4  01A3               	clrf	copy_frame@k+1
  2832  07A5  01A0               	clrf	copy_frame@sw
  2833  07A6  01A1               	clrf	copy_frame@sw+1
  2834                           
  2835                           ;final_3_dimer.c: 1247: for(k = start; k< end; k++)
  2836  07A7  0873               	movf	copy_frame@start+1,w
  2837  07A8  00A3               	movwf	copy_frame@k+1
  2838  07A9  0872               	movf	copy_frame@start,w
  2839  07AA  00A2               	movwf	copy_frame@k
  2840  07AB                     l746:	
  2841  07AB  0823               	movf	copy_frame@k+1,w
  2842  07AC  3A80               	xorlw	128
  2843  07AD  00F6               	movwf	??_copy_frame
  2844  07AE  0875               	movf	copy_frame@end+1,w
  2845  07AF  3A80               	xorlw	128
  2846  07B0  0276               	subwf	??_copy_frame,w
  2847  07B1  1D03               	skipz
  2848  07B2  2FB5               	goto	u2335
  2849  07B3  0874               	movf	copy_frame@end,w
  2850  07B4  0222               	subwf	copy_frame@k,w
  2851  07B5                     u2335:	
  2852  07B5  1803               	btfsc	3,0
  2853  07B6  2FD8               	goto	l8711
  2854                           
  2855                           ;final_3_dimer.c: 1248: {
  2856                           ;final_3_dimer.c: 1249: copy[sw]=name[k];
  2857  07B7  0020               	movlb	0	; select bank0
  2858  07B8  0822               	movf	copy_frame@k,w
  2859  07B9  3E44               	addlw	(low (_name| (0+256)))& (0+255)
  2860  07BA  0086               	movwf	6
  2861  07BB  3001               	movlw	1	; select bank2/3
  2862  07BC  0087               	movwf	7
  2863  07BD  0801               	movf	1,w
  2864  07BE  00F6               	movwf	??_copy_frame
  2865  07BF  0820               	movf	copy_frame@sw,w
  2866  07C0  3E20               	addlw	(low (_copy| (0+256)))& (0+255)
  2867  07C1  0086               	movwf	6
  2868  07C2  3001               	movlw	1	; select bank2/3
  2869  07C3  0087               	movwf	7
  2870  07C4  0876               	movf	??_copy_frame,w
  2871  07C5  0081               	movwf	1
  2872                           
  2873                           ;final_3_dimer.c: 1250: sw++;
  2874  07C6  3001               	movlw	1
  2875  07C7  07A0               	addwf	copy_frame@sw,f
  2876  07C8  3000               	movlw	0
  2877  07C9  3DA1               	addwfc	copy_frame@sw+1,f
  2878                           
  2879                           ;final_3_dimer.c: 1251: name[k] = '#';
  2880  07CA  3023               	movlw	35
  2881  07CB  00F6               	movwf	??_copy_frame
  2882  07CC  0822               	movf	copy_frame@k,w
  2883  07CD  3E44               	addlw	(low (_name| (0+256)))& (0+255)
  2884  07CE  0086               	movwf	6
  2885  07CF  3001               	movlw	1	; select bank2/3
  2886  07D0  0087               	movwf	7
  2887  07D1  0876               	movf	??_copy_frame,w
  2888  07D2  0081               	movwf	1
  2889  07D3  3001               	movlw	1
  2890  07D4  07A2               	addwf	copy_frame@k,f
  2891  07D5  3000               	movlw	0
  2892  07D6  3DA3               	addwfc	copy_frame@k+1,f
  2893  07D7  2FAB               	goto	l746
  2894  07D8                     l8711:	
  2895                           
  2896                           ;final_3_dimer.c: 1252: }
  2897                           ;final_3_dimer.c: 1254: COPY_FLAG=0;
  2898  07D8  0020               	movlb	0	; select bank0
  2899  07D9  01CB               	clrf	_COPY_FLAG
  2900  07DA  01CC               	clrf	_COPY_FLAG+1
  2901  07DB  0008               	return
  2902  07DC                     __end_of_copy_frame:	
  2903                           
  2904                           	psect	text14
  2905  0BB0                     __ptext14:	
  2906 ;; *************** function _ACTION *****************
  2907 ;; Defined at:
  2908 ;;		line 1257 in file "final_3_dimer.c"
  2909 ;; Parameters:    Size  Location     Type
  2910 ;;  Switch_Num_1    1    wreg     unsigned char 
  2911 ;;  Switch_Num_1    1    6[BANK0 ] unsigned char 
  2912 ;;  sw_status       1    7[BANK0 ] unsigned char 
  2913 ;;  speed_bitHig    1    8[BANK0 ] unsigned char 
  2914 ;;  speed_bitLow    1    9[BANK0 ] unsigned char 
  2915 ;;  parent          1   10[BANK0 ] unsigned char 
  2916 ;;  finalFrameSt    1   11[BANK0 ] unsigned char 
  2917 ;; Auto vars:     Size  Location     Type
  2918 ;;  Switch_Num_1    1   20[BANK0 ] unsigned char 
  2919 ;;  SwNumString     2   23[BANK0 ] unsigned char [2]
  2920 ;;  FanSpeedStri    2   21[BANK0 ] unsigned char [2]
  2921 ;;  child_lock_n    2   18[BANK0 ] int 
  2922 ;;  children        2   16[BANK0 ] int 
  2923 ;;  FanSpeed        2   14[BANK0 ] int 
  2924 ;;  switch_statu    2   29[BANK0 ] int 
  2925 ;;  response_sta    2   27[BANK0 ] int 
  2926 ;;  SwNum           2   25[BANK0 ] int 
  2927 ;; Return value:  Size  Location     Type
  2928 ;;                  1    wreg      void 
  2929 ;; Registers used:
  2930 ;;		wreg, fsr0l, fsr0h, fsr1l, fsr1h, status,2, status,0, pclath, cstack
  2931 ;; Tracked objects:
  2932 ;;		On entry : 0/0
  2933 ;;		On exit  : 0/0
  2934 ;;		Unchanged: 0/0
  2935 ;; Data sizes:     COMMON   BANK0   BANK1   BANK2   BANK3   BANK4   BANK5   BANK6   BANK7   BANK8   BANK9
  2936 ;;      Params:         0       6       0       0       0       0       0       0       0       0       0
  2937 ;;      Locals:         0      17       0       0       0       0       0       0       0       0       0
  2938 ;;      Temps:          0       2       0       0       0       0       0       0       0       0       0
  2939 ;;      Totals:         0      25       0       0       0       0       0       0       0       0       0
  2940 ;;Total ram usage:       25 bytes
  2941 ;; Hardware stack levels used:    1
  2942 ;; Hardware stack levels required when called:    3
  2943 ;; This function calls:
  2944 ;;		_atoi
  2945 ;;		_writeUART
  2946 ;; This function is called by:
  2947 ;;		_main
  2948 ;; This function uses a non-reentrant model
  2949 ;;
  2950                           
  2951                           
  2952                           ;psect for function _ACTION
  2953  0BB0                     _ACTION:	
  2954                           
  2955                           ;incstack = 0
  2956                           ; Regs used in _ACTION: [wreg-fsr1h+status,2+status,0+pclath+cstack]
  2957                           ;ACTION@Switch_Num_10s stored from wreg
  2958  0BB0  0020               	movlb	0	; select bank0
  2959  0BB1  00B4               	movwf	ACTION@Switch_Num_10s
  2960                           
  2961                           ;final_3_dimer.c: 1259: int response_starts=0;
  2962  0BB2  01BB               	clrf	ACTION@response_starts
  2963  0BB3  01BC               	clrf	ACTION@response_starts+1
  2964                           
  2965                           ;final_3_dimer.c: 1260: int switch_status=0;
  2966  0BB4  01BD               	clrf	ACTION@switch_status
  2967  0BB5  01BE               	clrf	ACTION@switch_status+1
  2968                           
  2969                           ;final_3_dimer.c: 1261: int SwNum=0;
  2970  0BB6  01B9               	clrf	ACTION@SwNum
  2971  0BB7  01BA               	clrf	ACTION@SwNum+1
  2972                           
  2973                           ;final_3_dimer.c: 1263: if(Switch_Num_1s != 'T')
  2974  0BB8  3054               	movlw	84
  2975  0BB9  0626               	xorwf	ACTION@Switch_Num_1s,w
  2976  0BBA  1903               	btfsc	3,2
  2977  0BBB  2D09               	goto	l8809
  2978                           
  2979                           ;final_3_dimer.c: 1264: {
  2980                           ;final_3_dimer.c: 1265: unsigned char FanSpeedString[2], SwNumString[2];
  2981                           ;final_3_dimer.c: 1266: int FanSpeed=0;
  2982  0BBC  01AE               	clrf	ACTION@FanSpeed
  2983  0BBD  01AF               	clrf	ACTION@FanSpeed+1
  2984                           
  2985                           ;final_3_dimer.c: 1268: switch_status=sw_status - '0';
  2986  0BBE  0827               	movf	ACTION@sw_status,w
  2987  0BBF  3ED0               	addlw	208
  2988  0BC0  00BD               	movwf	ACTION@switch_status
  2989  0BC1  30FF               	movlw	255
  2990  0BC2  1803               	skipnc
  2991  0BC3  3000               	movlw	0
  2992  0BC4  00BE               	movwf	ACTION@switch_status+1
  2993                           
  2994                           ;final_3_dimer.c: 1270: SwNumString[0]=Switch_Num_10s;
  2995  0BC5  0834               	movf	ACTION@Switch_Num_10s,w
  2996  0BC6  00AC               	movwf	??_ACTION
  2997  0BC7  082C               	movf	??_ACTION,w
  2998  0BC8  00B7               	movwf	ACTION@SwNumString
  2999                           
  3000                           ;final_3_dimer.c: 1271: SwNumString[1]=Switch_Num_1s;
  3001  0BC9  0826               	movf	ACTION@Switch_Num_1s,w
  3002  0BCA  00AC               	movwf	??_ACTION
  3003  0BCB  082C               	movf	??_ACTION,w
  3004  0BCC  00B8               	movwf	ACTION@SwNumString+1
  3005                           
  3006                           ;final_3_dimer.c: 1272: SwNum=atoi(SwNumString);
  3007  0BCD  3037               	movlw	(low (ACTION@SwNumString| 0))& (0+255)
  3008  0BCE  3186  26EF  318B   	fcall	_atoi
  3009  0BD1  0879               	movf	?_atoi+1,w
  3010  0BD2  0020               	movlb	0	; select bank0
  3011  0BD3  00BA               	movwf	ACTION@SwNum+1
  3012  0BD4  0878               	movf	?_atoi,w
  3013  0BD5  00B9               	movwf	ACTION@SwNum
  3014                           
  3015                           ;final_3_dimer.c: 1274: FanSpeedString[0] = speed_bitHigh;
  3016  0BD6  0828               	movf	ACTION@speed_bitHigh,w
  3017  0BD7  00AC               	movwf	??_ACTION
  3018  0BD8  082C               	movf	??_ACTION,w
  3019  0BD9  00B5               	movwf	ACTION@FanSpeedString
  3020                           
  3021                           ;final_3_dimer.c: 1275: FanSpeedString[1] = speed_bitLow;
  3022  0BDA  0829               	movf	ACTION@speed_bitLow,w
  3023  0BDB  00AC               	movwf	??_ACTION
  3024  0BDC  082C               	movf	??_ACTION,w
  3025  0BDD  00B6               	movwf	ACTION@FanSpeedString+1
  3026                           
  3027                           ;final_3_dimer.c: 1276: FanSpeed = atoi(FanSpeedString);
  3028  0BDE  3035               	movlw	(low (ACTION@FanSpeedString| 0))& (0+255)
  3029  0BDF  3186  26EF  318B   	fcall	_atoi
  3030  0BE2  0879               	movf	?_atoi+1,w
  3031  0BE3  0020               	movlb	0	; select bank0
  3032  0BE4  00AF               	movwf	ACTION@FanSpeed+1
  3033  0BE5  0878               	movf	?_atoi,w
  3034  0BE6  00AE               	movwf	ACTION@FanSpeed
  3035                           
  3036                           ;final_3_dimer.c: 1278: int children=parent - '0';
  3037  0BE7  082A               	movf	ACTION@parent,w
  3038  0BE8  3ED0               	addlw	208
  3039  0BE9  00B0               	movwf	ACTION@children
  3040  0BEA  30FF               	movlw	255
  3041  0BEB  1803               	skipnc
  3042  0BEC  3000               	movlw	0
  3043  0BED  00B1               	movwf	ACTION@children+1
  3044                           
  3045                           ;final_3_dimer.c: 1279: int child_lock_num=(2*(SwNum)-1);
  3046  0BEE  083A               	movf	ACTION@SwNum+1,w
  3047  0BEF  00AD               	movwf	??_ACTION+1
  3048  0BF0  0839               	movf	ACTION@SwNum,w
  3049  0BF1  00AC               	movwf	??_ACTION
  3050  0BF2  35AC               	lslf	??_ACTION,f
  3051  0BF3  0DAD               	rlf	??_ACTION+1,f
  3052  0BF4  082C               	movf	??_ACTION,w
  3053  0BF5  3EFF               	addlw	255
  3054  0BF6  00B2               	movwf	ACTION@child_lock_num
  3055  0BF7  30FF               	movlw	255
  3056  0BF8  3D2D               	addwfc	??_ACTION+1,w
  3057  0BF9  00B3               	movwf	ACTION@child_lock_num+1
  3058                           
  3059                           ;final_3_dimer.c: 1280: child_LOCK[child_lock_num]=children;
  3060  0BFA  0830               	movf	ACTION@children,w
  3061  0BFB  00AC               	movwf	??_ACTION
  3062  0BFC  0832               	movf	ACTION@child_lock_num,w
  3063  0BFD  3EA0               	addlw	(low (_child_LOCK| 0))& (0+255)
  3064  0BFE  0086               	movwf	6
  3065  0BFF  0187               	clrf	7
  3066  0C00  082C               	movf	??_ACTION,w
  3067  0C01  0081               	movwf	1
  3068                           
  3069                           ;final_3_dimer.c: 1282: response_starts=((1+4*(SwNum))-4);
  3070  0C02  083A               	movf	ACTION@SwNum+1,w
  3071  0C03  00AD               	movwf	??_ACTION+1
  3072  0C04  0839               	movf	ACTION@SwNum,w
  3073  0C05  00AC               	movwf	??_ACTION
  3074  0C06  35AC               	lslf	??_ACTION,f
  3075  0C07  0DAD               	rlf	??_ACTION+1,f
  3076  0C08  35AC               	lslf	??_ACTION,f
  3077  0C09  0DAD               	rlf	??_ACTION+1,f
  3078  0C0A  082C               	movf	??_ACTION,w
  3079  0C0B  3EFD               	addlw	253
  3080  0C0C  00BB               	movwf	ACTION@response_starts
  3081  0C0D  30FF               	movlw	255
  3082  0C0E  3D2D               	addwfc	??_ACTION+1,w
  3083  0C0F  00BC               	movwf	ACTION@response_starts+1
  3084                           
  3085                           ;final_3_dimer.c: 1283: st[response_starts++]='G';
  3086  0C10  3047               	movlw	71
  3087  0C11  00AC               	movwf	??_ACTION
  3088  0C12  083B               	movf	ACTION@response_starts,w
  3089  0C13  3EA5               	addlw	(low (_st| 0))& (0+255)
  3090  0C14  0086               	movwf	6
  3091  0C15  0187               	clrf	7
  3092  0C16  082C               	movf	??_ACTION,w
  3093  0C17  0081               	movwf	1
  3094  0C18  3001               	movlw	1
  3095  0C19  07BB               	addwf	ACTION@response_starts,f
  3096  0C1A  3000               	movlw	0
  3097  0C1B  3DBC               	addwfc	ACTION@response_starts+1,f
  3098                           
  3099                           ;final_3_dimer.c: 1284: st[response_starts++]=sw_status;
  3100  0C1C  0827               	movf	ACTION@sw_status,w
  3101  0C1D  00AC               	movwf	??_ACTION
  3102  0C1E  083B               	movf	ACTION@response_starts,w
  3103  0C1F  3EA5               	addlw	(low (_st| 0))& (0+255)
  3104  0C20  0086               	movwf	6
  3105  0C21  0187               	clrf	7
  3106  0C22  082C               	movf	??_ACTION,w
  3107  0C23  0081               	movwf	1
  3108  0C24  3001               	movlw	1
  3109  0C25  07BB               	addwf	ACTION@response_starts,f
  3110  0C26  3000               	movlw	0
  3111  0C27  3DBC               	addwfc	ACTION@response_starts+1,f
  3112                           
  3113                           ;final_3_dimer.c: 1285: st[response_starts++]=Switch_Num_10s;
  3114  0C28  0834               	movf	ACTION@Switch_Num_10s,w
  3115  0C29  00AC               	movwf	??_ACTION
  3116  0C2A  083B               	movf	ACTION@response_starts,w
  3117  0C2B  3EA5               	addlw	(low (_st| 0))& (0+255)
  3118  0C2C  0086               	movwf	6
  3119  0C2D  0187               	clrf	7
  3120  0C2E  082C               	movf	??_ACTION,w
  3121  0C2F  0081               	movwf	1
  3122  0C30  3001               	movlw	1
  3123  0C31  07BB               	addwf	ACTION@response_starts,f
  3124  0C32  3000               	movlw	0
  3125  0C33  3DBC               	addwfc	ACTION@response_starts+1,f
  3126                           
  3127                           ;final_3_dimer.c: 1286: st[response_starts]=Switch_Num_1s;
  3128  0C34  0826               	movf	ACTION@Switch_Num_1s,w
  3129  0C35  00AC               	movwf	??_ACTION
  3130  0C36  083B               	movf	ACTION@response_starts,w
  3131  0C37  3EA5               	addlw	(low (_st| 0))& (0+255)
  3132  0C38  0086               	movwf	6
  3133  0C39  0187               	clrf	7
  3134  0C3A  082C               	movf	??_ACTION,w
  3135  0C3B  0081               	movwf	1
  3136                           
  3137                           ;final_3_dimer.c: 1288: response_starts-=3;
  3138  0C3C  30FD               	movlw	253
  3139  0C3D  07BB               	addwf	ACTION@response_starts,f
  3140  0C3E  30FF               	movlw	255
  3141  0C3F  3DBC               	addwfc	ACTION@response_starts+1,f
  3142                           
  3143                           ;final_3_dimer.c: 1289: if(finalFrameStat=='1')
  3144  0C40  3031               	movlw	49
  3145  0C41  062B               	xorwf	ACTION@finalFrameStat,w
  3146  0C42  1D03               	btfss	3,2
  3147  0C43  2C49               	goto	l8761
  3148                           
  3149                           ;final_3_dimer.c: 1290: {
  3150                           ;final_3_dimer.c: 1291: writeUART(st+response_starts);
  3151  0C44  083B               	movf	ACTION@response_starts,w
  3152  0C45  3EA5               	addlw	(low (_st| 0))& (0+255)
  3153  0C46  318B  233F  318B   	fcall	_writeUART
  3154  0C49                     l8761:	
  3155                           
  3156                           ;final_3_dimer.c: 1292: }
  3157                           ;final_3_dimer.c: 1293: man=0;
  3158  0C49  0020               	movlb	0	; select bank0
  3159  0C4A  01E0               	clrf	_man
  3160  0C4B  01E1               	clrf	_man+1
  3161                           
  3162                           ;final_3_dimer.c: 1294: }
  3163                           ;final_3_dimer.c: 1298: switch(SwNum)
  3164  0C4C  2D09               	goto	l8809
  3165  0C4D                     l8763:	
  3166                           ;final_3_dimer.c: 1299: {
  3167                           ;final_3_dimer.c: 1300: case 1:
  3168                           
  3169                           
  3170                           ;final_3_dimer.c: 1301: FAN_FLAG1 = switch_status;
  3171  0C4D  083E               	movf	ACTION@switch_status+1,w
  3172  0C4E  0021               	movlb	1	; select bank1
  3173  0C4F  00D8               	movwf	(_FAN_FLAG1+1)^(0+128)
  3174  0C50  0020               	movlb	0	; select bank0
  3175  0C51  083D               	movf	ACTION@switch_status,w
  3176  0C52  0021               	movlb	1	; select bank1
  3177  0C53  00D7               	movwf	_FAN_FLAG1^(0+128)
  3178                           
  3179                           ;final_3_dimer.c: 1302: if(switch_status==0)
  3180  0C54  0020               	movlb	0	; select bank0
  3181  0C55  083D               	movf	ACTION@switch_status,w
  3182  0C56  043E               	iorwf	ACTION@switch_status+1,w
  3183  0C57  1D03               	btfss	3,2
  3184  0C58  2C66               	goto	l8771
  3185                           
  3186                           ;final_3_dimer.c: 1303: {
  3187                           ;final_3_dimer.c: 1304: PIE1bits.CCP1IE = 0;
  3188  0C59  0021               	movlb	1	; select bank1
  3189  0C5A  1111               	bcf	17,2	;volatile
  3190                           
  3191                           ;final_3_dimer.c: 1305: RE5 =(switch_status^1);
  3192  0C5B  0020               	movlb	0	; select bank0
  3193  0C5C  183D               	btfsc	ACTION@switch_status,0
  3194  0C5D  2C61               	goto	u2370
  3195  0C5E  0020               	movlb	0	; select bank0
  3196  0C5F  1690               	bsf	16,5	;volatile
  3197  0C60  2C63               	goto	l8769
  3198  0C61                     u2370:	
  3199  0C61  0020               	movlb	0	; select bank0
  3200  0C62  1290               	bcf	16,5	;volatile
  3201  0C63                     l8769:	
  3202                           
  3203                           ;final_3_dimer.c: 1306: pk=0;
  3204  0C63  01D9               	clrf	_pk
  3205  0C64  01DA               	clrf	_pk+1
  3206                           
  3207                           ;final_3_dimer.c: 1307: }
  3208  0C65  2C83               	goto	l757
  3209  0C66                     l8771:	
  3210                           
  3211                           ;final_3_dimer.c: 1308: else if(switch_status==1)
  3212  0C66  033D               	decf	ACTION@switch_status,w
  3213  0C67  043E               	iorwf	ACTION@switch_status+1,w
  3214  0C68  1D03               	btfss	3,2
  3215  0C69  2C83               	goto	l757
  3216                           
  3217                           ;final_3_dimer.c: 1309: {
  3218                           ;final_3_dimer.c: 1310: PIE1bits.CCP1IE = 1;
  3219  0C6A  0021               	movlb	1	; select bank1
  3220  0C6B  1511               	bsf	17,2	;volatile
  3221                           
  3222                           ;final_3_dimer.c: 1311: dimmer1=speed_bitHigh;
  3223  0C6C  0020               	movlb	0	; select bank0
  3224  0C6D  0828               	movf	ACTION@speed_bitHigh,w
  3225  0C6E  00AC               	movwf	??_ACTION
  3226  0C6F  082C               	movf	??_ACTION,w
  3227  0C70  00DF               	movwf	_dimmer1
  3228                           
  3229                           ;final_3_dimer.c: 1312: pk=1;
  3230  0C71  3001               	movlw	1
  3231  0C72  00D9               	movwf	_pk
  3232  0C73  3000               	movlw	0
  3233  0C74  00DA               	movwf	_pk+1
  3234                           
  3235                           ;final_3_dimer.c: 1313: FAN_SPEED1_10s = speed_bitHigh;
  3236  0C75  0828               	movf	ACTION@speed_bitHigh,w
  3237  0C76  00AC               	movwf	??_ACTION
  3238  0C77  01AD               	clrf	??_ACTION+1
  3239  0C78  082C               	movf	??_ACTION,w
  3240  0C79  00D3               	movwf	_FAN_SPEED1_10s
  3241  0C7A  082D               	movf	??_ACTION+1,w
  3242  0C7B  00D4               	movwf	_FAN_SPEED1_10s+1
  3243                           
  3244                           ;final_3_dimer.c: 1314: FAN_SPEED1_1s= speed_bitLow;
  3245  0C7C  0829               	movf	ACTION@speed_bitLow,w
  3246  0C7D  00AC               	movwf	??_ACTION
  3247  0C7E  01AD               	clrf	??_ACTION+1
  3248  0C7F  082C               	movf	??_ACTION,w
  3249  0C80  00D1               	movwf	_FAN_SPEED1_1s
  3250  0C81  082D               	movf	??_ACTION+1,w
  3251  0C82  00D2               	movwf	_FAN_SPEED1_1s+1
  3252  0C83                     l757:	
  3253                           
  3254                           ;final_3_dimer.c: 1316: }
  3255                           ;final_3_dimer.c: 1317: M3=switch_status;
  3256  0C83  083E               	movf	ACTION@switch_status+1,w
  3257  0C84  00C6               	movwf	_M3+1
  3258  0C85  083D               	movf	ACTION@switch_status,w
  3259  0C86  00C5               	movwf	_M3
  3260                           
  3261                           ;final_3_dimer.c: 1318: break;
  3262  0C87  0008               	return
  3263  0C88                     l8777:	
  3264                           ;final_3_dimer.c: 1319: case 2:
  3265                           
  3266                           
  3267                           ;final_3_dimer.c: 1320: FAN_FLAG2 = switch_status;
  3268  0C88  083E               	movf	ACTION@switch_status+1,w
  3269  0C89  0021               	movlb	1	; select bank1
  3270  0C8A  00D6               	movwf	(_FAN_FLAG2+1)^(0+128)
  3271  0C8B  0020               	movlb	0	; select bank0
  3272  0C8C  083D               	movf	ACTION@switch_status,w
  3273  0C8D  0021               	movlb	1	; select bank1
  3274  0C8E  00D5               	movwf	_FAN_FLAG2^(0+128)
  3275                           
  3276                           ;final_3_dimer.c: 1321: if(switch_status==0)
  3277  0C8F  0020               	movlb	0	; select bank0
  3278  0C90  083D               	movf	ACTION@switch_status,w
  3279  0C91  043E               	iorwf	ACTION@switch_status+1,w
  3280  0C92  1D03               	btfss	3,2
  3281  0C93  2CA1               	goto	l8785
  3282                           
  3283                           ;final_3_dimer.c: 1322: {
  3284                           ;final_3_dimer.c: 1323: PIE3bits.CCP3IE = 0;
  3285  0C94  0021               	movlb	1	; select bank1
  3286  0C95  1213               	bcf	19,4	;volatile
  3287                           
  3288                           ;final_3_dimer.c: 1324: RA3 =(switch_status^1);
  3289  0C96  0020               	movlb	0	; select bank0
  3290  0C97  183D               	btfsc	ACTION@switch_status,0
  3291  0C98  2C9C               	goto	u2410
  3292  0C99  0020               	movlb	0	; select bank0
  3293  0C9A  158C               	bsf	12,3	;volatile
  3294  0C9B  2C9E               	goto	l8783
  3295  0C9C                     u2410:	
  3296  0C9C  0020               	movlb	0	; select bank0
  3297  0C9D  118C               	bcf	12,3	;volatile
  3298  0C9E                     l8783:	
  3299                           
  3300                           ;final_3_dimer.c: 1325: ak=0;
  3301  0C9E  01D7               	clrf	_ak
  3302  0C9F  01D8               	clrf	_ak+1
  3303                           
  3304                           ;final_3_dimer.c: 1326: }
  3305  0CA0  2CBE               	goto	l762
  3306  0CA1                     l8785:	
  3307                           
  3308                           ;final_3_dimer.c: 1327: else if(switch_status==1)
  3309  0CA1  033D               	decf	ACTION@switch_status,w
  3310  0CA2  043E               	iorwf	ACTION@switch_status+1,w
  3311  0CA3  1D03               	btfss	3,2
  3312  0CA4  2CBE               	goto	l762
  3313                           
  3314                           ;final_3_dimer.c: 1328: {
  3315                           ;final_3_dimer.c: 1329: PIE3bits.CCP3IE = 1;
  3316  0CA5  0021               	movlb	1	; select bank1
  3317  0CA6  1613               	bsf	19,4	;volatile
  3318                           
  3319                           ;final_3_dimer.c: 1330: dimmer2=speed_bitHigh;
  3320  0CA7  0020               	movlb	0	; select bank0
  3321  0CA8  0828               	movf	ACTION@speed_bitHigh,w
  3322  0CA9  00AC               	movwf	??_ACTION
  3323  0CAA  082C               	movf	??_ACTION,w
  3324  0CAB  00DE               	movwf	_dimmer2
  3325                           
  3326                           ;final_3_dimer.c: 1331: ak=1;
  3327  0CAC  3001               	movlw	1
  3328  0CAD  00D7               	movwf	_ak
  3329  0CAE  3000               	movlw	0
  3330  0CAF  00D8               	movwf	_ak+1
  3331                           
  3332                           ;final_3_dimer.c: 1332: FAN_SPEED2_10s = speed_bitHigh;
  3333  0CB0  0828               	movf	ACTION@speed_bitHigh,w
  3334  0CB1  00AC               	movwf	??_ACTION
  3335  0CB2  01AD               	clrf	??_ACTION+1
  3336  0CB3  082C               	movf	??_ACTION,w
  3337  0CB4  00FA               	movwf	_FAN_SPEED2_10s
  3338  0CB5  082D               	movf	??_ACTION+1,w
  3339  0CB6  00FB               	movwf	_FAN_SPEED2_10s+1
  3340                           
  3341                           ;final_3_dimer.c: 1333: FAN_SPEED2_1s= speed_bitLow;
  3342  0CB7  0829               	movf	ACTION@speed_bitLow,w
  3343  0CB8  00AC               	movwf	??_ACTION
  3344  0CB9  01AD               	clrf	??_ACTION+1
  3345  0CBA  082C               	movf	??_ACTION,w
  3346  0CBB  00CF               	movwf	_FAN_SPEED2_1s
  3347  0CBC  082D               	movf	??_ACTION+1,w
  3348  0CBD  00D0               	movwf	_FAN_SPEED2_1s+1
  3349  0CBE                     l762:	
  3350                           
  3351                           ;final_3_dimer.c: 1335: }
  3352                           ;final_3_dimer.c: 1336: M4=switch_status;
  3353  0CBE  083E               	movf	ACTION@switch_status+1,w
  3354  0CBF  0021               	movlb	1	; select bank1
  3355  0CC0  00D2               	movwf	(_M4+1)^(0+128)
  3356  0CC1  0020               	movlb	0	; select bank0
  3357  0CC2  083D               	movf	ACTION@switch_status,w
  3358  0CC3  0021               	movlb	1	; select bank1
  3359  0CC4  00D1               	movwf	_M4^(0+128)
  3360                           
  3361                           ;final_3_dimer.c: 1338: break;
  3362  0CC5  0008               	return
  3363  0CC6                     l8791:	
  3364                           ;final_3_dimer.c: 1339: case 3:
  3365                           
  3366                           
  3367                           ;final_3_dimer.c: 1340: FAN_FLAG3 = switch_status;
  3368  0CC6  0020               	movlb	0	; select bank0
  3369  0CC7  083E               	movf	ACTION@switch_status+1,w
  3370  0CC8  0021               	movlb	1	; select bank1
  3371  0CC9  00D4               	movwf	(_FAN_FLAG3+1)^(0+128)
  3372  0CCA  0020               	movlb	0	; select bank0
  3373  0CCB  083D               	movf	ACTION@switch_status,w
  3374  0CCC  0021               	movlb	1	; select bank1
  3375  0CCD  00D3               	movwf	_FAN_FLAG3^(0+128)
  3376                           
  3377                           ;final_3_dimer.c: 1341: if(switch_status==0)
  3378  0CCE  0020               	movlb	0	; select bank0
  3379  0CCF  083D               	movf	ACTION@switch_status,w
  3380  0CD0  043E               	iorwf	ACTION@switch_status+1,w
  3381  0CD1  1D03               	btfss	3,2
  3382  0CD2  2CE0               	goto	l8801
  3383                           
  3384                           ;final_3_dimer.c: 1342: {
  3385                           ;final_3_dimer.c: 1343: tk=0;
  3386  0CD3  01D5               	clrf	_tk
  3387  0CD4  01D6               	clrf	_tk+1
  3388                           
  3389                           ;final_3_dimer.c: 1344: PIE4bits.CCP9IE = 0;
  3390  0CD5  0021               	movlb	1	; select bank1
  3391  0CD6  1314               	bcf	20,6	;volatile
  3392                           
  3393                           ;final_3_dimer.c: 1345: RA2 =(switch_status^1);
  3394  0CD7  0020               	movlb	0	; select bank0
  3395  0CD8  183D               	btfsc	ACTION@switch_status,0
  3396  0CD9  2CDD               	goto	u2450
  3397  0CDA  0020               	movlb	0	; select bank0
  3398  0CDB  150C               	bsf	12,2	;volatile
  3399  0CDC  2D01               	goto	l766
  3400  0CDD                     u2450:	
  3401  0CDD  0020               	movlb	0	; select bank0
  3402  0CDE  110C               	bcf	12,2	;volatile
  3403                           
  3404                           ;final_3_dimer.c: 1346: }
  3405  0CDF  2D01               	goto	l766
  3406  0CE0                     l8801:	
  3407                           
  3408                           ;final_3_dimer.c: 1347: else if(switch_status==1)
  3409  0CE0  033D               	decf	ACTION@switch_status,w
  3410  0CE1  043E               	iorwf	ACTION@switch_status+1,w
  3411  0CE2  1D03               	btfss	3,2
  3412  0CE3  2D01               	goto	l766
  3413                           
  3414                           ;final_3_dimer.c: 1348: {
  3415                           ;final_3_dimer.c: 1349: PIE4bits.CCP9IE = 1;
  3416  0CE4  0021               	movlb	1	; select bank1
  3417  0CE5  1714               	bsf	20,6	;volatile
  3418                           
  3419                           ;final_3_dimer.c: 1350: dimmer3=speed_bitHigh;
  3420  0CE6  0020               	movlb	0	; select bank0
  3421  0CE7  0828               	movf	ACTION@speed_bitHigh,w
  3422  0CE8  00AC               	movwf	??_ACTION
  3423  0CE9  082C               	movf	??_ACTION,w
  3424  0CEA  00DD               	movwf	_dimmer3
  3425                           
  3426                           ;final_3_dimer.c: 1351: tk=1;
  3427  0CEB  3001               	movlw	1
  3428  0CEC  00D5               	movwf	_tk
  3429  0CED  3000               	movlw	0
  3430  0CEE  00D6               	movwf	_tk+1
  3431                           
  3432                           ;final_3_dimer.c: 1352: FAN_SPEED3_10s = speed_bitHigh;
  3433  0CEF  0828               	movf	ACTION@speed_bitHigh,w
  3434  0CF0  00AC               	movwf	??_ACTION
  3435  0CF1  01AD               	clrf	??_ACTION+1
  3436  0CF2  082C               	movf	??_ACTION,w
  3437  0CF3  0021               	movlb	1	; select bank1
  3438  0CF4  00DB               	movwf	_FAN_SPEED3_10s^(0+128)
  3439  0CF5  0020               	movlb	0	; select bank0
  3440  0CF6  082D               	movf	??_ACTION+1,w
  3441  0CF7  0021               	movlb	1	; select bank1
  3442  0CF8  00DC               	movwf	(_FAN_SPEED3_10s+1)^(0+128)
  3443                           
  3444                           ;final_3_dimer.c: 1353: FAN_SPEED3_1s= speed_bitLow;
  3445  0CF9  0020               	movlb	0	; select bank0
  3446  0CFA  0829               	movf	ACTION@speed_bitLow,w
  3447  0CFB  00AC               	movwf	??_ACTION
  3448  0CFC  01AD               	clrf	??_ACTION+1
  3449  0CFD  082C               	movf	??_ACTION,w
  3450  0CFE  00CD               	movwf	_FAN_SPEED3_1s
  3451  0CFF  082D               	movf	??_ACTION+1,w
  3452  0D00  00CE               	movwf	_FAN_SPEED3_1s+1
  3453  0D01                     l766:	
  3454                           
  3455                           ;final_3_dimer.c: 1355: }
  3456                           ;final_3_dimer.c: 1356: M5=switch_status;
  3457  0D01  083E               	movf	ACTION@switch_status+1,w
  3458  0D02  0021               	movlb	1	; select bank1
  3459  0D03  00D0               	movwf	(_M5+1)^(0+128)
  3460  0D04  0020               	movlb	0	; select bank0
  3461  0D05  083D               	movf	ACTION@switch_status,w
  3462  0D06  0021               	movlb	1	; select bank1
  3463  0D07  00CF               	movwf	_M5^(0+128)
  3464                           
  3465                           ;final_3_dimer.c: 1360: }
  3466                           
  3467                           ;final_3_dimer.c: 1359: break;
  3468                           
  3469                           ;final_3_dimer.c: 1358: default:
  3470                           
  3471                           ;final_3_dimer.c: 1357: break;
  3472  0D08  0008               	return
  3473  0D09                     l8809:	
  3474                           
  3475                           ; Switch on 2 bytes has been partitioned into a top level switch of size 1, and 1 sub-sw
      +                          itches
  3476                           ; Switch size 1, requested type "space"
  3477                           ; Number of cases is 1, Range of values is 0 to 0
  3478                           ; switch strategies available:
  3479                           ; Name         Instructions Cycles
  3480                           ; simple_byte            4     3 (average)
  3481                           ; direct_byte            8     6 (fixed)
  3482                           ; jumptable            260     6 (fixed)
  3483                           ;	Chosen strategy is simple_byte
  3484  0D09  0020               	movlb	0	; select bank0
  3485  0D0A  083A               	movf	ACTION@SwNum+1,w
  3486  0D0B  3A00               	xorlw	0	; case 0
  3487  0D0C  1903               	skipnz
  3488  0D0D  2D0F               	goto	l10401
  3489  0D0E  2D1A               	goto	l769
  3490  0D0F                     l10401:	
  3491                           
  3492                           ; Switch size 1, requested type "space"
  3493                           ; Number of cases is 3, Range of values is 1 to 3
  3494                           ; switch strategies available:
  3495                           ; Name         Instructions Cycles
  3496                           ; simple_byte           10     6 (average)
  3497                           ; direct_byte           15     9 (fixed)
  3498                           ; jumptable            263     9 (fixed)
  3499                           ;	Chosen strategy is simple_byte
  3500  0D0F  0839               	movf	ACTION@SwNum,w
  3501  0D10  3A01               	xorlw	1	; case 1
  3502  0D11  1903               	skipnz
  3503  0D12  2C4D               	goto	l8763
  3504  0D13  3A03               	xorlw	3	; case 2
  3505  0D14  1903               	skipnz
  3506  0D15  2C88               	goto	l8777
  3507  0D16  3A01               	xorlw	1	; case 3
  3508  0D17  1903               	skipnz
  3509  0D18  2CC6               	goto	l8791
  3510  0D19  2D1A               	goto	l769
  3511  0D1A                     l769:	
  3512  0D1A  0008               	return
  3513  0D1B                     __end_of_ACTION:	
  3514                           
  3515                           	psect	text15
  3516  0B3F                     __ptext15:	
  3517 ;; *************** function _writeUART *****************
  3518 ;; Defined at:
  3519 ;;		line 1364 in file "final_3_dimer.c"
  3520 ;; Parameters:    Size  Location     Type
  3521 ;;  str2Write       1    wreg     PTR unsigned char 
  3522 ;;		 -> st(26), 
  3523 ;; Auto vars:     Size  Location     Type
  3524 ;;  str2Write       1    5[COMMON] PTR unsigned char 
  3525 ;;		 -> st(26), 
  3526 ;;  Tx_count        2    3[COMMON] int 
  3527 ;; Return value:  Size  Location     Type
  3528 ;;                  1    wreg      void 
  3529 ;; Registers used:
  3530 ;;		wreg, fsr1l, fsr1h, status,2, status,0
  3531 ;; Tracked objects:
  3532 ;;		On entry : 0/0
  3533 ;;		On exit  : 0/0
  3534 ;;		Unchanged: 0/0
  3535 ;; Data sizes:     COMMON   BANK0   BANK1   BANK2   BANK3   BANK4   BANK5   BANK6   BANK7   BANK8   BANK9
  3536 ;;      Params:         0       0       0       0       0       0       0       0       0       0       0
  3537 ;;      Locals:         3       0       0       0       0       0       0       0       0       0       0
  3538 ;;      Temps:          1       0       0       0       0       0       0       0       0       0       0
  3539 ;;      Totals:         4       0       0       0       0       0       0       0       0       0       0
  3540 ;;Total ram usage:        4 bytes
  3541 ;; Hardware stack levels used:    1
  3542 ;; Hardware stack levels required when called:    1
  3543 ;; This function calls:
  3544 ;;		Nothing
  3545 ;; This function is called by:
  3546 ;;		_main
  3547 ;;		_ACTION
  3548 ;; This function uses a non-reentrant model
  3549 ;;
  3550                           
  3551                           
  3552                           ;psect for function _writeUART
  3553  0B3F                     _writeUART:	
  3554                           
  3555                           ;incstack = 0
  3556                           ; Regs used in _writeUART: [wreg+fsr1l+fsr1h+status,2+status,0]
  3557                           ;writeUART@str2Write stored from wreg
  3558  0B3F  00F5               	movwf	writeUART@str2Write
  3559                           
  3560                           ;final_3_dimer.c: 1366: int Tx_count=0;
  3561  0B40  01F3               	clrf	writeUART@Tx_count
  3562  0B41  01F4               	clrf	writeUART@Tx_count+1
  3563  0B42                     l8623:	
  3564                           ;final_3_dimer.c: 1368: while(Tx_count!=4)
  3565                           
  3566  0B42  3004               	movlw	4
  3567  0B43  0673               	xorwf	writeUART@Tx_count,w
  3568  0B44  0474               	iorwf	writeUART@Tx_count+1,w
  3569  0B45  1903               	btfsc	3,2
  3570  0B46  0008               	return
  3571  0B47                     l774:	
  3572                           ;final_3_dimer.c: 1369: {
  3573                           ;final_3_dimer.c: 1371: while (!TX1STAbits.TRMT);
  3574                           
  3575  0B47  0023               	movlb	3	; select bank3
  3576  0B48  1C9E               	btfss	30,1	;volatile
  3577  0B49  2B47               	goto	l774
  3578                           
  3579                           ;final_3_dimer.c: 1372: TX1REG = *str2Write;
  3580  0B4A  0875               	movf	writeUART@str2Write,w
  3581  0B4B  0086               	movwf	6
  3582  0B4C  0187               	clrf	7
  3583  0B4D  0801               	movf	1,w
  3584  0B4E  009A               	movwf	26	;volatile
  3585                           
  3586                           ;final_3_dimer.c: 1373: *str2Write++;
  3587  0B4F  3001               	movlw	1
  3588  0B50  00F2               	movwf	??_writeUART
  3589  0B51  0872               	movf	??_writeUART,w
  3590  0B52  07F5               	addwf	writeUART@str2Write,f
  3591                           
  3592                           ;final_3_dimer.c: 1374: Tx_count++;
  3593  0B53  3001               	movlw	1
  3594  0B54  07F3               	addwf	writeUART@Tx_count,f
  3595  0B55  3000               	movlw	0
  3596  0B56  3DF4               	addwfc	writeUART@Tx_count+1,f
  3597  0B57  2B42               	goto	l8623
  3598  0B58                     __end_of_writeUART:	
  3599                           
  3600                           	psect	text16
  3601  06EF                     __ptext16:	
  3602 ;; *************** function _atoi *****************
  3603 ;; Defined at:
  3604 ;;		line 5 in file "C:\Program Files\Microchip\xc8\v1.45\sources\common\atoi.c"
  3605 ;; Parameters:    Size  Location     Type
  3606 ;;  s               1    wreg     PTR const unsigned char 
  3607 ;;		 -> ACTION@FanSpeedString(2), ACTION@SwNumString(2), 
  3608 ;; Auto vars:     Size  Location     Type
  3609 ;;  s               1    5[BANK0 ] PTR const unsigned char 
  3610 ;;		 -> ACTION@FanSpeedString(2), ACTION@SwNumString(2), 
  3611 ;;  a               2    3[BANK0 ] int 
  3612 ;;  sign            1    2[BANK0 ] unsigned char 
  3613 ;; Return value:  Size  Location     Type
  3614 ;;                  2    8[COMMON] int 
  3615 ;; Registers used:
  3616 ;;		wreg, fsr1l, fsr1h, status,2, status,0, pclath, cstack
  3617 ;; Tracked objects:
  3618 ;;		On entry : 0/0
  3619 ;;		On exit  : 0/0
  3620 ;;		Unchanged: 0/0
  3621 ;; Data sizes:     COMMON   BANK0   BANK1   BANK2   BANK3   BANK4   BANK5   BANK6   BANK7   BANK8   BANK9
  3622 ;;      Params:         2       0       0       0       0       0       0       0       0       0       0
  3623 ;;      Locals:         0       4       0       0       0       0       0       0       0       0       0
  3624 ;;      Temps:          0       2       0       0       0       0       0       0       0       0       0
  3625 ;;      Totals:         2       6       0       0       0       0       0       0       0       0       0
  3626 ;;Total ram usage:        8 bytes
  3627 ;; Hardware stack levels used:    1
  3628 ;; Hardware stack levels required when called:    2
  3629 ;; This function calls:
  3630 ;;		___wmul
  3631 ;;		_isdigit
  3632 ;; This function is called by:
  3633 ;;		_ACTION
  3634 ;; This function uses a non-reentrant model
  3635 ;;
  3636                           
  3637                           
  3638                           ;psect for function _atoi
  3639  06EF                     _atoi:	
  3640                           
  3641                           ;incstack = 0
  3642                           ; Regs used in _atoi: [wreg+fsr1l+fsr1h+status,2+status,0+pclath+cstack]
  3643                           ;atoi@s stored from wreg
  3644  06EF  0020               	movlb	0	; select bank0
  3645  06F0  00A5               	movwf	atoi@s
  3646  06F1                     l8629:	
  3647  06F1  0825               	movf	atoi@s,w
  3648  06F2  0086               	movwf	6
  3649  06F3  0187               	clrf	7
  3650  06F4  3020               	movlw	32
  3651  06F5  0601               	xorwf	1,w
  3652  06F6  1D03               	btfss	3,2
  3653  06F7  2EFD               	goto	l8631
  3654  06F8                     l8627:	
  3655  06F8  3001               	movlw	1
  3656  06F9  00A0               	movwf	??_atoi
  3657  06FA  0820               	movf	??_atoi,w
  3658  06FB  07A5               	addwf	atoi@s,f
  3659  06FC  2EF1               	goto	l8629
  3660  06FD                     l8631:	
  3661  06FD  0825               	movf	atoi@s,w
  3662  06FE  0086               	movwf	6
  3663  06FF  0187               	clrf	7
  3664  0700  3009               	movlw	9
  3665  0701  0601               	xorwf	1,w
  3666  0702  1903               	btfsc	3,2
  3667  0703  2EF8               	goto	l8627
  3668  0704  01A3               	clrf	atoi@a
  3669  0705  01A4               	clrf	atoi@a+1
  3670  0706  01A2               	clrf	atoi@sign
  3671  0707  0825               	movf	atoi@s,w
  3672  0708  0086               	movwf	6
  3673  0709  0187               	clrf	7
  3674  070A  302D               	movlw	45
  3675  070B  0601               	xorwf	1,w
  3676  070C  1D03               	btfss	3,2
  3677  070D  2F13               	goto	l8639
  3678  070E  3001               	movlw	1
  3679  070F  00A0               	movwf	??_atoi
  3680  0710  0820               	movf	??_atoi,w
  3681  0711  07A2               	addwf	atoi@sign,f
  3682  0712  2F1A               	goto	l8645
  3683  0713                     l8639:	
  3684  0713  0825               	movf	atoi@s,w
  3685  0714  0086               	movwf	6
  3686  0715  0187               	clrf	7
  3687  0716  302B               	movlw	43
  3688  0717  0601               	xorwf	1,w
  3689  0718  1D03               	btfss	3,2
  3690  0719  2F1E               	goto	l8647
  3691  071A                     l8645:	
  3692  071A  3001               	movlw	1
  3693  071B  00A0               	movwf	??_atoi
  3694  071C  0820               	movf	??_atoi,w
  3695  071D  07A5               	addwf	atoi@s,f
  3696  071E                     l8647:	
  3697  071E  0825               	movf	atoi@s,w
  3698  071F  0086               	movwf	6
  3699  0720  0187               	clrf	7
  3700  0721  0801               	movf	1,w
  3701  0722  318A  22B4  3186   	fcall	_isdigit
  3702  0725  1C03               	btfss	3,0
  3703  0726  2F45               	goto	l8649
  3704  0727  0020               	movlb	0	; select bank0
  3705  0728  0824               	movf	atoi@a+1,w
  3706  0729  00F3               	movwf	___wmul@multiplier+1
  3707  072A  0823               	movf	atoi@a,w
  3708  072B  00F2               	movwf	___wmul@multiplier
  3709  072C  300A               	movlw	10
  3710  072D  00F4               	movwf	___wmul@multiplicand
  3711  072E  3000               	movlw	0
  3712  072F  00F5               	movwf	___wmul@multiplicand+1
  3713  0730  318B  2358  3186   	fcall	___wmul
  3714  0733  0020               	movlb	0	; select bank0
  3715  0734  0825               	movf	atoi@s,w
  3716  0735  0086               	movwf	6
  3717  0736  0187               	clrf	7
  3718  0737  0801               	movf	1,w
  3719  0738  0772               	addwf	?___wmul,w
  3720  0739  00A0               	movwf	??_atoi
  3721  073A  0873               	movf	?___wmul+1,w
  3722  073B  1803               	skipnc
  3723  073C  0A73               	incf	?___wmul+1,w
  3724  073D  00A1               	movwf	??_atoi+1
  3725  073E  0820               	movf	??_atoi,w
  3726  073F  3ED0               	addlw	208
  3727  0740  00A3               	movwf	atoi@a
  3728  0741  30FF               	movlw	255
  3729  0742  3D21               	addwfc	??_atoi+1,w
  3730  0743  00A4               	movwf	atoi@a+1
  3731  0744  2F1A               	goto	l8645
  3732  0745                     l8649:	
  3733  0745  0020               	movlb	0	; select bank0
  3734  0746  0822               	movf	atoi@sign,w
  3735  0747  1903               	btfsc	3,2
  3736  0748  2F55               	goto	l8655
  3737  0749  0923               	comf	atoi@a,w
  3738  074A  00A0               	movwf	??_atoi
  3739  074B  0924               	comf	atoi@a+1,w
  3740  074C  00A1               	movwf	??_atoi+1
  3741  074D  0AA0               	incf	??_atoi,f
  3742  074E  1903               	skipnz
  3743  074F  0AA1               	incf	??_atoi+1,f
  3744  0750  0820               	movf	??_atoi,w
  3745  0751  00F8               	movwf	?_atoi
  3746  0752  0821               	movf	??_atoi+1,w
  3747  0753  00F9               	movwf	?_atoi+1
  3748  0754  0008               	return
  3749  0755                     l8655:	
  3750  0755  0824               	movf	atoi@a+1,w
  3751  0756  00F9               	movwf	?_atoi+1
  3752  0757  0823               	movf	atoi@a,w
  3753  0758  00F8               	movwf	?_atoi
  3754  0759  0008               	return
  3755  075A                     __end_of_atoi:	
  3756                           
  3757                           	psect	text17
  3758  0AB4                     __ptext17:	
  3759 ;; *************** function _isdigit *****************
  3760 ;; Defined at:
  3761 ;;		line 8 in file "C:\Program Files\Microchip\xc8\v1.45\sources\common\isdigit.c"
  3762 ;; Parameters:    Size  Location     Type
  3763 ;;  c               1    wreg     unsigned char 
  3764 ;; Auto vars:     Size  Location     Type
  3765 ;;  c               1    3[COMMON] unsigned char 
  3766 ;; Return value:  Size  Location     Type
  3767 ;;		None               void
  3768 ;; Registers used:
  3769 ;;		wreg, status,2, status,0
  3770 ;; Tracked objects:
  3771 ;;		On entry : 0/0
  3772 ;;		On exit  : 0/0
  3773 ;;		Unchanged: 0/0
  3774 ;; Data sizes:     COMMON   BANK0   BANK1   BANK2   BANK3   BANK4   BANK5   BANK6   BANK7   BANK8   BANK9
  3775 ;;      Params:         0       0       0       0       0       0       0       0       0       0       0
  3776 ;;      Locals:         2       0       0       0       0       0       0       0       0       0       0
  3777 ;;      Temps:          0       0       0       0       0       0       0       0       0       0       0
  3778 ;;      Totals:         2       0       0       0       0       0       0       0       0       0       0
  3779 ;;Total ram usage:        2 bytes
  3780 ;; Hardware stack levels used:    1
  3781 ;; Hardware stack levels required when called:    1
  3782 ;; This function calls:
  3783 ;;		Nothing
  3784 ;; This function is called by:
  3785 ;;		_atoi
  3786 ;; This function uses a non-reentrant model
  3787 ;;
  3788                           
  3789                           
  3790                           ;psect for function _isdigit
  3791  0AB4                     _isdigit:	
  3792                           
  3793                           ;incstack = 0
  3794                           ; Regs used in _isdigit: [wreg+status,2+status,0]
  3795                           ;isdigit@c stored from wreg
  3796  0AB4  00F3               	movwf	isdigit@c
  3797  0AB5  01F2               	clrf	_isdigit$972
  3798  0AB6  303A               	movlw	58
  3799  0AB7  0273               	subwf	isdigit@c,w
  3800  0AB8  1803               	skipnc
  3801  0AB9  2AC0               	goto	l8513
  3802  0ABA  3030               	movlw	48
  3803  0ABB  0273               	subwf	isdigit@c,w
  3804  0ABC  1C03               	skipc
  3805  0ABD  2AC0               	goto	l8513
  3806  0ABE  01F2               	clrf	_isdigit$972
  3807  0ABF  0AF2               	incf	_isdigit$972,f
  3808  0AC0                     l8513:	
  3809  0AC0  0C72               	rrf	_isdigit$972,w
  3810  0AC1  0008               	return
  3811  0AC2                     __end_of_isdigit:	
  3812                           
  3813                           	psect	text18
  3814  0B58                     __ptext18:	
  3815 ;; *************** function ___wmul *****************
  3816 ;; Defined at:
  3817 ;;		line 15 in file "C:\Program Files\Microchip\xc8\v1.45\sources\common\Umul16.c"
  3818 ;; Parameters:    Size  Location     Type
  3819 ;;  multiplier      2    2[COMMON] unsigned int 
  3820 ;;  multiplicand    2    4[COMMON] unsigned int 
  3821 ;; Auto vars:     Size  Location     Type
  3822 ;;  product         2    6[COMMON] unsigned int 
  3823 ;; Return value:  Size  Location     Type
  3824 ;;                  2    2[COMMON] unsigned int 
  3825 ;; Registers used:
  3826 ;;		wreg, status,2, status,0
  3827 ;; Tracked objects:
  3828 ;;		On entry : 0/0
  3829 ;;		On exit  : 0/0
  3830 ;;		Unchanged: 0/0
  3831 ;; Data sizes:     COMMON   BANK0   BANK1   BANK2   BANK3   BANK4   BANK5   BANK6   BANK7   BANK8   BANK9
  3832 ;;      Params:         4       0       0       0       0       0       0       0       0       0       0
  3833 ;;      Locals:         2       0       0       0       0       0       0       0       0       0       0
  3834 ;;      Temps:          0       0       0       0       0       0       0       0       0       0       0
  3835 ;;      Totals:         6       0       0       0       0       0       0       0       0       0       0
  3836 ;;Total ram usage:        6 bytes
  3837 ;; Hardware stack levels used:    1
  3838 ;; Hardware stack levels required when called:    1
  3839 ;; This function calls:
  3840 ;;		Nothing
  3841 ;; This function is called by:
  3842 ;;		_atoi
  3843 ;; This function uses a non-reentrant model
  3844 ;;
  3845                           
  3846                           
  3847                           ;psect for function ___wmul
  3848  0B58                     ___wmul:	
  3849                           
  3850                           ;incstack = 0
  3851                           ; Regs used in ___wmul: [wreg+status,2+status,0]
  3852  0B58  01F6               	clrf	___wmul@product
  3853  0B59  01F7               	clrf	___wmul@product+1
  3854  0B5A                     l8493:	
  3855  0B5A  1C72               	btfss	___wmul@multiplier,0
  3856  0B5B  2B60               	goto	l815
  3857  0B5C  0874               	movf	___wmul@multiplicand,w
  3858  0B5D  07F6               	addwf	___wmul@product,f
  3859  0B5E  0875               	movf	___wmul@multiplicand+1,w
  3860  0B5F  3DF7               	addwfc	___wmul@product+1,f
  3861  0B60                     l815:	
  3862  0B60  3001               	movlw	1
  3863  0B61                     u2205:	
  3864  0B61  35F4               	lslf	___wmul@multiplicand,f
  3865  0B62  0DF5               	rlf	___wmul@multiplicand+1,f
  3866  0B63  0B89               	decfsz	9,f
  3867  0B64  2B61               	goto	u2205
  3868  0B65  3001               	movlw	1
  3869  0B66                     u2215:	
  3870  0B66  36F3               	lsrf	___wmul@multiplier+1,f
  3871  0B67  0CF2               	rrf	___wmul@multiplier,f
  3872  0B68  0B89               	decfsz	9,f
  3873  0B69  2B66               	goto	u2215
  3874  0B6A  0872               	movf	___wmul@multiplier,w
  3875  0B6B  0473               	iorwf	___wmul@multiplier+1,w
  3876  0B6C  1D03               	btfss	3,2
  3877  0B6D  2B5A               	goto	l8493
  3878  0B6E  0877               	movf	___wmul@product+1,w
  3879  0B6F  00F3               	movwf	?___wmul+1
  3880  0B70  0876               	movf	___wmul@product,w
  3881  0B71  00F2               	movwf	?___wmul
  3882  0B72  0008               	return
  3883  0B73                     __end_of___wmul:	
  3884                           
  3885                           	psect	intentry
  3886  0004                     __pintentry:	
  3887 ;; *************** function _isr *****************
  3888 ;; Defined at:
  3889 ;;		line 75 in file "final_3_dimer.c"
  3890 ;; Parameters:    Size  Location     Type
  3891 ;;		None
  3892 ;; Auto vars:     Size  Location     Type
  3893 ;;		None
  3894 ;; Return value:  Size  Location     Type
  3895 ;;                  1    wreg      void 
  3896 ;; Registers used:
  3897 ;;		wreg, fsr0l, fsr0h, fsr1l, fsr1h, status,2, status,0
  3898 ;; Tracked objects:
  3899 ;;		On entry : 0/0
  3900 ;;		On exit  : 0/0
  3901 ;;		Unchanged: 0/0
  3902 ;; Data sizes:     COMMON   BANK0   BANK1   BANK2   BANK3   BANK4   BANK5   BANK6   BANK7   BANK8   BANK9
  3903 ;;      Params:         0       0       0       0       0       0       0       0       0       0       0
  3904 ;;      Locals:         0       0       0       0       0       0       0       0       0       0       0
  3905 ;;      Temps:          2       0       0       0       0       0       0       0       0       0       0
  3906 ;;      Totals:         2       0       0       0       0       0       0       0       0       0       0
  3907 ;;Total ram usage:        2 bytes
  3908 ;; Hardware stack levels used:    1
  3909 ;; This function calls:
  3910 ;;		Nothing
  3911 ;; This function is called by:
  3912 ;;		Interrupt level 1
  3913 ;; This function uses a non-reentrant model
  3914 ;;
  3915                           
  3916  0004                     _isr:	
  3917                           
  3918                           ;incstack = 0
  3919  0004  147E               	bsf	126,0	;set compiler interrupt flag (level 1)
  3920                           
  3921                           ; Regs used in _isr: [wreg-fsr1h+status,2+status,0]
  3922  0005  3180               	pagesel	$
  3923  0006  0020               	movlb	0	; select bank0
  3924  0007  087F               	movf	127,w
  3925  0008  00F1               	movwf	??_isr+1
  3926                           
  3927                           ;final_3_dimer.c: 79: if(RCIF == 1)
  3928  0009  1E91               	btfss	17,5	;volatile
  3929  000A  285B               	goto	i1l5203
  3930                           
  3931                           ;final_3_dimer.c: 80: {
  3932                           ;final_3_dimer.c: 81: if(RC1STAbits.OERR)
  3933  000B  0023               	movlb	3	; select bank3
  3934  000C  1C9D               	btfss	29,1	;volatile
  3935  000D  2819               	goto	i1l5183
  3936                           
  3937                           ;final_3_dimer.c: 82: {
  3938                           ;final_3_dimer.c: 83: RC1STAbits.CREN = 0;
  3939  000E  121D               	bcf	29,4	;volatile
  3940                           
  3941                           ;final_3_dimer.c: 84: RC1STAbits.CREN = 1;
  3942  000F  161D               	bsf	29,4	;volatile
  3943  0010                     i1l241:	
  3944                           ;final_3_dimer.c: 86: while(PIR1bits.TXIF==0);
  3945                           
  3946  0010  0020               	movlb	0	; select bank0
  3947  0011  1E11               	btfss	17,4	;volatile
  3948  0012  2810               	goto	i1l241
  3949                           
  3950                           ;final_3_dimer.c: 87: TX1REG='F';
  3951  0013  3046               	movlw	70
  3952  0014  0023               	movlb	3	; select bank3
  3953  0015  009A               	movwf	26	;volatile
  3954  0016                     i1l244:	
  3955                           ;final_3_dimer.c: 88: while(PIR1bits.TXIF==0);
  3956                           
  3957  0016  0020               	movlb	0	; select bank0
  3958  0017  1E11               	btfss	17,4	;volatile
  3959  0018  2816               	goto	i1l244
  3960  0019                     i1l5183:	
  3961                           
  3962                           ;final_3_dimer.c: 90: }
  3963                           ;final_3_dimer.c: 91: name[i]=RC1REG;
  3964  0019  0023               	movlb	3	; select bank3
  3965  001A  0819               	movf	25,w	;volatile
  3966  001B  00F0               	movwf	??_isr
  3967  001C  0020               	movlb	0	; select bank0
  3968  001D  085B               	movf	_i,w
  3969  001E  3E44               	addlw	(low (_name| (0+256)))& (0+255)
  3970  001F  0086               	movwf	6
  3971  0020  3001               	movlw	1	; select bank2/3
  3972  0021  0087               	movwf	7
  3973  0022  0870               	movf	??_isr,w
  3974  0023  0081               	movwf	1
  3975                           
  3976                           ;final_3_dimer.c: 92: if(name[0]=='%')
  3977  0024  3025               	movlw	37
  3978  0025  0022               	movlb	2	; select bank2
  3979  0026  0644               	xorwf	_name^(0+256),w
  3980  0027  1D03               	btfss	3,2
  3981  0028  2844               	goto	i1l247
  3982                           
  3983                           ;final_3_dimer.c: 93: {
  3984                           ;final_3_dimer.c: 94: i++;
  3985  0029  3001               	movlw	1
  3986  002A  0020               	movlb	0	; select bank0
  3987  002B  07DB               	addwf	_i,f
  3988  002C  3000               	movlw	0
  3989  002D  3DDC               	addwfc	_i+1,f
  3990                           
  3991                           ;final_3_dimer.c: 95: if(i>15)
  3992  002E  085C               	movf	_i+1,w
  3993  002F  3A80               	xorlw	128
  3994  0030  00F0               	movwf	??_isr
  3995  0031  3080               	movlw	128
  3996  0032  0270               	subwf	??_isr,w
  3997  0033  1D03               	skipz
  3998  0034  2837               	goto	u144_25
  3999  0035  3010               	movlw	16
  4000  0036  025B               	subwf	_i,w
  4001  0037                     u144_25:	
  4002  0037  1C03               	skipc
  4003  0038  285B               	goto	i1l5203
  4004                           
  4005                           ;final_3_dimer.c: 96: {
  4006                           ;final_3_dimer.c: 97: i=0;
  4007  0039  0020               	movlb	0	; select bank0
  4008  003A  01DB               	clrf	_i
  4009  003B  01DC               	clrf	_i+1
  4010                           
  4011                           ;final_3_dimer.c: 98: TX_FLAG = 1;
  4012  003C  3001               	movlw	1
  4013  003D  0021               	movlb	1	; select bank1
  4014  003E  00D9               	movwf	_TX_FLAG^(0+128)
  4015  003F  3000               	movlw	0
  4016  0040  00DA               	movwf	(_TX_FLAG^(0+128)+1)
  4017                           
  4018                           ;final_3_dimer.c: 99: RCIF=0;
  4019  0041  0020               	movlb	0	; select bank0
  4020  0042  1291               	bcf	17,5	;volatile
  4021                           
  4022                           ;final_3_dimer.c: 100: }
  4023                           ;final_3_dimer.c: 101: }
  4024  0043  285B               	goto	i1l5203
  4025  0044                     i1l247:	
  4026                           
  4027                           ;final_3_dimer.c: 102: else
  4028                           ;final_3_dimer.c: 103: {
  4029                           ;final_3_dimer.c: 104: RC1STAbits.CREN = 0;
  4030  0044  0023               	movlb	3	; select bank3
  4031  0045  121D               	bcf	29,4	;volatile
  4032                           
  4033                           ;final_3_dimer.c: 105: RC1STAbits.CREN = 1;
  4034  0046  161D               	bsf	29,4	;volatile
  4035                           
  4036                           ;final_3_dimer.c: 107: i=0;
  4037  0047  0020               	movlb	0	; select bank0
  4038  0048  01DB               	clrf	_i
  4039  0049  01DC               	clrf	_i+1
  4040  004A                     i1l250:	
  4041                           ;final_3_dimer.c: 108: while(PIR1bits.TXIF==0);
  4042                           
  4043  004A  1E11               	btfss	17,4	;volatile
  4044  004B  284A               	goto	i1l250
  4045                           
  4046                           ;final_3_dimer.c: 109: TX1REG='F';
  4047  004C  3046               	movlw	70
  4048  004D  0023               	movlb	3	; select bank3
  4049  004E  009A               	movwf	26	;volatile
  4050  004F                     i1l253:	
  4051                           ;final_3_dimer.c: 110: while(PIR1bits.TXIF==0);
  4052                           
  4053  004F  0020               	movlb	0	; select bank0
  4054  0050  1E11               	btfss	17,4	;volatile
  4055  0051  284F               	goto	i1l253
  4056                           
  4057                           ;final_3_dimer.c: 111: TX1REG='R';
  4058  0052  3052               	movlw	82
  4059  0053  0023               	movlb	3	; select bank3
  4060  0054  009A               	movwf	26	;volatile
  4061  0055                     i1l256:	
  4062                           ;final_3_dimer.c: 112: while(PIR1bits.TXIF==0);
  4063                           
  4064  0055  0020               	movlb	0	; select bank0
  4065  0056  1E11               	btfss	17,4	;volatile
  4066  0057  2855               	goto	i1l256
  4067                           
  4068                           ;final_3_dimer.c: 113: TX1REG='R';
  4069  0058  3052               	movlw	82
  4070  0059  0023               	movlb	3	; select bank3
  4071  005A  009A               	movwf	26	;volatile
  4072  005B                     i1l5203:	
  4073                           
  4074                           ;final_3_dimer.c: 114: }
  4075                           ;final_3_dimer.c: 115: }
  4076                           ;final_3_dimer.c: 118: if(PIE1bits.TMR2IE==1 && PIR1bits.TMR2IF==1)
  4077  005B  0021               	movlb	1	; select bank1
  4078  005C  1C91               	btfss	17,1	;volatile
  4079  005D  2864               	goto	i1l259
  4080  005E  0020               	movlb	0	; select bank0
  4081  005F  1C91               	btfss	17,1	;volatile
  4082  0060  2864               	goto	i1l259
  4083                           
  4084                           ;final_3_dimer.c: 119: {
  4085                           ;final_3_dimer.c: 120: PIR1bits.TMR2IF=0;
  4086  0061  1091               	bcf	17,1	;volatile
  4087                           
  4088                           ;final_3_dimer.c: 121: RE5=1;
  4089  0062  1690               	bsf	16,5	;volatile
  4090                           
  4091                           ;final_3_dimer.c: 122: T2CONbits.TMR2ON=0;
  4092  0063  111C               	bcf	28,2	;volatile
  4093  0064                     i1l259:	
  4094                           
  4095                           ;final_3_dimer.c: 123: }
  4096                           ;final_3_dimer.c: 125: if(PIE1bits.TMR1IE == 1 && PIR1bits.TMR1IF==1)
  4097  0064  0021               	movlb	1	; select bank1
  4098  0065  1C11               	btfss	17,0	;volatile
  4099  0066  2870               	goto	i1l5217
  4100  0067  0020               	movlb	0	; select bank0
  4101  0068  1C11               	btfss	17,0	;volatile
  4102  0069  2870               	goto	i1l5217
  4103                           
  4104                           ;final_3_dimer.c: 126: {
  4105                           ;final_3_dimer.c: 127: PIR1bits.TMR1IF=0;
  4106  006A  1011               	bcf	17,0	;volatile
  4107                           
  4108                           ;final_3_dimer.c: 128: T1CONbits.TMR1ON = 0;
  4109  006B  1018               	bcf	24,0	;volatile
  4110                           
  4111                           ;final_3_dimer.c: 129: RE5=0;
  4112  006C  1290               	bcf	16,5	;volatile
  4113                           
  4114                           ;final_3_dimer.c: 130: PR2=0x9F;
  4115  006D  309F               	movlw	159
  4116  006E  009B               	movwf	27	;volatile
  4117                           
  4118                           ;final_3_dimer.c: 131: T2CONbits.TMR2ON=1;
  4119  006F  151C               	bsf	28,2	;volatile
  4120  0070                     i1l5217:	
  4121                           
  4122                           ;final_3_dimer.c: 133: }
  4123                           ;final_3_dimer.c: 137: if(PIE3bits.TMR4IE==1 && PIR3bits.TMR4IF==1)
  4124  0070  0021               	movlb	1	; select bank1
  4125  0071  1C93               	btfss	19,1	;volatile
  4126  0072  287A               	goto	i1l261
  4127  0073  0020               	movlb	0	; select bank0
  4128  0074  1C93               	btfss	19,1	;volatile
  4129  0075  287A               	goto	i1l261
  4130                           
  4131                           ;final_3_dimer.c: 138: {
  4132                           ;final_3_dimer.c: 139: PIR3bits.TMR4IF=0;
  4133  0076  1093               	bcf	19,1	;volatile
  4134                           
  4135                           ;final_3_dimer.c: 140: RA3=1;
  4136  0077  158C               	bsf	12,3	;volatile
  4137                           
  4138                           ;final_3_dimer.c: 141: T4CONbits.TMR4ON=0;
  4139  0078  0028               	movlb	8	; select bank8
  4140  0079  1117               	bcf	23,2	;volatile
  4141  007A                     i1l261:	
  4142                           
  4143                           ;final_3_dimer.c: 143: }
  4144                           ;final_3_dimer.c: 145: if(PIE3bits.TMR3IE == 1 && PIR3bits.TMR3IF==1)
  4145  007A  0021               	movlb	1	; select bank1
  4146  007B  1C13               	btfss	19,0	;volatile
  4147  007C  2887               	goto	i1l5233
  4148  007D  0020               	movlb	0	; select bank0
  4149  007E  1C13               	btfss	19,0	;volatile
  4150  007F  2887               	goto	i1l5233
  4151                           
  4152                           ;final_3_dimer.c: 146: {
  4153                           ;final_3_dimer.c: 147: PIR3bits.TMR3IF=0;
  4154  0080  1013               	bcf	19,0	;volatile
  4155                           
  4156                           ;final_3_dimer.c: 149: RA3=0;
  4157  0081  118C               	bcf	12,3	;volatile
  4158                           
  4159                           ;final_3_dimer.c: 150: PR4=0x9F;
  4160  0082  309F               	movlw	159
  4161  0083  0028               	movlb	8	; select bank8
  4162  0084  0096               	movwf	22	;volatile
  4163                           
  4164                           ;final_3_dimer.c: 152: T4CONbits.TMR4ON=1;
  4165  0085  1517               	bsf	23,2	;volatile
  4166                           
  4167                           ;final_3_dimer.c: 153: T3CONbits.TMR3ON = 0;
  4168  0086  1013               	bcf	19,0	;volatile
  4169  0087                     i1l5233:	
  4170                           
  4171                           ;final_3_dimer.c: 154: }
  4172                           ;final_3_dimer.c: 158: if(PIE3bits.TMR6IE == 1 && PIR3bits.TMR6IF == 1)
  4173  0087  0021               	movlb	1	; select bank1
  4174  0088  1D93               	btfss	19,3	;volatile
  4175  0089  2891               	goto	i1l263
  4176  008A  0020               	movlb	0	; select bank0
  4177  008B  1D93               	btfss	19,3	;volatile
  4178  008C  2891               	goto	i1l263
  4179                           
  4180                           ;final_3_dimer.c: 159: {
  4181                           ;final_3_dimer.c: 160: PIR3bits.TMR6IF=0;
  4182  008D  1193               	bcf	19,3	;volatile
  4183                           
  4184                           ;final_3_dimer.c: 161: RA2=1;
  4185  008E  150C               	bsf	12,2	;volatile
  4186                           
  4187                           ;final_3_dimer.c: 162: T6CONbits.TMR6ON=0;
  4188  008F  0028               	movlb	8	; select bank8
  4189  0090  111E               	bcf	30,2	;volatile
  4190  0091                     i1l263:	
  4191                           
  4192                           ;final_3_dimer.c: 163: }
  4193                           ;final_3_dimer.c: 165: if(PIE3bits.TMR5IE == 1 && PIR3bits.TMR5IF==1)
  4194  0091  0021               	movlb	1	; select bank1
  4195  0092  1D13               	btfss	19,2	;volatile
  4196  0093  289E               	goto	i1l5249
  4197  0094  0020               	movlb	0	; select bank0
  4198  0095  1D13               	btfss	19,2	;volatile
  4199  0096  289E               	goto	i1l5249
  4200                           
  4201                           ;final_3_dimer.c: 166: {
  4202                           ;final_3_dimer.c: 167: PIR3bits.TMR5IF=0;
  4203  0097  1113               	bcf	19,2	;volatile
  4204                           
  4205                           ;final_3_dimer.c: 168: RA2=0;
  4206  0098  110C               	bcf	12,2	;volatile
  4207                           
  4208                           ;final_3_dimer.c: 169: PR6=0x9F;
  4209  0099  309F               	movlw	159
  4210  009A  0028               	movlb	8	; select bank8
  4211  009B  009D               	movwf	29	;volatile
  4212                           
  4213                           ;final_3_dimer.c: 170: T6CONbits.TMR6ON=1;
  4214  009C  151E               	bsf	30,2	;volatile
  4215                           
  4216                           ;final_3_dimer.c: 171: T5CONbits.TMR5ON=0;
  4217  009D  101A               	bcf	26,0	;volatile
  4218  009E                     i1l5249:	
  4219                           
  4220                           ;final_3_dimer.c: 172: }
  4221                           ;final_3_dimer.c: 175: if(PIR1bits.CCP1IF==1 || PIR3bits.CCP3IF == 1 || PIR4bits.CCP9IF=
      +                          =1)
  4222  009E  0020               	movlb	0	; select bank0
  4223  009F  1D11               	btfss	17,2	;volatile
  4224  00A0  1A13               	btfsc	19,4	;volatile
  4225  00A1  28A4               	goto	i1l267
  4226  00A2  1F14               	btfss	20,6	;volatile
  4227  00A3  2EB4               	goto	i1l703
  4228  00A4                     i1l267:	
  4229                           
  4230                           ;final_3_dimer.c: 176: {
  4231                           ;final_3_dimer.c: 177: if(PIR1bits.CCP1IF == 1)
  4232  00A4  1D11               	btfss	17,2	;volatile
  4233  00A5  2A8D               	goto	i1l268
  4234                           
  4235                           ;final_3_dimer.c: 178: {
  4236                           ;final_3_dimer.c: 179: PIR1bits.CCP1IF = 0;
  4237  00A6  1111               	bcf	17,2	;volatile
  4238                           
  4239                           ;final_3_dimer.c: 181: if(FAN_FLAG1==1 && pk==1)
  4240  00A7  0021               	movlb	1	; select bank1
  4241  00A8  0357               	decf	_FAN_FLAG1^(0+128),w
  4242  00A9  0458               	iorwf	(_FAN_FLAG1+1)^(0+128),w
  4243  00AA  1D03               	btfss	3,2
  4244  00AB  2A8B               	goto	i1l269
  4245  00AC  0020               	movlb	0	; select bank0
  4246  00AD  0359               	decf	_pk,w
  4247  00AE  045A               	iorwf	_pk+1,w
  4248  00AF  1903               	btfsc	3,2
  4249  00B0  2A79               	goto	i1l5715
  4250  00B1  2A8B               	goto	i1l269
  4251  00B2                     i1l5263:	
  4252                           ;final_3_dimer.c: 187: {
  4253                           ;final_3_dimer.c: 188: case '0':
  4254                           
  4255                           ;final_3_dimer.c: 186: switch(FAN_SPEED1_1s)
  4256                           
  4257                           ;final_3_dimer.c: 184: {
  4258                           ;final_3_dimer.c: 185: case '0':
  4259                           
  4260                           ;final_3_dimer.c: 182: {
  4261                           ;final_3_dimer.c: 183: switch(FAN_SPEED1_10s)
  4262                           
  4263                           
  4264                           ;final_3_dimer.c: 189: TMR1H=0x7B; TMR1L=0x30; T1CONbits.TMR1ON = 1; break;
  4265  00B2  307B               	movlw	123
  4266  00B3  2A55               	goto	L50
  4267  00B4                     i1l5267:	
  4268                           ;final_3_dimer.c: 190: case '1':
  4269                           
  4270                           
  4271                           ;final_3_dimer.c: 191: TMR1H=0x7C; TMR1L=0xC0; T1CONbits.TMR1ON = 1; break;
  4272  00B4  307C               	movlw	124
  4273  00B5  2A59               	goto	L51
  4274  00B6                     i1l5271:	
  4275                           ;final_3_dimer.c: 192: case '2':
  4276                           
  4277                           
  4278                           ;final_3_dimer.c: 193: TMR1H=0x7D; TMR1L=0x88; T1CONbits.TMR1ON = 1; break;
  4279  00B6  307D               	movlw	125
  4280  00B7  0097               	movwf	23	;volatile
  4281  00B8  3088               	movlw	136
  4282  00B9  2A63               	goto	L4
  4283  00BA                     i1l5275:	
  4284                           ;final_3_dimer.c: 194: case '3':
  4285                           
  4286                           
  4287                           ;final_3_dimer.c: 195: TMR1H=0x7F; TMR1L=0x18; T1CONbits.TMR1ON = 1; break;
  4288  00BA  307F               	movlw	127
  4289  00BB  0097               	movwf	23	;volatile
  4290  00BC  3018               	movlw	24
  4291  00BD  2A63               	goto	L4
  4292  00BE                     i1l5279:	
  4293                           ;final_3_dimer.c: 196: case '4':
  4294                           
  4295                           
  4296                           ;final_3_dimer.c: 197: TMR1H=0x80; TMR1L=0xA8; T1CONbits.TMR1ON = 1; break;
  4297  00BE  3080               	movlw	128
  4298  00BF  2A06               	goto	L147
  4299  00C0                     i1l5283:	
  4300                           ;final_3_dimer.c: 198: case '5':
  4301                           
  4302                           
  4303                           ;final_3_dimer.c: 199: TMR1H=0x81; TMR1L=0x70; T1CONbits.TMR1ON = 1; break;
  4304  00C0  3081               	movlw	129
  4305  00C1  2A0A               	goto	L38
  4306  00C2                     i1l5287:	
  4307                           ;final_3_dimer.c: 200: case '6':
  4308                           
  4309                           
  4310                           ;final_3_dimer.c: 201: TMR1H=0x83; TMR1L=0x00; T1CONbits.TMR1ON = 1; break;
  4311  00C2  3083               	movlw	131
  4312  00C3  2A12               	goto	L39
  4313  00C4                     i1l5293:	
  4314                           ;final_3_dimer.c: 202: case '7':
  4315                           
  4316                           
  4317                           ;final_3_dimer.c: 203: TMR1H=0x83; TMR1L=0xC8; T1CONbits.TMR1ON = 1; break;
  4318  00C4  3083               	movlw	131
  4319  00C5  0097               	movwf	23	;volatile
  4320  00C6  30C8               	movlw	200
  4321  00C7  2A63               	goto	L4
  4322  00C8                     i1l5297:	
  4323                           ;final_3_dimer.c: 204: case '8':
  4324                           
  4325  00C8  28E6               	goto	i1l5317
  4326  00C9                     i1l5301:	
  4327                           ;final_3_dimer.c: 206: case '9':
  4328                           
  4329                           ;final_3_dimer.c: 205: TMR1H=0x87; TMR1L=0xB0; T1CONbits.TMR1ON = 1; break;
  4330                           
  4331                           
  4332                           ;final_3_dimer.c: 207: TMR1H=0x85; TMR1L=0x58; T1CONbits.TMR1ON = 1; break;
  4333  00C9  3085               	movlw	133
  4334  00CA  0097               	movwf	23	;volatile
  4335  00CB  3058               	movlw	88
  4336  00CC  2A63               	goto	L4
  4337  00CD                     i1l5307:	
  4338                           ;final_3_dimer.c: 210: }
  4339                           
  4340                           ;final_3_dimer.c: 209: break;
  4341                           
  4342                           ;final_3_dimer.c: 208: default:
  4343                           
  4344                           
  4345                           ; Switch on 2 bytes has been partitioned into a top level switch of size 1, and 1 sub-sw
      +                          itches
  4346                           ; Switch size 1, requested type "space"
  4347                           ; Number of cases is 1, Range of values is 0 to 0
  4348                           ; switch strategies available:
  4349                           ; Name         Instructions Cycles
  4350                           ; simple_byte            4     3 (average)
  4351                           ; direct_byte            8     6 (fixed)
  4352                           ; jumptable            260     6 (fixed)
  4353                           ;	Chosen strategy is simple_byte
  4354  00CD  0852               	movf	_FAN_SPEED1_1s+1,w
  4355  00CE  3A00               	xorlw	0	; case 0
  4356  00CF  1903               	skipnz
  4357  00D0  28D2               	goto	i1l10403
  4358  00D1  2A8B               	goto	i1l269
  4359  00D2                     i1l10403:	
  4360                           
  4361                           ; Switch size 1, requested type "space"
  4362                           ; Number of cases is 10, Range of values is 48 to 57
  4363                           ; switch strategies available:
  4364                           ; Name         Instructions Cycles
  4365                           ; direct_byte           29     9 (fixed)
  4366                           ; simple_byte           31    16 (average)
  4367                           ; jumptable            263     9 (fixed)
  4368                           ;	Chosen strategy is direct_byte
  4369  00D2  0851               	movf	_FAN_SPEED1_1s,w
  4370  00D3  3ED0               	addlw	-48
  4371  00D4  1C03               	skipc
  4372  00D5  2A8B               	goto	i1l269
  4373  00D6  0084               	movwf	4
  4374  00D7  300A               	movlw	10
  4375  00D8  0204               	subwf	4,w
  4376  00D9  1803               	skipnc
  4377  00DA  2A8B               	goto	i1l269
  4378  00DB  3188               	movlp	high i1S10405
  4379  00DC  3504               	lslf	4,w
  4380  00DD  3E00               	addlw	low i1S10405
  4381  00DE  0082               	movwf	2
  4382                           
  4383                           ;final_3_dimer.c: 211: break;
  4384  00DF  2A8B               	goto	i1l269
  4385  00E0                     i1l5309:	
  4386                           ;final_3_dimer.c: 215: {
  4387                           ;final_3_dimer.c: 216: case '0':
  4388                           
  4389                           ;final_3_dimer.c: 214: switch(FAN_SPEED1_1s)
  4390                           
  4391                           ;final_3_dimer.c: 212: case '1':
  4392                           
  4393                           
  4394                           ;final_3_dimer.c: 217: TMR1H=0x86; TMR1L=0x20; T1CONbits.TMR1ON = 1; break;
  4395  00E0  3086               	movlw	134
  4396  00E1  2A1A               	goto	L41
  4397  00E2                     i1l5313:	
  4398                           ;final_3_dimer.c: 218: case '1':
  4399                           
  4400                           
  4401                           ;final_3_dimer.c: 219: TMR1H=0x86; TMR1L=0xE8; T1CONbits.TMR1ON = 1; break;
  4402  00E2  3086               	movlw	134
  4403  00E3  0097               	movwf	23	;volatile
  4404  00E4  30E8               	movlw	232
  4405  00E5  2A63               	goto	L4
  4406  00E6                     i1l5317:	
  4407                           ;final_3_dimer.c: 220: case '2':
  4408                           
  4409                           
  4410                           ;final_3_dimer.c: 221: TMR1H=0x87; TMR1L=0xB0; T1CONbits.TMR1ON = 1; break;
  4411  00E6  3087               	movlw	135
  4412  00E7  2A1E               	goto	L42
  4413  00E8                     i1l5321:	
  4414                           ;final_3_dimer.c: 222: case '3':
  4415                           
  4416                           
  4417                           ;final_3_dimer.c: 223: TMR1H=0x88; TMR1L=0x78; T1CONbits.TMR1ON = 1; break;
  4418  00E8  3088               	movlw	136
  4419  00E9  2A22               	goto	L149
  4420  00EA                     i1l5325:	
  4421                           ;final_3_dimer.c: 224: case '4':
  4422                           
  4423                           
  4424                           ;final_3_dimer.c: 225: TMR1H=0x89; TMR1L=0x40; T1CONbits.TMR1ON = 1; break;
  4425  00EA  3089               	movlw	137
  4426  00EB  2A26               	goto	L43
  4427  00EC                     i1l5329:	
  4428                           ;final_3_dimer.c: 226: case '5':
  4429                           
  4430                           
  4431                           ;final_3_dimer.c: 227: TMR1H=0x8A; TMR1L=0x08; T1CONbits.TMR1ON = 1; break;
  4432  00EC  308A               	movlw	138
  4433  00ED  0097               	movwf	23	;volatile
  4434  00EE  3008               	movlw	8
  4435  00EF  2A63               	goto	L4
  4436  00F0                     i1l5333:	
  4437                           ;final_3_dimer.c: 228: case '6':
  4438                           
  4439                           
  4440                           ;final_3_dimer.c: 229: TMR1H=0x8A; TMR1L=0xD0; T1CONbits.TMR1ON = 1; break;
  4441  00F0  308A               	movlw	138
  4442  00F1  2A3D               	goto	L44
  4443  00F2                     i1l5337:	
  4444                           ;final_3_dimer.c: 230: case '7':
  4445                           
  4446                           
  4447                           ;final_3_dimer.c: 231: TMR1H=0x8B; TMR1L=0x98; T1CONbits.TMR1ON = 1; break;
  4448  00F2  308B               	movlw	139
  4449  00F3  0097               	movwf	23	;volatile
  4450  00F4  3098               	movlw	152
  4451  00F5  2A63               	goto	L4
  4452  00F6                     i1l5341:	
  4453                           ;final_3_dimer.c: 232: case '8':
  4454                           
  4455                           
  4456                           ;final_3_dimer.c: 233: TMR1H=0x8C; TMR1L=0x60; T1CONbits.TMR1ON = 1; break;
  4457  00F6  308C               	movlw	140
  4458  00F7  2A41               	goto	L45
  4459  00F8                     i1l5345:	
  4460                           ;final_3_dimer.c: 234: case '9':
  4461                           
  4462                           
  4463                           ;final_3_dimer.c: 235: TMR1H=0x8D; TMR1L=0x28; T1CONbits.TMR1ON = 1; break;
  4464  00F8  308D               	movlw	141
  4465  00F9  0097               	movwf	23	;volatile
  4466  00FA  3028               	movlw	40
  4467  00FB  2A63               	goto	L4
  4468  00FC                     i1l5351:	
  4469                           ;final_3_dimer.c: 238: }
  4470                           
  4471                           ;final_3_dimer.c: 237: break;
  4472                           
  4473                           ;final_3_dimer.c: 236: default:
  4474                           
  4475                           
  4476                           ; Switch on 2 bytes has been partitioned into a top level switch of size 1, and 1 sub-sw
      +                          itches
  4477                           ; Switch size 1, requested type "space"
  4478                           ; Number of cases is 1, Range of values is 0 to 0
  4479                           ; switch strategies available:
  4480                           ; Name         Instructions Cycles
  4481                           ; simple_byte            4     3 (average)
  4482                           ; direct_byte            8     6 (fixed)
  4483                           ; jumptable            260     6 (fixed)
  4484                           ;	Chosen strategy is simple_byte
  4485  00FC  0852               	movf	_FAN_SPEED1_1s+1,w
  4486  00FD  3A00               	xorlw	0	; case 0
  4487  00FE  1903               	skipnz
  4488  00FF  2901               	goto	i1l10407
  4489  0100  2A8B               	goto	i1l269
  4490  0101                     i1l10407:	
  4491                           
  4492                           ; Switch size 1, requested type "space"
  4493                           ; Number of cases is 10, Range of values is 48 to 57
  4494                           ; switch strategies available:
  4495                           ; Name         Instructions Cycles
  4496                           ; direct_byte           29     9 (fixed)
  4497                           ; simple_byte           31    16 (average)
  4498                           ; jumptable            263     9 (fixed)
  4499                           ;	Chosen strategy is direct_byte
  4500  0101  0851               	movf	_FAN_SPEED1_1s,w
  4501  0102  3ED0               	addlw	-48
  4502  0103  1C03               	skipc
  4503  0104  2A8B               	goto	i1l269
  4504  0105  0084               	movwf	4
  4505  0106  300A               	movlw	10
  4506  0107  0204               	subwf	4,w
  4507  0108  1803               	skipnc
  4508  0109  2A8B               	goto	i1l269
  4509  010A  3188               	movlp	high i1S10409
  4510  010B  3504               	lslf	4,w
  4511  010C  3E14               	addlw	low i1S10409
  4512  010D  0082               	movwf	2
  4513                           
  4514                           ;final_3_dimer.c: 239: break;
  4515  010E  2A8B               	goto	i1l269
  4516  010F                     i1l5353:	
  4517                           ;final_3_dimer.c: 243: {
  4518                           ;final_3_dimer.c: 244: case '0':
  4519                           
  4520                           ;final_3_dimer.c: 242: switch(FAN_SPEED1_1s)
  4521                           
  4522                           ;final_3_dimer.c: 240: case '2':
  4523                           
  4524                           
  4525                           ;final_3_dimer.c: 245: TMR1H=0x8D; TMR1L=0xF0; T1CONbits.TMR1ON = 1; break;
  4526  010F  308D               	movlw	141
  4527  0110  2A45               	goto	L46
  4528  0111                     i1l5357:	
  4529                           ;final_3_dimer.c: 246: case '1':
  4530                           
  4531                           
  4532                           ;final_3_dimer.c: 247: TMR1H=0x8E; TMR1L=0xB8; T1CONbits.TMR1ON = 1; break;
  4533  0111  308E               	movlw	142
  4534  0112  0097               	movwf	23	;volatile
  4535  0113  30B8               	movlw	184
  4536  0114  2A63               	goto	L4
  4537  0115                     i1l5361:	
  4538                           ;final_3_dimer.c: 248: case '2':
  4539                           
  4540                           
  4541                           ;final_3_dimer.c: 249: TMR1H=0x8F; TMR1L=0x80; T1CONbits.TMR1ON = 1; break;
  4542  0115  308F               	movlw	143
  4543  0116  2A49               	goto	L47
  4544  0117                     i1l5365:	
  4545                           ;final_3_dimer.c: 250: case '3':
  4546                           
  4547                           
  4548                           ;final_3_dimer.c: 251: TMR1H=0x90; TMR1L=0x48; T1CONbits.TMR1ON = 1; break;
  4549  0117  3090               	movlw	144
  4550  0118  0097               	movwf	23	;volatile
  4551  0119  3048               	movlw	72
  4552  011A  2A63               	goto	L4
  4553  011B                     i1l5369:	
  4554                           ;final_3_dimer.c: 252: case '4':
  4555                           
  4556                           
  4557                           ;final_3_dimer.c: 253: TMR1H=0x91; TMR1L=0x10; T1CONbits.TMR1ON = 1; break;
  4558  011B  3091               	movlw	145
  4559  011C  2A4D               	goto	L48
  4560  011D                     i1l5373:	
  4561                           ;final_3_dimer.c: 254: case '5':
  4562                           
  4563                           
  4564                           ;final_3_dimer.c: 255: TMR1H=0x91; TMR1L=0xD8; T1CONbits.TMR1ON = 1; break;
  4565  011D  3091               	movlw	145
  4566  011E  0097               	movwf	23	;volatile
  4567  011F  30D8               	movlw	216
  4568  0120  2A63               	goto	L4
  4569  0121                     i1l5377:	
  4570                           ;final_3_dimer.c: 256: case '6':
  4571                           
  4572                           
  4573                           ;final_3_dimer.c: 257: TMR1H=0x92; TMR1L=0xA0; T1CONbits.TMR1ON = 1; break;
  4574  0121  3092               	movlw	146
  4575  0122  2A51               	goto	L49
  4576  0123                     i1l5381:	
  4577                           ;final_3_dimer.c: 258: case '7':
  4578                           
  4579                           
  4580                           ;final_3_dimer.c: 259: TMR1H=0x93; TMR1L=0x68; T1CONbits.TMR1ON = 1; break;
  4581  0123  3093               	movlw	147
  4582  0124  0097               	movwf	23	;volatile
  4583  0125  3068               	movlw	104
  4584  0126  2A63               	goto	L4
  4585  0127                     i1l5385:	
  4586                           ;final_3_dimer.c: 260: case '8':
  4587                           
  4588                           
  4589                           ;final_3_dimer.c: 261: TMR1H=0x94; TMR1L=0x30; T1CONbits.TMR1ON = 1; break;
  4590  0127  3094               	movlw	148
  4591  0128  2A55               	goto	L50
  4592  0129                     i1l5389:	
  4593                           ;final_3_dimer.c: 262: case '9':
  4594                           
  4595                           
  4596                           ;final_3_dimer.c: 263: TMR1H=0x94; TMR1L=0xF8; T1CONbits.TMR1ON = 1; break;
  4597  0129  3094               	movlw	148
  4598  012A  0097               	movwf	23	;volatile
  4599  012B  30F8               	movlw	248
  4600  012C  2A63               	goto	L4
  4601  012D                     i1l5395:	
  4602                           ;final_3_dimer.c: 266: }
  4603                           
  4604                           ;final_3_dimer.c: 265: break;
  4605                           
  4606                           ;final_3_dimer.c: 264: default:
  4607                           
  4608                           
  4609                           ; Switch on 2 bytes has been partitioned into a top level switch of size 1, and 1 sub-sw
      +                          itches
  4610                           ; Switch size 1, requested type "space"
  4611                           ; Number of cases is 1, Range of values is 0 to 0
  4612                           ; switch strategies available:
  4613                           ; Name         Instructions Cycles
  4614                           ; simple_byte            4     3 (average)
  4615                           ; direct_byte            8     6 (fixed)
  4616                           ; jumptable            260     6 (fixed)
  4617                           ;	Chosen strategy is simple_byte
  4618  012D  0852               	movf	_FAN_SPEED1_1s+1,w
  4619  012E  3A00               	xorlw	0	; case 0
  4620  012F  1903               	skipnz
  4621  0130  2932               	goto	i1l10411
  4622  0131  2A8B               	goto	i1l269
  4623  0132                     i1l10411:	
  4624                           
  4625                           ; Switch size 1, requested type "space"
  4626                           ; Number of cases is 10, Range of values is 48 to 57
  4627                           ; switch strategies available:
  4628                           ; Name         Instructions Cycles
  4629                           ; direct_byte           29     9 (fixed)
  4630                           ; simple_byte           31    16 (average)
  4631                           ; jumptable            263     9 (fixed)
  4632                           ;	Chosen strategy is direct_byte
  4633  0132  0851               	movf	_FAN_SPEED1_1s,w
  4634  0133  3ED0               	addlw	-48
  4635  0134  1C03               	skipc
  4636  0135  2A8B               	goto	i1l269
  4637  0136  0084               	movwf	4
  4638  0137  300A               	movlw	10
  4639  0138  0204               	subwf	4,w
  4640  0139  1803               	skipnc
  4641  013A  2A8B               	goto	i1l269
  4642  013B  3188               	movlp	high i1S10413
  4643  013C  3504               	lslf	4,w
  4644  013D  3E28               	addlw	low i1S10413
  4645  013E  0082               	movwf	2
  4646                           
  4647                           ;final_3_dimer.c: 267: break;
  4648  013F  2A8B               	goto	i1l269
  4649  0140                     i1l5397:	
  4650                           ;final_3_dimer.c: 271: {
  4651                           ;final_3_dimer.c: 272: case '0':
  4652                           
  4653                           ;final_3_dimer.c: 270: switch(FAN_SPEED1_1s)
  4654                           
  4655                           ;final_3_dimer.c: 268: case '3':
  4656                           
  4657                           
  4658                           ;final_3_dimer.c: 273: TMR1H=0x95; TMR1L=0xC0; T1CONbits.TMR1ON = 1; break;
  4659  0140  3095               	movlw	149
  4660  0141  2A59               	goto	L51
  4661  0142                     i1l5401:	
  4662                           ;final_3_dimer.c: 274: case '1':
  4663                           
  4664                           
  4665                           ;final_3_dimer.c: 275: TMR1H=0x97; TMR1L=0x50; T1CONbits.TMR1ON = 1; break;
  4666  0142  3097               	movlw	151
  4667  0143  2A5D               	goto	L52
  4668  0144                     i1l5405:	
  4669                           ;final_3_dimer.c: 276: case '2':
  4670                           
  4671                           
  4672                           ;final_3_dimer.c: 277: TMR1H=0x98; TMR1L=0xE0; T1CONbits.TMR1ON = 1; break;
  4673  0144  3098               	movlw	152
  4674  0145  2A61               	goto	L22
  4675  0146                     i1l5409:	
  4676                           ;final_3_dimer.c: 278: case '3':
  4677                           
  4678                           
  4679                           ;final_3_dimer.c: 279: TMR1H=0x9A; TMR1L=0x70; T1CONbits.TMR1ON = 1; break;
  4680  0146  309A               	movlw	154
  4681  0147  2A0A               	goto	L38
  4682  0148                     i1l5413:	
  4683                           ;final_3_dimer.c: 280: case '4':
  4684                           
  4685                           
  4686                           ;final_3_dimer.c: 281: TMR1H=0x9C; TMR1L=0x00; T1CONbits.TMR1ON = 1; break;
  4687  0148  309C               	movlw	156
  4688  0149  2A12               	goto	L39
  4689  014A                     i1l5419:	
  4690                           ;final_3_dimer.c: 282: case '5':
  4691                           
  4692                           
  4693                           ;final_3_dimer.c: 283: TMR1H=0x9D; TMR1L=0x90; T1CONbits.TMR1ON = 1; break;
  4694  014A  309D               	movlw	157
  4695  014B  2A16               	goto	L40
  4696  014C                     i1l5423:	
  4697                           ;final_3_dimer.c: 284: case '6':
  4698                           
  4699                           
  4700                           ;final_3_dimer.c: 285: TMR1H=0x9F; TMR1L=0x20; T1CONbits.TMR1ON = 1; break;
  4701  014C  309F               	movlw	159
  4702  014D  2A1A               	goto	L41
  4703  014E                     i1l5427:	
  4704                           ;final_3_dimer.c: 286: case '7':
  4705                           
  4706                           
  4707                           ;final_3_dimer.c: 287: TMR1H=0xA0; TMR1L=0xB0; T1CONbits.TMR1ON = 1; break;
  4708  014E  30A0               	movlw	160
  4709  014F  2A1E               	goto	L42
  4710  0150                     i1l5431:	
  4711                           ;final_3_dimer.c: 288: case '8':
  4712                           
  4713                           
  4714                           ;final_3_dimer.c: 289: TMR1H=0xA2; TMR1L=0x40; T1CONbits.TMR1ON = 1; break;
  4715  0150  30A2               	movlw	162
  4716  0151  2A26               	goto	L43
  4717  0152                     i1l5435:	
  4718                           ;final_3_dimer.c: 290: case '9':
  4719                           
  4720                           
  4721                           ;final_3_dimer.c: 291: TMR1H=0xA3; TMR1L=0xD0; T1CONbits.TMR1ON = 1; break;
  4722  0152  30A3               	movlw	163
  4723  0153  2A3D               	goto	L44
  4724  0154                     i1l5441:	
  4725                           ;final_3_dimer.c: 294: }
  4726                           
  4727                           ;final_3_dimer.c: 293: break;
  4728                           
  4729                           ;final_3_dimer.c: 292: default:
  4730                           
  4731                           
  4732                           ; Switch on 2 bytes has been partitioned into a top level switch of size 1, and 1 sub-sw
      +                          itches
  4733                           ; Switch size 1, requested type "space"
  4734                           ; Number of cases is 1, Range of values is 0 to 0
  4735                           ; switch strategies available:
  4736                           ; Name         Instructions Cycles
  4737                           ; simple_byte            4     3 (average)
  4738                           ; direct_byte            8     6 (fixed)
  4739                           ; jumptable            260     6 (fixed)
  4740                           ;	Chosen strategy is simple_byte
  4741  0154  0852               	movf	_FAN_SPEED1_1s+1,w
  4742  0155  3A00               	xorlw	0	; case 0
  4743  0156  1903               	skipnz
  4744  0157  2959               	goto	i1l10415
  4745  0158  2A8B               	goto	i1l269
  4746  0159                     i1l10415:	
  4747                           
  4748                           ; Switch size 1, requested type "space"
  4749                           ; Number of cases is 10, Range of values is 48 to 57
  4750                           ; switch strategies available:
  4751                           ; Name         Instructions Cycles
  4752                           ; direct_byte           29     9 (fixed)
  4753                           ; simple_byte           31    16 (average)
  4754                           ; jumptable            263     9 (fixed)
  4755                           ;	Chosen strategy is direct_byte
  4756  0159  0851               	movf	_FAN_SPEED1_1s,w
  4757  015A  3ED0               	addlw	-48
  4758  015B  1C03               	skipc
  4759  015C  2A8B               	goto	i1l269
  4760  015D  0084               	movwf	4
  4761  015E  300A               	movlw	10
  4762  015F  0204               	subwf	4,w
  4763  0160  1803               	skipnc
  4764  0161  2A8B               	goto	i1l269
  4765  0162  3188               	movlp	high i1S10417
  4766  0163  3504               	lslf	4,w
  4767  0164  3E3C               	addlw	low i1S10417
  4768  0165  0082               	movwf	2
  4769                           
  4770                           ;final_3_dimer.c: 295: break;
  4771  0166  2A8B               	goto	i1l269
  4772  0167                     i1l5443:	
  4773                           ;final_3_dimer.c: 299: {
  4774                           ;final_3_dimer.c: 300: case '0':
  4775                           
  4776                           ;final_3_dimer.c: 298: switch(FAN_SPEED1_1s)
  4777                           
  4778                           ;final_3_dimer.c: 296: case '4':
  4779                           
  4780                           
  4781                           ;final_3_dimer.c: 301: TMR1H=0xA5; TMR1L=0x60; T1CONbits.TMR1ON = 1; break;
  4782  0167  30A5               	movlw	165
  4783  0168  2A41               	goto	L45
  4784  0169                     i1l5447:	
  4785                           ;final_3_dimer.c: 302: case '1':
  4786                           
  4787                           
  4788                           ;final_3_dimer.c: 303: TMR1H=0xA6; TMR1L=0xF0; T1CONbits.TMR1ON = 1; break;
  4789  0169  30A6               	movlw	166
  4790  016A  2A45               	goto	L46
  4791  016B                     i1l5451:	
  4792                           ;final_3_dimer.c: 304: case '2':
  4793                           
  4794                           
  4795                           ;final_3_dimer.c: 305: TMR1H=0xA8; TMR1L=0x80; T1CONbits.TMR1ON = 1; break;
  4796  016B  30A8               	movlw	168
  4797  016C  2A49               	goto	L47
  4798  016D                     i1l5455:	
  4799                           ;final_3_dimer.c: 306: case '3':
  4800                           
  4801                           
  4802                           ;final_3_dimer.c: 307: TMR1H=0xAA; TMR1L=0x10; T1CONbits.TMR1ON = 1; break;
  4803  016D  30AA               	movlw	170
  4804  016E  2A4D               	goto	L48
  4805  016F                     i1l5459:	
  4806                           ;final_3_dimer.c: 308: case '4':
  4807                           
  4808                           
  4809                           ;final_3_dimer.c: 309: TMR1H=0xAB; TMR1L=0xA0; T1CONbits.TMR1ON = 1; break;
  4810  016F  30AB               	movlw	171
  4811  0170  2A51               	goto	L49
  4812  0171                     i1l5463:	
  4813                           ;final_3_dimer.c: 310: case '5':
  4814                           
  4815                           
  4816                           ;final_3_dimer.c: 311: TMR1H=0xAD; TMR1L=0x30; T1CONbits.TMR1ON = 1; break;
  4817  0171  30AD               	movlw	173
  4818  0172  2A55               	goto	L50
  4819  0173                     i1l5467:	
  4820                           ;final_3_dimer.c: 312: case '6':
  4821                           
  4822                           
  4823                           ;final_3_dimer.c: 313: TMR1H=0xAE; TMR1L=0xC0; T1CONbits.TMR1ON = 1; break;
  4824  0173  30AE               	movlw	174
  4825  0174  2A59               	goto	L51
  4826  0175                     i1l5471:	
  4827                           ;final_3_dimer.c: 314: case '7':
  4828                           
  4829                           
  4830                           ;final_3_dimer.c: 315: TMR1H=0xB0; TMR1L=0x50; T1CONbits.TMR1ON = 1; break;
  4831  0175  30B0               	movlw	176
  4832  0176  2A5D               	goto	L52
  4833  0177                     i1l5475:	
  4834                           ;final_3_dimer.c: 316: case '8':
  4835                           
  4836                           
  4837                           ;final_3_dimer.c: 317: TMR1H=0xB1; TMR1L=0xE0; T1CONbits.TMR1ON = 1; break;
  4838  0177  30B1               	movlw	177
  4839  0178  2A61               	goto	L22
  4840  0179                     i1l5479:	
  4841                           ;final_3_dimer.c: 318: case '9':
  4842                           
  4843                           
  4844                           ;final_3_dimer.c: 319: TMR1H=0xB3; TMR1L=0x70; T1CONbits.TMR1ON = 1; break;
  4845  0179  30B3               	movlw	179
  4846  017A  2A0A               	goto	L38
  4847  017B                     i1l5485:	
  4848                           ;final_3_dimer.c: 322: }
  4849                           
  4850                           ;final_3_dimer.c: 321: break;
  4851                           
  4852                           ;final_3_dimer.c: 320: default:
  4853                           
  4854                           
  4855                           ; Switch on 2 bytes has been partitioned into a top level switch of size 1, and 1 sub-sw
      +                          itches
  4856                           ; Switch size 1, requested type "space"
  4857                           ; Number of cases is 1, Range of values is 0 to 0
  4858                           ; switch strategies available:
  4859                           ; Name         Instructions Cycles
  4860                           ; simple_byte            4     3 (average)
  4861                           ; direct_byte            8     6 (fixed)
  4862                           ; jumptable            260     6 (fixed)
  4863                           ;	Chosen strategy is simple_byte
  4864  017B  0852               	movf	_FAN_SPEED1_1s+1,w
  4865  017C  3A00               	xorlw	0	; case 0
  4866  017D  1903               	skipnz
  4867  017E  2980               	goto	i1l10419
  4868  017F  2A8B               	goto	i1l269
  4869  0180                     i1l10419:	
  4870                           
  4871                           ; Switch size 1, requested type "space"
  4872                           ; Number of cases is 10, Range of values is 48 to 57
  4873                           ; switch strategies available:
  4874                           ; Name         Instructions Cycles
  4875                           ; direct_byte           29     9 (fixed)
  4876                           ; simple_byte           31    16 (average)
  4877                           ; jumptable            263     9 (fixed)
  4878                           ;	Chosen strategy is direct_byte
  4879  0180  0851               	movf	_FAN_SPEED1_1s,w
  4880  0181  3ED0               	addlw	-48
  4881  0182  1C03               	skipc
  4882  0183  2A8B               	goto	i1l269
  4883  0184  0084               	movwf	4
  4884  0185  300A               	movlw	10
  4885  0186  0204               	subwf	4,w
  4886  0187  1803               	skipnc
  4887  0188  2A8B               	goto	i1l269
  4888  0189  3188               	movlp	high i1S10421
  4889  018A  3504               	lslf	4,w
  4890  018B  3E50               	addlw	low i1S10421
  4891  018C  0082               	movwf	2
  4892                           
  4893                           ;final_3_dimer.c: 323: break;
  4894  018D  2A8B               	goto	i1l269
  4895  018E                     i1l5487:	
  4896                           ;final_3_dimer.c: 327: {
  4897                           ;final_3_dimer.c: 328: case '0':
  4898                           
  4899                           ;final_3_dimer.c: 326: switch(FAN_SPEED1_1s)
  4900                           
  4901                           ;final_3_dimer.c: 324: case '5':
  4902                           
  4903                           
  4904                           ;final_3_dimer.c: 329: TMR1H=0xB5; TMR1L=0x00; T1CONbits.TMR1ON = 1; break;
  4905  018E  30B5               	movlw	181
  4906  018F  2A12               	goto	L39
  4907  0190                     i1l5493:	
  4908                           ;final_3_dimer.c: 330: case '1':
  4909                           
  4910                           
  4911                           ;final_3_dimer.c: 331: TMR1H=0xB6; TMR1L=0x90; T1CONbits.TMR1ON = 1; break;
  4912  0190  30B6               	movlw	182
  4913  0191  2A16               	goto	L40
  4914  0192                     i1l5497:	
  4915                           ;final_3_dimer.c: 332: case '2':
  4916                           
  4917                           
  4918                           ;final_3_dimer.c: 333: TMR1H=0xB8; TMR1L=0x20; T1CONbits.TMR1ON = 1; break;
  4919  0192  30B8               	movlw	184
  4920  0193  2A1A               	goto	L41
  4921  0194                     i1l5501:	
  4922                           ;final_3_dimer.c: 334: case '3':
  4923                           
  4924                           
  4925                           ;final_3_dimer.c: 335: TMR1H=0xB9; TMR1L=0xB0; T1CONbits.TMR1ON = 1; break;
  4926  0194  30B9               	movlw	185
  4927  0195  2A1E               	goto	L42
  4928  0196                     i1l5505:	
  4929                           ;final_3_dimer.c: 336: case '4':
  4930                           
  4931                           
  4932                           ;final_3_dimer.c: 337: TMR1H=0xBB; TMR1L=0x40; T1CONbits.TMR1ON = 1; break;
  4933  0196  30BB               	movlw	187
  4934  0197  2A26               	goto	L43
  4935  0198                     i1l5509:	
  4936                           ;final_3_dimer.c: 338: case '5':
  4937                           
  4938                           
  4939                           ;final_3_dimer.c: 339: TMR1H=0xBC; TMR1L=0xD0; T1CONbits.TMR1ON = 1; break;
  4940  0198  30BC               	movlw	188
  4941  0199  2A3D               	goto	L44
  4942  019A                     i1l5513:	
  4943                           ;final_3_dimer.c: 340: case '6':
  4944                           
  4945                           
  4946                           ;final_3_dimer.c: 341: TMR1H=0xBE; TMR1L=0x60; T1CONbits.TMR1ON = 1; break;
  4947  019A  30BE               	movlw	190
  4948  019B  2A41               	goto	L45
  4949  019C                     i1l5517:	
  4950                           ;final_3_dimer.c: 342: case '7':
  4951                           
  4952                           
  4953                           ;final_3_dimer.c: 343: TMR1H=0xBF; TMR1L=0xF0; T1CONbits.TMR1ON = 1; break;
  4954  019C  30BF               	movlw	191
  4955  019D  2A45               	goto	L46
  4956  019E                     i1l5521:	
  4957                           ;final_3_dimer.c: 344: case '8':
  4958                           
  4959                           
  4960                           ;final_3_dimer.c: 345: TMR1H=0xC1; TMR1L=0x80; T1CONbits.TMR1ON = 1; break;
  4961  019E  30C1               	movlw	193
  4962  019F  2A49               	goto	L47
  4963  01A0                     i1l5525:	
  4964                           ;final_3_dimer.c: 346: case '9':
  4965                           
  4966                           
  4967                           ;final_3_dimer.c: 347: TMR1H=0xC3; TMR1L=0x10; T1CONbits.TMR1ON = 1; break;
  4968  01A0  30C3               	movlw	195
  4969  01A1  2A4D               	goto	L48
  4970  01A2                     i1l5531:	
  4971                           ;final_3_dimer.c: 350: }
  4972                           
  4973                           ;final_3_dimer.c: 349: break;
  4974                           
  4975                           ;final_3_dimer.c: 348: default:
  4976                           
  4977                           
  4978                           ; Switch on 2 bytes has been partitioned into a top level switch of size 1, and 1 sub-sw
      +                          itches
  4979                           ; Switch size 1, requested type "space"
  4980                           ; Number of cases is 1, Range of values is 0 to 0
  4981                           ; switch strategies available:
  4982                           ; Name         Instructions Cycles
  4983                           ; simple_byte            4     3 (average)
  4984                           ; direct_byte            8     6 (fixed)
  4985                           ; jumptable            260     6 (fixed)
  4986                           ;	Chosen strategy is simple_byte
  4987  01A2  0852               	movf	_FAN_SPEED1_1s+1,w
  4988  01A3  3A00               	xorlw	0	; case 0
  4989  01A4  1903               	skipnz
  4990  01A5  29A7               	goto	i1l10423
  4991  01A6  2A8B               	goto	i1l269
  4992  01A7                     i1l10423:	
  4993                           
  4994                           ; Switch size 1, requested type "space"
  4995                           ; Number of cases is 10, Range of values is 48 to 57
  4996                           ; switch strategies available:
  4997                           ; Name         Instructions Cycles
  4998                           ; direct_byte           29     9 (fixed)
  4999                           ; simple_byte           31    16 (average)
  5000                           ; jumptable            263     9 (fixed)
  5001                           ;	Chosen strategy is direct_byte
  5002  01A7  0851               	movf	_FAN_SPEED1_1s,w
  5003  01A8  3ED0               	addlw	-48
  5004  01A9  1C03               	skipc
  5005  01AA  2A8B               	goto	i1l269
  5006  01AB  0084               	movwf	4
  5007  01AC  300A               	movlw	10
  5008  01AD  0204               	subwf	4,w
  5009  01AE  1803               	skipnc
  5010  01AF  2A8B               	goto	i1l269
  5011  01B0  3188               	movlp	high i1S10425
  5012  01B1  3504               	lslf	4,w
  5013  01B2  3E64               	addlw	low i1S10425
  5014  01B3  0082               	movwf	2
  5015                           
  5016                           ;final_3_dimer.c: 351: break;
  5017  01B4  2A8B               	goto	i1l269
  5018  01B5                     i1l5533:	
  5019                           ;final_3_dimer.c: 355: {
  5020                           ;final_3_dimer.c: 356: case '0':
  5021                           
  5022                           ;final_3_dimer.c: 354: switch(FAN_SPEED1_1s)
  5023                           
  5024                           ;final_3_dimer.c: 352: case '6':
  5025                           
  5026                           
  5027                           ;final_3_dimer.c: 357: TMR1H=0xC4; TMR1L=0xA0; T1CONbits.TMR1ON = 1; break;
  5028  01B5  30C4               	movlw	196
  5029  01B6  2A51               	goto	L49
  5030  01B7                     i1l5537:	
  5031                           ;final_3_dimer.c: 358: case '1':
  5032                           
  5033                           
  5034                           ;final_3_dimer.c: 359: TMR1H=0xC6; TMR1L=0x30; T1CONbits.TMR1ON = 1; break;
  5035  01B7  30C6               	movlw	198
  5036  01B8  2A55               	goto	L50
  5037  01B9                     i1l5541:	
  5038                           ;final_3_dimer.c: 360: case '2':
  5039                           
  5040                           
  5041                           ;final_3_dimer.c: 361: TMR1H=0xC7; TMR1L=0xC0; T1CONbits.TMR1ON = 1; break;
  5042  01B9  30C7               	movlw	199
  5043  01BA  2A59               	goto	L51
  5044  01BB                     i1l5545:	
  5045                           ;final_3_dimer.c: 362: case '3':
  5046                           
  5047                           
  5048                           ;final_3_dimer.c: 363: TMR1H=0xC9; TMR1L=0x50; T1CONbits.TMR1ON = 1; break;
  5049  01BB  30C9               	movlw	201
  5050  01BC  2A5D               	goto	L52
  5051  01BD                     i1l5549:	
  5052                           ;final_3_dimer.c: 364: case '4':
  5053                           
  5054                           
  5055                           ;final_3_dimer.c: 365: TMR1H=0xCA; TMR1L=0xE0; T1CONbits.TMR1ON = 1; break;
  5056  01BD  30CA               	movlw	202
  5057  01BE  2A61               	goto	L22
  5058  01BF                     i1l5553:	
  5059                           ;final_3_dimer.c: 366: case '5':
  5060                           
  5061                           
  5062                           ;final_3_dimer.c: 367: TMR1H=0xCC; TMR1L=0x70; T1CONbits.TMR1ON = 1; break;
  5063  01BF  30CC               	movlw	204
  5064  01C0  2A0A               	goto	L38
  5065  01C1                     i1l5557:	
  5066                           ;final_3_dimer.c: 368: case '6':
  5067                           
  5068                           
  5069                           ;final_3_dimer.c: 369: TMR1H=0xCE; TMR1L=0x00; T1CONbits.TMR1ON = 1; break;
  5070  01C1  30CE               	movlw	206
  5071  01C2  2A12               	goto	L39
  5072  01C3                     i1l5563:	
  5073                           ;final_3_dimer.c: 370: case '7':
  5074                           
  5075                           
  5076                           ;final_3_dimer.c: 371: TMR1H=0xCF; TMR1L=0x90; T1CONbits.TMR1ON = 1; break;
  5077  01C3  30CF               	movlw	207
  5078  01C4  2A16               	goto	L40
  5079  01C5                     i1l5567:	
  5080                           ;final_3_dimer.c: 372: case '8':
  5081                           
  5082                           
  5083                           ;final_3_dimer.c: 373: TMR1H=0xD1; TMR1L=0x20; T1CONbits.TMR1ON = 1; break;
  5084  01C5  30D1               	movlw	209
  5085  01C6  2A1A               	goto	L41
  5086  01C7                     i1l5571:	
  5087                           ;final_3_dimer.c: 374: case '9':
  5088                           
  5089                           
  5090                           ;final_3_dimer.c: 375: TMR1H=0xD2; TMR1L=0xB0; T1CONbits.TMR1ON = 1; break;
  5091  01C7  30D2               	movlw	210
  5092  01C8  2A1E               	goto	L42
  5093  01C9                     i1l5577:	
  5094                           ;final_3_dimer.c: 378: }
  5095                           
  5096                           ;final_3_dimer.c: 377: break;
  5097                           
  5098                           ;final_3_dimer.c: 376: default:
  5099                           
  5100                           
  5101                           ; Switch on 2 bytes has been partitioned into a top level switch of size 1, and 1 sub-sw
      +                          itches
  5102                           ; Switch size 1, requested type "space"
  5103                           ; Number of cases is 1, Range of values is 0 to 0
  5104                           ; switch strategies available:
  5105                           ; Name         Instructions Cycles
  5106                           ; simple_byte            4     3 (average)
  5107                           ; direct_byte            8     6 (fixed)
  5108                           ; jumptable            260     6 (fixed)
  5109                           ;	Chosen strategy is simple_byte
  5110  01C9  0852               	movf	_FAN_SPEED1_1s+1,w
  5111  01CA  3A00               	xorlw	0	; case 0
  5112  01CB  1903               	skipnz
  5113  01CC  29CE               	goto	i1l10427
  5114  01CD  2A8B               	goto	i1l269
  5115  01CE                     i1l10427:	
  5116                           
  5117                           ; Switch size 1, requested type "space"
  5118                           ; Number of cases is 10, Range of values is 48 to 57
  5119                           ; switch strategies available:
  5120                           ; Name         Instructions Cycles
  5121                           ; direct_byte           29     9 (fixed)
  5122                           ; simple_byte           31    16 (average)
  5123                           ; jumptable            263     9 (fixed)
  5124                           ;	Chosen strategy is direct_byte
  5125  01CE  0851               	movf	_FAN_SPEED1_1s,w
  5126  01CF  3ED0               	addlw	-48
  5127  01D0  1C03               	skipc
  5128  01D1  2A8B               	goto	i1l269
  5129  01D2  0084               	movwf	4
  5130  01D3  300A               	movlw	10
  5131  01D4  0204               	subwf	4,w
  5132  01D5  1803               	skipnc
  5133  01D6  2A8B               	goto	i1l269
  5134  01D7  3188               	movlp	high i1S10429
  5135  01D8  3504               	lslf	4,w
  5136  01D9  3E78               	addlw	low i1S10429
  5137  01DA  0082               	movwf	2
  5138                           
  5139                           ;final_3_dimer.c: 379: break;
  5140  01DB  2A8B               	goto	i1l269
  5141  01DC                     i1l5579:	
  5142                           ;final_3_dimer.c: 383: {
  5143                           ;final_3_dimer.c: 384: case '0':
  5144                           
  5145                           ;final_3_dimer.c: 382: switch(FAN_SPEED1_1s)
  5146                           
  5147                           ;final_3_dimer.c: 380: case '7':
  5148                           
  5149                           
  5150                           ;final_3_dimer.c: 385: TMR1H=0xD4; TMR1L=0x40; T1CONbits.TMR1ON = 1; break;
  5151  01DC  30D4               	movlw	212
  5152  01DD  2A26               	goto	L43
  5153  01DE                     i1l5583:	
  5154                           ;final_3_dimer.c: 386: case '1':
  5155                           
  5156                           
  5157                           ;final_3_dimer.c: 387: TMR1H=0xD5; TMR1L=0xD0; T1CONbits.TMR1ON = 1; break;
  5158  01DE  30D5               	movlw	213
  5159  01DF  2A3D               	goto	L44
  5160  01E0                     i1l5587:	
  5161                           ;final_3_dimer.c: 388: case '2':
  5162                           
  5163                           
  5164                           ;final_3_dimer.c: 389: TMR1H=0xD7; TMR1L=0x60; T1CONbits.TMR1ON = 1; break;
  5165  01E0  30D7               	movlw	215
  5166  01E1  2A41               	goto	L45
  5167  01E2                     i1l5591:	
  5168                           ;final_3_dimer.c: 390: case '3':
  5169                           
  5170                           
  5171                           ;final_3_dimer.c: 391: TMR1H=0xD8; TMR1L=0xF0; T1CONbits.TMR1ON = 1; break;
  5172  01E2  30D8               	movlw	216
  5173  01E3  2A45               	goto	L46
  5174  01E4                     i1l5595:	
  5175                           ;final_3_dimer.c: 392: case '4':
  5176                           
  5177                           
  5178                           ;final_3_dimer.c: 393: TMR1H=0xDA; TMR1L=0x80; T1CONbits.TMR1ON = 1; break;
  5179  01E4  30DA               	movlw	218
  5180  01E5  2A49               	goto	L47
  5181  01E6                     i1l5599:	
  5182                           ;final_3_dimer.c: 394: case '5':
  5183                           
  5184                           
  5185                           ;final_3_dimer.c: 395: TMR1H=0xDC; TMR1L=0x10; T1CONbits.TMR1ON = 1; break;
  5186  01E6  30DC               	movlw	220
  5187  01E7  2A4D               	goto	L48
  5188  01E8                     i1l5603:	
  5189                           ;final_3_dimer.c: 396: case '6':
  5190                           
  5191                           
  5192                           ;final_3_dimer.c: 397: TMR1H=0xDD; TMR1L=0xA0; T1CONbits.TMR1ON = 1; break;
  5193  01E8  30DD               	movlw	221
  5194  01E9  2A51               	goto	L49
  5195  01EA                     i1l5607:	
  5196                           ;final_3_dimer.c: 398: case '7':
  5197                           
  5198                           
  5199                           ;final_3_dimer.c: 399: TMR1H=0xDF; TMR1L=0x30; T1CONbits.TMR1ON = 1; break;
  5200  01EA  30DF               	movlw	223
  5201  01EB  2A55               	goto	L50
  5202  01EC                     i1l5611:	
  5203                           ;final_3_dimer.c: 400: case '8':
  5204                           
  5205                           
  5206                           ;final_3_dimer.c: 401: TMR1H=0xE0; TMR1L=0xC0; T1CONbits.TMR1ON = 1; break;
  5207  01EC  30E0               	movlw	224
  5208  01ED  2A59               	goto	L51
  5209  01EE                     i1l5615:	
  5210                           ;final_3_dimer.c: 402: case '9':
  5211                           
  5212                           
  5213                           ;final_3_dimer.c: 403: TMR1H=0xE2; TMR1L=0x50; T1CONbits.TMR1ON = 1; break;
  5214  01EE  30E2               	movlw	226
  5215  01EF  2A5D               	goto	L52
  5216  01F0                     i1l5621:	
  5217                           ;final_3_dimer.c: 406: }
  5218                           
  5219                           ;final_3_dimer.c: 405: break;
  5220                           
  5221                           ;final_3_dimer.c: 404: default:
  5222                           
  5223                           
  5224                           ; Switch on 2 bytes has been partitioned into a top level switch of size 1, and 1 sub-sw
      +                          itches
  5225                           ; Switch size 1, requested type "space"
  5226                           ; Number of cases is 1, Range of values is 0 to 0
  5227                           ; switch strategies available:
  5228                           ; Name         Instructions Cycles
  5229                           ; simple_byte            4     3 (average)
  5230                           ; direct_byte            8     6 (fixed)
  5231                           ; jumptable            260     6 (fixed)
  5232                           ;	Chosen strategy is simple_byte
  5233  01F0  0852               	movf	_FAN_SPEED1_1s+1,w
  5234  01F1  3A00               	xorlw	0	; case 0
  5235  01F2  1903               	skipnz
  5236  01F3  29F5               	goto	i1l10431
  5237  01F4  2A8B               	goto	i1l269
  5238  01F5                     i1l10431:	
  5239                           
  5240                           ; Switch size 1, requested type "space"
  5241                           ; Number of cases is 10, Range of values is 48 to 57
  5242                           ; switch strategies available:
  5243                           ; Name         Instructions Cycles
  5244                           ; direct_byte           29     9 (fixed)
  5245                           ; simple_byte           31    16 (average)
  5246                           ; jumptable            263     9 (fixed)
  5247                           ;	Chosen strategy is direct_byte
  5248  01F5  0851               	movf	_FAN_SPEED1_1s,w
  5249  01F6  3ED0               	addlw	-48
  5250  01F7  1C03               	skipc
  5251  01F8  2A8B               	goto	i1l269
  5252  01F9  0084               	movwf	4
  5253  01FA  300A               	movlw	10
  5254  01FB  0204               	subwf	4,w
  5255  01FC  1803               	skipnc
  5256  01FD  2A8B               	goto	i1l269
  5257  01FE  3188               	movlp	high i1S10433
  5258  01FF  3504               	lslf	4,w
  5259  0200  3E8C               	addlw	low i1S10433
  5260  0201  0082               	movwf	2
  5261                           
  5262                           ;final_3_dimer.c: 407: break;
  5263  0202  2A8B               	goto	i1l269
  5264  0203                     i1l5623:	
  5265                           ;final_3_dimer.c: 411: {
  5266                           ;final_3_dimer.c: 412: case '0':
  5267                           
  5268                           ;final_3_dimer.c: 410: switch(FAN_SPEED1_1s)
  5269                           
  5270                           ;final_3_dimer.c: 408: case '8':
  5271                           
  5272                           
  5273                           ;final_3_dimer.c: 413: TMR1H=0xE3; TMR1L=0xE0; T1CONbits.TMR1ON = 1; break;
  5274  0203  30E3               	movlw	227
  5275  0204  2A61               	goto	L22
  5276  0205                     i1l5627:	
  5277                           ;final_3_dimer.c: 414: case '1':
  5278                           
  5279                           
  5280                           ;final_3_dimer.c: 415: TMR1H=0xE4; TMR1L=0xA8; T1CONbits.TMR1ON = 1; break;
  5281  0205  30E4               	movlw	228
  5282  0206                     L147:	
  5283  0206  0097               	movwf	23	;volatile
  5284  0207  30A8               	movlw	168
  5285  0208  2A63               	goto	L4
  5286  0209                     i1l5631:	
  5287                           ;final_3_dimer.c: 416: case '2':
  5288                           
  5289                           
  5290                           ;final_3_dimer.c: 417: TMR1H=0xE5; TMR1L=0x70; T1CONbits.TMR1ON = 1; break;
  5291  0209  30E5               	movlw	229
  5292  020A                     L38:	
  5293  020A  0097               	movwf	23	;volatile
  5294  020B  3070               	movlw	112
  5295  020C  2A63               	goto	L4
  5296  020D                     i1l5635:	
  5297                           ;final_3_dimer.c: 418: case '3':
  5298                           
  5299                           
  5300                           ;final_3_dimer.c: 419: TMR1H=0xE6; TMR1L=0x38; T1CONbits.TMR1ON = 1; break;
  5301  020D  30E6               	movlw	230
  5302  020E  0097               	movwf	23	;volatile
  5303  020F  3038               	movlw	56
  5304  0210  2A63               	goto	L4
  5305  0211                     i1l5639:	
  5306                           ;final_3_dimer.c: 420: case '4':
  5307                           
  5308                           
  5309                           ;final_3_dimer.c: 421: TMR1H=0xE7; TMR1L=0x00; T1CONbits.TMR1ON = 1; break;
  5310  0211  30E7               	movlw	231
  5311  0212                     L39:	
  5312  0212  0097               	movwf	23	;volatile
  5313  0213  0196               	clrf	22	;volatile
  5314  0214  2A64               	goto	i1l5707
  5315  0215                     i1l5645:	
  5316                           ;final_3_dimer.c: 422: case '5':
  5317                           
  5318                           
  5319                           ;final_3_dimer.c: 423: TMR1H=0xE8; TMR1L=0x90; T1CONbits.TMR1ON = 1; break;
  5320  0215  30E8               	movlw	232
  5321  0216                     L40:	
  5322  0216  0097               	movwf	23	;volatile
  5323  0217  3090               	movlw	144
  5324  0218  2A63               	goto	L4
  5325  0219                     i1l5649:	
  5326                           ;final_3_dimer.c: 424: case '6':
  5327                           
  5328                           
  5329                           ;final_3_dimer.c: 425: TMR1H=0xEA; TMR1L=0x20; T1CONbits.TMR1ON = 1; break;
  5330  0219  30EA               	movlw	234
  5331  021A                     L41:	
  5332  021A  0097               	movwf	23	;volatile
  5333  021B  3020               	movlw	32
  5334  021C  2A63               	goto	L4
  5335  021D                     i1l5653:	
  5336                           ;final_3_dimer.c: 426: case '7':
  5337                           
  5338                           
  5339                           ;final_3_dimer.c: 427: TMR1H=0xEB; TMR1L=0xB0; T1CONbits.TMR1ON = 1; break;
  5340  021D  30EB               	movlw	235
  5341  021E                     L42:	
  5342  021E  0097               	movwf	23	;volatile
  5343  021F  30B0               	movlw	176
  5344  0220  2A63               	goto	L4
  5345  0221                     i1l5657:	
  5346                           ;final_3_dimer.c: 428: case '8':
  5347                           
  5348                           
  5349                           ;final_3_dimer.c: 429: TMR1H=0xEC; TMR1L=0x78; T1CONbits.TMR1ON = 1; break;
  5350  0221  30EC               	movlw	236
  5351  0222                     L149:	
  5352  0222  0097               	movwf	23	;volatile
  5353  0223  3078               	movlw	120
  5354  0224  2A63               	goto	L4
  5355  0225                     i1l5661:	
  5356                           ;final_3_dimer.c: 430: case '9':
  5357                           
  5358                           
  5359                           ;final_3_dimer.c: 431: TMR1H=0xED; TMR1L=0x40; T1CONbits.TMR1ON = 1; break;
  5360  0225  30ED               	movlw	237
  5361  0226                     L43:	
  5362  0226  0097               	movwf	23	;volatile
  5363  0227  3040               	movlw	64
  5364  0228  2A63               	goto	L4
  5365  0229                     i1l5667:	
  5366                           ;final_3_dimer.c: 434: }
  5367                           
  5368                           ;final_3_dimer.c: 433: break;
  5369                           
  5370                           ;final_3_dimer.c: 432: default:
  5371                           
  5372                           
  5373                           ; Switch on 2 bytes has been partitioned into a top level switch of size 1, and 1 sub-sw
      +                          itches
  5374                           ; Switch size 1, requested type "space"
  5375                           ; Number of cases is 1, Range of values is 0 to 0
  5376                           ; switch strategies available:
  5377                           ; Name         Instructions Cycles
  5378                           ; simple_byte            4     3 (average)
  5379                           ; direct_byte            8     6 (fixed)
  5380                           ; jumptable            260     6 (fixed)
  5381                           ;	Chosen strategy is simple_byte
  5382  0229  0852               	movf	_FAN_SPEED1_1s+1,w
  5383  022A  3A00               	xorlw	0	; case 0
  5384  022B  1903               	skipnz
  5385  022C  2A2E               	goto	i1l10435
  5386  022D  2A8B               	goto	i1l269
  5387  022E                     i1l10435:	
  5388                           
  5389                           ; Switch size 1, requested type "space"
  5390                           ; Number of cases is 10, Range of values is 48 to 57
  5391                           ; switch strategies available:
  5392                           ; Name         Instructions Cycles
  5393                           ; direct_byte           29     9 (fixed)
  5394                           ; simple_byte           31    16 (average)
  5395                           ; jumptable            263     9 (fixed)
  5396                           ;	Chosen strategy is direct_byte
  5397  022E  0851               	movf	_FAN_SPEED1_1s,w
  5398  022F  3ED0               	addlw	-48
  5399  0230  1C03               	skipc
  5400  0231  2A8B               	goto	i1l269
  5401  0232  0084               	movwf	4
  5402  0233  300A               	movlw	10
  5403  0234  0204               	subwf	4,w
  5404  0235  1803               	skipnc
  5405  0236  2A8B               	goto	i1l269
  5406  0237  3188               	movlp	high i1S10437
  5407  0238  3504               	lslf	4,w
  5408  0239  3EA0               	addlw	low i1S10437
  5409  023A  0082               	movwf	2
  5410                           
  5411                           ;final_3_dimer.c: 435: break;
  5412  023B  2A8B               	goto	i1l269
  5413  023C                     i1l5669:	
  5414                           ;final_3_dimer.c: 439: {
  5415                           ;final_3_dimer.c: 440: case '0':
  5416                           
  5417                           ;final_3_dimer.c: 438: switch(FAN_SPEED1_1s)
  5418                           
  5419                           ;final_3_dimer.c: 436: case '9':
  5420                           
  5421                           
  5422                           ;final_3_dimer.c: 441: TMR1H=0xEE; TMR1L=0xD0; T1CONbits.TMR1ON = 1; break;
  5423  023C  30EE               	movlw	238
  5424  023D                     L44:	
  5425  023D  0097               	movwf	23	;volatile
  5426  023E  30D0               	movlw	208
  5427  023F  2A63               	goto	L4
  5428  0240                     i1l5673:	
  5429                           ;final_3_dimer.c: 442: case '1':
  5430                           
  5431                           
  5432                           ;final_3_dimer.c: 443: TMR1H=0xF0; TMR1L=0x60; T1CONbits.TMR1ON = 1; break;
  5433  0240  30F0               	movlw	240
  5434  0241                     L45:	
  5435  0241  0097               	movwf	23	;volatile
  5436  0242  3060               	movlw	96
  5437  0243  2A63               	goto	L4
  5438  0244                     i1l5677:	
  5439                           ;final_3_dimer.c: 444: case '2':
  5440                           
  5441                           
  5442                           ;final_3_dimer.c: 445: TMR1H=0xF1; TMR1L=0xF0; T1CONbits.TMR1ON = 1; break;
  5443  0244  30F1               	movlw	241
  5444  0245                     L46:	
  5445  0245  0097               	movwf	23	;volatile
  5446  0246  30F0               	movlw	240
  5447  0247  2A63               	goto	L4
  5448  0248                     i1l5681:	
  5449                           ;final_3_dimer.c: 446: case '3':
  5450                           
  5451                           
  5452                           ;final_3_dimer.c: 447: TMR1H=0xF3; TMR1L=0x80; T1CONbits.TMR1ON = 1; break;
  5453  0248  30F3               	movlw	243
  5454  0249                     L47:	
  5455  0249  0097               	movwf	23	;volatile
  5456  024A  3080               	movlw	128
  5457  024B  2A63               	goto	L4
  5458  024C                     i1l5685:	
  5459                           ;final_3_dimer.c: 448: case '4':
  5460                           
  5461                           
  5462                           ;final_3_dimer.c: 449: TMR1H=0xF5; TMR1L=0x10; T1CONbits.TMR1ON = 1; break;
  5463  024C  30F5               	movlw	245
  5464  024D                     L48:	
  5465  024D  0097               	movwf	23	;volatile
  5466  024E  3010               	movlw	16
  5467  024F  2A63               	goto	L4
  5468  0250                     i1l5689:	
  5469                           ;final_3_dimer.c: 450: case '5':
  5470                           
  5471                           
  5472                           ;final_3_dimer.c: 451: TMR1H=0xF6; TMR1L=0xA0; T1CONbits.TMR1ON = 1; break;
  5473  0250  30F6               	movlw	246
  5474  0251                     L49:	
  5475  0251  0097               	movwf	23	;volatile
  5476  0252  30A0               	movlw	160
  5477  0253  2A63               	goto	L4
  5478  0254                     i1l5693:	
  5479                           ;final_3_dimer.c: 452: case '6':
  5480                           
  5481                           
  5482                           ;final_3_dimer.c: 453: TMR1H=0xF8; TMR1L=0x30; T1CONbits.TMR1ON = 1; break;
  5483  0254  30F8               	movlw	248
  5484  0255                     L50:	
  5485  0255  0097               	movwf	23	;volatile
  5486  0256  3030               	movlw	48
  5487  0257  2A63               	goto	L4
  5488  0258                     i1l5697:	
  5489                           ;final_3_dimer.c: 454: case '7':
  5490                           
  5491                           
  5492                           ;final_3_dimer.c: 455: TMR1H=0xF9; TMR1L=0xC0; T1CONbits.TMR1ON = 1; break;
  5493  0258  30F9               	movlw	249
  5494  0259                     L51:	
  5495  0259  0097               	movwf	23	;volatile
  5496  025A  30C0               	movlw	192
  5497  025B  2A63               	goto	L4
  5498  025C                     i1l5701:	
  5499                           ;final_3_dimer.c: 456: case '8':
  5500                           
  5501                           
  5502                           ;final_3_dimer.c: 457: TMR1H=0xFB; TMR1L=0x50; T1CONbits.TMR1ON = 1; break;
  5503  025C  30FB               	movlw	251
  5504  025D                     L52:	
  5505  025D  0097               	movwf	23	;volatile
  5506  025E  3050               	movlw	80
  5507  025F  2A63               	goto	L4
  5508  0260                     i1l5705:	
  5509                           ;final_3_dimer.c: 458: case '9':
  5510                           
  5511                           
  5512                           ;final_3_dimer.c: 459: TMR1H=0xFC; TMR1L=0xE0; T1CONbits.TMR1ON = 1; break;
  5513  0260  30FC               	movlw	252
  5514  0261                     L22:	
  5515  0261  0097               	movwf	23	;volatile
  5516  0262  30E0               	movlw	224
  5517  0263                     L4:	
  5518  0263  0096               	movwf	22	;volatile
  5519  0264                     i1l5707:	
  5520  0264  1418               	bsf	24,0	;volatile
  5521                           
  5522                           ;final_3_dimer.c: 462: }
  5523                           
  5524                           ;final_3_dimer.c: 461: break;
  5525                           
  5526                           ;final_3_dimer.c: 460: default:
  5527  0265  2A8B               	goto	i1l269
  5528  0266                     i1l5711:	
  5529                           
  5530                           ; Switch on 2 bytes has been partitioned into a top level switch of size 1, and 1 sub-sw
      +                          itches
  5531                           ; Switch size 1, requested type "space"
  5532                           ; Number of cases is 1, Range of values is 0 to 0
  5533                           ; switch strategies available:
  5534                           ; Name         Instructions Cycles
  5535                           ; simple_byte            4     3 (average)
  5536                           ; direct_byte            8     6 (fixed)
  5537                           ; jumptable            260     6 (fixed)
  5538                           ;	Chosen strategy is simple_byte
  5539  0266  0852               	movf	_FAN_SPEED1_1s+1,w
  5540  0267  3A00               	xorlw	0	; case 0
  5541  0268  1903               	skipnz
  5542  0269  2A6B               	goto	i1l10439
  5543  026A  2A8B               	goto	i1l269
  5544  026B                     i1l10439:	
  5545                           
  5546                           ; Switch size 1, requested type "space"
  5547                           ; Number of cases is 10, Range of values is 48 to 57
  5548                           ; switch strategies available:
  5549                           ; Name         Instructions Cycles
  5550                           ; direct_byte           29     9 (fixed)
  5551                           ; simple_byte           31    16 (average)
  5552                           ; jumptable            263     9 (fixed)
  5553                           ;	Chosen strategy is direct_byte
  5554  026B  0851               	movf	_FAN_SPEED1_1s,w
  5555  026C  3ED0               	addlw	-48
  5556  026D  1C03               	skipc
  5557  026E  2A8B               	goto	i1l269
  5558  026F  0084               	movwf	4
  5559  0270  300A               	movlw	10
  5560  0271  0204               	subwf	4,w
  5561  0272  1803               	skipnc
  5562  0273  2A8B               	goto	i1l269
  5563  0274  3188               	movlp	high i1S10441
  5564  0275  3504               	lslf	4,w
  5565  0276  3EB4               	addlw	low i1S10441
  5566  0277  0082               	movwf	2
  5567                           
  5568                           ;final_3_dimer.c: 466: }
  5569                           
  5570                           ;final_3_dimer.c: 465: break;
  5571                           
  5572                           ;final_3_dimer.c: 464: default:
  5573                           
  5574                           ;final_3_dimer.c: 463: break;
  5575  0278  2A8B               	goto	i1l269
  5576  0279                     i1l5715:	
  5577                           
  5578                           ; Switch on 2 bytes has been partitioned into a top level switch of size 1, and 1 sub-sw
      +                          itches
  5579                           ; Switch size 1, requested type "space"
  5580                           ; Number of cases is 1, Range of values is 0 to 0
  5581                           ; switch strategies available:
  5582                           ; Name         Instructions Cycles
  5583                           ; simple_byte            4     3 (average)
  5584                           ; direct_byte            8     6 (fixed)
  5585                           ; jumptable            260     6 (fixed)
  5586                           ;	Chosen strategy is simple_byte
  5587  0279  0854               	movf	_FAN_SPEED1_10s+1,w
  5588  027A  3A00               	xorlw	0	; case 0
  5589  027B  1903               	skipnz
  5590  027C  2A7E               	goto	i1l10443
  5591  027D  2A8B               	goto	i1l269
  5592  027E                     i1l10443:	
  5593                           
  5594                           ; Switch size 1, requested type "space"
  5595                           ; Number of cases is 10, Range of values is 48 to 57
  5596                           ; switch strategies available:
  5597                           ; Name         Instructions Cycles
  5598                           ; direct_byte           29     9 (fixed)
  5599                           ; simple_byte           31    16 (average)
  5600                           ; jumptable            263     9 (fixed)
  5601                           ;	Chosen strategy is direct_byte
  5602  027E  0853               	movf	_FAN_SPEED1_10s,w
  5603  027F  3ED0               	addlw	-48
  5604  0280  1C03               	skipc
  5605  0281  2A8B               	goto	i1l269
  5606  0282  0084               	movwf	4
  5607  0283  300A               	movlw	10
  5608  0284  0204               	subwf	4,w
  5609  0285  1803               	skipnc
  5610  0286  2A8B               	goto	i1l269
  5611  0287  3188               	movlp	high i1S10445
  5612  0288  3504               	lslf	4,w
  5613  0289  3EC8               	addlw	low i1S10445
  5614  028A  0082               	movwf	2
  5615  028B                     i1l269:	
  5616                           
  5617                           ;final_3_dimer.c: 467: }
  5618                           ;final_3_dimer.c: 468: PIR1bits.CCP1IF = 0;
  5619  028B  0020               	movlb	0	; select bank0
  5620  028C  1111               	bcf	17,2	;volatile
  5621  028D                     i1l268:	
  5622                           
  5623                           ;final_3_dimer.c: 469: }
  5624                           ;final_3_dimer.c: 470: if(PIR3bits.CCP3IF == 1)
  5625  028D  1E13               	btfss	19,4	;volatile
  5626  028E  2CA0               	goto	i1l413
  5627                           
  5628                           ;final_3_dimer.c: 471: {
  5629                           ;final_3_dimer.c: 472: PIR3bits.CCP3IF=0;
  5630  028F  1213               	bcf	19,4	;volatile
  5631                           
  5632                           ;final_3_dimer.c: 474: if(FAN_FLAG2==1 && ak==1)
  5633  0290  0021               	movlb	1	; select bank1
  5634  0291  0355               	decf	_FAN_FLAG2^(0+128),w
  5635  0292  0456               	iorwf	(_FAN_FLAG2+1)^(0+128),w
  5636  0293  1D03               	btfss	3,2
  5637  0294  2C9E               	goto	i1l414
  5638  0295  0020               	movlb	0	; select bank0
  5639  0296  0357               	decf	_ak,w
  5640  0297  0458               	iorwf	_ak+1,w
  5641  0298  1903               	btfsc	3,2
  5642  0299  2C8C               	goto	i1l6177
  5643  029A  2C9E               	goto	i1l414
  5644  029B                     i1l5725:	
  5645                           ;final_3_dimer.c: 481: {
  5646                           ;final_3_dimer.c: 482: case '0':
  5647                           
  5648                           ;final_3_dimer.c: 480: switch(FAN_SPEED2_1s)
  5649                           
  5650                           ;final_3_dimer.c: 477: {
  5651                           ;final_3_dimer.c: 478: case '0':
  5652                           
  5653                           ;final_3_dimer.c: 475: {
  5654                           ;final_3_dimer.c: 476: switch(FAN_SPEED2_10s)
  5655                           
  5656                           
  5657                           ;final_3_dimer.c: 483: TMR3H=0x7B; TMR3L=0x30; T3CONbits.TMR3ON = 1; break;
  5658  029B  307B               	movlw	123
  5659  029C  2C63               	goto	L96
  5660  029D                     i1l5729:	
  5661                           ;final_3_dimer.c: 484: case '1':
  5662                           
  5663                           
  5664                           ;final_3_dimer.c: 485: TMR3H=0x7C; TMR3L=0xC0; T3CONbits.TMR3ON = 1; break;
  5665  029D  307C               	movlw	124
  5666  029E  2C68               	goto	L97
  5667  029F                     i1l5733:	
  5668                           ;final_3_dimer.c: 486: case '2':
  5669                           
  5670                           
  5671                           ;final_3_dimer.c: 487: TMR3H=0x7D; TMR3L=0x88; T3CONbits.TMR3ON = 1; break;
  5672  029F  307D               	movlw	125
  5673  02A0  0028               	movlb	8	; select bank8
  5674  02A1  0092               	movwf	18	;volatile
  5675  02A2  3088               	movlw	136
  5676  02A3  2C75               	goto	L5
  5677  02A4                     i1l5737:	
  5678                           ;final_3_dimer.c: 488: case '3':
  5679                           
  5680                           
  5681                           ;final_3_dimer.c: 489: TMR3H=0x7F; TMR3L=0x18; T3CONbits.TMR3ON = 1; break;
  5682  02A4  307F               	movlw	127
  5683  02A5  0028               	movlb	8	; select bank8
  5684  02A6  0092               	movwf	18	;volatile
  5685  02A7  3018               	movlw	24
  5686  02A8  2C75               	goto	L5
  5687  02A9                     i1l5741:	
  5688                           ;final_3_dimer.c: 490: case '4':
  5689                           
  5690                           
  5691                           ;final_3_dimer.c: 491: TMR3H=0x80; TMR3L=0xA8; T3CONbits.TMR3ON = 1; break;
  5692  02A9  3080               	movlw	128
  5693  02AA  2C04               	goto	L152
  5694  02AB                     i1l5745:	
  5695                           ;final_3_dimer.c: 492: case '5':
  5696                           
  5697                           
  5698                           ;final_3_dimer.c: 493: TMR3H=0x81; TMR3L=0x70; T3CONbits.TMR3ON = 1; break;
  5699  02AB  3081               	movlw	129
  5700  02AC  2C09               	goto	L84
  5701  02AD                     i1l5749:	
  5702                           ;final_3_dimer.c: 494: case '6':
  5703                           
  5704                           
  5705                           ;final_3_dimer.c: 495: TMR3H=0x83; TMR3L=0x00; T3CONbits.TMR3ON = 1; break;
  5706  02AD  3083               	movlw	131
  5707  02AE  2C13               	goto	L85
  5708  02AF                     i1l5755:	
  5709                           ;final_3_dimer.c: 496: case '7':
  5710                           
  5711                           
  5712                           ;final_3_dimer.c: 497: TMR3H=0x83; TMR3L=0xC8; T3CONbits.TMR3ON = 1; break;
  5713  02AF  3083               	movlw	131
  5714  02B0  0028               	movlb	8	; select bank8
  5715  02B1  0092               	movwf	18	;volatile
  5716  02B2  30C8               	movlw	200
  5717  02B3  2C75               	goto	L5
  5718  02B4                     i1l5759:	
  5719                           ;final_3_dimer.c: 498: case '8':
  5720                           
  5721  02B4  2AD5               	goto	i1l5779
  5722  02B5                     i1l5763:	
  5723                           ;final_3_dimer.c: 500: case '9':
  5724                           
  5725                           ;final_3_dimer.c: 499: TMR3H=0x87; TMR3L=0xB0; T3CONbits.TMR3ON = 1; break;
  5726                           
  5727                           
  5728                           ;final_3_dimer.c: 501: TMR3H=0x85; TMR3L=0x58; T3CONbits.TMR3ON = 1; break;
  5729  02B5  3085               	movlw	133
  5730  02B6  0028               	movlb	8	; select bank8
  5731  02B7  0092               	movwf	18	;volatile
  5732  02B8  3058               	movlw	88
  5733  02B9  2C75               	goto	L5
  5734  02BA                     i1l5769:	
  5735                           ;final_3_dimer.c: 504: }
  5736                           
  5737                           ;final_3_dimer.c: 503: break;
  5738                           
  5739                           ;final_3_dimer.c: 502: default:
  5740                           
  5741                           
  5742                           ; Switch on 2 bytes has been partitioned into a top level switch of size 1, and 1 sub-sw
      +                          itches
  5743                           ; Switch size 1, requested type "space"
  5744                           ; Number of cases is 1, Range of values is 0 to 0
  5745                           ; switch strategies available:
  5746                           ; Name         Instructions Cycles
  5747                           ; simple_byte            4     3 (average)
  5748                           ; direct_byte            8     6 (fixed)
  5749                           ; jumptable            260     6 (fixed)
  5750                           ;	Chosen strategy is simple_byte
  5751  02BA  0020               	movlb	0	; select bank0
  5752  02BB  0850               	movf	_FAN_SPEED2_1s+1,w
  5753  02BC  3A00               	xorlw	0	; case 0
  5754  02BD  1903               	skipnz
  5755  02BE  2AC0               	goto	i1l10447
  5756  02BF  2C9E               	goto	i1l414
  5757  02C0                     i1l10447:	
  5758                           
  5759                           ; Switch size 1, requested type "space"
  5760                           ; Number of cases is 10, Range of values is 48 to 57
  5761                           ; switch strategies available:
  5762                           ; Name         Instructions Cycles
  5763                           ; direct_byte           29     9 (fixed)
  5764                           ; simple_byte           31    16 (average)
  5765                           ; jumptable            263     9 (fixed)
  5766                           ;	Chosen strategy is direct_byte
  5767  02C0  084F               	movf	_FAN_SPEED2_1s,w
  5768  02C1  3ED0               	addlw	-48
  5769  02C2  1C03               	skipc
  5770  02C3  2C9E               	goto	i1l414
  5771  02C4  0084               	movwf	4
  5772  02C5  300A               	movlw	10
  5773  02C6  0204               	subwf	4,w
  5774  02C7  1803               	skipnc
  5775  02C8  2C9E               	goto	i1l414
  5776  02C9  3188               	movlp	high i1S10449
  5777  02CA  3504               	lslf	4,w
  5778  02CB  3EDC               	addlw	low i1S10449
  5779  02CC  0082               	movwf	2
  5780                           
  5781                           ;final_3_dimer.c: 505: break;
  5782  02CD  2C9E               	goto	i1l414
  5783  02CE                     i1l5771:	
  5784                           ;final_3_dimer.c: 509: {
  5785                           ;final_3_dimer.c: 510: case '0':
  5786                           
  5787                           ;final_3_dimer.c: 508: switch(FAN_SPEED2_1s)
  5788                           
  5789                           ;final_3_dimer.c: 506: case '1':
  5790                           
  5791                           
  5792                           ;final_3_dimer.c: 511: TMR3H=0x86; TMR3L=0x20; T3CONbits.TMR3ON = 1; break;
  5793  02CE  3086               	movlw	134
  5794  02CF  2C1D               	goto	L87
  5795  02D0                     i1l5775:	
  5796                           ;final_3_dimer.c: 512: case '1':
  5797                           
  5798                           
  5799                           ;final_3_dimer.c: 513: TMR3H=0x86; TMR3L=0xE8; T3CONbits.TMR3ON = 1; break;
  5800  02D0  3086               	movlw	134
  5801  02D1  0028               	movlb	8	; select bank8
  5802  02D2  0092               	movwf	18	;volatile
  5803  02D3  30E8               	movlw	232
  5804  02D4  2C75               	goto	L5
  5805  02D5                     i1l5779:	
  5806                           ;final_3_dimer.c: 514: case '2':
  5807                           
  5808                           
  5809                           ;final_3_dimer.c: 515: TMR3H=0x87; TMR3L=0xB0; T3CONbits.TMR3ON = 1; break;
  5810  02D5  3087               	movlw	135
  5811  02D6  2C22               	goto	L88
  5812  02D7                     i1l5783:	
  5813                           ;final_3_dimer.c: 516: case '3':
  5814                           
  5815                           
  5816                           ;final_3_dimer.c: 517: TMR3H=0x88; TMR3L=0x78; T3CONbits.TMR3ON = 1; break;
  5817  02D7  3088               	movlw	136
  5818  02D8  2C27               	goto	L154
  5819  02D9                     i1l5787:	
  5820                           ;final_3_dimer.c: 518: case '4':
  5821                           
  5822                           
  5823                           ;final_3_dimer.c: 519: TMR3H=0x89; TMR3L=0x40; T3CONbits.TMR3ON = 1; break;
  5824  02D9  3089               	movlw	137
  5825  02DA  2C2C               	goto	L89
  5826  02DB                     i1l5791:	
  5827                           ;final_3_dimer.c: 520: case '5':
  5828                           
  5829                           
  5830                           ;final_3_dimer.c: 521: TMR3H=0x8A; TMR3L=0x08; T3CONbits.TMR3ON = 1; break;
  5831  02DB  308A               	movlw	138
  5832  02DC  0028               	movlb	8	; select bank8
  5833  02DD  0092               	movwf	18	;volatile
  5834  02DE  3008               	movlw	8
  5835  02DF  2C75               	goto	L5
  5836  02E0                     i1l5795:	
  5837                           ;final_3_dimer.c: 522: case '6':
  5838                           
  5839                           
  5840                           ;final_3_dimer.c: 523: TMR3H=0x8A; TMR3L=0xD0; T3CONbits.TMR3ON = 1; break;
  5841  02E0  308A               	movlw	138
  5842  02E1  2C45               	goto	L90
  5843  02E2                     i1l5799:	
  5844                           ;final_3_dimer.c: 524: case '7':
  5845                           
  5846                           
  5847                           ;final_3_dimer.c: 525: TMR3H=0x8B; TMR3L=0x98; T3CONbits.TMR3ON = 1; break;
  5848  02E2  308B               	movlw	139
  5849  02E3  0028               	movlb	8	; select bank8
  5850  02E4  0092               	movwf	18	;volatile
  5851  02E5  3098               	movlw	152
  5852  02E6  2C75               	goto	L5
  5853  02E7                     i1l5803:	
  5854                           ;final_3_dimer.c: 526: case '8':
  5855                           
  5856                           
  5857                           ;final_3_dimer.c: 527: TMR3H=0x8C; TMR3L=0x60; T3CONbits.TMR3ON = 1; break;
  5858  02E7  308C               	movlw	140
  5859  02E8  2C4A               	goto	L91
  5860  02E9                     i1l5807:	
  5861                           ;final_3_dimer.c: 528: case '9':
  5862                           
  5863                           
  5864                           ;final_3_dimer.c: 529: TMR3H=0x8D; TMR3L=0x28; T3CONbits.TMR3ON = 1; break;
  5865  02E9  308D               	movlw	141
  5866  02EA  0028               	movlb	8	; select bank8
  5867  02EB  0092               	movwf	18	;volatile
  5868  02EC  3028               	movlw	40
  5869  02ED  2C75               	goto	L5
  5870  02EE                     i1l5813:	
  5871                           ;final_3_dimer.c: 532: }
  5872                           
  5873                           ;final_3_dimer.c: 531: break;
  5874                           
  5875                           ;final_3_dimer.c: 530: default:
  5876                           
  5877                           
  5878                           ; Switch on 2 bytes has been partitioned into a top level switch of size 1, and 1 sub-sw
      +                          itches
  5879                           ; Switch size 1, requested type "space"
  5880                           ; Number of cases is 1, Range of values is 0 to 0
  5881                           ; switch strategies available:
  5882                           ; Name         Instructions Cycles
  5883                           ; simple_byte            4     3 (average)
  5884                           ; direct_byte            8     6 (fixed)
  5885                           ; jumptable            260     6 (fixed)
  5886                           ;	Chosen strategy is simple_byte
  5887  02EE  0020               	movlb	0	; select bank0
  5888  02EF  0850               	movf	_FAN_SPEED2_1s+1,w
  5889  02F0  3A00               	xorlw	0	; case 0
  5890  02F1  1903               	skipnz
  5891  02F2  2AF4               	goto	i1l10451
  5892  02F3  2C9E               	goto	i1l414
  5893  02F4                     i1l10451:	
  5894                           
  5895                           ; Switch size 1, requested type "space"
  5896                           ; Number of cases is 10, Range of values is 48 to 57
  5897                           ; switch strategies available:
  5898                           ; Name         Instructions Cycles
  5899                           ; direct_byte           29     9 (fixed)
  5900                           ; simple_byte           31    16 (average)
  5901                           ; jumptable            263     9 (fixed)
  5902                           ;	Chosen strategy is direct_byte
  5903  02F4  084F               	movf	_FAN_SPEED2_1s,w
  5904  02F5  3ED0               	addlw	-48
  5905  02F6  1C03               	skipc
  5906  02F7  2C9E               	goto	i1l414
  5907  02F8  0084               	movwf	4
  5908  02F9  300A               	movlw	10
  5909  02FA  0204               	subwf	4,w
  5910  02FB  1803               	skipnc
  5911  02FC  2C9E               	goto	i1l414
  5912  02FD  3189               	movlp	high i1S10453
  5913  02FE  3504               	lslf	4,w
  5914  02FF  3E00               	addlw	low i1S10453
  5915  0300  0082               	movwf	2
  5916                           
  5917                           ;final_3_dimer.c: 533: break;
  5918  0301  2C9E               	goto	i1l414
  5919  0302                     i1l5815:	
  5920                           ;final_3_dimer.c: 537: {
  5921                           ;final_3_dimer.c: 538: case '0':
  5922                           
  5923                           ;final_3_dimer.c: 536: switch(FAN_SPEED2_1s)
  5924                           
  5925                           ;final_3_dimer.c: 534: case '2':
  5926                           
  5927                           
  5928                           ;final_3_dimer.c: 539: TMR3H=0x8D; TMR3L=0xF0; T3CONbits.TMR3ON = 1; break;
  5929  0302  308D               	movlw	141
  5930  0303  2C4F               	goto	L92
  5931  0304                     i1l5819:	
  5932                           ;final_3_dimer.c: 540: case '1':
  5933                           
  5934                           
  5935                           ;final_3_dimer.c: 541: TMR3H=0x8E; TMR3L=0xB8; T3CONbits.TMR3ON = 1; break;
  5936  0304  308E               	movlw	142
  5937  0305  0028               	movlb	8	; select bank8
  5938  0306  0092               	movwf	18	;volatile
  5939  0307  30B8               	movlw	184
  5940  0308  2C75               	goto	L5
  5941  0309                     i1l5823:	
  5942                           ;final_3_dimer.c: 542: case '2':
  5943                           
  5944                           
  5945                           ;final_3_dimer.c: 543: TMR3H=0x8F; TMR3L=0x80; T3CONbits.TMR3ON = 1; break;
  5946  0309  308F               	movlw	143
  5947  030A  2C54               	goto	L93
  5948  030B                     i1l5827:	
  5949                           ;final_3_dimer.c: 544: case '3':
  5950                           
  5951                           
  5952                           ;final_3_dimer.c: 545: TMR3H=0x90; TMR3L=0x48; T3CONbits.TMR3ON = 1; break;
  5953  030B  3090               	movlw	144
  5954  030C  0028               	movlb	8	; select bank8
  5955  030D  0092               	movwf	18	;volatile
  5956  030E  3048               	movlw	72
  5957  030F  2C75               	goto	L5
  5958  0310                     i1l5831:	
  5959                           ;final_3_dimer.c: 546: case '4':
  5960                           
  5961                           
  5962                           ;final_3_dimer.c: 547: TMR3H=0x91; TMR3L=0x10; T3CONbits.TMR3ON = 1; break;
  5963  0310  3091               	movlw	145
  5964  0311  2C59               	goto	L94
  5965  0312                     i1l5835:	
  5966                           ;final_3_dimer.c: 548: case '5':
  5967                           
  5968                           
  5969                           ;final_3_dimer.c: 549: TMR3H=0x91; TMR3L=0xD8; T3CONbits.TMR3ON = 1; break;
  5970  0312  3091               	movlw	145
  5971  0313  0028               	movlb	8	; select bank8
  5972  0314  0092               	movwf	18	;volatile
  5973  0315  30D8               	movlw	216
  5974  0316  2C75               	goto	L5
  5975  0317                     i1l5839:	
  5976                           ;final_3_dimer.c: 550: case '6':
  5977                           
  5978                           
  5979                           ;final_3_dimer.c: 551: TMR3H=0x92; TMR3L=0xA0; T3CONbits.TMR3ON = 1; break;
  5980  0317  3092               	movlw	146
  5981  0318  2C5E               	goto	L95
  5982  0319                     i1l5843:	
  5983                           ;final_3_dimer.c: 552: case '7':
  5984                           
  5985                           
  5986                           ;final_3_dimer.c: 553: TMR3H=0x93; TMR3L=0x68; T3CONbits.TMR3ON = 1; break;
  5987  0319  3093               	movlw	147
  5988  031A  0028               	movlb	8	; select bank8
  5989  031B  0092               	movwf	18	;volatile
  5990  031C  3068               	movlw	104
  5991  031D  2C75               	goto	L5
  5992  031E                     i1l5847:	
  5993                           ;final_3_dimer.c: 554: case '8':
  5994                           
  5995                           
  5996                           ;final_3_dimer.c: 555: TMR3H=0x94; TMR3L=0x30; T3CONbits.TMR3ON = 1; break;
  5997  031E  3094               	movlw	148
  5998  031F  2C63               	goto	L96
  5999  0320                     i1l5851:	
  6000                           ;final_3_dimer.c: 556: case '9':
  6001                           
  6002                           
  6003                           ;final_3_dimer.c: 557: TMR3H=0x94; TMR3L=0xF8; T3CONbits.TMR3ON = 1; break;
  6004  0320  3094               	movlw	148
  6005  0321  0028               	movlb	8	; select bank8
  6006  0322  0092               	movwf	18	;volatile
  6007  0323  30F8               	movlw	248
  6008  0324  2C75               	goto	L5
  6009  0325                     i1l5857:	
  6010                           ;final_3_dimer.c: 560: }
  6011                           
  6012                           ;final_3_dimer.c: 559: break;
  6013                           
  6014                           ;final_3_dimer.c: 558: default:
  6015                           
  6016                           
  6017                           ; Switch on 2 bytes has been partitioned into a top level switch of size 1, and 1 sub-sw
      +                          itches
  6018                           ; Switch size 1, requested type "space"
  6019                           ; Number of cases is 1, Range of values is 0 to 0
  6020                           ; switch strategies available:
  6021                           ; Name         Instructions Cycles
  6022                           ; simple_byte            4     3 (average)
  6023                           ; direct_byte            8     6 (fixed)
  6024                           ; jumptable            260     6 (fixed)
  6025                           ;	Chosen strategy is simple_byte
  6026  0325  0020               	movlb	0	; select bank0
  6027  0326  0850               	movf	_FAN_SPEED2_1s+1,w
  6028  0327  3A00               	xorlw	0	; case 0
  6029  0328  1903               	skipnz
  6030  0329  2B2B               	goto	i1l10455
  6031  032A  2C9E               	goto	i1l414
  6032  032B                     i1l10455:	
  6033                           
  6034                           ; Switch size 1, requested type "space"
  6035                           ; Number of cases is 10, Range of values is 48 to 57
  6036                           ; switch strategies available:
  6037                           ; Name         Instructions Cycles
  6038                           ; direct_byte           29     9 (fixed)
  6039                           ; simple_byte           31    16 (average)
  6040                           ; jumptable            263     9 (fixed)
  6041                           ;	Chosen strategy is direct_byte
  6042  032B  084F               	movf	_FAN_SPEED2_1s,w
  6043  032C  3ED0               	addlw	-48
  6044  032D  1C03               	skipc
  6045  032E  2C9E               	goto	i1l414
  6046  032F  0084               	movwf	4
  6047  0330  300A               	movlw	10
  6048  0331  0204               	subwf	4,w
  6049  0332  1803               	skipnc
  6050  0333  2C9E               	goto	i1l414
  6051  0334  3189               	movlp	high i1S10457
  6052  0335  3504               	lslf	4,w
  6053  0336  3E14               	addlw	low i1S10457
  6054  0337  0082               	movwf	2
  6055                           
  6056                           ;final_3_dimer.c: 561: break;
  6057  0338  2C9E               	goto	i1l414
  6058  0339                     i1l5859:	
  6059                           ;final_3_dimer.c: 565: {
  6060                           ;final_3_dimer.c: 566: case '0':
  6061                           
  6062                           ;final_3_dimer.c: 564: switch(FAN_SPEED2_1s)
  6063                           
  6064                           ;final_3_dimer.c: 562: case '3':
  6065                           
  6066                           
  6067                           ;final_3_dimer.c: 567: TMR3H=0x95; TMR3L=0xC0; T3CONbits.TMR3ON = 1; break;
  6068  0339  3095               	movlw	149
  6069  033A  2C68               	goto	L97
  6070  033B                     i1l5863:	
  6071                           ;final_3_dimer.c: 568: case '1':
  6072                           
  6073                           
  6074                           ;final_3_dimer.c: 569: TMR3H=0x97; TMR3L=0x50; T3CONbits.TMR3ON = 1; break;
  6075  033B  3097               	movlw	151
  6076  033C  2C6D               	goto	L98
  6077  033D                     i1l5867:	
  6078                           ;final_3_dimer.c: 570: case '2':
  6079                           
  6080                           
  6081                           ;final_3_dimer.c: 571: TMR3H=0x98; TMR3L=0xE0; T3CONbits.TMR3ON = 1; break;
  6082  033D  3098               	movlw	152
  6083  033E  2C72               	goto	L68
  6084  033F                     i1l5871:	
  6085                           ;final_3_dimer.c: 572: case '3':
  6086                           
  6087                           
  6088                           ;final_3_dimer.c: 573: TMR3H=0x9A; TMR3L=0x70; T3CONbits.TMR3ON = 1; break;
  6089  033F  309A               	movlw	154
  6090  0340  2C09               	goto	L84
  6091  0341                     i1l5875:	
  6092                           ;final_3_dimer.c: 574: case '4':
  6093                           
  6094                           
  6095                           ;final_3_dimer.c: 575: TMR3H=0x9C; TMR3L=0x00; T3CONbits.TMR3ON = 1; break;
  6096  0341  309C               	movlw	156
  6097  0342  2C13               	goto	L85
  6098  0343                     i1l5881:	
  6099                           ;final_3_dimer.c: 576: case '5':
  6100                           
  6101                           
  6102                           ;final_3_dimer.c: 577: TMR3H=0x9D; TMR3L=0x90; T3CONbits.TMR3ON = 1; break;
  6103  0343  309D               	movlw	157
  6104  0344  2C18               	goto	L86
  6105  0345                     i1l5885:	
  6106                           ;final_3_dimer.c: 578: case '6':
  6107                           
  6108                           
  6109                           ;final_3_dimer.c: 579: TMR3H=0x9F; TMR3L=0x20; T3CONbits.TMR3ON = 1; break;
  6110  0345  309F               	movlw	159
  6111  0346  2C1D               	goto	L87
  6112  0347                     i1l5889:	
  6113                           ;final_3_dimer.c: 580: case '7':
  6114                           
  6115                           
  6116                           ;final_3_dimer.c: 581: TMR3H=0xA0; TMR3L=0xB0; T3CONbits.TMR3ON = 1; break;
  6117  0347  30A0               	movlw	160
  6118  0348  2C22               	goto	L88
  6119  0349                     i1l5893:	
  6120                           ;final_3_dimer.c: 582: case '8':
  6121                           
  6122                           
  6123                           ;final_3_dimer.c: 583: TMR3H=0xA2; TMR3L=0x40; T3CONbits.TMR3ON = 1; break;
  6124  0349  30A2               	movlw	162
  6125  034A  2C2C               	goto	L89
  6126  034B                     i1l5897:	
  6127                           ;final_3_dimer.c: 584: case '9':
  6128                           
  6129                           
  6130                           ;final_3_dimer.c: 585: TMR3H=0xA3; TMR3L=0xD0; T3CONbits.TMR3ON = 1; break;
  6131  034B  30A3               	movlw	163
  6132  034C  2C45               	goto	L90
  6133  034D                     i1l5903:	
  6134                           ;final_3_dimer.c: 588: }
  6135                           
  6136                           ;final_3_dimer.c: 587: break;
  6137                           
  6138                           ;final_3_dimer.c: 586: default:
  6139                           
  6140                           
  6141                           ; Switch on 2 bytes has been partitioned into a top level switch of size 1, and 1 sub-sw
      +                          itches
  6142                           ; Switch size 1, requested type "space"
  6143                           ; Number of cases is 1, Range of values is 0 to 0
  6144                           ; switch strategies available:
  6145                           ; Name         Instructions Cycles
  6146                           ; simple_byte            4     3 (average)
  6147                           ; direct_byte            8     6 (fixed)
  6148                           ; jumptable            260     6 (fixed)
  6149                           ;	Chosen strategy is simple_byte
  6150  034D  0020               	movlb	0	; select bank0
  6151  034E  0850               	movf	_FAN_SPEED2_1s+1,w
  6152  034F  3A00               	xorlw	0	; case 0
  6153  0350  1903               	skipnz
  6154  0351  2B53               	goto	i1l10459
  6155  0352  2C9E               	goto	i1l414
  6156  0353                     i1l10459:	
  6157                           
  6158                           ; Switch size 1, requested type "space"
  6159                           ; Number of cases is 10, Range of values is 48 to 57
  6160                           ; switch strategies available:
  6161                           ; Name         Instructions Cycles
  6162                           ; direct_byte           29     9 (fixed)
  6163                           ; simple_byte           31    16 (average)
  6164                           ; jumptable            263     9 (fixed)
  6165                           ;	Chosen strategy is direct_byte
  6166  0353  084F               	movf	_FAN_SPEED2_1s,w
  6167  0354  3ED0               	addlw	-48
  6168  0355  1C03               	skipc
  6169  0356  2C9E               	goto	i1l414
  6170  0357  0084               	movwf	4
  6171  0358  300A               	movlw	10
  6172  0359  0204               	subwf	4,w
  6173  035A  1803               	skipnc
  6174  035B  2C9E               	goto	i1l414
  6175  035C  3189               	movlp	high i1S10461
  6176  035D  3504               	lslf	4,w
  6177  035E  3E28               	addlw	low i1S10461
  6178  035F  0082               	movwf	2
  6179                           
  6180                           ;final_3_dimer.c: 589: break;
  6181  0360  2C9E               	goto	i1l414
  6182  0361                     i1l5905:	
  6183                           ;final_3_dimer.c: 593: {
  6184                           ;final_3_dimer.c: 594: case '0':
  6185                           
  6186                           ;final_3_dimer.c: 592: switch(FAN_SPEED2_1s)
  6187                           
  6188                           ;final_3_dimer.c: 590: case '4':
  6189                           
  6190                           
  6191                           ;final_3_dimer.c: 595: TMR3H=0xA5; TMR3L=0x60; T3CONbits.TMR3ON = 1; break;
  6192  0361  30A5               	movlw	165
  6193  0362  2C4A               	goto	L91
  6194  0363                     i1l5909:	
  6195                           ;final_3_dimer.c: 596: case '1':
  6196                           
  6197                           
  6198                           ;final_3_dimer.c: 597: TMR3H=0xA6; TMR3L=0xF0; T3CONbits.TMR3ON = 1; break;
  6199  0363  30A6               	movlw	166
  6200  0364  2C4F               	goto	L92
  6201  0365                     i1l5913:	
  6202                           ;final_3_dimer.c: 598: case '2':
  6203                           
  6204                           
  6205                           ;final_3_dimer.c: 599: TMR3H=0xA8; TMR3L=0x80; T3CONbits.TMR3ON = 1; break;
  6206  0365  30A8               	movlw	168
  6207  0366  2C54               	goto	L93
  6208  0367                     i1l5917:	
  6209                           ;final_3_dimer.c: 600: case '3':
  6210                           
  6211                           
  6212                           ;final_3_dimer.c: 601: TMR3H=0xAA; TMR3L=0x10; T3CONbits.TMR3ON = 1; break;
  6213  0367  30AA               	movlw	170
  6214  0368  2C59               	goto	L94
  6215  0369                     i1l5921:	
  6216                           ;final_3_dimer.c: 602: case '4':
  6217                           
  6218                           
  6219                           ;final_3_dimer.c: 603: TMR3H=0xAB; TMR3L=0xA0; T3CONbits.TMR3ON = 1; break;
  6220  0369  30AB               	movlw	171
  6221  036A  2C5E               	goto	L95
  6222  036B                     i1l5925:	
  6223                           ;final_3_dimer.c: 604: case '5':
  6224                           
  6225                           
  6226                           ;final_3_dimer.c: 605: TMR3H=0xAD; TMR3L=0x30; T3CONbits.TMR3ON = 1; break;
  6227  036B  30AD               	movlw	173
  6228  036C  2C63               	goto	L96
  6229  036D                     i1l5929:	
  6230                           ;final_3_dimer.c: 606: case '6':
  6231                           
  6232                           
  6233                           ;final_3_dimer.c: 607: TMR3H=0xAE; TMR3L=0xC0; T3CONbits.TMR3ON = 1; break;
  6234  036D  30AE               	movlw	174
  6235  036E  2C68               	goto	L97
  6236  036F                     i1l5933:	
  6237                           ;final_3_dimer.c: 608: case '7':
  6238                           
  6239                           
  6240                           ;final_3_dimer.c: 609: TMR3H=0xB0; TMR3L=0x50; T3CONbits.TMR3ON = 1; break;
  6241  036F  30B0               	movlw	176
  6242  0370  2C6D               	goto	L98
  6243  0371                     i1l5937:	
  6244                           ;final_3_dimer.c: 610: case '8':
  6245                           
  6246                           
  6247                           ;final_3_dimer.c: 611: TMR3H=0xB1; TMR3L=0xE0; T3CONbits.TMR3ON = 1; break;
  6248  0371  30B1               	movlw	177
  6249  0372  2C72               	goto	L68
  6250  0373                     i1l5941:	
  6251                           ;final_3_dimer.c: 612: case '9':
  6252                           
  6253                           
  6254                           ;final_3_dimer.c: 613: TMR3H=0xB3; TMR3L=0x70; T3CONbits.TMR3ON = 1; break;
  6255  0373  30B3               	movlw	179
  6256  0374  2C09               	goto	L84
  6257  0375                     i1l5947:	
  6258                           ;final_3_dimer.c: 616: }
  6259                           
  6260                           ;final_3_dimer.c: 615: break;
  6261                           
  6262                           ;final_3_dimer.c: 614: default:
  6263                           
  6264                           
  6265                           ; Switch on 2 bytes has been partitioned into a top level switch of size 1, and 1 sub-sw
      +                          itches
  6266                           ; Switch size 1, requested type "space"
  6267                           ; Number of cases is 1, Range of values is 0 to 0
  6268                           ; switch strategies available:
  6269                           ; Name         Instructions Cycles
  6270                           ; simple_byte            4     3 (average)
  6271                           ; direct_byte            8     6 (fixed)
  6272                           ; jumptable            260     6 (fixed)
  6273                           ;	Chosen strategy is simple_byte
  6274  0375  0020               	movlb	0	; select bank0
  6275  0376  0850               	movf	_FAN_SPEED2_1s+1,w
  6276  0377  3A00               	xorlw	0	; case 0
  6277  0378  1903               	skipnz
  6278  0379  2B7B               	goto	i1l10463
  6279  037A  2C9E               	goto	i1l414
  6280  037B                     i1l10463:	
  6281                           
  6282                           ; Switch size 1, requested type "space"
  6283                           ; Number of cases is 10, Range of values is 48 to 57
  6284                           ; switch strategies available:
  6285                           ; Name         Instructions Cycles
  6286                           ; direct_byte           29     9 (fixed)
  6287                           ; simple_byte           31    16 (average)
  6288                           ; jumptable            263     9 (fixed)
  6289                           ;	Chosen strategy is direct_byte
  6290  037B  084F               	movf	_FAN_SPEED2_1s,w
  6291  037C  3ED0               	addlw	-48
  6292  037D  1C03               	skipc
  6293  037E  2C9E               	goto	i1l414
  6294  037F  0084               	movwf	4
  6295  0380  300A               	movlw	10
  6296  0381  0204               	subwf	4,w
  6297  0382  1803               	skipnc
  6298  0383  2C9E               	goto	i1l414
  6299  0384  3189               	movlp	high i1S10465
  6300  0385  3504               	lslf	4,w
  6301  0386  3E3C               	addlw	low i1S10465
  6302  0387  0082               	movwf	2
  6303                           
  6304                           ;final_3_dimer.c: 617: break;
  6305  0388  2C9E               	goto	i1l414
  6306  0389                     i1l5949:	
  6307                           ;final_3_dimer.c: 621: {
  6308                           ;final_3_dimer.c: 622: case '0':
  6309                           
  6310                           ;final_3_dimer.c: 620: switch(FAN_SPEED2_1s)
  6311                           
  6312                           ;final_3_dimer.c: 618: case '5':
  6313                           
  6314                           
  6315                           ;final_3_dimer.c: 623: TMR3H=0xB5; TMR3L=0x00; T3CONbits.TMR3ON = 1; break;
  6316  0389  30B5               	movlw	181
  6317  038A  2C13               	goto	L85
  6318  038B                     i1l5955:	
  6319                           ;final_3_dimer.c: 624: case '1':
  6320                           
  6321                           
  6322                           ;final_3_dimer.c: 625: TMR3H=0xB6; TMR3L=0x90; T3CONbits.TMR3ON = 1; break;
  6323  038B  30B6               	movlw	182
  6324  038C  2C18               	goto	L86
  6325  038D                     i1l5959:	
  6326                           ;final_3_dimer.c: 626: case '2':
  6327                           
  6328                           
  6329                           ;final_3_dimer.c: 627: TMR3H=0xB8; TMR3L=0x20; T3CONbits.TMR3ON = 1; break;
  6330  038D  30B8               	movlw	184
  6331  038E  2C1D               	goto	L87
  6332  038F                     i1l5963:	
  6333                           ;final_3_dimer.c: 628: case '3':
  6334                           
  6335                           
  6336                           ;final_3_dimer.c: 629: TMR3H=0xB9; TMR3L=0xB0; T3CONbits.TMR3ON = 1; break;
  6337  038F  30B9               	movlw	185
  6338  0390  2C22               	goto	L88
  6339  0391                     i1l5967:	
  6340                           ;final_3_dimer.c: 630: case '4':
  6341                           
  6342                           
  6343                           ;final_3_dimer.c: 631: TMR3H=0xBB; TMR3L=0x40; T3CONbits.TMR3ON = 1; break;
  6344  0391  30BB               	movlw	187
  6345  0392  2C2C               	goto	L89
  6346  0393                     i1l5971:	
  6347                           ;final_3_dimer.c: 632: case '5':
  6348                           
  6349                           
  6350                           ;final_3_dimer.c: 633: TMR3H=0xBC; TMR3L=0xD0; T3CONbits.TMR3ON = 1; break;
  6351  0393  30BC               	movlw	188
  6352  0394  2C45               	goto	L90
  6353  0395                     i1l5975:	
  6354                           ;final_3_dimer.c: 634: case '6':
  6355                           
  6356                           
  6357                           ;final_3_dimer.c: 635: TMR3H=0xBE; TMR3L=0x60; T3CONbits.TMR3ON = 1; break;
  6358  0395  30BE               	movlw	190
  6359  0396  2C4A               	goto	L91
  6360  0397                     i1l5979:	
  6361                           ;final_3_dimer.c: 636: case '7':
  6362                           
  6363                           
  6364                           ;final_3_dimer.c: 637: TMR3H=0xBF; TMR3L=0xF0; T3CONbits.TMR3ON = 1; break;
  6365  0397  30BF               	movlw	191
  6366  0398  2C4F               	goto	L92
  6367  0399                     i1l5983:	
  6368                           ;final_3_dimer.c: 638: case '8':
  6369                           
  6370                           
  6371                           ;final_3_dimer.c: 639: TMR3H=0xC1; TMR3L=0x80; T3CONbits.TMR3ON = 1; break;
  6372  0399  30C1               	movlw	193
  6373  039A  2C54               	goto	L93
  6374  039B                     i1l5987:	
  6375                           ;final_3_dimer.c: 640: case '9':
  6376                           
  6377                           
  6378                           ;final_3_dimer.c: 641: TMR3H=0xC3; TMR3L=0x10; T3CONbits.TMR3ON = 1; break;
  6379  039B  30C3               	movlw	195
  6380  039C  2C59               	goto	L94
  6381  039D                     i1l5993:	
  6382                           ;final_3_dimer.c: 644: }
  6383                           
  6384                           ;final_3_dimer.c: 643: break;
  6385                           
  6386                           ;final_3_dimer.c: 642: default:
  6387                           
  6388                           
  6389                           ; Switch on 2 bytes has been partitioned into a top level switch of size 1, and 1 sub-sw
      +                          itches
  6390                           ; Switch size 1, requested type "space"
  6391                           ; Number of cases is 1, Range of values is 0 to 0
  6392                           ; switch strategies available:
  6393                           ; Name         Instructions Cycles
  6394                           ; simple_byte            4     3 (average)
  6395                           ; direct_byte            8     6 (fixed)
  6396                           ; jumptable            260     6 (fixed)
  6397                           ;	Chosen strategy is simple_byte
  6398  039D  0020               	movlb	0	; select bank0
  6399  039E  0850               	movf	_FAN_SPEED2_1s+1,w
  6400  039F  3A00               	xorlw	0	; case 0
  6401  03A0  1903               	skipnz
  6402  03A1  2BA3               	goto	i1l10467
  6403  03A2  2C9E               	goto	i1l414
  6404  03A3                     i1l10467:	
  6405                           
  6406                           ; Switch size 1, requested type "space"
  6407                           ; Number of cases is 10, Range of values is 48 to 57
  6408                           ; switch strategies available:
  6409                           ; Name         Instructions Cycles
  6410                           ; direct_byte           29     9 (fixed)
  6411                           ; simple_byte           31    16 (average)
  6412                           ; jumptable            263     9 (fixed)
  6413                           ;	Chosen strategy is direct_byte
  6414  03A3  084F               	movf	_FAN_SPEED2_1s,w
  6415  03A4  3ED0               	addlw	-48
  6416  03A5  1C03               	skipc
  6417  03A6  2C9E               	goto	i1l414
  6418  03A7  0084               	movwf	4
  6419  03A8  300A               	movlw	10
  6420  03A9  0204               	subwf	4,w
  6421  03AA  1803               	skipnc
  6422  03AB  2C9E               	goto	i1l414
  6423  03AC  3189               	movlp	high i1S10469
  6424  03AD  3504               	lslf	4,w
  6425  03AE  3E50               	addlw	low i1S10469
  6426  03AF  0082               	movwf	2
  6427                           
  6428                           ;final_3_dimer.c: 645: break;
  6429  03B0  2C9E               	goto	i1l414
  6430  03B1                     i1l5995:	
  6431                           ;final_3_dimer.c: 649: {
  6432                           ;final_3_dimer.c: 650: case '0':
  6433                           
  6434                           ;final_3_dimer.c: 648: switch(FAN_SPEED2_1s)
  6435                           
  6436                           ;final_3_dimer.c: 646: case '6':
  6437                           
  6438                           
  6439                           ;final_3_dimer.c: 651: TMR3H=0xC4; TMR3L=0xA0; T3CONbits.TMR3ON = 1; break;
  6440  03B1  30C4               	movlw	196
  6441  03B2  2C5E               	goto	L95
  6442  03B3                     i1l5999:	
  6443                           ;final_3_dimer.c: 652: case '1':
  6444                           
  6445                           
  6446                           ;final_3_dimer.c: 653: TMR3H=0xC6; TMR3L=0x30; T3CONbits.TMR3ON = 1; break;
  6447  03B3  30C6               	movlw	198
  6448  03B4  2C63               	goto	L96
  6449  03B5                     i1l6003:	
  6450                           ;final_3_dimer.c: 654: case '2':
  6451                           
  6452                           
  6453                           ;final_3_dimer.c: 655: TMR3H=0xC7; TMR3L=0xC0; T3CONbits.TMR3ON = 1; break;
  6454  03B5  30C7               	movlw	199
  6455  03B6  2C68               	goto	L97
  6456  03B7                     i1l6007:	
  6457                           ;final_3_dimer.c: 656: case '3':
  6458                           
  6459                           
  6460                           ;final_3_dimer.c: 657: TMR3H=0xC9; TMR3L=0x50; T3CONbits.TMR3ON = 1; break;
  6461  03B7  30C9               	movlw	201
  6462  03B8  2C6D               	goto	L98
  6463  03B9                     i1l6011:	
  6464                           ;final_3_dimer.c: 658: case '4':
  6465                           
  6466                           
  6467                           ;final_3_dimer.c: 659: TMR3H=0xCA; TMR3L=0xE0; T3CONbits.TMR3ON = 1; break;
  6468  03B9  30CA               	movlw	202
  6469  03BA  2C72               	goto	L68
  6470  03BB                     i1l6015:	
  6471                           ;final_3_dimer.c: 660: case '5':
  6472                           
  6473                           
  6474                           ;final_3_dimer.c: 661: TMR3H=0xCC; TMR3L=0x70; T3CONbits.TMR3ON = 1; break;
  6475  03BB  30CC               	movlw	204
  6476  03BC  2C09               	goto	L84
  6477  03BD                     i1l6019:	
  6478                           ;final_3_dimer.c: 662: case '6':
  6479                           
  6480                           
  6481                           ;final_3_dimer.c: 663: TMR3H=0xCE; TMR3L=0x00; T3CONbits.TMR3ON = 1; break;
  6482  03BD  30CE               	movlw	206
  6483  03BE  2C13               	goto	L85
  6484  03BF                     i1l6025:	
  6485                           ;final_3_dimer.c: 664: case '7':
  6486                           
  6487                           
  6488                           ;final_3_dimer.c: 665: TMR3H=0xCF; TMR3L=0x90; T3CONbits.TMR3ON = 1; break;
  6489  03BF  30CF               	movlw	207
  6490  03C0  2C18               	goto	L86
  6491  03C1                     i1l6029:	
  6492                           ;final_3_dimer.c: 666: case '8':
  6493                           
  6494                           
  6495                           ;final_3_dimer.c: 667: TMR3H=0xD1; TMR3L=0x20; T3CONbits.TMR3ON = 1; break;
  6496  03C1  30D1               	movlw	209
  6497  03C2  2C1D               	goto	L87
  6498  03C3                     i1l6033:	
  6499                           ;final_3_dimer.c: 668: case '9':
  6500                           
  6501                           
  6502                           ;final_3_dimer.c: 669: TMR3H=0xD2; TMR3L=0xB0; T3CONbits.TMR3ON = 1; break;
  6503  03C3  30D2               	movlw	210
  6504  03C4  2C22               	goto	L88
  6505  03C5                     i1l6039:	
  6506                           ;final_3_dimer.c: 672: }
  6507                           
  6508                           ;final_3_dimer.c: 671: break;
  6509                           
  6510                           ;final_3_dimer.c: 670: default:
  6511                           
  6512                           
  6513                           ; Switch on 2 bytes has been partitioned into a top level switch of size 1, and 1 sub-sw
      +                          itches
  6514                           ; Switch size 1, requested type "space"
  6515                           ; Number of cases is 1, Range of values is 0 to 0
  6516                           ; switch strategies available:
  6517                           ; Name         Instructions Cycles
  6518                           ; simple_byte            4     3 (average)
  6519                           ; direct_byte            8     6 (fixed)
  6520                           ; jumptable            260     6 (fixed)
  6521                           ;	Chosen strategy is simple_byte
  6522  03C5  0020               	movlb	0	; select bank0
  6523  03C6  0850               	movf	_FAN_SPEED2_1s+1,w
  6524  03C7  3A00               	xorlw	0	; case 0
  6525  03C8  1903               	skipnz
  6526  03C9  2BCB               	goto	i1l10471
  6527  03CA  2C9E               	goto	i1l414
  6528  03CB                     i1l10471:	
  6529                           
  6530                           ; Switch size 1, requested type "space"
  6531                           ; Number of cases is 10, Range of values is 48 to 57
  6532                           ; switch strategies available:
  6533                           ; Name         Instructions Cycles
  6534                           ; direct_byte           29     9 (fixed)
  6535                           ; simple_byte           31    16 (average)
  6536                           ; jumptable            263     9 (fixed)
  6537                           ;	Chosen strategy is direct_byte
  6538  03CB  084F               	movf	_FAN_SPEED2_1s,w
  6539  03CC  3ED0               	addlw	-48
  6540  03CD  1C03               	skipc
  6541  03CE  2C9E               	goto	i1l414
  6542  03CF  0084               	movwf	4
  6543  03D0  300A               	movlw	10
  6544  03D1  0204               	subwf	4,w
  6545  03D2  1803               	skipnc
  6546  03D3  2C9E               	goto	i1l414
  6547  03D4  3189               	movlp	high i1S10473
  6548  03D5  3504               	lslf	4,w
  6549  03D6  3E64               	addlw	low i1S10473
  6550  03D7  0082               	movwf	2
  6551                           
  6552                           ;final_3_dimer.c: 673: break;
  6553  03D8  2C9E               	goto	i1l414
  6554  03D9                     i1l6041:	
  6555                           ;final_3_dimer.c: 677: {
  6556                           ;final_3_dimer.c: 678: case '0':
  6557                           
  6558                           ;final_3_dimer.c: 676: switch(FAN_SPEED2_1s)
  6559                           
  6560                           ;final_3_dimer.c: 674: case '7':
  6561                           
  6562                           
  6563                           ;final_3_dimer.c: 679: TMR3H=0xD4; TMR3L=0x40; T3CONbits.TMR3ON = 1; break;
  6564  03D9  30D4               	movlw	212
  6565  03DA  2C2C               	goto	L89
  6566  03DB                     i1l6045:	
  6567                           ;final_3_dimer.c: 680: case '1':
  6568                           
  6569                           
  6570                           ;final_3_dimer.c: 681: TMR3H=0xD5; TMR3L=0xD0; T3CONbits.TMR3ON = 1; break;
  6571  03DB  30D5               	movlw	213
  6572  03DC  2C45               	goto	L90
  6573  03DD                     i1l6049:	
  6574                           ;final_3_dimer.c: 682: case '2':
  6575                           
  6576                           
  6577                           ;final_3_dimer.c: 683: TMR3H=0xD7; TMR3L=0x60; T3CONbits.TMR3ON = 1; break;
  6578  03DD  30D7               	movlw	215
  6579  03DE  2C4A               	goto	L91
  6580  03DF                     i1l6053:	
  6581                           ;final_3_dimer.c: 684: case '3':
  6582                           
  6583                           
  6584                           ;final_3_dimer.c: 685: TMR3H=0xD8; TMR3L=0xF0; T3CONbits.TMR3ON = 1; break;
  6585  03DF  30D8               	movlw	216
  6586  03E0  2C4F               	goto	L92
  6587  03E1                     i1l6057:	
  6588                           ;final_3_dimer.c: 686: case '4':
  6589                           
  6590                           
  6591                           ;final_3_dimer.c: 687: TMR3H=0xDA; TMR3L=0x80; T3CONbits.TMR3ON = 1; break;
  6592  03E1  30DA               	movlw	218
  6593  03E2  2C54               	goto	L93
  6594  03E3                     i1l6061:	
  6595                           ;final_3_dimer.c: 688: case '5':
  6596                           
  6597                           
  6598                           ;final_3_dimer.c: 689: TMR3H=0xDC; TMR3L=0x10; T3CONbits.TMR3ON = 1; break;
  6599  03E3  30DC               	movlw	220
  6600  03E4  2C59               	goto	L94
  6601  03E5                     i1l6065:	
  6602                           ;final_3_dimer.c: 690: case '6':
  6603                           
  6604                           
  6605                           ;final_3_dimer.c: 691: TMR3H=0xDD; TMR3L=0xA0; T3CONbits.TMR3ON = 1; break;
  6606  03E5  30DD               	movlw	221
  6607  03E6  2C5E               	goto	L95
  6608  03E7                     i1l6069:	
  6609                           ;final_3_dimer.c: 692: case '7':
  6610                           
  6611                           
  6612                           ;final_3_dimer.c: 693: TMR3H=0xDF; TMR3L=0x30; T3CONbits.TMR3ON = 1; break;
  6613  03E7  30DF               	movlw	223
  6614  03E8  2C63               	goto	L96
  6615  03E9                     i1l6073:	
  6616                           ;final_3_dimer.c: 694: case '8':
  6617                           
  6618                           
  6619                           ;final_3_dimer.c: 695: TMR3H=0xE0; TMR3L=0xC0; T3CONbits.TMR3ON = 1; break;
  6620  03E9  30E0               	movlw	224
  6621  03EA  2C68               	goto	L97
  6622  03EB                     i1l6077:	
  6623                           ;final_3_dimer.c: 696: case '9':
  6624                           
  6625                           
  6626                           ;final_3_dimer.c: 697: TMR3H=0xE2; TMR3L=0x50; T3CONbits.TMR3ON = 1; break;
  6627  03EB  30E2               	movlw	226
  6628  03EC  2C6D               	goto	L98
  6629  03ED                     i1l6083:	
  6630                           ;final_3_dimer.c: 700: }
  6631                           
  6632                           ;final_3_dimer.c: 699: break;
  6633                           
  6634                           ;final_3_dimer.c: 698: default:
  6635                           
  6636                           
  6637                           ; Switch on 2 bytes has been partitioned into a top level switch of size 1, and 1 sub-sw
      +                          itches
  6638                           ; Switch size 1, requested type "space"
  6639                           ; Number of cases is 1, Range of values is 0 to 0
  6640                           ; switch strategies available:
  6641                           ; Name         Instructions Cycles
  6642                           ; simple_byte            4     3 (average)
  6643                           ; direct_byte            8     6 (fixed)
  6644                           ; jumptable            260     6 (fixed)
  6645                           ;	Chosen strategy is simple_byte
  6646  03ED  0020               	movlb	0	; select bank0
  6647  03EE  0850               	movf	_FAN_SPEED2_1s+1,w
  6648  03EF  3A00               	xorlw	0	; case 0
  6649  03F0  1903               	skipnz
  6650  03F1  2BF3               	goto	i1l10475
  6651  03F2  2C9E               	goto	i1l414
  6652  03F3                     i1l10475:	
  6653                           
  6654                           ; Switch size 1, requested type "space"
  6655                           ; Number of cases is 10, Range of values is 48 to 57
  6656                           ; switch strategies available:
  6657                           ; Name         Instructions Cycles
  6658                           ; direct_byte           29     9 (fixed)
  6659                           ; simple_byte           31    16 (average)
  6660                           ; jumptable            263     9 (fixed)
  6661                           ;	Chosen strategy is direct_byte
  6662  03F3  084F               	movf	_FAN_SPEED2_1s,w
  6663  03F4  3ED0               	addlw	-48
  6664  03F5  1C03               	skipc
  6665  03F6  2C9E               	goto	i1l414
  6666  03F7  0084               	movwf	4
  6667  03F8  300A               	movlw	10
  6668  03F9  0204               	subwf	4,w
  6669  03FA  1803               	skipnc
  6670  03FB  2C9E               	goto	i1l414
  6671  03FC  3189               	movlp	high i1S10477
  6672  03FD  3504               	lslf	4,w
  6673  03FE  3E78               	addlw	low i1S10477
  6674  03FF  0082               	movwf	2
  6675                           
  6676                           ;final_3_dimer.c: 701: break;
  6677  0400  2C9E               	goto	i1l414
  6678  0401                     i1l6085:	
  6679                           ;final_3_dimer.c: 705: {
  6680                           ;final_3_dimer.c: 706: case '0':
  6681                           
  6682                           ;final_3_dimer.c: 704: switch(FAN_SPEED2_1s)
  6683                           
  6684                           ;final_3_dimer.c: 702: case '8':
  6685                           
  6686                           
  6687                           ;final_3_dimer.c: 707: TMR3H=0xE3; TMR3L=0xE0; T3CONbits.TMR3ON = 1; break;
  6688  0401  30E3               	movlw	227
  6689  0402  2C72               	goto	L68
  6690  0403                     i1l6089:	
  6691                           ;final_3_dimer.c: 708: case '1':
  6692                           
  6693                           
  6694                           ;final_3_dimer.c: 709: TMR3H=0xE4; TMR3L=0xA8; T3CONbits.TMR3ON = 1; break;
  6695  0403  30E4               	movlw	228
  6696  0404                     L152:	
  6697  0404  0028               	movlb	8	; select bank8
  6698  0405  0092               	movwf	18	;volatile
  6699  0406  30A8               	movlw	168
  6700  0407  2C75               	goto	L5
  6701  0408                     i1l6093:	
  6702                           ;final_3_dimer.c: 710: case '2':
  6703                           
  6704                           
  6705                           ;final_3_dimer.c: 711: TMR3H=0xE5; TMR3L=0x70; T3CONbits.TMR3ON = 1; break;
  6706  0408  30E5               	movlw	229
  6707  0409                     L84:	
  6708  0409  0028               	movlb	8	; select bank8
  6709  040A  0092               	movwf	18	;volatile
  6710  040B  3070               	movlw	112
  6711  040C  2C75               	goto	L5
  6712  040D                     i1l6097:	
  6713                           ;final_3_dimer.c: 712: case '3':
  6714                           
  6715                           
  6716                           ;final_3_dimer.c: 713: TMR3H=0xE6; TMR3L=0x38; T3CONbits.TMR3ON = 1; break;
  6717  040D  30E6               	movlw	230
  6718  040E  0028               	movlb	8	; select bank8
  6719  040F  0092               	movwf	18	;volatile
  6720  0410  3038               	movlw	56
  6721  0411  2C75               	goto	L5
  6722  0412                     i1l6101:	
  6723                           ;final_3_dimer.c: 714: case '4':
  6724                           
  6725                           
  6726                           ;final_3_dimer.c: 715: TMR3H=0xE7; TMR3L=0x00; T3CONbits.TMR3ON = 1; break;
  6727  0412  30E7               	movlw	231
  6728  0413                     L85:	
  6729  0413  0028               	movlb	8	; select bank8
  6730  0414  0092               	movwf	18	;volatile
  6731  0415  0191               	clrf	17	;volatile
  6732  0416  2C76               	goto	i1l6169
  6733  0417                     i1l6107:	
  6734                           ;final_3_dimer.c: 716: case '5':
  6735                           
  6736                           
  6737                           ;final_3_dimer.c: 717: TMR3H=0xE8; TMR3L=0x90; T3CONbits.TMR3ON = 1; break;
  6738  0417  30E8               	movlw	232
  6739  0418                     L86:	
  6740  0418  0028               	movlb	8	; select bank8
  6741  0419  0092               	movwf	18	;volatile
  6742  041A  3090               	movlw	144
  6743  041B  2C75               	goto	L5
  6744  041C                     i1l6111:	
  6745                           ;final_3_dimer.c: 718: case '6':
  6746                           
  6747                           
  6748                           ;final_3_dimer.c: 719: TMR3H=0xEA; TMR3L=0x20; T3CONbits.TMR3ON = 1; break;
  6749  041C  30EA               	movlw	234
  6750  041D                     L87:	
  6751  041D  0028               	movlb	8	; select bank8
  6752  041E  0092               	movwf	18	;volatile
  6753  041F  3020               	movlw	32
  6754  0420  2C75               	goto	L5
  6755  0421                     i1l6115:	
  6756                           ;final_3_dimer.c: 720: case '7':
  6757                           
  6758                           
  6759                           ;final_3_dimer.c: 721: TMR3H=0xEB; TMR3L=0xB0; T3CONbits.TMR3ON = 1; break;
  6760  0421  30EB               	movlw	235
  6761  0422                     L88:	
  6762  0422  0028               	movlb	8	; select bank8
  6763  0423  0092               	movwf	18	;volatile
  6764  0424  30B0               	movlw	176
  6765  0425  2C75               	goto	L5
  6766  0426                     i1l6119:	
  6767                           ;final_3_dimer.c: 722: case '8':
  6768                           
  6769                           
  6770                           ;final_3_dimer.c: 723: TMR3H=0xEC; TMR3L=0x78; T3CONbits.TMR3ON = 1; break;
  6771  0426  30EC               	movlw	236
  6772  0427                     L154:	
  6773  0427  0028               	movlb	8	; select bank8
  6774  0428  0092               	movwf	18	;volatile
  6775  0429  3078               	movlw	120
  6776  042A  2C75               	goto	L5
  6777  042B                     i1l6123:	
  6778                           ;final_3_dimer.c: 724: case '9':
  6779                           
  6780                           
  6781                           ;final_3_dimer.c: 725: TMR3H=0xED; TMR3L=0x40; T3CONbits.TMR3ON = 1; break;
  6782  042B  30ED               	movlw	237
  6783  042C                     L89:	
  6784  042C  0028               	movlb	8	; select bank8
  6785  042D  0092               	movwf	18	;volatile
  6786  042E  3040               	movlw	64
  6787  042F  2C75               	goto	L5
  6788  0430                     i1l6129:	
  6789                           ;final_3_dimer.c: 728: }
  6790                           
  6791                           ;final_3_dimer.c: 727: break;
  6792                           
  6793                           ;final_3_dimer.c: 726: default:
  6794                           
  6795                           
  6796                           ; Switch on 2 bytes has been partitioned into a top level switch of size 1, and 1 sub-sw
      +                          itches
  6797                           ; Switch size 1, requested type "space"
  6798                           ; Number of cases is 1, Range of values is 0 to 0
  6799                           ; switch strategies available:
  6800                           ; Name         Instructions Cycles
  6801                           ; simple_byte            4     3 (average)
  6802                           ; direct_byte            8     6 (fixed)
  6803                           ; jumptable            260     6 (fixed)
  6804                           ;	Chosen strategy is simple_byte
  6805  0430  0020               	movlb	0	; select bank0
  6806  0431  0850               	movf	_FAN_SPEED2_1s+1,w
  6807  0432  3A00               	xorlw	0	; case 0
  6808  0433  1903               	skipnz
  6809  0434  2C36               	goto	i1l10479
  6810  0435  2C9E               	goto	i1l414
  6811  0436                     i1l10479:	
  6812                           
  6813                           ; Switch size 1, requested type "space"
  6814                           ; Number of cases is 10, Range of values is 48 to 57
  6815                           ; switch strategies available:
  6816                           ; Name         Instructions Cycles
  6817                           ; direct_byte           29     9 (fixed)
  6818                           ; simple_byte           31    16 (average)
  6819                           ; jumptable            263     9 (fixed)
  6820                           ;	Chosen strategy is direct_byte
  6821  0436  084F               	movf	_FAN_SPEED2_1s,w
  6822  0437  3ED0               	addlw	-48
  6823  0438  1C03               	skipc
  6824  0439  2C9E               	goto	i1l414
  6825  043A  0084               	movwf	4
  6826  043B  300A               	movlw	10
  6827  043C  0204               	subwf	4,w
  6828  043D  1803               	skipnc
  6829  043E  2C9E               	goto	i1l414
  6830  043F  3189               	movlp	high i1S10481
  6831  0440  3504               	lslf	4,w
  6832  0441  3E8C               	addlw	low i1S10481
  6833  0442  0082               	movwf	2
  6834                           
  6835                           ;final_3_dimer.c: 729: break;
  6836  0443  2C9E               	goto	i1l414
  6837  0444                     i1l6131:	
  6838                           ;final_3_dimer.c: 733: {
  6839                           ;final_3_dimer.c: 734: case '0':
  6840                           
  6841                           ;final_3_dimer.c: 732: switch(FAN_SPEED2_1s)
  6842                           
  6843                           ;final_3_dimer.c: 730: case '9':
  6844                           
  6845                           
  6846                           ;final_3_dimer.c: 735: TMR3H=0xEE; TMR3L=0xD0; T3CONbits.TMR3ON = 1; break;
  6847  0444  30EE               	movlw	238
  6848  0445                     L90:	
  6849  0445  0028               	movlb	8	; select bank8
  6850  0446  0092               	movwf	18	;volatile
  6851  0447  30D0               	movlw	208
  6852  0448  2C75               	goto	L5
  6853  0449                     i1l6135:	
  6854                           ;final_3_dimer.c: 736: case '1':
  6855                           
  6856                           
  6857                           ;final_3_dimer.c: 737: TMR3H=0xF0; TMR3L=0x60; T3CONbits.TMR3ON = 1; break;
  6858  0449  30F0               	movlw	240
  6859  044A                     L91:	
  6860  044A  0028               	movlb	8	; select bank8
  6861  044B  0092               	movwf	18	;volatile
  6862  044C  3060               	movlw	96
  6863  044D  2C75               	goto	L5
  6864  044E                     i1l6139:	
  6865                           ;final_3_dimer.c: 738: case '2':
  6866                           
  6867                           
  6868                           ;final_3_dimer.c: 739: TMR3H=0xF1; TMR3L=0xF0; T3CONbits.TMR3ON = 1; break;
  6869  044E  30F1               	movlw	241
  6870  044F                     L92:	
  6871  044F  0028               	movlb	8	; select bank8
  6872  0450  0092               	movwf	18	;volatile
  6873  0451  30F0               	movlw	240
  6874  0452  2C75               	goto	L5
  6875  0453                     i1l6143:	
  6876                           ;final_3_dimer.c: 740: case '3':
  6877                           
  6878                           
  6879                           ;final_3_dimer.c: 741: TMR3H=0xF3; TMR3L=0x80; T3CONbits.TMR3ON = 1; break;
  6880  0453  30F3               	movlw	243
  6881  0454                     L93:	
  6882  0454  0028               	movlb	8	; select bank8
  6883  0455  0092               	movwf	18	;volatile
  6884  0456  3080               	movlw	128
  6885  0457  2C75               	goto	L5
  6886  0458                     i1l6147:	
  6887                           ;final_3_dimer.c: 742: case '4':
  6888                           
  6889                           
  6890                           ;final_3_dimer.c: 743: TMR3H=0xF5; TMR3L=0x10; T3CONbits.TMR3ON = 1; break;
  6891  0458  30F5               	movlw	245
  6892  0459                     L94:	
  6893  0459  0028               	movlb	8	; select bank8
  6894  045A  0092               	movwf	18	;volatile
  6895  045B  3010               	movlw	16
  6896  045C  2C75               	goto	L5
  6897  045D                     i1l6151:	
  6898                           ;final_3_dimer.c: 744: case '5':
  6899                           
  6900                           
  6901                           ;final_3_dimer.c: 745: TMR3H=0xF6; TMR3L=0xA0; T3CONbits.TMR3ON = 1; break;
  6902  045D  30F6               	movlw	246
  6903  045E                     L95:	
  6904  045E  0028               	movlb	8	; select bank8
  6905  045F  0092               	movwf	18	;volatile
  6906  0460  30A0               	movlw	160
  6907  0461  2C75               	goto	L5
  6908  0462                     i1l6155:	
  6909                           ;final_3_dimer.c: 746: case '6':
  6910                           
  6911                           
  6912                           ;final_3_dimer.c: 747: TMR3H=0xF8; TMR3L=0x30; T3CONbits.TMR3ON = 1; break;
  6913  0462  30F8               	movlw	248
  6914  0463                     L96:	
  6915  0463  0028               	movlb	8	; select bank8
  6916  0464  0092               	movwf	18	;volatile
  6917  0465  3030               	movlw	48
  6918  0466  2C75               	goto	L5
  6919  0467                     i1l6159:	
  6920                           ;final_3_dimer.c: 748: case '7':
  6921                           
  6922                           
  6923                           ;final_3_dimer.c: 749: TMR3H=0xF9; TMR3L=0xC0; T3CONbits.TMR3ON = 1; break;
  6924  0467  30F9               	movlw	249
  6925  0468                     L97:	
  6926  0468  0028               	movlb	8	; select bank8
  6927  0469  0092               	movwf	18	;volatile
  6928  046A  30C0               	movlw	192
  6929  046B  2C75               	goto	L5
  6930  046C                     i1l6163:	
  6931                           ;final_3_dimer.c: 750: case '8':
  6932                           
  6933                           
  6934                           ;final_3_dimer.c: 751: TMR3H=0xFB; TMR3L=0x50; T3CONbits.TMR3ON = 1; break;
  6935  046C  30FB               	movlw	251
  6936  046D                     L98:	
  6937  046D  0028               	movlb	8	; select bank8
  6938  046E  0092               	movwf	18	;volatile
  6939  046F  3050               	movlw	80
  6940  0470  2C75               	goto	L5
  6941  0471                     i1l6167:	
  6942                           ;final_3_dimer.c: 752: case '9':
  6943                           
  6944                           
  6945                           ;final_3_dimer.c: 753: TMR3H=0xFC; TMR3L=0xE0; T3CONbits.TMR3ON = 1; break;
  6946  0471  30FC               	movlw	252
  6947  0472                     L68:	
  6948  0472  0028               	movlb	8	; select bank8
  6949  0473  0092               	movwf	18	;volatile
  6950  0474  30E0               	movlw	224
  6951  0475                     L5:	
  6952  0475  0091               	movwf	17	;volatile
  6953  0476                     i1l6169:	
  6954  0476  1413               	bsf	19,0	;volatile
  6955                           
  6956                           ;final_3_dimer.c: 756: }
  6957                           
  6958                           ;final_3_dimer.c: 755: break;
  6959                           
  6960                           ;final_3_dimer.c: 754: default:
  6961  0477  2C9E               	goto	i1l414
  6962  0478                     i1l6173:	
  6963                           
  6964                           ; Switch on 2 bytes has been partitioned into a top level switch of size 1, and 1 sub-sw
      +                          itches
  6965                           ; Switch size 1, requested type "space"
  6966                           ; Number of cases is 1, Range of values is 0 to 0
  6967                           ; switch strategies available:
  6968                           ; Name         Instructions Cycles
  6969                           ; simple_byte            4     3 (average)
  6970                           ; direct_byte            8     6 (fixed)
  6971                           ; jumptable            260     6 (fixed)
  6972                           ;	Chosen strategy is simple_byte
  6973  0478  0020               	movlb	0	; select bank0
  6974  0479  0850               	movf	_FAN_SPEED2_1s+1,w
  6975  047A  3A00               	xorlw	0	; case 0
  6976  047B  1903               	skipnz
  6977  047C  2C7E               	goto	i1l10483
  6978  047D  2C9E               	goto	i1l414
  6979  047E                     i1l10483:	
  6980                           
  6981                           ; Switch size 1, requested type "space"
  6982                           ; Number of cases is 10, Range of values is 48 to 57
  6983                           ; switch strategies available:
  6984                           ; Name         Instructions Cycles
  6985                           ; direct_byte           29     9 (fixed)
  6986                           ; simple_byte           31    16 (average)
  6987                           ; jumptable            263     9 (fixed)
  6988                           ;	Chosen strategy is direct_byte
  6989  047E  084F               	movf	_FAN_SPEED2_1s,w
  6990  047F  3ED0               	addlw	-48
  6991  0480  1C03               	skipc
  6992  0481  2C9E               	goto	i1l414
  6993  0482  0084               	movwf	4
  6994  0483  300A               	movlw	10
  6995  0484  0204               	subwf	4,w
  6996  0485  1803               	skipnc
  6997  0486  2C9E               	goto	i1l414
  6998  0487  3189               	movlp	high i1S10485
  6999  0488  3504               	lslf	4,w
  7000  0489  3EA0               	addlw	low i1S10485
  7001  048A  0082               	movwf	2
  7002                           
  7003                           ;final_3_dimer.c: 760: }
  7004                           
  7005                           ;final_3_dimer.c: 759: break;
  7006                           
  7007                           ;final_3_dimer.c: 758: default:
  7008                           
  7009                           ;final_3_dimer.c: 757: break;
  7010  048B  2C9E               	goto	i1l414
  7011  048C                     i1l6177:	
  7012                           
  7013                           ; Switch on 2 bytes has been partitioned into a top level switch of size 1, and 1 sub-sw
      +                          itches
  7014                           ; Switch size 1, requested type "space"
  7015                           ; Number of cases is 1, Range of values is 0 to 0
  7016                           ; switch strategies available:
  7017                           ; Name         Instructions Cycles
  7018                           ; simple_byte            4     3 (average)
  7019                           ; direct_byte            8     6 (fixed)
  7020                           ; jumptable            260     6 (fixed)
  7021                           ;	Chosen strategy is simple_byte
  7022  048C  087B               	movf	_FAN_SPEED2_10s+1,w
  7023  048D  3A00               	xorlw	0	; case 0
  7024  048E  1903               	skipnz
  7025  048F  2C91               	goto	i1l10487
  7026  0490  2C9E               	goto	i1l414
  7027  0491                     i1l10487:	
  7028                           
  7029                           ; Switch size 1, requested type "space"
  7030                           ; Number of cases is 10, Range of values is 48 to 57
  7031                           ; switch strategies available:
  7032                           ; Name         Instructions Cycles
  7033                           ; direct_byte           29     9 (fixed)
  7034                           ; simple_byte           31    16 (average)
  7035                           ; jumptable            263     9 (fixed)
  7036                           ;	Chosen strategy is direct_byte
  7037  0491  087A               	movf	_FAN_SPEED2_10s,w
  7038  0492  3ED0               	addlw	-48
  7039  0493  1C03               	skipc
  7040  0494  2C9E               	goto	i1l414
  7041  0495  0084               	movwf	4
  7042  0496  300A               	movlw	10
  7043  0497  0204               	subwf	4,w
  7044  0498  1803               	skipnc
  7045  0499  2C9E               	goto	i1l414
  7046  049A  3189               	movlp	high i1S10489
  7047  049B  3504               	lslf	4,w
  7048  049C  3EB4               	addlw	low i1S10489
  7049  049D  0082               	movwf	2
  7050  049E                     i1l414:	
  7051                           
  7052                           ;final_3_dimer.c: 761: }
  7053                           ;final_3_dimer.c: 762: PIR3bits.CCP3IF = 0;
  7054  049E  0020               	movlb	0	; select bank0
  7055  049F  1213               	bcf	19,4	;volatile
  7056  04A0                     i1l413:	
  7057                           
  7058                           ;final_3_dimer.c: 763: }
  7059                           ;final_3_dimer.c: 765: if(PIR4bits.CCP9IF == 1)
  7060  04A0  1F14               	btfss	20,6	;volatile
  7061  04A1  2EB4               	goto	i1l703
  7062                           
  7063                           ;final_3_dimer.c: 766: {
  7064                           ;final_3_dimer.c: 767: PIR4bits.CCP9IF=0;
  7065  04A2  1314               	bcf	20,6	;volatile
  7066                           
  7067                           ;final_3_dimer.c: 769: if(FAN_FLAG3==1 && tk==1)
  7068  04A3  0021               	movlb	1	; select bank1
  7069  04A4  0353               	decf	_FAN_FLAG3^(0+128),w
  7070  04A5  0454               	iorwf	(_FAN_FLAG3+1)^(0+128),w
  7071  04A6  1D03               	btfss	3,2
  7072  04A7  2EB2               	goto	i1l559
  7073  04A8  0020               	movlb	0	; select bank0
  7074  04A9  0355               	decf	_tk,w
  7075  04AA  0456               	iorwf	_tk+1,w
  7076  04AB  1903               	btfsc	3,2
  7077  04AC  2E9F               	goto	i1l6639
  7078  04AD  2EB2               	goto	i1l559
  7079  04AE                     i1l6187:	
  7080                           ;final_3_dimer.c: 776: {
  7081                           ;final_3_dimer.c: 777: case '0':
  7082                           
  7083                           ;final_3_dimer.c: 775: switch(FAN_SPEED3_1s)
  7084                           
  7085                           ;final_3_dimer.c: 772: {
  7086                           ;final_3_dimer.c: 773: case '0':
  7087                           
  7088                           ;final_3_dimer.c: 770: {
  7089                           ;final_3_dimer.c: 771: switch(FAN_SPEED3_10s)
  7090                           
  7091                           
  7092                           ;final_3_dimer.c: 778: TMR5H=0x7B; TMR5L=0x30; T5CONbits.TMR5ON = 1; break;
  7093  04AE  307B               	movlw	123
  7094  04AF  2E76               	goto	L142
  7095  04B0                     i1l6191:	
  7096                           ;final_3_dimer.c: 779: case '1':
  7097                           
  7098                           
  7099                           ;final_3_dimer.c: 780: TMR5H=0x7C; TMR5L=0xC0; T5CONbits.TMR5ON = 1; break;
  7100  04B0  307C               	movlw	124
  7101  04B1  2E7B               	goto	L143
  7102  04B2                     i1l6195:	
  7103                           ;final_3_dimer.c: 781: case '2':
  7104                           
  7105                           
  7106                           ;final_3_dimer.c: 782: TMR5H=0x7D; TMR5L=0x88; T5CONbits.TMR5ON = 1; break;
  7107  04B2  307D               	movlw	125
  7108  04B3  0028               	movlb	8	; select bank8
  7109  04B4  0099               	movwf	25	;volatile
  7110  04B5  3088               	movlw	136
  7111  04B6  2E88               	goto	L6
  7112  04B7                     i1l6199:	
  7113                           ;final_3_dimer.c: 783: case '3':
  7114                           
  7115                           
  7116                           ;final_3_dimer.c: 784: TMR5H=0x7F; TMR5L=0x18; T5CONbits.TMR5ON = 1; break;
  7117  04B7  307F               	movlw	127
  7118  04B8  0028               	movlb	8	; select bank8
  7119  04B9  0099               	movwf	25	;volatile
  7120  04BA  3018               	movlw	24
  7121  04BB  2E88               	goto	L6
  7122  04BC                     i1l6203:	
  7123                           ;final_3_dimer.c: 785: case '4':
  7124                           
  7125                           
  7126                           ;final_3_dimer.c: 786: TMR5H=0x80; TMR5L=0xA8; T5CONbits.TMR5ON = 1; break;
  7127  04BC  3080               	movlw	128
  7128  04BD  2E17               	goto	L157
  7129  04BE                     i1l6207:	
  7130                           ;final_3_dimer.c: 787: case '5':
  7131                           
  7132                           
  7133                           ;final_3_dimer.c: 788: TMR5H=0x81; TMR5L=0x70; T5CONbits.TMR5ON = 1; break;
  7134  04BE  3081               	movlw	129
  7135  04BF  2E1C               	goto	L130
  7136  04C0                     i1l6211:	
  7137                           ;final_3_dimer.c: 789: case '6':
  7138                           
  7139                           
  7140                           ;final_3_dimer.c: 790: TMR5H=0x83; TMR5L=0x00; T5CONbits.TMR5ON = 1; break;
  7141  04C0  3083               	movlw	131
  7142  04C1  2E26               	goto	L131
  7143  04C2                     i1l6217:	
  7144                           ;final_3_dimer.c: 791: case '7':
  7145                           
  7146                           
  7147                           ;final_3_dimer.c: 792: TMR5H=0x83; TMR5L=0xC8; T5CONbits.TMR5ON = 1; break;
  7148  04C2  3083               	movlw	131
  7149  04C3  0028               	movlb	8	; select bank8
  7150  04C4  0099               	movwf	25	;volatile
  7151  04C5  30C8               	movlw	200
  7152  04C6  2E88               	goto	L6
  7153  04C7                     i1l6221:	
  7154                           ;final_3_dimer.c: 793: case '8':
  7155                           
  7156  04C7  2CE8               	goto	i1l6241
  7157  04C8                     i1l6225:	
  7158                           ;final_3_dimer.c: 795: case '9':
  7159                           
  7160                           ;final_3_dimer.c: 794: TMR5H=0x87; TMR5L=0xB0; T5CONbits.TMR5ON = 1; break;
  7161                           
  7162                           
  7163                           ;final_3_dimer.c: 796: TMR5H=0x85; TMR5L=0x58; T5CONbits.TMR5ON = 1; break;
  7164  04C8  3085               	movlw	133
  7165  04C9  0028               	movlb	8	; select bank8
  7166  04CA  0099               	movwf	25	;volatile
  7167  04CB  3058               	movlw	88
  7168  04CC  2E88               	goto	L6
  7169  04CD                     i1l6231:	
  7170                           ;final_3_dimer.c: 799: }
  7171                           
  7172                           ;final_3_dimer.c: 798: break;
  7173                           
  7174                           ;final_3_dimer.c: 797: default:
  7175                           
  7176                           
  7177                           ; Switch on 2 bytes has been partitioned into a top level switch of size 1, and 1 sub-sw
      +                          itches
  7178                           ; Switch size 1, requested type "space"
  7179                           ; Number of cases is 1, Range of values is 0 to 0
  7180                           ; switch strategies available:
  7181                           ; Name         Instructions Cycles
  7182                           ; simple_byte            4     3 (average)
  7183                           ; direct_byte            8     6 (fixed)
  7184                           ; jumptable            260     6 (fixed)
  7185                           ;	Chosen strategy is simple_byte
  7186  04CD  0020               	movlb	0	; select bank0
  7187  04CE  084E               	movf	_FAN_SPEED3_1s+1,w
  7188  04CF  3A00               	xorlw	0	; case 0
  7189  04D0  1903               	skipnz
  7190  04D1  2CD3               	goto	i1l10491
  7191  04D2  2EB2               	goto	i1l559
  7192  04D3                     i1l10491:	
  7193                           
  7194                           ; Switch size 1, requested type "space"
  7195                           ; Number of cases is 10, Range of values is 48 to 57
  7196                           ; switch strategies available:
  7197                           ; Name         Instructions Cycles
  7198                           ; direct_byte           29     9 (fixed)
  7199                           ; simple_byte           31    16 (average)
  7200                           ; jumptable            263     9 (fixed)
  7201                           ;	Chosen strategy is direct_byte
  7202  04D3  084D               	movf	_FAN_SPEED3_1s,w
  7203  04D4  3ED0               	addlw	-48
  7204  04D5  1C03               	skipc
  7205  04D6  2EB2               	goto	i1l559
  7206  04D7  0084               	movwf	4
  7207  04D8  300A               	movlw	10
  7208  04D9  0204               	subwf	4,w
  7209  04DA  1803               	skipnc
  7210  04DB  2EB2               	goto	i1l559
  7211  04DC  3189               	movlp	high i1S10493
  7212  04DD  3504               	lslf	4,w
  7213  04DE  3EC8               	addlw	low i1S10493
  7214  04DF  0082               	movwf	2
  7215                           
  7216                           ;final_3_dimer.c: 800: break;
  7217  04E0  2EB2               	goto	i1l559
  7218  04E1                     i1l6233:	
  7219                           ;final_3_dimer.c: 804: {
  7220                           ;final_3_dimer.c: 805: case '0':
  7221                           
  7222                           ;final_3_dimer.c: 803: switch(FAN_SPEED3_1s)
  7223                           
  7224                           ;final_3_dimer.c: 801: case '1':
  7225                           
  7226                           
  7227                           ;final_3_dimer.c: 806: TMR5H=0x86; TMR5L=0x20; T5CONbits.TMR5ON = 1; break;
  7228  04E1  3086               	movlw	134
  7229  04E2  2E30               	goto	L133
  7230  04E3                     i1l6237:	
  7231                           ;final_3_dimer.c: 807: case '1':
  7232                           
  7233                           
  7234                           ;final_3_dimer.c: 808: TMR5H=0x86; TMR5L=0xE8; T5CONbits.TMR5ON = 1; break;
  7235  04E3  3086               	movlw	134
  7236  04E4  0028               	movlb	8	; select bank8
  7237  04E5  0099               	movwf	25	;volatile
  7238  04E6  30E8               	movlw	232
  7239  04E7  2E88               	goto	L6
  7240  04E8                     i1l6241:	
  7241                           ;final_3_dimer.c: 809: case '2':
  7242                           
  7243                           
  7244                           ;final_3_dimer.c: 810: TMR5H=0x87; TMR5L=0xB0; T5CONbits.TMR5ON = 1; break;
  7245  04E8  3087               	movlw	135
  7246  04E9  2E35               	goto	L134
  7247  04EA                     i1l6245:	
  7248                           ;final_3_dimer.c: 811: case '3':
  7249                           
  7250                           
  7251                           ;final_3_dimer.c: 812: TMR5H=0x88; TMR5L=0x78; T5CONbits.TMR5ON = 1; break;
  7252  04EA  3088               	movlw	136
  7253  04EB  2E3A               	goto	L159
  7254  04EC                     i1l6249:	
  7255                           ;final_3_dimer.c: 813: case '4':
  7256                           
  7257                           
  7258                           ;final_3_dimer.c: 814: TMR5H=0x89; TMR5L=0x40; T5CONbits.TMR5ON = 1; break;
  7259  04EC  3089               	movlw	137
  7260  04ED  2E3F               	goto	L135
  7261  04EE                     i1l6253:	
  7262                           ;final_3_dimer.c: 815: case '5':
  7263                           
  7264                           
  7265                           ;final_3_dimer.c: 816: TMR5H=0x8A; TMR5L=0x08; T5CONbits.TMR5ON = 1; break;
  7266  04EE  308A               	movlw	138
  7267  04EF  0028               	movlb	8	; select bank8
  7268  04F0  0099               	movwf	25	;volatile
  7269  04F1  3008               	movlw	8
  7270  04F2  2E88               	goto	L6
  7271  04F3                     i1l6257:	
  7272                           ;final_3_dimer.c: 817: case '6':
  7273                           
  7274                           
  7275                           ;final_3_dimer.c: 818: TMR5H=0x8A; TMR5L=0xD0; T5CONbits.TMR5ON = 1; break;
  7276  04F3  308A               	movlw	138
  7277  04F4  2E58               	goto	L136
  7278  04F5                     i1l6261:	
  7279                           ;final_3_dimer.c: 819: case '7':
  7280                           
  7281                           
  7282                           ;final_3_dimer.c: 820: TMR5H=0x8B; TMR5L=0x98; T5CONbits.TMR5ON = 1; break;
  7283  04F5  308B               	movlw	139
  7284  04F6  0028               	movlb	8	; select bank8
  7285  04F7  0099               	movwf	25	;volatile
  7286  04F8  3098               	movlw	152
  7287  04F9  2E88               	goto	L6
  7288  04FA                     i1l6265:	
  7289                           ;final_3_dimer.c: 821: case '8':
  7290                           
  7291                           
  7292                           ;final_3_dimer.c: 822: TMR5H=0x8C; TMR5L=0x60; T5CONbits.TMR5ON = 1; break;
  7293  04FA  308C               	movlw	140
  7294  04FB  2E5D               	goto	L137
  7295  04FC                     i1l6269:	
  7296                           ;final_3_dimer.c: 823: case '9':
  7297                           
  7298                           
  7299                           ;final_3_dimer.c: 824: TMR5H=0x8D; TMR5L=0x28; T5CONbits.TMR5ON = 1; break;
  7300  04FC  308D               	movlw	141
  7301  04FD  0028               	movlb	8	; select bank8
  7302  04FE  0099               	movwf	25	;volatile
  7303  04FF  3028               	movlw	40
  7304  0500  2E88               	goto	L6
  7305  0501                     i1l6275:	
  7306                           ;final_3_dimer.c: 827: }
  7307                           
  7308                           ;final_3_dimer.c: 826: break;
  7309                           
  7310                           ;final_3_dimer.c: 825: default:
  7311                           
  7312                           
  7313                           ; Switch on 2 bytes has been partitioned into a top level switch of size 1, and 1 sub-sw
      +                          itches
  7314                           ; Switch size 1, requested type "space"
  7315                           ; Number of cases is 1, Range of values is 0 to 0
  7316                           ; switch strategies available:
  7317                           ; Name         Instructions Cycles
  7318                           ; simple_byte            4     3 (average)
  7319                           ; direct_byte            8     6 (fixed)
  7320                           ; jumptable            260     6 (fixed)
  7321                           ;	Chosen strategy is simple_byte
  7322  0501  0020               	movlb	0	; select bank0
  7323  0502  084E               	movf	_FAN_SPEED3_1s+1,w
  7324  0503  3A00               	xorlw	0	; case 0
  7325  0504  1903               	skipnz
  7326  0505  2D07               	goto	i1l10495
  7327  0506  2EB2               	goto	i1l559
  7328  0507                     i1l10495:	
  7329                           
  7330                           ; Switch size 1, requested type "space"
  7331                           ; Number of cases is 10, Range of values is 48 to 57
  7332                           ; switch strategies available:
  7333                           ; Name         Instructions Cycles
  7334                           ; direct_byte           29     9 (fixed)
  7335                           ; simple_byte           31    16 (average)
  7336                           ; jumptable            263     9 (fixed)
  7337                           ;	Chosen strategy is direct_byte
  7338  0507  084D               	movf	_FAN_SPEED3_1s,w
  7339  0508  3ED0               	addlw	-48
  7340  0509  1C03               	skipc
  7341  050A  2EB2               	goto	i1l559
  7342  050B  0084               	movwf	4
  7343  050C  300A               	movlw	10
  7344  050D  0204               	subwf	4,w
  7345  050E  1803               	skipnc
  7346  050F  2EB2               	goto	i1l559
  7347  0510  3189               	movlp	high i1S10497
  7348  0511  3504               	lslf	4,w
  7349  0512  3EDC               	addlw	low i1S10497
  7350  0513  0082               	movwf	2
  7351                           
  7352                           ;final_3_dimer.c: 828: break;
  7353  0514  2EB2               	goto	i1l559
  7354  0515                     i1l6277:	
  7355                           ;final_3_dimer.c: 832: {
  7356                           ;final_3_dimer.c: 833: case '0':
  7357                           
  7358                           ;final_3_dimer.c: 831: switch(FAN_SPEED3_1s)
  7359                           
  7360                           ;final_3_dimer.c: 829: case '2':
  7361                           
  7362                           
  7363                           ;final_3_dimer.c: 834: TMR5H=0x8D; TMR5L=0xF0; T5CONbits.TMR5ON = 1; break;
  7364  0515  308D               	movlw	141
  7365  0516  2E62               	goto	L138
  7366  0517                     i1l6281:	
  7367                           ;final_3_dimer.c: 835: case '1':
  7368                           
  7369                           
  7370                           ;final_3_dimer.c: 836: TMR5H=0x8E; TMR5L=0xB8; T5CONbits.TMR5ON = 1; break;
  7371  0517  308E               	movlw	142
  7372  0518  0028               	movlb	8	; select bank8
  7373  0519  0099               	movwf	25	;volatile
  7374  051A  30B8               	movlw	184
  7375  051B  2E88               	goto	L6
  7376  051C                     i1l6285:	
  7377                           ;final_3_dimer.c: 837: case '2':
  7378                           
  7379                           
  7380                           ;final_3_dimer.c: 838: TMR5H=0x8F; TMR5L=0x80; T5CONbits.TMR5ON = 1; break;
  7381  051C  308F               	movlw	143
  7382  051D  2E67               	goto	L139
  7383  051E                     i1l6289:	
  7384                           ;final_3_dimer.c: 839: case '3':
  7385                           
  7386                           
  7387                           ;final_3_dimer.c: 840: TMR5H=0x90; TMR5L=0x48; T5CONbits.TMR5ON = 1; break;
  7388  051E  3090               	movlw	144
  7389  051F  0028               	movlb	8	; select bank8
  7390  0520  0099               	movwf	25	;volatile
  7391  0521  3048               	movlw	72
  7392  0522  2E88               	goto	L6
  7393  0523                     i1l6293:	
  7394                           ;final_3_dimer.c: 841: case '4':
  7395                           
  7396                           
  7397                           ;final_3_dimer.c: 842: TMR5H=0x91; TMR5L=0x10; T5CONbits.TMR5ON = 1; break;
  7398  0523  3091               	movlw	145
  7399  0524  2E6C               	goto	L140
  7400  0525                     i1l6297:	
  7401                           ;final_3_dimer.c: 843: case '5':
  7402                           
  7403                           
  7404                           ;final_3_dimer.c: 844: TMR5H=0x91; TMR5L=0xD8; T5CONbits.TMR5ON = 1; break;
  7405  0525  3091               	movlw	145
  7406  0526  0028               	movlb	8	; select bank8
  7407  0527  0099               	movwf	25	;volatile
  7408  0528  30D8               	movlw	216
  7409  0529  2E88               	goto	L6
  7410  052A                     i1l6301:	
  7411                           ;final_3_dimer.c: 845: case '6':
  7412                           
  7413                           
  7414                           ;final_3_dimer.c: 846: TMR5H=0x92; TMR5L=0xA0; T5CONbits.TMR5ON = 1; break;
  7415  052A  3092               	movlw	146
  7416  052B  2E71               	goto	L141
  7417  052C                     i1l6305:	
  7418                           ;final_3_dimer.c: 847: case '7':
  7419                           
  7420                           
  7421                           ;final_3_dimer.c: 848: TMR5H=0x93; TMR5L=0x68; T5CONbits.TMR5ON = 1; break;
  7422  052C  3093               	movlw	147
  7423  052D  0028               	movlb	8	; select bank8
  7424  052E  0099               	movwf	25	;volatile
  7425  052F  3068               	movlw	104
  7426  0530  2E88               	goto	L6
  7427  0531                     i1l6309:	
  7428                           ;final_3_dimer.c: 849: case '8':
  7429                           
  7430                           
  7431                           ;final_3_dimer.c: 850: TMR5H=0x94; TMR5L=0x30; T5CONbits.TMR5ON = 1; break;
  7432  0531  3094               	movlw	148
  7433  0532  2E76               	goto	L142
  7434  0533                     i1l6313:	
  7435                           ;final_3_dimer.c: 851: case '9':
  7436                           
  7437                           
  7438                           ;final_3_dimer.c: 852: TMR5H=0x94; TMR5L=0xF8; T5CONbits.TMR5ON = 1; break;
  7439  0533  3094               	movlw	148
  7440  0534  0028               	movlb	8	; select bank8
  7441  0535  0099               	movwf	25	;volatile
  7442  0536  30F8               	movlw	248
  7443  0537  2E88               	goto	L6
  7444  0538                     i1l6319:	
  7445                           ;final_3_dimer.c: 855: }
  7446                           
  7447                           ;final_3_dimer.c: 854: break;
  7448                           
  7449                           ;final_3_dimer.c: 853: default:
  7450                           
  7451                           
  7452                           ; Switch on 2 bytes has been partitioned into a top level switch of size 1, and 1 sub-sw
      +                          itches
  7453                           ; Switch size 1, requested type "space"
  7454                           ; Number of cases is 1, Range of values is 0 to 0
  7455                           ; switch strategies available:
  7456                           ; Name         Instructions Cycles
  7457                           ; simple_byte            4     3 (average)
  7458                           ; direct_byte            8     6 (fixed)
  7459                           ; jumptable            260     6 (fixed)
  7460                           ;	Chosen strategy is simple_byte
  7461  0538  0020               	movlb	0	; select bank0
  7462  0539  084E               	movf	_FAN_SPEED3_1s+1,w
  7463  053A  3A00               	xorlw	0	; case 0
  7464  053B  1903               	skipnz
  7465  053C  2D3E               	goto	i1l10499
  7466  053D  2EB2               	goto	i1l559
  7467  053E                     i1l10499:	
  7468                           
  7469                           ; Switch size 1, requested type "space"
  7470                           ; Number of cases is 10, Range of values is 48 to 57
  7471                           ; switch strategies available:
  7472                           ; Name         Instructions Cycles
  7473                           ; direct_byte           29     9 (fixed)
  7474                           ; simple_byte           31    16 (average)
  7475                           ; jumptable            263     9 (fixed)
  7476                           ;	Chosen strategy is direct_byte
  7477  053E  084D               	movf	_FAN_SPEED3_1s,w
  7478  053F  3ED0               	addlw	-48
  7479  0540  1C03               	skipc
  7480  0541  2EB2               	goto	i1l559
  7481  0542  0084               	movwf	4
  7482  0543  300A               	movlw	10
  7483  0544  0204               	subwf	4,w
  7484  0545  1803               	skipnc
  7485  0546  2EB2               	goto	i1l559
  7486  0547  318A               	movlp	high i1S10501
  7487  0548  3504               	lslf	4,w
  7488  0549  3E00               	addlw	low i1S10501
  7489  054A  0082               	movwf	2
  7490                           
  7491                           ;final_3_dimer.c: 856: break;
  7492  054B  2EB2               	goto	i1l559
  7493  054C                     i1l6321:	
  7494                           ;final_3_dimer.c: 860: {
  7495                           ;final_3_dimer.c: 861: case '0':
  7496                           
  7497                           ;final_3_dimer.c: 859: switch(FAN_SPEED3_1s)
  7498                           
  7499                           ;final_3_dimer.c: 857: case '3':
  7500                           
  7501                           
  7502                           ;final_3_dimer.c: 862: TMR5H=0x95; TMR5L=0xC0; T5CONbits.TMR5ON = 1; break;
  7503  054C  3095               	movlw	149
  7504  054D  2E7B               	goto	L143
  7505  054E                     i1l6325:	
  7506                           ;final_3_dimer.c: 863: case '1':
  7507                           
  7508                           
  7509                           ;final_3_dimer.c: 864: TMR5H=0x97; TMR5L=0x50; T5CONbits.TMR5ON = 1; break;
  7510  054E  3097               	movlw	151
  7511  054F  2E80               	goto	L144
  7512  0550                     i1l6329:	
  7513                           ;final_3_dimer.c: 865: case '2':
  7514                           
  7515                           
  7516                           ;final_3_dimer.c: 866: TMR5H=0x98; TMR5L=0xE0; T5CONbits.TMR5ON = 1; break;
  7517  0550  3098               	movlw	152
  7518  0551  2E85               	goto	L114
  7519  0552                     i1l6333:	
  7520                           ;final_3_dimer.c: 867: case '3':
  7521                           
  7522                           
  7523                           ;final_3_dimer.c: 868: TMR5H=0x9A; TMR5L=0x70; T5CONbits.TMR5ON = 1; break;
  7524  0552  309A               	movlw	154
  7525  0553  2E1C               	goto	L130
  7526  0554                     i1l6337:	
  7527                           ;final_3_dimer.c: 869: case '4':
  7528                           
  7529                           
  7530                           ;final_3_dimer.c: 870: TMR5H=0x9C; TMR5L=0x00; T5CONbits.TMR5ON = 1; break;
  7531  0554  309C               	movlw	156
  7532  0555  2E26               	goto	L131
  7533  0556                     i1l6343:	
  7534                           ;final_3_dimer.c: 871: case '5':
  7535                           
  7536                           
  7537                           ;final_3_dimer.c: 872: TMR5H=0x9D; TMR5L=0x90; T5CONbits.TMR5ON = 1; break;
  7538  0556  309D               	movlw	157
  7539  0557  2E2B               	goto	L132
  7540  0558                     i1l6347:	
  7541                           ;final_3_dimer.c: 873: case '6':
  7542                           
  7543                           
  7544                           ;final_3_dimer.c: 874: TMR5H=0x9F; TMR5L=0x20; T5CONbits.TMR5ON = 1; break;
  7545  0558  309F               	movlw	159
  7546  0559  2E30               	goto	L133
  7547  055A                     i1l6351:	
  7548                           ;final_3_dimer.c: 875: case '7':
  7549                           
  7550                           
  7551                           ;final_3_dimer.c: 876: TMR5H=0xA0; TMR5L=0xB0; T5CONbits.TMR5ON = 1; break;
  7552  055A  30A0               	movlw	160
  7553  055B  2E35               	goto	L134
  7554  055C                     i1l6355:	
  7555                           ;final_3_dimer.c: 877: case '8':
  7556                           
  7557                           
  7558                           ;final_3_dimer.c: 878: TMR5H=0xA2; TMR5L=0x40; T5CONbits.TMR5ON = 1; break;
  7559  055C  30A2               	movlw	162
  7560  055D  2E3F               	goto	L135
  7561  055E                     i1l6359:	
  7562                           ;final_3_dimer.c: 879: case '9':
  7563                           
  7564                           
  7565                           ;final_3_dimer.c: 880: TMR5H=0xA3; TMR5L=0xD0; T5CONbits.TMR5ON = 1; break;
  7566  055E  30A3               	movlw	163
  7567  055F  2E58               	goto	L136
  7568  0560                     i1l6365:	
  7569                           ;final_3_dimer.c: 883: }
  7570                           
  7571                           ;final_3_dimer.c: 882: break;
  7572                           
  7573                           ;final_3_dimer.c: 881: default:
  7574                           
  7575                           
  7576                           ; Switch on 2 bytes has been partitioned into a top level switch of size 1, and 1 sub-sw
      +                          itches
  7577                           ; Switch size 1, requested type "space"
  7578                           ; Number of cases is 1, Range of values is 0 to 0
  7579                           ; switch strategies available:
  7580                           ; Name         Instructions Cycles
  7581                           ; simple_byte            4     3 (average)
  7582                           ; direct_byte            8     6 (fixed)
  7583                           ; jumptable            260     6 (fixed)
  7584                           ;	Chosen strategy is simple_byte
  7585  0560  0020               	movlb	0	; select bank0
  7586  0561  084E               	movf	_FAN_SPEED3_1s+1,w
  7587  0562  3A00               	xorlw	0	; case 0
  7588  0563  1903               	skipnz
  7589  0564  2D66               	goto	i1l10503
  7590  0565  2EB2               	goto	i1l559
  7591  0566                     i1l10503:	
  7592                           
  7593                           ; Switch size 1, requested type "space"
  7594                           ; Number of cases is 10, Range of values is 48 to 57
  7595                           ; switch strategies available:
  7596                           ; Name         Instructions Cycles
  7597                           ; direct_byte           29     9 (fixed)
  7598                           ; simple_byte           31    16 (average)
  7599                           ; jumptable            263     9 (fixed)
  7600                           ;	Chosen strategy is direct_byte
  7601  0566  084D               	movf	_FAN_SPEED3_1s,w
  7602  0567  3ED0               	addlw	-48
  7603  0568  1C03               	skipc
  7604  0569  2EB2               	goto	i1l559
  7605  056A  0084               	movwf	4
  7606  056B  300A               	movlw	10
  7607  056C  0204               	subwf	4,w
  7608  056D  1803               	skipnc
  7609  056E  2EB2               	goto	i1l559
  7610  056F  318A               	movlp	high i1S10505
  7611  0570  3504               	lslf	4,w
  7612  0571  3E14               	addlw	low i1S10505
  7613  0572  0082               	movwf	2
  7614                           
  7615                           ;final_3_dimer.c: 884: break;
  7616  0573  2EB2               	goto	i1l559
  7617  0574                     i1l6367:	
  7618                           ;final_3_dimer.c: 888: {
  7619                           ;final_3_dimer.c: 889: case '0':
  7620                           
  7621                           ;final_3_dimer.c: 887: switch(FAN_SPEED3_1s)
  7622                           
  7623                           ;final_3_dimer.c: 885: case '4':
  7624                           
  7625                           
  7626                           ;final_3_dimer.c: 890: TMR5H=0xA5; TMR5L=0x60; T5CONbits.TMR5ON = 1; break;
  7627  0574  30A5               	movlw	165
  7628  0575  2E5D               	goto	L137
  7629  0576                     i1l6371:	
  7630                           ;final_3_dimer.c: 891: case '1':
  7631                           
  7632                           
  7633                           ;final_3_dimer.c: 892: TMR5H=0xA6; TMR5L=0xF0; T5CONbits.TMR5ON = 1; break;
  7634  0576  30A6               	movlw	166
  7635  0577  2E62               	goto	L138
  7636  0578                     i1l6375:	
  7637                           ;final_3_dimer.c: 893: case '2':
  7638                           
  7639                           
  7640                           ;final_3_dimer.c: 894: TMR5H=0xA8; TMR5L=0x80; T5CONbits.TMR5ON = 1; break;
  7641  0578  30A8               	movlw	168
  7642  0579  2E67               	goto	L139
  7643  057A                     i1l6379:	
  7644                           ;final_3_dimer.c: 895: case '3':
  7645                           
  7646                           
  7647                           ;final_3_dimer.c: 896: TMR5H=0xAA; TMR5L=0x10; T5CONbits.TMR5ON = 1; break;
  7648  057A  30AA               	movlw	170
  7649  057B  2E6C               	goto	L140
  7650  057C                     i1l6383:	
  7651                           ;final_3_dimer.c: 897: case '4':
  7652                           
  7653                           
  7654                           ;final_3_dimer.c: 898: TMR5H=0xAB; TMR5L=0xA0; T5CONbits.TMR5ON = 1; break;
  7655  057C  30AB               	movlw	171
  7656  057D  2E71               	goto	L141
  7657  057E                     i1l6387:	
  7658                           ;final_3_dimer.c: 899: case '5':
  7659                           
  7660                           
  7661                           ;final_3_dimer.c: 900: TMR5H=0xAD; TMR5L=0x30; T5CONbits.TMR5ON = 1; break;
  7662  057E  30AD               	movlw	173
  7663  057F  2E76               	goto	L142
  7664  0580                     i1l6391:	
  7665                           ;final_3_dimer.c: 901: case '6':
  7666                           
  7667                           
  7668                           ;final_3_dimer.c: 902: TMR5H=0xAE; TMR5L=0xC0; T5CONbits.TMR5ON = 1; break;
  7669  0580  30AE               	movlw	174
  7670  0581  2E7B               	goto	L143
  7671  0582                     i1l6395:	
  7672                           ;final_3_dimer.c: 903: case '7':
  7673                           
  7674                           
  7675                           ;final_3_dimer.c: 904: TMR5H=0xB0; TMR5L=0x50; T5CONbits.TMR5ON = 1; break;
  7676  0582  30B0               	movlw	176
  7677  0583  2E80               	goto	L144
  7678  0584                     i1l6399:	
  7679                           ;final_3_dimer.c: 905: case '8':
  7680                           
  7681                           
  7682                           ;final_3_dimer.c: 906: TMR5H=0xB1; TMR5L=0xE0; T5CONbits.TMR5ON = 1; break;
  7683  0584  30B1               	movlw	177
  7684  0585  2E85               	goto	L114
  7685  0586                     i1l6403:	
  7686                           ;final_3_dimer.c: 907: case '9':
  7687                           
  7688                           
  7689                           ;final_3_dimer.c: 908: TMR5H=0xB3; TMR5L=0x70; T5CONbits.TMR5ON = 1; break;
  7690  0586  30B3               	movlw	179
  7691  0587  2E1C               	goto	L130
  7692  0588                     i1l6409:	
  7693                           ;final_3_dimer.c: 911: }
  7694                           
  7695                           ;final_3_dimer.c: 910: break;
  7696                           
  7697                           ;final_3_dimer.c: 909: default:
  7698                           
  7699                           
  7700                           ; Switch on 2 bytes has been partitioned into a top level switch of size 1, and 1 sub-sw
      +                          itches
  7701                           ; Switch size 1, requested type "space"
  7702                           ; Number of cases is 1, Range of values is 0 to 0
  7703                           ; switch strategies available:
  7704                           ; Name         Instructions Cycles
  7705                           ; simple_byte            4     3 (average)
  7706                           ; direct_byte            8     6 (fixed)
  7707                           ; jumptable            260     6 (fixed)
  7708                           ;	Chosen strategy is simple_byte
  7709  0588  0020               	movlb	0	; select bank0
  7710  0589  084E               	movf	_FAN_SPEED3_1s+1,w
  7711  058A  3A00               	xorlw	0	; case 0
  7712  058B  1903               	skipnz
  7713  058C  2D8E               	goto	i1l10507
  7714  058D  2EB2               	goto	i1l559
  7715  058E                     i1l10507:	
  7716                           
  7717                           ; Switch size 1, requested type "space"
  7718                           ; Number of cases is 10, Range of values is 48 to 57
  7719                           ; switch strategies available:
  7720                           ; Name         Instructions Cycles
  7721                           ; direct_byte           29     9 (fixed)
  7722                           ; simple_byte           31    16 (average)
  7723                           ; jumptable            263     9 (fixed)
  7724                           ;	Chosen strategy is direct_byte
  7725  058E  084D               	movf	_FAN_SPEED3_1s,w
  7726  058F  3ED0               	addlw	-48
  7727  0590  1C03               	skipc
  7728  0591  2EB2               	goto	i1l559
  7729  0592  0084               	movwf	4
  7730  0593  300A               	movlw	10
  7731  0594  0204               	subwf	4,w
  7732  0595  1803               	skipnc
  7733  0596  2EB2               	goto	i1l559
  7734  0597  318A               	movlp	high i1S10509
  7735  0598  3504               	lslf	4,w
  7736  0599  3E28               	addlw	low i1S10509
  7737  059A  0082               	movwf	2
  7738                           
  7739                           ;final_3_dimer.c: 912: break;
  7740  059B  2EB2               	goto	i1l559
  7741  059C                     i1l6411:	
  7742                           ;final_3_dimer.c: 916: {
  7743                           ;final_3_dimer.c: 917: case '0':
  7744                           
  7745                           ;final_3_dimer.c: 915: switch(FAN_SPEED3_1s)
  7746                           
  7747                           ;final_3_dimer.c: 913: case '5':
  7748                           
  7749                           
  7750                           ;final_3_dimer.c: 918: TMR5H=0xB5; TMR5L=0x00; T5CONbits.TMR5ON = 1; break;
  7751  059C  30B5               	movlw	181
  7752  059D  2E26               	goto	L131
  7753  059E                     i1l6417:	
  7754                           ;final_3_dimer.c: 919: case '1':
  7755                           
  7756                           
  7757                           ;final_3_dimer.c: 920: TMR5H=0xB6; TMR5L=0x90; T5CONbits.TMR5ON = 1; break;
  7758  059E  30B6               	movlw	182
  7759  059F  2E2B               	goto	L132
  7760  05A0                     i1l6421:	
  7761                           ;final_3_dimer.c: 921: case '2':
  7762                           
  7763                           
  7764                           ;final_3_dimer.c: 922: TMR5H=0xB8; TMR5L=0x20; T5CONbits.TMR5ON = 1; break;
  7765  05A0  30B8               	movlw	184
  7766  05A1  2E30               	goto	L133
  7767  05A2                     i1l6425:	
  7768                           ;final_3_dimer.c: 923: case '3':
  7769                           
  7770                           
  7771                           ;final_3_dimer.c: 924: TMR5H=0xB9; TMR5L=0xB0; T5CONbits.TMR5ON = 1; break;
  7772  05A2  30B9               	movlw	185
  7773  05A3  2E35               	goto	L134
  7774  05A4                     i1l6429:	
  7775                           ;final_3_dimer.c: 925: case '4':
  7776                           
  7777                           
  7778                           ;final_3_dimer.c: 926: TMR5H=0xBB; TMR5L=0x40; T5CONbits.TMR5ON = 1; break;
  7779  05A4  30BB               	movlw	187
  7780  05A5  2E3F               	goto	L135
  7781  05A6                     i1l6433:	
  7782                           ;final_3_dimer.c: 927: case '5':
  7783                           
  7784                           
  7785                           ;final_3_dimer.c: 928: TMR5H=0xBC; TMR5L=0xD0; T5CONbits.TMR5ON = 1; break;
  7786  05A6  30BC               	movlw	188
  7787  05A7  2E58               	goto	L136
  7788  05A8                     i1l6437:	
  7789                           ;final_3_dimer.c: 929: case '6':
  7790                           
  7791                           
  7792                           ;final_3_dimer.c: 930: TMR5H=0xBE; TMR5L=0x60; T5CONbits.TMR5ON = 1; break;
  7793  05A8  30BE               	movlw	190
  7794  05A9  2E5D               	goto	L137
  7795  05AA                     i1l6441:	
  7796                           ;final_3_dimer.c: 931: case '7':
  7797                           
  7798                           
  7799                           ;final_3_dimer.c: 932: TMR5H=0xBF; TMR5L=0xF0; T5CONbits.TMR5ON = 1; break;
  7800  05AA  30BF               	movlw	191
  7801  05AB  2E62               	goto	L138
  7802  05AC                     i1l6445:	
  7803                           ;final_3_dimer.c: 933: case '8':
  7804                           
  7805                           
  7806                           ;final_3_dimer.c: 934: TMR5H=0xC1; TMR5L=0x80; T5CONbits.TMR5ON = 1; break;
  7807  05AC  30C1               	movlw	193
  7808  05AD  2E67               	goto	L139
  7809  05AE                     i1l6449:	
  7810                           ;final_3_dimer.c: 935: case '9':
  7811                           
  7812                           
  7813                           ;final_3_dimer.c: 936: TMR5H=0xC3; TMR5L=0x10; T5CONbits.TMR5ON = 1; break;
  7814  05AE  30C3               	movlw	195
  7815  05AF  2E6C               	goto	L140
  7816  05B0                     i1l6455:	
  7817                           ;final_3_dimer.c: 939: }
  7818                           
  7819                           ;final_3_dimer.c: 938: break;
  7820                           
  7821                           ;final_3_dimer.c: 937: default:
  7822                           
  7823                           
  7824                           ; Switch on 2 bytes has been partitioned into a top level switch of size 1, and 1 sub-sw
      +                          itches
  7825                           ; Switch size 1, requested type "space"
  7826                           ; Number of cases is 1, Range of values is 0 to 0
  7827                           ; switch strategies available:
  7828                           ; Name         Instructions Cycles
  7829                           ; simple_byte            4     3 (average)
  7830                           ; direct_byte            8     6 (fixed)
  7831                           ; jumptable            260     6 (fixed)
  7832                           ;	Chosen strategy is simple_byte
  7833  05B0  0020               	movlb	0	; select bank0
  7834  05B1  084E               	movf	_FAN_SPEED3_1s+1,w
  7835  05B2  3A00               	xorlw	0	; case 0
  7836  05B3  1903               	skipnz
  7837  05B4  2DB6               	goto	i1l10511
  7838  05B5  2EB2               	goto	i1l559
  7839  05B6                     i1l10511:	
  7840                           
  7841                           ; Switch size 1, requested type "space"
  7842                           ; Number of cases is 10, Range of values is 48 to 57
  7843                           ; switch strategies available:
  7844                           ; Name         Instructions Cycles
  7845                           ; direct_byte           29     9 (fixed)
  7846                           ; simple_byte           31    16 (average)
  7847                           ; jumptable            263     9 (fixed)
  7848                           ;	Chosen strategy is direct_byte
  7849  05B6  084D               	movf	_FAN_SPEED3_1s,w
  7850  05B7  3ED0               	addlw	-48
  7851  05B8  1C03               	skipc
  7852  05B9  2EB2               	goto	i1l559
  7853  05BA  0084               	movwf	4
  7854  05BB  300A               	movlw	10
  7855  05BC  0204               	subwf	4,w
  7856  05BD  1803               	skipnc
  7857  05BE  2EB2               	goto	i1l559
  7858  05BF  318A               	movlp	high i1S10513
  7859  05C0  3504               	lslf	4,w
  7860  05C1  3E3C               	addlw	low i1S10513
  7861  05C2  0082               	movwf	2
  7862                           
  7863                           ;final_3_dimer.c: 940: break;
  7864  05C3  2EB2               	goto	i1l559
  7865  05C4                     i1l6457:	
  7866                           ;final_3_dimer.c: 944: {
  7867                           ;final_3_dimer.c: 945: case '0':
  7868                           
  7869                           ;final_3_dimer.c: 943: switch(FAN_SPEED3_1s)
  7870                           
  7871                           ;final_3_dimer.c: 941: case '6':
  7872                           
  7873                           
  7874                           ;final_3_dimer.c: 946: TMR5H=0xC4; TMR5L=0xA0; T5CONbits.TMR5ON = 1; break;
  7875  05C4  30C4               	movlw	196
  7876  05C5  2E71               	goto	L141
  7877  05C6                     i1l6461:	
  7878                           ;final_3_dimer.c: 947: case '1':
  7879                           
  7880                           
  7881                           ;final_3_dimer.c: 948: TMR5H=0xC6; TMR5L=0x30; T5CONbits.TMR5ON = 1; break;
  7882  05C6  30C6               	movlw	198
  7883  05C7  2E76               	goto	L142
  7884  05C8                     i1l6465:	
  7885                           ;final_3_dimer.c: 949: case '2':
  7886                           
  7887                           
  7888                           ;final_3_dimer.c: 950: TMR5H=0xC7; TMR5L=0xC0; T5CONbits.TMR5ON = 1; break;
  7889  05C8  30C7               	movlw	199
  7890  05C9  2E7B               	goto	L143
  7891  05CA                     i1l6469:	
  7892                           ;final_3_dimer.c: 951: case '3':
  7893                           
  7894                           
  7895                           ;final_3_dimer.c: 952: TMR5H=0xC9; TMR5L=0x50; T5CONbits.TMR5ON = 1; break;
  7896  05CA  30C9               	movlw	201
  7897  05CB  2E80               	goto	L144
  7898  05CC                     i1l6473:	
  7899                           ;final_3_dimer.c: 953: case '4':
  7900                           
  7901                           
  7902                           ;final_3_dimer.c: 954: TMR5H=0xCA; TMR5L=0xE0; T5CONbits.TMR5ON = 1; break;
  7903  05CC  30CA               	movlw	202
  7904  05CD  2E85               	goto	L114
  7905  05CE                     i1l6477:	
  7906                           ;final_3_dimer.c: 955: case '5':
  7907                           
  7908                           
  7909                           ;final_3_dimer.c: 956: TMR5H=0xCC; TMR5L=0x70; T5CONbits.TMR5ON = 1; break;
  7910  05CE  30CC               	movlw	204
  7911  05CF  2E1C               	goto	L130
  7912  05D0                     i1l6481:	
  7913                           ;final_3_dimer.c: 957: case '6':
  7914                           
  7915                           
  7916                           ;final_3_dimer.c: 958: TMR5H=0xCE; TMR5L=0x00; T5CONbits.TMR5ON = 1; break;
  7917  05D0  30CE               	movlw	206
  7918  05D1  2E26               	goto	L131
  7919  05D2                     i1l6487:	
  7920                           ;final_3_dimer.c: 959: case '7':
  7921                           
  7922                           
  7923                           ;final_3_dimer.c: 960: TMR5H=0xCF; TMR5L=0x90; T5CONbits.TMR5ON = 1; break;
  7924  05D2  30CF               	movlw	207
  7925  05D3  2E2B               	goto	L132
  7926  05D4                     i1l6491:	
  7927                           ;final_3_dimer.c: 961: case '8':
  7928                           
  7929                           
  7930                           ;final_3_dimer.c: 962: TMR5H=0xD1; TMR5L=0x20; T5CONbits.TMR5ON = 1; break;
  7931  05D4  30D1               	movlw	209
  7932  05D5  2E30               	goto	L133
  7933  05D6                     i1l6495:	
  7934                           ;final_3_dimer.c: 963: case '9':
  7935                           
  7936                           
  7937                           ;final_3_dimer.c: 964: TMR5H=0xD2; TMR5L=0xB0; T5CONbits.TMR5ON = 1; break;
  7938  05D6  30D2               	movlw	210
  7939  05D7  2E35               	goto	L134
  7940  05D8                     i1l6501:	
  7941                           ;final_3_dimer.c: 967: }
  7942                           
  7943                           ;final_3_dimer.c: 966: break;
  7944                           
  7945                           ;final_3_dimer.c: 965: default:
  7946                           
  7947                           
  7948                           ; Switch on 2 bytes has been partitioned into a top level switch of size 1, and 1 sub-sw
      +                          itches
  7949                           ; Switch size 1, requested type "space"
  7950                           ; Number of cases is 1, Range of values is 0 to 0
  7951                           ; switch strategies available:
  7952                           ; Name         Instructions Cycles
  7953                           ; simple_byte            4     3 (average)
  7954                           ; direct_byte            8     6 (fixed)
  7955                           ; jumptable            260     6 (fixed)
  7956                           ;	Chosen strategy is simple_byte
  7957  05D8  0020               	movlb	0	; select bank0
  7958  05D9  084E               	movf	_FAN_SPEED3_1s+1,w
  7959  05DA  3A00               	xorlw	0	; case 0
  7960  05DB  1903               	skipnz
  7961  05DC  2DDE               	goto	i1l10515
  7962  05DD  2EB2               	goto	i1l559
  7963  05DE                     i1l10515:	
  7964                           
  7965                           ; Switch size 1, requested type "space"
  7966                           ; Number of cases is 10, Range of values is 48 to 57
  7967                           ; switch strategies available:
  7968                           ; Name         Instructions Cycles
  7969                           ; direct_byte           29     9 (fixed)
  7970                           ; simple_byte           31    16 (average)
  7971                           ; jumptable            263     9 (fixed)
  7972                           ;	Chosen strategy is direct_byte
  7973  05DE  084D               	movf	_FAN_SPEED3_1s,w
  7974  05DF  3ED0               	addlw	-48
  7975  05E0  1C03               	skipc
  7976  05E1  2EB2               	goto	i1l559
  7977  05E2  0084               	movwf	4
  7978  05E3  300A               	movlw	10
  7979  05E4  0204               	subwf	4,w
  7980  05E5  1803               	skipnc
  7981  05E6  2EB2               	goto	i1l559
  7982  05E7  318A               	movlp	high i1S10517
  7983  05E8  3504               	lslf	4,w
  7984  05E9  3E50               	addlw	low i1S10517
  7985  05EA  0082               	movwf	2
  7986                           
  7987                           ;final_3_dimer.c: 968: break;
  7988  05EB  2EB2               	goto	i1l559
  7989  05EC                     i1l6503:	
  7990                           ;final_3_dimer.c: 972: {
  7991                           ;final_3_dimer.c: 973: case '0':
  7992                           
  7993                           ;final_3_dimer.c: 971: switch(FAN_SPEED3_1s)
  7994                           
  7995                           ;final_3_dimer.c: 969: case '7':
  7996                           
  7997                           
  7998                           ;final_3_dimer.c: 974: TMR5H=0xD4; TMR5L=0x40; T5CONbits.TMR5ON = 1; break;
  7999  05EC  30D4               	movlw	212
  8000  05ED  2E3F               	goto	L135
  8001  05EE                     i1l6507:	
  8002                           ;final_3_dimer.c: 975: case '1':
  8003                           
  8004                           
  8005                           ;final_3_dimer.c: 976: TMR5H=0xD5; TMR5L=0xD0; T5CONbits.TMR5ON = 1; break;
  8006  05EE  30D5               	movlw	213
  8007  05EF  2E58               	goto	L136
  8008  05F0                     i1l6511:	
  8009                           ;final_3_dimer.c: 977: case '2':
  8010                           
  8011                           
  8012                           ;final_3_dimer.c: 978: TMR5H=0xD7; TMR5L=0x60; T5CONbits.TMR5ON = 1; break;
  8013  05F0  30D7               	movlw	215
  8014  05F1  2E5D               	goto	L137
  8015  05F2                     i1l6515:	
  8016                           ;final_3_dimer.c: 979: case '3':
  8017                           
  8018                           
  8019                           ;final_3_dimer.c: 980: TMR5H=0xD8; TMR5L=0xF0; T5CONbits.TMR5ON = 1; break;
  8020  05F2  30D8               	movlw	216
  8021  05F3  2E62               	goto	L138
  8022  05F4                     i1l6519:	
  8023                           ;final_3_dimer.c: 981: case '4':
  8024                           
  8025                           
  8026                           ;final_3_dimer.c: 982: TMR5H=0xDA; TMR5L=0x80; T5CONbits.TMR5ON = 1; break;
  8027  05F4  30DA               	movlw	218
  8028  05F5  2E67               	goto	L139
  8029  05F6                     i1l6523:	
  8030                           ;final_3_dimer.c: 983: case '5':
  8031                           
  8032                           
  8033                           ;final_3_dimer.c: 984: TMR5H=0xDC; TMR5L=0x10; T5CONbits.TMR5ON = 1; break;
  8034  05F6  30DC               	movlw	220
  8035  05F7  2E6C               	goto	L140
  8036  05F8                     i1l6527:	
  8037                           ;final_3_dimer.c: 985: case '6':
  8038                           
  8039                           
  8040                           ;final_3_dimer.c: 986: TMR5H=0xDD; TMR5L=0xA0; T5CONbits.TMR5ON = 1; break;
  8041  05F8  30DD               	movlw	221
  8042  05F9  2E71               	goto	L141
  8043  05FA                     i1l6531:	
  8044                           ;final_3_dimer.c: 987: case '7':
  8045                           
  8046                           
  8047                           ;final_3_dimer.c: 988: TMR5H=0xDF; TMR5L=0x30; T5CONbits.TMR5ON = 1; break;
  8048  05FA  30DF               	movlw	223
  8049  05FB  2E76               	goto	L142
  8050  05FC                     i1l6535:	
  8051                           ;final_3_dimer.c: 989: case '8':
  8052                           
  8053                           
  8054                           ;final_3_dimer.c: 990: TMR5H=0xE0; TMR5L=0xC0; T5CONbits.TMR5ON = 1; break;
  8055  05FC  30E0               	movlw	224
  8056  05FD  2E7B               	goto	L143
  8057  05FE                     i1l6539:	
  8058                           ;final_3_dimer.c: 991: case '9':
  8059                           
  8060                           
  8061                           ;final_3_dimer.c: 992: TMR5H=0xE2; TMR5L=0x50; T5CONbits.TMR5ON = 1; break;
  8062  05FE  30E2               	movlw	226
  8063  05FF  2E80               	goto	L144
  8064  0600                     i1l6545:	
  8065                           ;final_3_dimer.c: 995: }
  8066                           
  8067                           ;final_3_dimer.c: 994: break;
  8068                           
  8069                           ;final_3_dimer.c: 993: default:
  8070                           
  8071                           
  8072                           ; Switch on 2 bytes has been partitioned into a top level switch of size 1, and 1 sub-sw
      +                          itches
  8073                           ; Switch size 1, requested type "space"
  8074                           ; Number of cases is 1, Range of values is 0 to 0
  8075                           ; switch strategies available:
  8076                           ; Name         Instructions Cycles
  8077                           ; simple_byte            4     3 (average)
  8078                           ; direct_byte            8     6 (fixed)
  8079                           ; jumptable            260     6 (fixed)
  8080                           ;	Chosen strategy is simple_byte
  8081  0600  0020               	movlb	0	; select bank0
  8082  0601  084E               	movf	_FAN_SPEED3_1s+1,w
  8083  0602  3A00               	xorlw	0	; case 0
  8084  0603  1903               	skipnz
  8085  0604  2E06               	goto	i1l10519
  8086  0605  2EB2               	goto	i1l559
  8087  0606                     i1l10519:	
  8088                           
  8089                           ; Switch size 1, requested type "space"
  8090                           ; Number of cases is 10, Range of values is 48 to 57
  8091                           ; switch strategies available:
  8092                           ; Name         Instructions Cycles
  8093                           ; direct_byte           29     9 (fixed)
  8094                           ; simple_byte           31    16 (average)
  8095                           ; jumptable            263     9 (fixed)
  8096                           ;	Chosen strategy is direct_byte
  8097  0606  084D               	movf	_FAN_SPEED3_1s,w
  8098  0607  3ED0               	addlw	-48
  8099  0608  1C03               	skipc
  8100  0609  2EB2               	goto	i1l559
  8101  060A  0084               	movwf	4
  8102  060B  300A               	movlw	10
  8103  060C  0204               	subwf	4,w
  8104  060D  1803               	skipnc
  8105  060E  2EB2               	goto	i1l559
  8106  060F  318A               	movlp	high i1S10521
  8107  0610  3504               	lslf	4,w
  8108  0611  3E64               	addlw	low i1S10521
  8109  0612  0082               	movwf	2
  8110                           
  8111                           ;final_3_dimer.c: 996: break;
  8112  0613  2EB2               	goto	i1l559
  8113  0614                     i1l6547:	
  8114                           ;final_3_dimer.c: 1000: {
  8115                           ;final_3_dimer.c: 1001: case '0':
  8116                           
  8117                           ;final_3_dimer.c: 999: switch(FAN_SPEED3_1s)
  8118                           
  8119                           ;final_3_dimer.c: 997: case '8':
  8120                           
  8121                           
  8122                           ;final_3_dimer.c: 1002: TMR5H=0xE3; TMR5L=0xE0; T5CONbits.TMR5ON = 1; break;
  8123  0614  30E3               	movlw	227
  8124  0615  2E85               	goto	L114
  8125  0616                     i1l6551:	
  8126                           ;final_3_dimer.c: 1003: case '1':
  8127                           
  8128                           
  8129                           ;final_3_dimer.c: 1004: TMR5H=0xE4; TMR5L=0xA8; T5CONbits.TMR5ON = 1; break;
  8130  0616  30E4               	movlw	228
  8131  0617                     L157:	
  8132  0617  0028               	movlb	8	; select bank8
  8133  0618  0099               	movwf	25	;volatile
  8134  0619  30A8               	movlw	168
  8135  061A  2E88               	goto	L6
  8136  061B                     i1l6555:	
  8137                           ;final_3_dimer.c: 1005: case '2':
  8138                           
  8139                           
  8140                           ;final_3_dimer.c: 1006: TMR5H=0xE5; TMR5L=0x70; T5CONbits.TMR5ON = 1; break;
  8141  061B  30E5               	movlw	229
  8142  061C                     L130:	
  8143  061C  0028               	movlb	8	; select bank8
  8144  061D  0099               	movwf	25	;volatile
  8145  061E  3070               	movlw	112
  8146  061F  2E88               	goto	L6
  8147  0620                     i1l6559:	
  8148                           ;final_3_dimer.c: 1007: case '3':
  8149                           
  8150                           
  8151                           ;final_3_dimer.c: 1008: TMR5H=0xE6; TMR5L=0x38; T5CONbits.TMR5ON = 1; break;
  8152  0620  30E6               	movlw	230
  8153  0621  0028               	movlb	8	; select bank8
  8154  0622  0099               	movwf	25	;volatile
  8155  0623  3038               	movlw	56
  8156  0624  2E88               	goto	L6
  8157  0625                     i1l6563:	
  8158                           ;final_3_dimer.c: 1009: case '4':
  8159                           
  8160                           
  8161                           ;final_3_dimer.c: 1010: TMR5H=0xE7; TMR5L=0x00; T5CONbits.TMR5ON = 1; break;
  8162  0625  30E7               	movlw	231
  8163  0626                     L131:	
  8164  0626  0028               	movlb	8	; select bank8
  8165  0627  0099               	movwf	25	;volatile
  8166  0628  0198               	clrf	24	;volatile
  8167  0629  2E89               	goto	i1l6631
  8168  062A                     i1l6569:	
  8169                           ;final_3_dimer.c: 1011: case '5':
  8170                           
  8171                           
  8172                           ;final_3_dimer.c: 1012: TMR5H=0xE8; TMR5L=0x90; T5CONbits.TMR5ON = 1; break;
  8173  062A  30E8               	movlw	232
  8174  062B                     L132:	
  8175  062B  0028               	movlb	8	; select bank8
  8176  062C  0099               	movwf	25	;volatile
  8177  062D  3090               	movlw	144
  8178  062E  2E88               	goto	L6
  8179  062F                     i1l6573:	
  8180                           ;final_3_dimer.c: 1013: case '6':
  8181                           
  8182                           
  8183                           ;final_3_dimer.c: 1014: TMR5H=0xEA; TMR5L=0x20; T5CONbits.TMR5ON = 1; break;
  8184  062F  30EA               	movlw	234
  8185  0630                     L133:	
  8186  0630  0028               	movlb	8	; select bank8
  8187  0631  0099               	movwf	25	;volatile
  8188  0632  3020               	movlw	32
  8189  0633  2E88               	goto	L6
  8190  0634                     i1l6577:	
  8191                           ;final_3_dimer.c: 1015: case '7':
  8192                           
  8193                           
  8194                           ;final_3_dimer.c: 1016: TMR5H=0xEB; TMR5L=0xB0; T5CONbits.TMR5ON = 1; break;
  8195  0634  30EB               	movlw	235
  8196  0635                     L134:	
  8197  0635  0028               	movlb	8	; select bank8
  8198  0636  0099               	movwf	25	;volatile
  8199  0637  30B0               	movlw	176
  8200  0638  2E88               	goto	L6
  8201  0639                     i1l6581:	
  8202                           ;final_3_dimer.c: 1017: case '8':
  8203                           
  8204                           
  8205                           ;final_3_dimer.c: 1018: TMR5H=0xEC; TMR5L=0x78; T5CONbits.TMR5ON = 1; break;
  8206  0639  30EC               	movlw	236
  8207  063A                     L159:	
  8208  063A  0028               	movlb	8	; select bank8
  8209  063B  0099               	movwf	25	;volatile
  8210  063C  3078               	movlw	120
  8211  063D  2E88               	goto	L6
  8212  063E                     i1l6585:	
  8213                           ;final_3_dimer.c: 1019: case '9':
  8214                           
  8215                           
  8216                           ;final_3_dimer.c: 1020: TMR5H=0xED; TMR5L=0x40; T5CONbits.TMR5ON = 1; break;
  8217  063E  30ED               	movlw	237
  8218  063F                     L135:	
  8219  063F  0028               	movlb	8	; select bank8
  8220  0640  0099               	movwf	25	;volatile
  8221  0641  3040               	movlw	64
  8222  0642  2E88               	goto	L6
  8223  0643                     i1l6591:	
  8224                           ;final_3_dimer.c: 1023: }
  8225                           
  8226                           ;final_3_dimer.c: 1022: break;
  8227                           
  8228                           ;final_3_dimer.c: 1021: default:
  8229                           
  8230                           
  8231                           ; Switch on 2 bytes has been partitioned into a top level switch of size 1, and 1 sub-sw
      +                          itches
  8232                           ; Switch size 1, requested type "space"
  8233                           ; Number of cases is 1, Range of values is 0 to 0
  8234                           ; switch strategies available:
  8235                           ; Name         Instructions Cycles
  8236                           ; simple_byte            4     3 (average)
  8237                           ; direct_byte            8     6 (fixed)
  8238                           ; jumptable            260     6 (fixed)
  8239                           ;	Chosen strategy is simple_byte
  8240  0643  0020               	movlb	0	; select bank0
  8241  0644  084E               	movf	_FAN_SPEED3_1s+1,w
  8242  0645  3A00               	xorlw	0	; case 0
  8243  0646  1903               	skipnz
  8244  0647  2E49               	goto	i1l10523
  8245  0648  2EB2               	goto	i1l559
  8246  0649                     i1l10523:	
  8247                           
  8248                           ; Switch size 1, requested type "space"
  8249                           ; Number of cases is 10, Range of values is 48 to 57
  8250                           ; switch strategies available:
  8251                           ; Name         Instructions Cycles
  8252                           ; direct_byte           29     9 (fixed)
  8253                           ; simple_byte           31    16 (average)
  8254                           ; jumptable            263     9 (fixed)
  8255                           ;	Chosen strategy is direct_byte
  8256  0649  084D               	movf	_FAN_SPEED3_1s,w
  8257  064A  3ED0               	addlw	-48
  8258  064B  1C03               	skipc
  8259  064C  2EB2               	goto	i1l559
  8260  064D  0084               	movwf	4
  8261  064E  300A               	movlw	10
  8262  064F  0204               	subwf	4,w
  8263  0650  1803               	skipnc
  8264  0651  2EB2               	goto	i1l559
  8265  0652  318A               	movlp	high i1S10525
  8266  0653  3504               	lslf	4,w
  8267  0654  3E78               	addlw	low i1S10525
  8268  0655  0082               	movwf	2
  8269                           
  8270                           ;final_3_dimer.c: 1024: break;
  8271  0656  2EB2               	goto	i1l559
  8272  0657                     i1l6593:	
  8273                           ;final_3_dimer.c: 1028: {
  8274                           ;final_3_dimer.c: 1029: case '0':
  8275                           
  8276                           ;final_3_dimer.c: 1027: switch(FAN_SPEED3_1s)
  8277                           
  8278                           ;final_3_dimer.c: 1025: case '9':
  8279                           
  8280                           
  8281                           ;final_3_dimer.c: 1030: TMR5H=0xEE; TMR5L=0xD0; T5CONbits.TMR5ON = 1; break;
  8282  0657  30EE               	movlw	238
  8283  0658                     L136:	
  8284  0658  0028               	movlb	8	; select bank8
  8285  0659  0099               	movwf	25	;volatile
  8286  065A  30D0               	movlw	208
  8287  065B  2E88               	goto	L6
  8288  065C                     i1l6597:	
  8289                           ;final_3_dimer.c: 1031: case '1':
  8290                           
  8291                           
  8292                           ;final_3_dimer.c: 1032: TMR5H=0xF0; TMR5L=0x60; T5CONbits.TMR5ON = 1; break;
  8293  065C  30F0               	movlw	240
  8294  065D                     L137:	
  8295  065D  0028               	movlb	8	; select bank8
  8296  065E  0099               	movwf	25	;volatile
  8297  065F  3060               	movlw	96
  8298  0660  2E88               	goto	L6
  8299  0661                     i1l6601:	
  8300                           ;final_3_dimer.c: 1033: case '2':
  8301                           
  8302                           
  8303                           ;final_3_dimer.c: 1034: TMR5H=0xF1; TMR5L=0xF0; T5CONbits.TMR5ON = 1; break;
  8304  0661  30F1               	movlw	241
  8305  0662                     L138:	
  8306  0662  0028               	movlb	8	; select bank8
  8307  0663  0099               	movwf	25	;volatile
  8308  0664  30F0               	movlw	240
  8309  0665  2E88               	goto	L6
  8310  0666                     i1l6605:	
  8311                           ;final_3_dimer.c: 1035: case '3':
  8312                           
  8313                           
  8314                           ;final_3_dimer.c: 1036: TMR5H=0xF3; TMR5L=0x80; T5CONbits.TMR5ON = 1; break;
  8315  0666  30F3               	movlw	243
  8316  0667                     L139:	
  8317  0667  0028               	movlb	8	; select bank8
  8318  0668  0099               	movwf	25	;volatile
  8319  0669  3080               	movlw	128
  8320  066A  2E88               	goto	L6
  8321  066B                     i1l6609:	
  8322                           ;final_3_dimer.c: 1037: case '4':
  8323                           
  8324                           
  8325                           ;final_3_dimer.c: 1038: TMR5H=0xF5; TMR5L=0x10; T5CONbits.TMR5ON = 1; break;
  8326  066B  30F5               	movlw	245
  8327  066C                     L140:	
  8328  066C  0028               	movlb	8	; select bank8
  8329  066D  0099               	movwf	25	;volatile
  8330  066E  3010               	movlw	16
  8331  066F  2E88               	goto	L6
  8332  0670                     i1l6613:	
  8333                           ;final_3_dimer.c: 1039: case '5':
  8334                           
  8335                           
  8336                           ;final_3_dimer.c: 1040: TMR5H=0xF6; TMR5L=0xA0; T5CONbits.TMR5ON = 1; break;
  8337  0670  30F6               	movlw	246
  8338  0671                     L141:	
  8339  0671  0028               	movlb	8	; select bank8
  8340  0672  0099               	movwf	25	;volatile
  8341  0673  30A0               	movlw	160
  8342  0674  2E88               	goto	L6
  8343  0675                     i1l6617:	
  8344                           ;final_3_dimer.c: 1041: case '6':
  8345                           
  8346                           
  8347                           ;final_3_dimer.c: 1042: TMR5H=0xF8; TMR5L=0x30; T5CONbits.TMR5ON = 1; break;
  8348  0675  30F8               	movlw	248
  8349  0676                     L142:	
  8350  0676  0028               	movlb	8	; select bank8
  8351  0677  0099               	movwf	25	;volatile
  8352  0678  3030               	movlw	48
  8353  0679  2E88               	goto	L6
  8354  067A                     i1l6621:	
  8355                           ;final_3_dimer.c: 1043: case '7':
  8356                           
  8357                           
  8358                           ;final_3_dimer.c: 1044: TMR5H=0xF9; TMR5L=0xC0; T5CONbits.TMR5ON = 1; break;
  8359  067A  30F9               	movlw	249
  8360  067B                     L143:	
  8361  067B  0028               	movlb	8	; select bank8
  8362  067C  0099               	movwf	25	;volatile
  8363  067D  30C0               	movlw	192
  8364  067E  2E88               	goto	L6
  8365  067F                     i1l6625:	
  8366                           ;final_3_dimer.c: 1045: case '8':
  8367                           
  8368                           
  8369                           ;final_3_dimer.c: 1046: TMR5H=0xFB; TMR5L=0x50; T5CONbits.TMR5ON = 1; break;
  8370  067F  30FB               	movlw	251
  8371  0680                     L144:	
  8372  0680  0028               	movlb	8	; select bank8
  8373  0681  0099               	movwf	25	;volatile
  8374  0682  3050               	movlw	80
  8375  0683  2E88               	goto	L6
  8376  0684                     i1l6629:	
  8377                           ;final_3_dimer.c: 1047: case '9':
  8378                           
  8379                           
  8380                           ;final_3_dimer.c: 1048: TMR5H=0xFC; TMR5L=0xE0; T5CONbits.TMR5ON = 1; break;
  8381  0684  30FC               	movlw	252
  8382  0685                     L114:	
  8383  0685  0028               	movlb	8	; select bank8
  8384  0686  0099               	movwf	25	;volatile
  8385  0687  30E0               	movlw	224
  8386  0688                     L6:	
  8387  0688  0098               	movwf	24	;volatile
  8388  0689                     i1l6631:	
  8389  0689  141A               	bsf	26,0	;volatile
  8390                           
  8391                           ;final_3_dimer.c: 1051: }
  8392                           
  8393                           ;final_3_dimer.c: 1050: break;
  8394                           
  8395                           ;final_3_dimer.c: 1049: default:
  8396  068A  2EB2               	goto	i1l559
  8397  068B                     i1l6635:	
  8398                           
  8399                           ; Switch on 2 bytes has been partitioned into a top level switch of size 1, and 1 sub-sw
      +                          itches
  8400                           ; Switch size 1, requested type "space"
  8401                           ; Number of cases is 1, Range of values is 0 to 0
  8402                           ; switch strategies available:
  8403                           ; Name         Instructions Cycles
  8404                           ; simple_byte            4     3 (average)
  8405                           ; direct_byte            8     6 (fixed)
  8406                           ; jumptable            260     6 (fixed)
  8407                           ;	Chosen strategy is simple_byte
  8408  068B  0020               	movlb	0	; select bank0
  8409  068C  084E               	movf	_FAN_SPEED3_1s+1,w
  8410  068D  3A00               	xorlw	0	; case 0
  8411  068E  1903               	skipnz
  8412  068F  2E91               	goto	i1l10527
  8413  0690  2EB2               	goto	i1l559
  8414  0691                     i1l10527:	
  8415                           
  8416                           ; Switch size 1, requested type "space"
  8417                           ; Number of cases is 10, Range of values is 48 to 57
  8418                           ; switch strategies available:
  8419                           ; Name         Instructions Cycles
  8420                           ; direct_byte           29     9 (fixed)
  8421                           ; simple_byte           31    16 (average)
  8422                           ; jumptable            263     9 (fixed)
  8423                           ;	Chosen strategy is direct_byte
  8424  0691  084D               	movf	_FAN_SPEED3_1s,w
  8425  0692  3ED0               	addlw	-48
  8426  0693  1C03               	skipc
  8427  0694  2EB2               	goto	i1l559
  8428  0695  0084               	movwf	4
  8429  0696  300A               	movlw	10
  8430  0697  0204               	subwf	4,w
  8431  0698  1803               	skipnc
  8432  0699  2EB2               	goto	i1l559
  8433  069A  318A               	movlp	high i1S10529
  8434  069B  3504               	lslf	4,w
  8435  069C  3E8C               	addlw	low i1S10529
  8436  069D  0082               	movwf	2
  8437                           
  8438                           ;final_3_dimer.c: 1055: }
  8439                           
  8440                           ;final_3_dimer.c: 1054: break;
  8441                           
  8442                           ;final_3_dimer.c: 1053: default:
  8443                           
  8444                           ;final_3_dimer.c: 1052: break;
  8445  069E  2EB2               	goto	i1l559
  8446  069F                     i1l6639:	
  8447                           
  8448                           ; Switch on 2 bytes has been partitioned into a top level switch of size 1, and 1 sub-sw
      +                          itches
  8449                           ; Switch size 1, requested type "space"
  8450                           ; Number of cases is 1, Range of values is 0 to 0
  8451                           ; switch strategies available:
  8452                           ; Name         Instructions Cycles
  8453                           ; simple_byte            4     3 (average)
  8454                           ; direct_byte            8     6 (fixed)
  8455                           ; jumptable            260     6 (fixed)
  8456                           ;	Chosen strategy is simple_byte
  8457  069F  0021               	movlb	1	; select bank1
  8458  06A0  085C               	movf	(_FAN_SPEED3_10s+1)^(0+128),w
  8459  06A1  3A00               	xorlw	0	; case 0
  8460  06A2  1903               	skipnz
  8461  06A3  2EA5               	goto	i1l10531
  8462  06A4  2EB2               	goto	i1l559
  8463  06A5                     i1l10531:	
  8464                           
  8465                           ; Switch size 1, requested type "space"
  8466                           ; Number of cases is 10, Range of values is 48 to 57
  8467                           ; switch strategies available:
  8468                           ; Name         Instructions Cycles
  8469                           ; direct_byte           29     9 (fixed)
  8470                           ; simple_byte           31    16 (average)
  8471                           ; jumptable            263     9 (fixed)
  8472                           ;	Chosen strategy is direct_byte
  8473  06A5  085B               	movf	_FAN_SPEED3_10s^(0+128),w
  8474  06A6  3ED0               	addlw	-48
  8475  06A7  1C03               	skipc
  8476  06A8  2EB2               	goto	i1l559
  8477  06A9  0084               	movwf	4
  8478  06AA  300A               	movlw	10
  8479  06AB  0204               	subwf	4,w
  8480  06AC  1803               	skipnc
  8481  06AD  2EB2               	goto	i1l559
  8482  06AE  318A               	movlp	high i1S10533
  8483  06AF  3504               	lslf	4,w
  8484  06B0  3EA0               	addlw	low i1S10533
  8485  06B1  0082               	movwf	2
  8486  06B2                     i1l559:	
  8487                           
  8488                           ;final_3_dimer.c: 1056: }
  8489                           ;final_3_dimer.c: 1057: PIR4bits.CCP9IF = 0;
  8490  06B2  0020               	movlb	0	; select bank0
  8491  06B3  1314               	bcf	20,6	;volatile
  8492  06B4                     i1l703:	
  8493  06B4  0871               	movf	??_isr+1,w
  8494  06B5  00FF               	movwf	127
  8495  06B6  107E               	bcf	126,0	;clear compiler interrupt flag (level 1)
  8496  06B7  0009               	retfie
  8497  06B8                     __end_of_isr:	
  8498  007E                     btemp	set	126	;btemp
  8499  007E                     int$flags	set	126
  8500  007E                     wtemp0	set	126
  8501                           
  8502                           	psect	swtext1
  8503  0800                     __pswtext1:	
  8504  0800                     i1S10405:	
  8505  0800  3180  28B2         	ljmp	i1l5263
  8506  0802  3180  28B4         	ljmp	i1l5267
  8507  0804  3180  28B6         	ljmp	i1l5271
  8508  0806  3180  28BA         	ljmp	i1l5275
  8509  0808  3180  28BE         	ljmp	i1l5279
  8510  080A  3180  28C0         	ljmp	i1l5283
  8511  080C  3180  28C2         	ljmp	i1l5287
  8512  080E  3180  28C4         	ljmp	i1l5293
  8513  0810  3180  28C8         	ljmp	i1l5297
  8514  0812  3180  28C9         	ljmp	i1l5301
  8515                           
  8516                           	psect	swtext2
  8517  0814                     __pswtext2:	
  8518  0814                     i1S10409:	
  8519  0814  3180  28E0         	ljmp	i1l5309
  8520  0816  3180  28E2         	ljmp	i1l5313
  8521  0818  3180  28E6         	ljmp	i1l5317
  8522  081A  3180  28E8         	ljmp	i1l5321
  8523  081C  3180  28EA         	ljmp	i1l5325
  8524  081E  3180  28EC         	ljmp	i1l5329
  8525  0820  3180  28F0         	ljmp	i1l5333
  8526  0822  3180  28F2         	ljmp	i1l5337
  8527  0824  3180  28F6         	ljmp	i1l5341
  8528  0826  3180  28F8         	ljmp	i1l5345
  8529                           
  8530                           	psect	swtext3
  8531  0828                     __pswtext3:	
  8532  0828                     i1S10413:	
  8533  0828  3181  290F         	ljmp	i1l5353
  8534  082A  3181  2911         	ljmp	i1l5357
  8535  082C  3181  2915         	ljmp	i1l5361
  8536  082E  3181  2917         	ljmp	i1l5365
  8537  0830  3181  291B         	ljmp	i1l5369
  8538  0832  3181  291D         	ljmp	i1l5373
  8539  0834  3181  2921         	ljmp	i1l5377
  8540  0836  3181  2923         	ljmp	i1l5381
  8541  0838  3181  2927         	ljmp	i1l5385
  8542  083A  3181  2929         	ljmp	i1l5389
  8543                           
  8544                           	psect	swtext4
  8545  083C                     __pswtext4:	
  8546  083C                     i1S10417:	
  8547  083C  3181  2940         	ljmp	i1l5397
  8548  083E  3181  2942         	ljmp	i1l5401
  8549  0840  3181  2944         	ljmp	i1l5405
  8550  0842  3181  2946         	ljmp	i1l5409
  8551  0844  3181  2948         	ljmp	i1l5413
  8552  0846  3181  294A         	ljmp	i1l5419
  8553  0848  3181  294C         	ljmp	i1l5423
  8554  084A  3181  294E         	ljmp	i1l5427
  8555  084C  3181  2950         	ljmp	i1l5431
  8556  084E  3181  2952         	ljmp	i1l5435
  8557                           
  8558                           	psect	swtext5
  8559  0850                     __pswtext5:	
  8560  0850                     i1S10421:	
  8561  0850  3181  2967         	ljmp	i1l5443
  8562  0852  3181  2969         	ljmp	i1l5447
  8563  0854  3181  296B         	ljmp	i1l5451
  8564  0856  3181  296D         	ljmp	i1l5455
  8565  0858  3181  296F         	ljmp	i1l5459
  8566  085A  3181  2971         	ljmp	i1l5463
  8567  085C  3181  2973         	ljmp	i1l5467
  8568  085E  3181  2975         	ljmp	i1l5471
  8569  0860  3181  2977         	ljmp	i1l5475
  8570  0862  3181  2979         	ljmp	i1l5479
  8571                           
  8572                           	psect	swtext6
  8573  0864                     __pswtext6:	
  8574  0864                     i1S10425:	
  8575  0864  3181  298E         	ljmp	i1l5487
  8576  0866  3181  2990         	ljmp	i1l5493
  8577  0868  3181  2992         	ljmp	i1l5497
  8578  086A  3181  2994         	ljmp	i1l5501
  8579  086C  3181  2996         	ljmp	i1l5505
  8580  086E  3181  2998         	ljmp	i1l5509
  8581  0870  3181  299A         	ljmp	i1l5513
  8582  0872  3181  299C         	ljmp	i1l5517
  8583  0874  3181  299E         	ljmp	i1l5521
  8584  0876  3181  29A0         	ljmp	i1l5525
  8585                           
  8586                           	psect	swtext7
  8587  0878                     __pswtext7:	
  8588  0878                     i1S10429:	
  8589  0878  3181  29B5         	ljmp	i1l5533
  8590  087A  3181  29B7         	ljmp	i1l5537
  8591  087C  3181  29B9         	ljmp	i1l5541
  8592  087E  3181  29BB         	ljmp	i1l5545
  8593  0880  3181  29BD         	ljmp	i1l5549
  8594  0882  3181  29BF         	ljmp	i1l5553
  8595  0884  3181  29C1         	ljmp	i1l5557
  8596  0886  3181  29C3         	ljmp	i1l5563
  8597  0888  3181  29C5         	ljmp	i1l5567
  8598  088A  3181  29C7         	ljmp	i1l5571
  8599                           
  8600                           	psect	swtext8
  8601  088C                     __pswtext8:	
  8602  088C                     i1S10433:	
  8603  088C  3181  29DC         	ljmp	i1l5579
  8604  088E  3181  29DE         	ljmp	i1l5583
  8605  0890  3181  29E0         	ljmp	i1l5587
  8606  0892  3181  29E2         	ljmp	i1l5591
  8607  0894  3181  29E4         	ljmp	i1l5595
  8608  0896  3181  29E6         	ljmp	i1l5599
  8609  0898  3181  29E8         	ljmp	i1l5603
  8610  089A  3181  29EA         	ljmp	i1l5607
  8611  089C  3181  29EC         	ljmp	i1l5611
  8612  089E  3181  29EE         	ljmp	i1l5615
  8613                           
  8614                           	psect	swtext9
  8615  08A0                     __pswtext9:	
  8616  08A0                     i1S10437:	
  8617  08A0  3182  2A03         	ljmp	i1l5623
  8618  08A2  3182  2A05         	ljmp	i1l5627
  8619  08A4  3182  2A09         	ljmp	i1l5631
  8620  08A6  3182  2A0D         	ljmp	i1l5635
  8621  08A8  3182  2A11         	ljmp	i1l5639
  8622  08AA  3182  2A15         	ljmp	i1l5645
  8623  08AC  3182  2A19         	ljmp	i1l5649
  8624  08AE  3182  2A1D         	ljmp	i1l5653
  8625  08B0  3182  2A21         	ljmp	i1l5657
  8626  08B2  3182  2A25         	ljmp	i1l5661
  8627                           
  8628                           	psect	swtext10
  8629  08B4                     __pswtext10:	
  8630  08B4                     i1S10441:	
  8631  08B4  3182  2A3C         	ljmp	i1l5669
  8632  08B6  3182  2A40         	ljmp	i1l5673
  8633  08B8  3182  2A44         	ljmp	i1l5677
  8634  08BA  3182  2A48         	ljmp	i1l5681
  8635  08BC  3182  2A4C         	ljmp	i1l5685
  8636  08BE  3182  2A50         	ljmp	i1l5689
  8637  08C0  3182  2A54         	ljmp	i1l5693
  8638  08C2  3182  2A58         	ljmp	i1l5697
  8639  08C4  3182  2A5C         	ljmp	i1l5701
  8640  08C6  3182  2A60         	ljmp	i1l5705
  8641                           
  8642                           	psect	swtext11
  8643  08C8                     __pswtext11:	
  8644  08C8                     i1S10445:	
  8645  08C8  3180  28CD         	ljmp	i1l5307
  8646  08CA  3180  28FC         	ljmp	i1l5351
  8647  08CC  3181  292D         	ljmp	i1l5395
  8648  08CE  3181  2954         	ljmp	i1l5441
  8649  08D0  3181  297B         	ljmp	i1l5485
  8650  08D2  3181  29A2         	ljmp	i1l5531
  8651  08D4  3181  29C9         	ljmp	i1l5577
  8652  08D6  3181  29F0         	ljmp	i1l5621
  8653  08D8  3182  2A29         	ljmp	i1l5667
  8654  08DA  3182  2A66         	ljmp	i1l5711
  8655                           
  8656                           	psect	swtext12
  8657  08DC                     __pswtext12:	
  8658  08DC                     i1S10449:	
  8659  08DC  3182  2A9B         	ljmp	i1l5725
  8660  08DE  3182  2A9D         	ljmp	i1l5729
  8661  08E0  3182  2A9F         	ljmp	i1l5733
  8662  08E2  3182  2AA4         	ljmp	i1l5737
  8663  08E4  3182  2AA9         	ljmp	i1l5741
  8664  08E6  3182  2AAB         	ljmp	i1l5745
  8665  08E8  3182  2AAD         	ljmp	i1l5749
  8666  08EA  3182  2AAF         	ljmp	i1l5755
  8667  08EC  3182  2AB4         	ljmp	i1l5759
  8668  08EE  3182  2AB5         	ljmp	i1l5763
  8669                           
  8670                           	psect	swtext13
  8671  0900                     __pswtext13:	
  8672  0900                     i1S10453:	
  8673  0900  3182  2ACE         	ljmp	i1l5771
  8674  0902  3182  2AD0         	ljmp	i1l5775
  8675  0904  3182  2AD5         	ljmp	i1l5779
  8676  0906  3182  2AD7         	ljmp	i1l5783
  8677  0908  3182  2AD9         	ljmp	i1l5787
  8678  090A  3182  2ADB         	ljmp	i1l5791
  8679  090C  3182  2AE0         	ljmp	i1l5795
  8680  090E  3182  2AE2         	ljmp	i1l5799
  8681  0910  3182  2AE7         	ljmp	i1l5803
  8682  0912  3182  2AE9         	ljmp	i1l5807
  8683                           
  8684                           	psect	swtext14
  8685  0914                     __pswtext14:	
  8686  0914                     i1S10457:	
  8687  0914  3183  2B02         	ljmp	i1l5815
  8688  0916  3183  2B04         	ljmp	i1l5819
  8689  0918  3183  2B09         	ljmp	i1l5823
  8690  091A  3183  2B0B         	ljmp	i1l5827
  8691  091C  3183  2B10         	ljmp	i1l5831
  8692  091E  3183  2B12         	ljmp	i1l5835
  8693  0920  3183  2B17         	ljmp	i1l5839
  8694  0922  3183  2B19         	ljmp	i1l5843
  8695  0924  3183  2B1E         	ljmp	i1l5847
  8696  0926  3183  2B20         	ljmp	i1l5851
  8697                           
  8698                           	psect	swtext15
  8699  0928                     __pswtext15:	
  8700  0928                     i1S10461:	
  8701  0928  3183  2B39         	ljmp	i1l5859
  8702  092A  3183  2B3B         	ljmp	i1l5863
  8703  092C  3183  2B3D         	ljmp	i1l5867
  8704  092E  3183  2B3F         	ljmp	i1l5871
  8705  0930  3183  2B41         	ljmp	i1l5875
  8706  0932  3183  2B43         	ljmp	i1l5881
  8707  0934  3183  2B45         	ljmp	i1l5885
  8708  0936  3183  2B47         	ljmp	i1l5889
  8709  0938  3183  2B49         	ljmp	i1l5893
  8710  093A  3183  2B4B         	ljmp	i1l5897
  8711                           
  8712                           	psect	swtext16
  8713  093C                     __pswtext16:	
  8714  093C                     i1S10465:	
  8715  093C  3183  2B61         	ljmp	i1l5905
  8716  093E  3183  2B63         	ljmp	i1l5909
  8717  0940  3183  2B65         	ljmp	i1l5913
  8718  0942  3183  2B67         	ljmp	i1l5917
  8719  0944  3183  2B69         	ljmp	i1l5921
  8720  0946  3183  2B6B         	ljmp	i1l5925
  8721  0948  3183  2B6D         	ljmp	i1l5929
  8722  094A  3183  2B6F         	ljmp	i1l5933
  8723  094C  3183  2B71         	ljmp	i1l5937
  8724  094E  3183  2B73         	ljmp	i1l5941
  8725                           
  8726                           	psect	swtext17
  8727  0950                     __pswtext17:	
  8728  0950                     i1S10469:	
  8729  0950  3183  2B89         	ljmp	i1l5949
  8730  0952  3183  2B8B         	ljmp	i1l5955
  8731  0954  3183  2B8D         	ljmp	i1l5959
  8732  0956  3183  2B8F         	ljmp	i1l5963
  8733  0958  3183  2B91         	ljmp	i1l5967
  8734  095A  3183  2B93         	ljmp	i1l5971
  8735  095C  3183  2B95         	ljmp	i1l5975
  8736  095E  3183  2B97         	ljmp	i1l5979
  8737  0960  3183  2B99         	ljmp	i1l5983
  8738  0962  3183  2B9B         	ljmp	i1l5987
  8739                           
  8740                           	psect	swtext18
  8741  0964                     __pswtext18:	
  8742  0964                     i1S10473:	
  8743  0964  3183  2BB1         	ljmp	i1l5995
  8744  0966  3183  2BB3         	ljmp	i1l5999
  8745  0968  3183  2BB5         	ljmp	i1l6003
  8746  096A  3183  2BB7         	ljmp	i1l6007
  8747  096C  3183  2BB9         	ljmp	i1l6011
  8748  096E  3183  2BBB         	ljmp	i1l6015
  8749  0970  3183  2BBD         	ljmp	i1l6019
  8750  0972  3183  2BBF         	ljmp	i1l6025
  8751  0974  3183  2BC1         	ljmp	i1l6029
  8752  0976  3183  2BC3         	ljmp	i1l6033
  8753                           
  8754                           	psect	swtext19
  8755  0978                     __pswtext19:	
  8756  0978                     i1S10477:	
  8757  0978  3183  2BD9         	ljmp	i1l6041
  8758  097A  3183  2BDB         	ljmp	i1l6045
  8759  097C  3183  2BDD         	ljmp	i1l6049
  8760  097E  3183  2BDF         	ljmp	i1l6053
  8761  0980  3183  2BE1         	ljmp	i1l6057
  8762  0982  3183  2BE3         	ljmp	i1l6061
  8763  0984  3183  2BE5         	ljmp	i1l6065
  8764  0986  3183  2BE7         	ljmp	i1l6069
  8765  0988  3183  2BE9         	ljmp	i1l6073
  8766  098A  3183  2BEB         	ljmp	i1l6077
  8767                           
  8768                           	psect	swtext20
  8769  098C                     __pswtext20:	
  8770  098C                     i1S10481:	
  8771  098C  3184  2C01         	ljmp	i1l6085
  8772  098E  3184  2C03         	ljmp	i1l6089
  8773  0990  3184  2C08         	ljmp	i1l6093
  8774  0992  3184  2C0D         	ljmp	i1l6097
  8775  0994  3184  2C12         	ljmp	i1l6101
  8776  0996  3184  2C17         	ljmp	i1l6107
  8777  0998  3184  2C1C         	ljmp	i1l6111
  8778  099A  3184  2C21         	ljmp	i1l6115
  8779  099C  3184  2C26         	ljmp	i1l6119
  8780  099E  3184  2C2B         	ljmp	i1l6123
  8781                           
  8782                           	psect	swtext21
  8783  09A0                     __pswtext21:	
  8784  09A0                     i1S10485:	
  8785  09A0  3184  2C44         	ljmp	i1l6131
  8786  09A2  3184  2C49         	ljmp	i1l6135
  8787  09A4  3184  2C4E         	ljmp	i1l6139
  8788  09A6  3184  2C53         	ljmp	i1l6143
  8789  09A8  3184  2C58         	ljmp	i1l6147
  8790  09AA  3184  2C5D         	ljmp	i1l6151
  8791  09AC  3184  2C62         	ljmp	i1l6155
  8792  09AE  3184  2C67         	ljmp	i1l6159
  8793  09B0  3184  2C6C         	ljmp	i1l6163
  8794  09B2  3184  2C71         	ljmp	i1l6167
  8795                           
  8796                           	psect	swtext22
  8797  09B4                     __pswtext22:	
  8798  09B4                     i1S10489:	
  8799  09B4  3182  2ABA         	ljmp	i1l5769
  8800  09B6  3182  2AEE         	ljmp	i1l5813
  8801  09B8  3183  2B25         	ljmp	i1l5857
  8802  09BA  3183  2B4D         	ljmp	i1l5903
  8803  09BC  3183  2B75         	ljmp	i1l5947
  8804  09BE  3183  2B9D         	ljmp	i1l5993
  8805  09C0  3183  2BC5         	ljmp	i1l6039
  8806  09C2  3183  2BED         	ljmp	i1l6083
  8807  09C4  3184  2C30         	ljmp	i1l6129
  8808  09C6  3184  2C78         	ljmp	i1l6173
  8809                           
  8810                           	psect	swtext23
  8811  09C8                     __pswtext23:	
  8812  09C8                     i1S10493:	
  8813  09C8  3184  2CAE         	ljmp	i1l6187
  8814  09CA  3184  2CB0         	ljmp	i1l6191
  8815  09CC  3184  2CB2         	ljmp	i1l6195
  8816  09CE  3184  2CB7         	ljmp	i1l6199
  8817  09D0  3184  2CBC         	ljmp	i1l6203
  8818  09D2  3184  2CBE         	ljmp	i1l6207
  8819  09D4  3184  2CC0         	ljmp	i1l6211
  8820  09D6  3184  2CC2         	ljmp	i1l6217
  8821  09D8  3184  2CC7         	ljmp	i1l6221
  8822  09DA  3184  2CC8         	ljmp	i1l6225
  8823                           
  8824                           	psect	swtext24
  8825  09DC                     __pswtext24:	
  8826  09DC                     i1S10497:	
  8827  09DC  3184  2CE1         	ljmp	i1l6233
  8828  09DE  3184  2CE3         	ljmp	i1l6237
  8829  09E0  3184  2CE8         	ljmp	i1l6241
  8830  09E2  3184  2CEA         	ljmp	i1l6245
  8831  09E4  3184  2CEC         	ljmp	i1l6249
  8832  09E6  3184  2CEE         	ljmp	i1l6253
  8833  09E8  3184  2CF3         	ljmp	i1l6257
  8834  09EA  3184  2CF5         	ljmp	i1l6261
  8835  09EC  3184  2CFA         	ljmp	i1l6265
  8836  09EE  3184  2CFC         	ljmp	i1l6269
  8837                           
  8838                           	psect	swtext25
  8839  0A00                     __pswtext25:	
  8840  0A00                     i1S10501:	
  8841  0A00  3185  2D15         	ljmp	i1l6277
  8842  0A02  3185  2D17         	ljmp	i1l6281
  8843  0A04  3185  2D1C         	ljmp	i1l6285
  8844  0A06  3185  2D1E         	ljmp	i1l6289
  8845  0A08  3185  2D23         	ljmp	i1l6293
  8846  0A0A  3185  2D25         	ljmp	i1l6297
  8847  0A0C  3185  2D2A         	ljmp	i1l6301
  8848  0A0E  3185  2D2C         	ljmp	i1l6305
  8849  0A10  3185  2D31         	ljmp	i1l6309
  8850  0A12  3185  2D33         	ljmp	i1l6313
  8851                           
  8852                           	psect	swtext26
  8853  0A14                     __pswtext26:	
  8854  0A14                     i1S10505:	
  8855  0A14  3185  2D4C         	ljmp	i1l6321
  8856  0A16  3185  2D4E         	ljmp	i1l6325
  8857  0A18  3185  2D50         	ljmp	i1l6329
  8858  0A1A  3185  2D52         	ljmp	i1l6333
  8859  0A1C  3185  2D54         	ljmp	i1l6337
  8860  0A1E  3185  2D56         	ljmp	i1l6343
  8861  0A20  3185  2D58         	ljmp	i1l6347
  8862  0A22  3185  2D5A         	ljmp	i1l6351
  8863  0A24  3185  2D5C         	ljmp	i1l6355
  8864  0A26  3185  2D5E         	ljmp	i1l6359
  8865                           
  8866                           	psect	swtext27
  8867  0A28                     __pswtext27:	
  8868  0A28                     i1S10509:	
  8869  0A28  3185  2D74         	ljmp	i1l6367
  8870  0A2A  3185  2D76         	ljmp	i1l6371
  8871  0A2C  3185  2D78         	ljmp	i1l6375
  8872  0A2E  3185  2D7A         	ljmp	i1l6379
  8873  0A30  3185  2D7C         	ljmp	i1l6383
  8874  0A32  3185  2D7E         	ljmp	i1l6387
  8875  0A34  3185  2D80         	ljmp	i1l6391
  8876  0A36  3185  2D82         	ljmp	i1l6395
  8877  0A38  3185  2D84         	ljmp	i1l6399
  8878  0A3A  3185  2D86         	ljmp	i1l6403
  8879                           
  8880                           	psect	swtext28
  8881  0A3C                     __pswtext28:	
  8882  0A3C                     i1S10513:	
  8883  0A3C  3185  2D9C         	ljmp	i1l6411
  8884  0A3E  3185  2D9E         	ljmp	i1l6417
  8885  0A40  3185  2DA0         	ljmp	i1l6421
  8886  0A42  3185  2DA2         	ljmp	i1l6425
  8887  0A44  3185  2DA4         	ljmp	i1l6429
  8888  0A46  3185  2DA6         	ljmp	i1l6433
  8889  0A48  3185  2DA8         	ljmp	i1l6437
  8890  0A4A  3185  2DAA         	ljmp	i1l6441
  8891  0A4C  3185  2DAC         	ljmp	i1l6445
  8892  0A4E  3185  2DAE         	ljmp	i1l6449
  8893                           
  8894                           	psect	swtext29
  8895  0A50                     __pswtext29:	
  8896  0A50                     i1S10517:	
  8897  0A50  3185  2DC4         	ljmp	i1l6457
  8898  0A52  3185  2DC6         	ljmp	i1l6461
  8899  0A54  3185  2DC8         	ljmp	i1l6465
  8900  0A56  3185  2DCA         	ljmp	i1l6469
  8901  0A58  3185  2DCC         	ljmp	i1l6473
  8902  0A5A  3185  2DCE         	ljmp	i1l6477
  8903  0A5C  3185  2DD0         	ljmp	i1l6481
  8904  0A5E  3185  2DD2         	ljmp	i1l6487
  8905  0A60  3185  2DD4         	ljmp	i1l6491
  8906  0A62  3185  2DD6         	ljmp	i1l6495
  8907                           
  8908                           	psect	swtext30
  8909  0A64                     __pswtext30:	
  8910  0A64                     i1S10521:	
  8911  0A64  3185  2DEC         	ljmp	i1l6503
  8912  0A66  3185  2DEE         	ljmp	i1l6507
  8913  0A68  3185  2DF0         	ljmp	i1l6511
  8914  0A6A  3185  2DF2         	ljmp	i1l6515
  8915  0A6C  3185  2DF4         	ljmp	i1l6519
  8916  0A6E  3185  2DF6         	ljmp	i1l6523
  8917  0A70  3185  2DF8         	ljmp	i1l6527
  8918  0A72  3185  2DFA         	ljmp	i1l6531
  8919  0A74  3185  2DFC         	ljmp	i1l6535
  8920  0A76  3185  2DFE         	ljmp	i1l6539
  8921                           
  8922                           	psect	swtext31
  8923  0A78                     __pswtext31:	
  8924  0A78                     i1S10525:	
  8925  0A78  3186  2E14         	ljmp	i1l6547
  8926  0A7A  3186  2E16         	ljmp	i1l6551
  8927  0A7C  3186  2E1B         	ljmp	i1l6555
  8928  0A7E  3186  2E20         	ljmp	i1l6559
  8929  0A80  3186  2E25         	ljmp	i1l6563
  8930  0A82  3186  2E2A         	ljmp	i1l6569
  8931  0A84  3186  2E2F         	ljmp	i1l6573
  8932  0A86  3186  2E34         	ljmp	i1l6577
  8933  0A88  3186  2E39         	ljmp	i1l6581
  8934  0A8A  3186  2E3E         	ljmp	i1l6585
  8935                           
  8936                           	psect	swtext32
  8937  0A8C                     __pswtext32:	
  8938  0A8C                     i1S10529:	
  8939  0A8C  3186  2E57         	ljmp	i1l6593
  8940  0A8E  3186  2E5C         	ljmp	i1l6597
  8941  0A90  3186  2E61         	ljmp	i1l6601
  8942  0A92  3186  2E66         	ljmp	i1l6605
  8943  0A94  3186  2E6B         	ljmp	i1l6609
  8944  0A96  3186  2E70         	ljmp	i1l6613
  8945  0A98  3186  2E75         	ljmp	i1l6617
  8946  0A9A  3186  2E7A         	ljmp	i1l6621
  8947  0A9C  3186  2E7F         	ljmp	i1l6625
  8948  0A9E  3186  2E84         	ljmp	i1l6629
  8949                           
  8950                           	psect	swtext33
  8951  0AA0                     __pswtext33:	
  8952  0AA0                     i1S10533:	
  8953  0AA0  3184  2CCD         	ljmp	i1l6231
  8954  0AA2  3185  2D01         	ljmp	i1l6275
  8955  0AA4  3185  2D38         	ljmp	i1l6319
  8956  0AA6  3185  2D60         	ljmp	i1l6365
  8957  0AA8  3185  2D88         	ljmp	i1l6409
  8958  0AAA  3185  2DB0         	ljmp	i1l6455
  8959  0AAC  3185  2DD8         	ljmp	i1l6501
  8960  0AAE  3186  2E00         	ljmp	i1l6545
  8961  0AB0  3186  2E43         	ljmp	i1l6591
  8962  0AB2  3186  2E8B         	ljmp	i1l6635


Data Sizes:
    Strings     0
    Constant    0
    Data        105
    BSS         43
    Persistent  0
    Stack       0

Auto Spaces:
    Space          Size  Autos    Used
    COMMON           14     10      12
    BANK0            80     37      66
    BANK1            80     16      61
    BANK2            80      0      72
    BANK3            80      0       0
    BANK4            80      0       0
    BANK5            80      0       0
    BANK6            80      0       0
    BANK7            80      0       0
    BANK8            80      0       0
    BANK9            32      0       0

Pointer List with Targets:

    atoi@s	PTR const unsigned char  size(1) Largest target is 2
		 -> ACTION@FanSpeedString(BANK0[2]), ACTION@SwNumString(BANK0[2]), 

    writeUART@str2Write	PTR unsigned char  size(1) Largest target is 26
		 -> st(BANK1[26]), 


Critical Paths under _main in COMMON

    _ACTION->_atoi
    _atoi->___wmul

Critical Paths under _isr in COMMON

    None.

Critical Paths under _main in BANK0

    _main->_ACTION
    _ACTION->_atoi

Critical Paths under _isr in BANK0

    None.

Critical Paths under _main in BANK1

    None.

Critical Paths under _isr in BANK1

    None.

Critical Paths under _main in BANK2

    None.

Critical Paths under _isr in BANK2

    None.

Critical Paths under _main in BANK3

    None.

Critical Paths under _isr in BANK3

    None.

Critical Paths under _main in BANK4

    None.

Critical Paths under _isr in BANK4

    None.

Critical Paths under _main in BANK5

    None.

Critical Paths under _isr in BANK5

    None.

Critical Paths under _main in BANK6

    None.

Critical Paths under _isr in BANK6

    None.

Critical Paths under _main in BANK7

    None.

Critical Paths under _isr in BANK7

    None.

Critical Paths under _main in BANK8

    None.

Critical Paths under _isr in BANK8

    None.

Critical Paths under _main in BANK9

    None.

Critical Paths under _isr in BANK9

    None.

Call Graph Tables:

 ---------------------------------------------------------------------------------
 (Depth) Function   	        Calls       Base Space   Used Autos Params    Refs
 ---------------------------------------------------------------------------------
 (0) _main                                                22    22      0    5006
                                             31 BANK0      6     6      0
                                              0 BANK1     16    16      0
                             _ACTION
                         _copy_frame
                     _periperal_init
                        _pin_manager
                          _writeUART
 ---------------------------------------------------------------------------------
 (1) _pin_manager                                          0     0      0       0
 ---------------------------------------------------------------------------------
 (1) _periperal_init                                       0     0      0       0
                    _CCP1_Initialize
                    _CCP3_Initialize
                    _CCP9_Initialize
                  _EUSART_Initialize
                    _TMR1_Initialize
                    _TMR2_Initialize
                    _TMR3_Initialize
                    _TMR4_Initialize
                    _TMR5_Initialize
                    _TMR6_Initialize
 ---------------------------------------------------------------------------------
 (2) _TMR6_Initialize                                      0     0      0       0
 ---------------------------------------------------------------------------------
 (2) _TMR5_Initialize                                      0     0      0       0
 ---------------------------------------------------------------------------------
 (2) _TMR4_Initialize                                      0     0      0       0
 ---------------------------------------------------------------------------------
 (2) _TMR3_Initialize                                      0     0      0       0
 ---------------------------------------------------------------------------------
 (2) _TMR2_Initialize                                      0     0      0       0
 ---------------------------------------------------------------------------------
 (2) _TMR1_Initialize                                      0     0      0       0
 ---------------------------------------------------------------------------------
 (2) _EUSART_Initialize                                    0     0      0       0
 ---------------------------------------------------------------------------------
 (2) _CCP9_Initialize                                      0     0      0       0
 ---------------------------------------------------------------------------------
 (2) _CCP3_Initialize                                      0     0      0       0
 ---------------------------------------------------------------------------------
 (2) _CCP1_Initialize                                      0     0      0       0
 ---------------------------------------------------------------------------------
 (1) _copy_frame                                           9     5      4     461
                                              2 COMMON     5     1      4
                                              0 BANK0      4     4      0
 ---------------------------------------------------------------------------------
 (1) _ACTION                                              25    19      6    3435
                                              6 BANK0     25    19      6
                               _atoi
                          _writeUART
 ---------------------------------------------------------------------------------
 (1) _writeUART                                            4     4      0     281
                                              2 COMMON     4     4      0
 ---------------------------------------------------------------------------------
 (2) _atoi                                                 8     6      2     759
                                              8 COMMON     2     0      2
                                              0 BANK0      6     6      0
                             ___wmul
                            _isdigit
 ---------------------------------------------------------------------------------
 (3) _isdigit                                              2     2      0      99
                                              2 COMMON     2     2      0
 ---------------------------------------------------------------------------------
 (3) ___wmul                                               6     2      4     266
                                              2 COMMON     6     2      4
 ---------------------------------------------------------------------------------
 Estimated maximum stack depth 3
 ---------------------------------------------------------------------------------
 (Depth) Function   	        Calls       Base Space   Used Autos Params    Refs
 ---------------------------------------------------------------------------------
 (4) _isr                                                  2     2      0       0
                                              0 COMMON     2     2      0
 ---------------------------------------------------------------------------------
 Estimated maximum stack depth 4
 ---------------------------------------------------------------------------------

 Call Graph Graphs:

 _main (ROOT)
   _ACTION
     _atoi
       ___wmul
       _isdigit
     _writeUART
   _copy_frame
   _periperal_init
     _CCP1_Initialize
     _CCP3_Initialize
     _CCP9_Initialize
     _EUSART_Initialize
     _TMR1_Initialize
     _TMR2_Initialize
     _TMR3_Initialize
     _TMR4_Initialize
     _TMR5_Initialize
     _TMR6_Initialize
   _pin_manager
   _writeUART

 _isr (ROOT)

 Address spaces:
Name               Size   Autos  Total    Cost      Usage
BIGRAM             2F0      0       0       0        0.0%
NULL                 0      0       0       0        0.0%
CODE                 0      0       0       0        0.0%
BITCOMMON            E      0       0       1        0.0%
BITSFR0              0      0       0       1        0.0%
SFR0                 0      0       0       1        0.0%
COMMON               E      A       C       2       85.7%
BITSFR1              0      0       0       2        0.0%
SFR1                 0      0       0       2        0.0%
BITSFR2              0      0       0       3        0.0%
SFR2                 0      0       0       3        0.0%
STACK                0      0       0       3        0.0%
BITSFR3              0      0       0       4        0.0%
SFR3                 0      0       0       4        0.0%
ABS                  0      0      D3       4        0.0%
BITBANK0            50      0       0       5        0.0%
BITSFR4              0      0       0       5        0.0%
SFR4                 0      0       0       5        0.0%
BANK0               50     25      42       6       82.5%
BITSFR5              0      0       0       6        0.0%
SFR5                 0      0       0       6        0.0%
BITBANK1            50      0       0       7        0.0%
BITSFR6              0      0       0       7        0.0%
SFR6                 0      0       0       7        0.0%
BANK1               50     10      3D       8       76.3%
BITSFR7              0      0       0       8        0.0%
SFR7                 0      0       0       8        0.0%
BITBANK2            50      0       0       9        0.0%
BITSFR8              0      0       0       9        0.0%
SFR8                 0      0       0       9        0.0%
BANK2               50      0      48      10       90.0%
BITSFR9              0      0       0      10        0.0%
SFR9                 0      0       0      10        0.0%
BITBANK3            50      0       0      11        0.0%
BITSFR10             0      0       0      11        0.0%
SFR10                0      0       0      11        0.0%
BANK3               50      0       0      12        0.0%
BITSFR11             0      0       0      12        0.0%
SFR11                0      0       0      12        0.0%
BITBANK4            50      0       0      13        0.0%
BITSFR12             0      0       0      13        0.0%
SFR12                0      0       0      13        0.0%
BANK4               50      0       0      14        0.0%
BITSFR13             0      0       0      14        0.0%
SFR13                0      0       0      14        0.0%
BITBANK5            50      0       0      15        0.0%
BITSFR14             0      0       0      15        0.0%
SFR14                0      0       0      15        0.0%
BANK5               50      0       0      16        0.0%
BITSFR15             0      0       0      16        0.0%
SFR15                0      0       0      16        0.0%
BITBANK6            50      0       0      17        0.0%
BITSFR16             0      0       0      17        0.0%
SFR16                0      0       0      17        0.0%
BANK6               50      0       0      18        0.0%
BITSFR17             0      0       0      18        0.0%
SFR17                0      0       0      18        0.0%
BITBANK7            50      0       0      19        0.0%
BITSFR18             0      0       0      19        0.0%
SFR18                0      0       0      19        0.0%
BANK7               50      0       0      20        0.0%
BITSFR19             0      0       0      20        0.0%
SFR19                0      0       0      20        0.0%
BITBANK8            50      0       0      21        0.0%
BITSFR20             0      0       0      21        0.0%
SFR20                0      0       0      21        0.0%
BANK8               50      0       0      22        0.0%
BITSFR21             0      0       0      22        0.0%
SFR21                0      0       0      22        0.0%
BITBANK9            20      0       0      23        0.0%
BITSFR22             0      0       0      23        0.0%
SFR22                0      0       0      23        0.0%
BANK9               20      0       0      24        0.0%
BITSFR23             0      0       0      24        0.0%
SFR23                0      0       0      24        0.0%
BITSFR24             0      0       0      25        0.0%
SFR24                0      0       0      25        0.0%
DATA                 0      0      D3      25        0.0%
BITSFR25             0      0       0      26        0.0%
SFR25                0      0       0      26        0.0%
BITSFR26             0      0       0      27        0.0%
SFR26                0      0       0      27        0.0%
BITSFR27             0      0       0      28        0.0%
SFR27                0      0       0      28        0.0%
BITSFR28             0      0       0      29        0.0%
SFR28                0      0       0      29        0.0%
BITSFR29             0      0       0      30        0.0%
SFR29                0      0       0      30        0.0%
BITSFR30             0      0       0      31        0.0%
SFR30                0      0       0      31        0.0%
BITSFR31             0      0       0      32        0.0%
SFR31                0      0       0      32        0.0%


Microchip Technology PIC Macro Assembler V1.45 build -152302408 
Symbol Table                                                                                   Wed Jul 25 13:13:48 2018

   __size_of_periperal_init 001E                           _i 005B                           pc 0002  
               __CFG_CP$OFF 0000                          _M1 0049                          _M2 0047  
                        _M3 0045                          _M4 00D1                          _M5 00CF  
                        _ak 0057                          _pk 0059                          _tk 0055  
                        _st 00A5         ___wmul@multiplicand 0074     __end_of_CCP1_Initialize 0ACE  
                       l815 0B60                         l762 0CBE                         l746 07AB  
                       l757 0C83                         l774 0B47                         l766 0D01  
                       l769 0D1A                         _GIE 005F                         _RA2 0062  
                       _RA3 0063                         _RF0 1460                         _RF1 1461  
                       _RF3 1463                         _RE5 0085                         _RF5 1465  
                       _RF7 1467                         _PR2 001B                         _PR4 0416  
                       _PR6 041D                         _man 0060                         _isr 0004  
           _TMR2_Initialize 0AED                __CFG_BORV$LO 0000                         wreg 0009  
              __CFG_FOSC$HS 0000                __CFG_LVP$OFF 0000                        l9001 0F5B  
                      l9021 0F91                        l9041 0FC9                        l9017 0F8B  
                      ?_isr 0070                        l9037 0FC1                        l8513 0AC0  
                      l9057 0FF9                        l8631 06FD                        l8623 0B42  
                      l8711 07D8                        l8801 0CE0                        l8627 06F8  
                      l8493 0B5A                        l8645 071A                        l8629 06F1  
                      l8655 0755                        l8647 071E                        l8639 0713  
                      l8649 0745                        l8761 0C49                        l8809 0D09  
                      l8921 0E4B                        l8771 0C66                        l8763 0C4D  
                      l8907 0E0E                        l8909 0E14                        l8941 0EB5  
                      l8791 0CC6                        l8783 0C9E                        l8935 0E7A  
                      l8927 0E69                        l8855 0D62                        l8785 0CA1  
                      l8777 0C88                        l8769 0C63                        l8961 0EED  
                      l8881 0DAF                        l8929 0E6C                        l8981 0F23  
                      l8957 0EE5                        l8977 0F1D                        l8889 0DCB  
                      l8899 0DEC                        l8997 0F53                        u2205 0B61  
                      u2215 0B66                        u2410 0C9C                        u2335 07B5  
                      u2450 0CDD                        u2370 0C61                        u2535 0D8C  
                      u2675 0E49                        _PEIE 005E                        u2685 0E67  
                      _RCIF 008D                        u2957 0D21                        u2967 0E18  
                      u2977 0E24                        u2987 0E30                        _TMR2 001A  
                      _TMR4 0415                        _TMR6 041C                        _WPUE 0210  
                      _WPUG 048D                __CFG_WRT$OFF 0000           ACTION@SwNumString 0037  
                      _atoi 06EF           writeUART@Tx_count 0073                        _main 0D1B  
                      _copy 0120                        _name 0144                        fsr0h 0005  
                      fsr1h 0007                        indf0 0000                        fsr0l 0004  
                      indf1 0001                        fsr1l 0006                        btemp 007E  
                      start 06B8               __CFG_IESO$OFF 0000             _TMR3_Initialize 0AE3  
                     ??_isr 0070                main@end_flag 00C9                       l10401 0D0F  
                     ?_atoi 0078     __end_of_CCP3_Initialize 0B0B                       ?_main 0070  
             __CFG_WDTE$OFF 0000                       _T1CON 0018                       _T2CON 001C  
                     _T3CON 0413                       _T4CON 0417                       _T5CON 041A  
                     _T6CON 041E                       i1l241 0010                       i1l250 004A  
                     i1l244 0016                       i1l413 04A0                       i1l261 007A  
                     i1l253 004F                       i1l414 049E                       i1l263 0091  
                     i1l247 0044                       i1l256 0055                       i1l267 00A4  
                     i1l259 0064                       i1l268 028D                       i1l269 028B  
                     i1l703 06B4                       i1l559 06B2                       _TMR1H 0017  
                     _TMR3H 0412                       _TMR1L 0016                       _TMR3L 0411  
                     _TMR5H 0419                       _TMR5L 0418             _TMR4_Initialize 0B14  
            __CFG_FCMEN$OFF 0000             __end_of_isdigit 0AC2                       atoi@a 0023  
                     atoi@s 0025                       main@k 00CD                 copy_frame@k 0022  
   __end_of_TMR1_Initialize 0AD9              __CFG_BOREN$OFF 0000                       status 0003  
                     wtemp0 007E             _TMR5_Initialize 0AD9              __CFG_MCLRE$OFF 0000  
           __initialization 06BA                __end_of_atoi 075A                __end_of_main 1000  
   __end_of_TMR2_Initialize 0AF7              __CFG_LPBOR$OFF 0000                      ??_atoi 0020  
                    ??_main 003F            ?_CCP1_Initialize 0070                ?_pin_manager 0070  
           _TMR6_Initialize 0B0B             ACTION@sw_status 0027             _CCP9_Initialize 0AF7  
                    _ACTION 0BB0                      _CCPR1H 0292                      _CCPR3H 0312  
                    _CCPR1L 0291                      _CCPR3L 0311                      _CCPR9H 061B  
                    _CCPR9L 061A          ACTION@speed_bitLow 0029                      _ANSELA 018C  
                    _ANSELE 0190                      _ANSELF 040C                      _ANSELG 040D  
                    _T1GCON 0019                      _T3GCON 0414                      _T5GCON 041B  
                    _RC1REG 0199                      _RC1STA 019D                      i1l6011 03B9  
                    i1l6003 03B5                      i1l5203 005B     __end_of_TMR3_Initialize 0AED  
                    i1l6101 0412                      i1l5301 00C9                      i1l6111 041C  
                    i1l6015 03BB                      i1l6007 03B7                      i1l6041 03D9  
                    i1l6033 03C3                      i1l6025 03BF                      i1l5401 0142  
                    i1l5321 00E8                      i1l5313 00E2                      i1l5233 0087  
                    i1l5217 0070                      i1l6211 04C0                      i1l6203 04BC  
                    i1l6131 0444                      i1l6123 042B                      i1l6115 0421  
                    i1l6107 0417                      i1l6019 03BD                      i1l5307 00CD  
                    i1l6301 052A                      i1l6221 04C7                      i1l6061 03E3  
                    i1l6053 03DF                      i1l6045 03DB                      i1l6029 03C1  
                    i1l5501 0194                      i1l5413 0148                      i1l5405 0144  
                    i1l5341 00F6                      i1l5333 00F0                      i1l5325 00EA  
                    i1l5317 00E6                      i1l5309 00E0                      i1l6207 04BE  
                    i1l6231 04CD                      i1l6151 045D                      i1l6143 0453  
                    i1l6135 0449                      i1l6119 0426                      i1l6039 03C5  
                    i1l5431 0150                      i1l5423 014C                      i1l5351 00FC  
                    i1l5271 00B6                      i1l5263 00B2                      i1l5183 0019  
                    i1l6321 054C                      i1l6313 0533                      i1l6305 052C  
                    i1l6241 04E8                      i1l6233 04E1                      i1l6225 04C8  
                    i1l6217 04C2                      i1l6129 0430                      i1l6073 03E9  
                    i1l6065 03E5                      i1l6057 03E1                      i1l6049 03DD  
                    i1l5521 019E                      i1l5513 019A                      i1l5505 0196  
                    i1l5409 0146                      i1l5441 0154                      i1l5361 0115  
                    i1l5353 010F                      i1l5345 00F8                      i1l5337 00F2  
                    i1l5329 00EC                      i1l5249 009E                      i1l6411 059C  
                    i1l6403 0586                      i1l6163 046C                      i1l6155 0462  
                    i1l6147 0458                      i1l6139 044E                      i1l6083 03ED  
                    i1l5611 01EC                      i1l5603 01E8                      i1l5531 01A2  
                    i1l5451 016B                      i1l5443 0167                      i1l5435 0152  
                    i1l5427 014E                      i1l5419 014A                      i1l5283 00C0  
                    i1l5275 00BA                      i1l5267 00B4                      i1l6501 05D8  
                    i1l6421 05A0                      i1l6333 0552                      i1l6325 054E  
                    i1l6309 0531                      i1l6261 04F5                      i1l6253 04EE  
                    i1l6245 04EA                      i1l6237 04E3                      i1l6173 0478  
                    i1l6093 0408                      i1l6085 0401                      i1l6077 03EB  
                    i1l6069 03E7                      i1l5701 025C                      i1l5621 01F0  
                    i1l5541 01B9                      i1l5533 01B5                      i1l5525 01A0  
                    i1l5517 019C                      i1l5509 0198                      i1l5381 0123  
                    i1l5373 011D                      i1l5365 0117                      i1l5357 0111  
                    i1l5293 00C4                      i1l6511 05F0                      i1l6503 05EC  
                    i1l6351 055A                      i1l6343 0556                      i1l6319 0538  
                    i1l6191 04B0                      i1l6167 0471                      i1l6159 0467  
                    i1l5711 0266                      i1l5631 0209                      i1l5623 0203  
                    i1l5615 01EE                      i1l5607 01EA                      i1l5471 0175  
                    i1l5463 0171                      i1l5455 016D                      i1l5447 0169  
                    i1l5287 00C2                      i1l5279 00BE                      i1l6601 0661  
                    i1l6441 05AA                      i1l6433 05A6                      i1l6425 05A2  
                    i1l6417 059E                      i1l6409 0588                      i1l6337 0554  
                    i1l6329 0550                      i1l6281 0517                      i1l6265 04FA  
                    i1l6257 04F3                      i1l6249 04EC                      i1l6169 0476  
                    i1l6097 040D                      i1l6089 0403                      i1l6177 048C  
                    i1l5705 0260                      i1l5553 01BF                      i1l5545 01BB  
                    i1l5537 01B7                      i1l5385 0127                      i1l5377 0121  
                    i1l5369 011B                      i1l5297 00C8                      i1l6531 05FA  
                    i1l6523 05F6                      i1l6515 05F2                      i1l6507 05EE  
                    i1l6371 0576                      i1l6355 055C                      i1l6347 0558  
                    i1l6275 0501                      i1l6195 04B2                      i1l6187 04AE  
                    i1l5803 02E7                      i1l5707 0264                      i1l5635 020D  
                    i1l5627 0205                      i1l5571 01C7                      i1l5563 01C3  
                    i1l5475 0177                      i1l5467 0173                      i1l5459 016F  
                    i1l5395 012D                      i1l5715 0279                      i1l6621 067A  
                    i1l6613 0670                      i1l6605 0666                      i1l6461 05C6  
                    i1l6445 05AC                      i1l6437 05A8                      i1l6429 05A4  
                    i1l6365 0560                      i1l6293 0523                      i1l6285 051C  
                    i1l6277 0515                      i1l6269 04FC                      i1l5813 02EE  
                    i1l5741 02A9                      i1l5733 029F                      i1l5725 029B  
                    i1l5661 0225                      i1l5653 021D                      i1l5645 0215  
                    i1l5557 01C1                      i1l5549 01BD                      i1l5493 0190  
                    i1l5485 017B                      i1l5397 0140                      i1l5389 0129  
                    i1l6631 0689                      i1l6551 0616                      i1l6535 05FC  
                    i1l6527 05F8                      i1l6519 05F4                      i1l6455 05B0  
                    i1l6391 0580                      i1l6383 057C                      i1l6375 0578  
                    i1l6367 0574                      i1l6359 055E                      i1l6199 04B7  
                    i1l5903 034D                      i1l5831 0310                      i1l5823 0309  
                    i1l5815 0302                      i1l5807 02E9                      i1l5639 0211  
                    i1l5591 01E2                      i1l5583 01DE                      i1l5567 01C5  
                    i1l5487 018E                      i1l5479 0179                      i1l6625 067F  
                    i1l6617 0675                      i1l6609 066B                      i1l6545 0600  
                    i1l6481 05D0                      i1l6473 05CC                      i1l6465 05C8  
                    i1l6457 05C4                      i1l6449 05AE                      i1l6297 0525  
                    i1l6289 051E                      i1l5921 0369                      i1l5913 0365  
                    i1l5905 0361                      i1l5745 02AB                      i1l5737 02A4  
                    i1l5729 029D                      i1l5681 0248                      i1l5673 0240  
                    i1l5657 0221                      i1l5649 0219                      i1l5577 01C9  
                    i1l5497 0192                      i1l6635 068B                      i1l6563 0625  
                    i1l6555 061B                      i1l6547 0614                      i1l6539 05FE  
                    i1l6491 05D4                      i1l6395 0582                      i1l6387 057E  
                    i1l6379 057A                      i1l5851 0320                      i1l5843 0319  
                    i1l5835 0312                      i1l5827 030B                      i1l5819 0304  
                    i1l5771 02CE                      i1l5763 02B5                      i1l5755 02AF  
                    i1l5667 0229                      i1l5595 01E4                      i1l5587 01E0  
                    i1l5579 01DC                      i1l6629 0684                      i1l6581 0639  
                    i1l6573 062F                      i1l6477 05CE                      i1l6469 05CA  
                    i1l5941 0373                      i1l5933 036F                      i1l5925 036B  
                    i1l5917 0367                      i1l5909 0363                      i1l5749 02AD  
                    i1l5693 0254                      i1l5685 024C                      i1l5677 0244  
                    i1l5669 023C                      i1l6559 0620                      i1l6591 0643  
                    i1l6495 05D6                      i1l6487 05D2                      i1l6399 0584  
                    i1l6639 069F                      i1l5871 033F                      i1l5863 033B  
                    i1l5847 031E                      i1l5839 0317                      i1l5791 02DB  
                    i1l5783 02D7                      i1l5775 02D0                      i1l5759 02B4  
                    i1l5599 01E6                      i1l6593 0657                      i1l6585 063E  
                    i1l6577 0634                      i1l6569 062A                      i1l5937 0371  
                    i1l5929 036D                      i1l5881 0343                      i1l5857 0325  
                    i1l5769 02BA                      i1l5697 0258                      i1l5689 0250  
                    i1l5971 0393                      i1l5963 038F                      i1l5955 038B  
                    i1l5947 0375                      i1l5875 0341                      i1l5867 033D  
                    i1l5859 0339                      i1l5795 02E0                      i1l5787 02D9  
                    i1l5779 02D5                      i1l6597 065C                      i1l5949 0389  
                    i1l5893 0349                      i1l5885 0345                      i1l5983 0399  
                    i1l5975 0395                      i1l5967 0391                      i1l5959 038D  
                    i1l5799 02E2                      i1l5993 039D                      i1l5897 034B  
                    i1l5889 0347                      i1l5995 03B1                      i1l5987 039B  
                    i1l5979 0397                      u144_25 0037                      i1l5999 03B3  
                    _TX1REG 019A                      _TX1STA 019E              _FAN_SPEED1_10s 0053  
            _FAN_SPEED2_10s 007A              _FAN_SPEED3_10s 00DB              __CFG_PWRTE$OFF 0000  
            _periperal_init 0B73                      ___wmul 0B58      main@RX_CHK_FLAG_start1 00BF  
    main@RX_CHK_FLAG_start2 00C1     __end_of_TMR4_Initialize 0B1D          writeUART@str2Write 0075  
          ?_CCP3_Initialize 0070                copy_frame@sw 0020        ACTION@Switch_Num_10s 0034  
                 ??_isdigit 0072            ?_TMR1_Initialize 0070     __end_of_TMR5_Initialize 0AE3  
   __end_of__initialization 06EB      __end_of_periperal_init 0B91              __pcstackCOMMON 0070  
      ACTION@child_lock_num 0032                __pidataBANK0 07FC                __pidataBANK1 0B91  
              __pidataBANK2 075A            ?_TMR2_Initialize 0070     __end_of_TMR6_Initialize 0B14  
   __end_of_CCP9_Initialize 0B01                     ?_ACTION 0026                  __pbssBANK0 0045  
                __pbssBANK1 00CF            ?_TMR3_Initialize 0070             __CFG_VCAPEN$OFF 0000  
                _child_LOCK 00A0             ?_periperal_init 0070                  __pmaintext 0D1B  
     ACTION@response_starts 003B                     ?___wmul 0072                  __pintentry 0004  
                   i1S10501 0A00                     i1S10421 0850                     i1S10413 0828  
                   i1S10405 0800                     i1S10521 0A64                     i1S10513 0A3C  
                   i1S10505 0A14                     i1S10441 08B4                     i1S10433 088C  
                   i1S10425 0864                     i1S10417 083C                     i1S10409 0814  
                   i1S10533 0AA0                     i1S10525 0A78                     i1S10517 0A50  
                   i1S10509 0A28                     i1S10461 0928                     i1S10453 0900  
                   i1S10445 08C8                     i1S10437 08A0                     i1S10429 0878  
                   _CCP1CON 0293                     i1S10529 0A8C                     i1S10481 098C  
                   i1S10473 0964                     i1S10465 093C                     i1S10457 0914  
                   i1S10449 08DC                     i1S10493 09C8                     i1S10485 09A0  
                   i1S10477 0978                     i1S10469 0950                     i1S10497 09DC  
                   i1S10489 09B4                     _CCP3CON 0313                     _CCP9CON 061C  
       ACTION@speed_bitHigh 0028            ?_TMR4_Initialize 0070                     i1l10411 0132  
                   i1l10403 00D2                     i1l10511 05B6                     i1l10503 0566  
                   i1l10431 01F5                     i1l10423 01A7                     i1l10415 0159  
                   i1l10407 0101                     i1l10531 06A5                     i1l10523 0649  
                   i1l10515 05DE                     i1l10507 058E                     i1l10451 02F4  
                   i1l10443 027E                     i1l10435 022E                     i1l10427 01CE  
                   i1l10419 0180                     i1l10527 0691                     i1l10519 0606  
                   i1l10471 03CB                     i1l10463 037B                     i1l10455 032B  
                   i1l10447 02C0                     i1l10439 026B                     i1l10491 04D3  
                   i1l10483 047E                     i1l10475 03F3                     i1l10467 03A3  
                   i1l10459 0353                     i1l10495 0507                     i1l10487 0491  
                   i1l10479 0436                     i1l10499 053E                     _SP1BRGH 019C  
                   _SP1BRGL 019B        __size_of_pin_manager 0020                  __pswtext10 08B4  
                __pswtext11 08C8                  __pswtext20 098C                  __pswtext12 08DC  
                __pswtext21 09A0                  __pswtext13 0900                  __pswtext30 0A64  
                __pswtext22 09B4                  __pswtext14 0914                  __pswtext31 0A78  
                __pswtext23 09C8                  __pswtext15 0928                  __pswtext32 0A8C  
                __pswtext24 09DC                  __pswtext16 093C                  __pswtext33 0AA0  
                __pswtext25 0A00                  __pswtext17 0950                  __pswtext26 0A14  
                __pswtext18 0964                  __pswtext27 0A28                  __pswtext19 0978  
                __pswtext28 0A3C                  __pswtext29 0A50             __size_of_ACTION 016B  
                   _TX_FLAG 00D9            ?_TMR5_Initialize 0070                  _copy_frame 07A2  
        __size_of_writeUART 0019                ACTION@parent 002A                   _FAN_FLAG1 00D7  
                 _FAN_FLAG2 00D5                   _FAN_FLAG3 00D3             __size_of___wmul 001B  
           __CFG_STVREN$OFF 0000            ?_TMR6_Initialize 0070                     _dimmer1 005F  
                   _dimmer2 005E                     _dimmer3 005D                     __ptext1 07DC  
                   __ptext2 0B73                     __ptext3 0B0B                     __ptext4 0AD9  
                   __ptext5 0B14                     __ptext6 0AE3                     __ptext7 0AED  
                   __ptext8 0ACE                     __ptext9 0B29                   _T1CONbits 0018  
          ?_CCP9_Initialize 0070                   _T2CONbits 001C                     _isdigit 0AB4  
              __size_of_isr 06B4                   _T3CONbits 0413                   _T4CONbits 0417  
                 _COPY_FLAG 004B                   _T5CONbits 041A                   _T6CONbits 041E  
                   clrloop0 0B24        end_of_initialization 06EB               copy_frame@end 0074  
                   init_ram 0B1D                     initloop 0B1E           _EUSART_Initialize 0B29  
            ACTION@FanSpeed 002E          ?_EUSART_Initialize 0070              main@start_flag 00C7  
       ??_EUSART_Initialize 0072           __end_of_writeUART 0B58                   _TRISAbits 008C  
                 _TRISCbits 008E                   _TRISEbits 0090                   _TRISFbits 030C  
                 _TRISGbits 030D    __size_of_CCP1_Initialize 000C              __end_of_ACTION 0D1B  
 __end_of_EUSART_Initialize 0B3F                 ?_copy_frame 0072              ACTION@children 0030  
            __end_of___wmul 0B73        main@RX_CHK_FLAG_end1 00C3        main@RX_CHK_FLAG_end2 00C5  
       start_initialization 06BA                 __end_of_isr 06B8                    ??_ACTION 002C  
  __size_of_CCP3_Initialize 000A            ??_periperal_init 0072               _FAN_SPEED1_1s 0051  
             _FAN_SPEED2_1s 004F               _FAN_SPEED3_1s 004D    __size_of_TMR1_Initialize 000B  
                  ??___wmul 0076                 __pdataBANK0 0060                 __pdataBANK1 00A0  
               __pdataBANK2 0120         ACTION@Switch_Num_1s 0026         __size_of_copy_frame 003A  
               __pbssCOMMON 007A                   ___latbits 0002               __pcstackBANK0 0020  
             __pcstackBANK1 00BF    __size_of_TMR2_Initialize 000A  __size_of_EUSART_Initialize 0016  
         ??_CCP1_Initialize 0072    __size_of_TMR3_Initialize 000A                   __pswtext1 0800  
                 __pswtext2 0814                   __pswtext3 0828                   __pswtext4 083C  
                 __pswtext5 0850                   __pswtext6 0864                   __pswtext7 0878  
                 __pswtext8 088C                   __pswtext9 08A0               ??_pin_manager 0072  
               ACTION@SwNum 0039        ACTION@finalFrameStat 002B                    _BAUD1CON 019F  
                  ?_isdigit 0070    __size_of_TMR4_Initialize 0009        ACTION@FanSpeedString 0035  
            ___wmul@product 0076                   clear_ram0 0B23           ??_CCP3_Initialize 0072  
                  _PIE1bits 0091                    _PIE3bits 0093                    _PIE4bits 0094  
                  _PIR1bits 0011                    _PIR3bits 0013                    _PIR4bits 0014  
  __size_of_TMR5_Initialize 000A           ??_TMR1_Initialize 0072           ___wmul@multiplier 0072  
                 main@k_746 00CB                   _writeUART 0B3F    __size_of_TMR6_Initialize 0009  
       __end_of_pin_manager 07FC    __size_of_CCP9_Initialize 000A                ??_copy_frame 0076  
         ??_TMR2_Initialize 0072             copy_frame@start 0072         ACTION@switch_status 003D  
         ??_TMR3_Initialize 0072                 _isdigit$972 0072          __end_of_copy_frame 07DC  
          __size_of_isdigit 000E                  ?_writeUART 0070                    __ptext10 0AF7  
                  __ptext11 0B01                    __ptext12 0AC2                    __ptext13 07A2  
                  __ptext14 0BB0                    __ptext15 0B3F                    __ptext16 06EF  
                  __ptext17 0AB4                    __ptext18 0B58           ??_TMR4_Initialize 0072  
             __size_of_atoi 006B               __size_of_main 02E5                  _RC1STAbits 019D  
                  int$flags 007E                    atoi@sign 0022           ??_TMR5_Initialize 0072  
               _pin_manager 07DC             _CCP1_Initialize 0AC2                    isdigit@c 0073  
                  intlevel1 0000           ??_TMR6_Initialize 0072           __CFG_CLKOUTEN$OFF 0000  
         ??_CCP9_Initialize 0072                 ??_writeUART 0072             _CCP3_Initialize 0B01  
                _TX1STAbits 019E             _TMR1_Initialize 0ACE  
